ARM GAS  C:\Users\Ya\AppData\Local\Temp\ccV6Z6CV.s 			page 1


   1              		.cpu cortex-m33
   2              		.arch armv8-m.main
   3              		.fpu fpv5-sp-d16
   4              		.arch_extension dsp
   5              		.eabi_attribute 27, 1
   6              		.eabi_attribute 28, 1
   7              		.eabi_attribute 20, 1
   8              		.eabi_attribute 21, 1
   9              		.eabi_attribute 23, 3
  10              		.eabi_attribute 24, 1
  11              		.eabi_attribute 25, 1
  12              		.eabi_attribute 26, 1
  13              		.eabi_attribute 30, 1
  14              		.eabi_attribute 34, 1
  15              		.eabi_attribute 18, 4
  16              		.file	"stm32u5xx_nucleo.c"
  17              		.text
  18              	.Ltext0:
  19              		.cfi_sections	.debug_frame
  20              		.file 1 "Drivers/BSP/STM32U5xx_Nucleo/stm32u5xx_nucleo.c"
  21              		.section	.text.BSP_GetVersion,"ax",%progbits
  22              		.align	1
  23              		.global	BSP_GetVersion
  24              		.syntax unified
  25              		.thumb
  26              		.thumb_func
  28              	BSP_GetVersion:
  29              	.LFB340:
   1:Drivers/BSP/STM32U5xx_Nucleo/stm32u5xx_nucleo.c **** /**
   2:Drivers/BSP/STM32U5xx_Nucleo/stm32u5xx_nucleo.c ****   ******************************************************************************
   3:Drivers/BSP/STM32U5xx_Nucleo/stm32u5xx_nucleo.c ****   * @file    stm32u5xx_nucleo.c
   4:Drivers/BSP/STM32U5xx_Nucleo/stm32u5xx_nucleo.c ****   * @author  MCD Application Team
   5:Drivers/BSP/STM32U5xx_Nucleo/stm32u5xx_nucleo.c ****   * @brief   This file provides set of firmware functions to manage:
   6:Drivers/BSP/STM32U5xx_Nucleo/stm32u5xx_nucleo.c ****   *          - LEDs and push-button available on STM32U5xx-Nucleo Kit
   7:Drivers/BSP/STM32U5xx_Nucleo/stm32u5xx_nucleo.c ****   *            from STMicroelectronics
   8:Drivers/BSP/STM32U5xx_Nucleo/stm32u5xx_nucleo.c ****   ******************************************************************************
   9:Drivers/BSP/STM32U5xx_Nucleo/stm32u5xx_nucleo.c ****   * @attention
  10:Drivers/BSP/STM32U5xx_Nucleo/stm32u5xx_nucleo.c ****   *
  11:Drivers/BSP/STM32U5xx_Nucleo/stm32u5xx_nucleo.c ****   * Copyright (c) 2021 STMicroelectronics.
  12:Drivers/BSP/STM32U5xx_Nucleo/stm32u5xx_nucleo.c ****   * All rights reserved.
  13:Drivers/BSP/STM32U5xx_Nucleo/stm32u5xx_nucleo.c ****   *
  14:Drivers/BSP/STM32U5xx_Nucleo/stm32u5xx_nucleo.c ****   * This software is licensed under terms that can be found in the LICENSE file
  15:Drivers/BSP/STM32U5xx_Nucleo/stm32u5xx_nucleo.c ****   * in the root directory of this software component.
  16:Drivers/BSP/STM32U5xx_Nucleo/stm32u5xx_nucleo.c ****   * If no LICENSE file comes with this software, it is provided AS-IS.
  17:Drivers/BSP/STM32U5xx_Nucleo/stm32u5xx_nucleo.c ****   *
  18:Drivers/BSP/STM32U5xx_Nucleo/stm32u5xx_nucleo.c ****   ******************************************************************************
  19:Drivers/BSP/STM32U5xx_Nucleo/stm32u5xx_nucleo.c ****   */
  20:Drivers/BSP/STM32U5xx_Nucleo/stm32u5xx_nucleo.c **** 
  21:Drivers/BSP/STM32U5xx_Nucleo/stm32u5xx_nucleo.c **** /* Includes ------------------------------------------------------------------*/
  22:Drivers/BSP/STM32U5xx_Nucleo/stm32u5xx_nucleo.c **** #include "stm32u5xx_nucleo.h"
  23:Drivers/BSP/STM32U5xx_Nucleo/stm32u5xx_nucleo.c **** 
  24:Drivers/BSP/STM32U5xx_Nucleo/stm32u5xx_nucleo.c **** /** @addtogroup BSP
  25:Drivers/BSP/STM32U5xx_Nucleo/stm32u5xx_nucleo.c ****   * @{
  26:Drivers/BSP/STM32U5xx_Nucleo/stm32u5xx_nucleo.c ****   */
  27:Drivers/BSP/STM32U5xx_Nucleo/stm32u5xx_nucleo.c **** 
  28:Drivers/BSP/STM32U5xx_Nucleo/stm32u5xx_nucleo.c **** /** @addtogroup STM32U5XX_NUCLEO
  29:Drivers/BSP/STM32U5xx_Nucleo/stm32u5xx_nucleo.c ****   * @{
ARM GAS  C:\Users\Ya\AppData\Local\Temp\ccV6Z6CV.s 			page 2


  30:Drivers/BSP/STM32U5xx_Nucleo/stm32u5xx_nucleo.c ****   */
  31:Drivers/BSP/STM32U5xx_Nucleo/stm32u5xx_nucleo.c **** 
  32:Drivers/BSP/STM32U5xx_Nucleo/stm32u5xx_nucleo.c **** /** @addtogroup STM32U5XX_NUCLEO_LOW_LEVEL
  33:Drivers/BSP/STM32U5xx_Nucleo/stm32u5xx_nucleo.c ****   * @brief This file provides set of firmware functions to manage Leds and push-button
  34:Drivers/BSP/STM32U5xx_Nucleo/stm32u5xx_nucleo.c ****   *        available on STM32U5xx-Nucleo Kit from STMicroelectronics.
  35:Drivers/BSP/STM32U5xx_Nucleo/stm32u5xx_nucleo.c ****   * @{
  36:Drivers/BSP/STM32U5xx_Nucleo/stm32u5xx_nucleo.c ****   */
  37:Drivers/BSP/STM32U5xx_Nucleo/stm32u5xx_nucleo.c **** 
  38:Drivers/BSP/STM32U5xx_Nucleo/stm32u5xx_nucleo.c **** /** @defgroup STM32U5XX_NUCLEO_LOW_LEVEL_Private_Defines LOW LEVEL Private Defines
  39:Drivers/BSP/STM32U5xx_Nucleo/stm32u5xx_nucleo.c ****   * @{
  40:Drivers/BSP/STM32U5xx_Nucleo/stm32u5xx_nucleo.c ****   */
  41:Drivers/BSP/STM32U5xx_Nucleo/stm32u5xx_nucleo.c **** 
  42:Drivers/BSP/STM32U5xx_Nucleo/stm32u5xx_nucleo.c **** /**
  43:Drivers/BSP/STM32U5xx_Nucleo/stm32u5xx_nucleo.c ****   * @}
  44:Drivers/BSP/STM32U5xx_Nucleo/stm32u5xx_nucleo.c ****   */
  45:Drivers/BSP/STM32U5xx_Nucleo/stm32u5xx_nucleo.c **** 
  46:Drivers/BSP/STM32U5xx_Nucleo/stm32u5xx_nucleo.c **** /** @defgroup STM32U5XX_NUCLEO_LOW_LEVEL_Private_TypesDefinitions LOW LEVEL Private Typedef
  47:Drivers/BSP/STM32U5xx_Nucleo/stm32u5xx_nucleo.c ****   * @{
  48:Drivers/BSP/STM32U5xx_Nucleo/stm32u5xx_nucleo.c ****   */
  49:Drivers/BSP/STM32U5xx_Nucleo/stm32u5xx_nucleo.c **** typedef void (* BSP_EXTI_LineCallback)(void);
  50:Drivers/BSP/STM32U5xx_Nucleo/stm32u5xx_nucleo.c **** /**
  51:Drivers/BSP/STM32U5xx_Nucleo/stm32u5xx_nucleo.c ****   * @}
  52:Drivers/BSP/STM32U5xx_Nucleo/stm32u5xx_nucleo.c ****   */
  53:Drivers/BSP/STM32U5xx_Nucleo/stm32u5xx_nucleo.c **** 
  54:Drivers/BSP/STM32U5xx_Nucleo/stm32u5xx_nucleo.c **** /** @defgroup STM32U5XX_NUCLEO_LOW_LEVEL_Exported_Variables LOW LEVEL Exported Variables
  55:Drivers/BSP/STM32U5xx_Nucleo/stm32u5xx_nucleo.c ****   * @{
  56:Drivers/BSP/STM32U5xx_Nucleo/stm32u5xx_nucleo.c ****   */
  57:Drivers/BSP/STM32U5xx_Nucleo/stm32u5xx_nucleo.c **** EXTI_HandleTypeDef hpb_exti[BUTTONn];
  58:Drivers/BSP/STM32U5xx_Nucleo/stm32u5xx_nucleo.c **** #if (USE_BSP_COM_FEATURE > 0)
  59:Drivers/BSP/STM32U5xx_Nucleo/stm32u5xx_nucleo.c **** UART_HandleTypeDef hcom_uart[COMn];
  60:Drivers/BSP/STM32U5xx_Nucleo/stm32u5xx_nucleo.c **** USART_TypeDef *COM_USART[COMn]   = {COM1_UART};
  61:Drivers/BSP/STM32U5xx_Nucleo/stm32u5xx_nucleo.c **** #endif /* USE_BSP_COM_FEATURE */
  62:Drivers/BSP/STM32U5xx_Nucleo/stm32u5xx_nucleo.c **** /**
  63:Drivers/BSP/STM32U5xx_Nucleo/stm32u5xx_nucleo.c ****   * @}
  64:Drivers/BSP/STM32U5xx_Nucleo/stm32u5xx_nucleo.c ****   */
  65:Drivers/BSP/STM32U5xx_Nucleo/stm32u5xx_nucleo.c **** /** @defgroup STM32U5XX_NUCLEO_LOW_LEVEL_Private_Variables LOW LEVEL Private Variables
  66:Drivers/BSP/STM32U5xx_Nucleo/stm32u5xx_nucleo.c ****   * @{
  67:Drivers/BSP/STM32U5xx_Nucleo/stm32u5xx_nucleo.c ****   */
  68:Drivers/BSP/STM32U5xx_Nucleo/stm32u5xx_nucleo.c **** static GPIO_TypeDef *LED_PORT[LEDn] =
  69:Drivers/BSP/STM32U5xx_Nucleo/stm32u5xx_nucleo.c **** {
  70:Drivers/BSP/STM32U5xx_Nucleo/stm32u5xx_nucleo.c **** #if defined (USE_NUCLEO_144)
  71:Drivers/BSP/STM32U5xx_Nucleo/stm32u5xx_nucleo.c ****   LED1_GPIO_PORT,
  72:Drivers/BSP/STM32U5xx_Nucleo/stm32u5xx_nucleo.c **** #endif /* defined (USE_NUCLEO_144) */
  73:Drivers/BSP/STM32U5xx_Nucleo/stm32u5xx_nucleo.c ****   LED2_GPIO_PORT,
  74:Drivers/BSP/STM32U5xx_Nucleo/stm32u5xx_nucleo.c **** #if defined (USE_NUCLEO_144)
  75:Drivers/BSP/STM32U5xx_Nucleo/stm32u5xx_nucleo.c ****   LED3_GPIO_PORT
  76:Drivers/BSP/STM32U5xx_Nucleo/stm32u5xx_nucleo.c **** #endif /* defined (USE_NUCLEO_144) */
  77:Drivers/BSP/STM32U5xx_Nucleo/stm32u5xx_nucleo.c **** };
  78:Drivers/BSP/STM32U5xx_Nucleo/stm32u5xx_nucleo.c **** 
  79:Drivers/BSP/STM32U5xx_Nucleo/stm32u5xx_nucleo.c **** static const uint16_t LED_PIN[LEDn] =
  80:Drivers/BSP/STM32U5xx_Nucleo/stm32u5xx_nucleo.c **** {
  81:Drivers/BSP/STM32U5xx_Nucleo/stm32u5xx_nucleo.c **** #if defined (USE_NUCLEO_144)
  82:Drivers/BSP/STM32U5xx_Nucleo/stm32u5xx_nucleo.c ****   LED1_PIN,
  83:Drivers/BSP/STM32U5xx_Nucleo/stm32u5xx_nucleo.c **** #endif /* defined (USE_NUCLEO_144) */
  84:Drivers/BSP/STM32U5xx_Nucleo/stm32u5xx_nucleo.c ****   LED2_PIN,
  85:Drivers/BSP/STM32U5xx_Nucleo/stm32u5xx_nucleo.c **** #if defined (USE_NUCLEO_144)
  86:Drivers/BSP/STM32U5xx_Nucleo/stm32u5xx_nucleo.c ****   LED3_PIN
ARM GAS  C:\Users\Ya\AppData\Local\Temp\ccV6Z6CV.s 			page 3


  87:Drivers/BSP/STM32U5xx_Nucleo/stm32u5xx_nucleo.c **** #endif /* defined (USE_NUCLEO_144) */
  88:Drivers/BSP/STM32U5xx_Nucleo/stm32u5xx_nucleo.c **** };
  89:Drivers/BSP/STM32U5xx_Nucleo/stm32u5xx_nucleo.c **** 
  90:Drivers/BSP/STM32U5xx_Nucleo/stm32u5xx_nucleo.c **** static GPIO_TypeDef *BUTTON_PORT[BUTTONn]   = {BUTTON_USER_GPIO_PORT};
  91:Drivers/BSP/STM32U5xx_Nucleo/stm32u5xx_nucleo.c **** static const uint16_t BUTTON_PIN[BUTTONn]   = {BUTTON_USER_PIN};
  92:Drivers/BSP/STM32U5xx_Nucleo/stm32u5xx_nucleo.c **** static const IRQn_Type BUTTON_IRQn[BUTTONn] = {BUTTON_USER_EXTI_IRQn};
  93:Drivers/BSP/STM32U5xx_Nucleo/stm32u5xx_nucleo.c **** 
  94:Drivers/BSP/STM32U5xx_Nucleo/stm32u5xx_nucleo.c **** #if (USE_BSP_COM_FEATURE > 0)
  95:Drivers/BSP/STM32U5xx_Nucleo/stm32u5xx_nucleo.c **** #if (USE_COM_LOG > 0)
  96:Drivers/BSP/STM32U5xx_Nucleo/stm32u5xx_nucleo.c **** static COM_TypeDef COM_ActiveLogPort = COM1;
  97:Drivers/BSP/STM32U5xx_Nucleo/stm32u5xx_nucleo.c **** #endif /* USE_COM_LOG */
  98:Drivers/BSP/STM32U5xx_Nucleo/stm32u5xx_nucleo.c **** #if (USE_HAL_UART_REGISTER_CALLBACKS == 1)
  99:Drivers/BSP/STM32U5xx_Nucleo/stm32u5xx_nucleo.c **** static uint32_t IsComMspCbValid[COMn] = {0};
 100:Drivers/BSP/STM32U5xx_Nucleo/stm32u5xx_nucleo.c **** #endif /* (USE_HAL_UART_REGISTER_CALLBACKS == 1) */
 101:Drivers/BSP/STM32U5xx_Nucleo/stm32u5xx_nucleo.c **** #endif /* USE_BSP_COM_FEATURE) */
 102:Drivers/BSP/STM32U5xx_Nucleo/stm32u5xx_nucleo.c **** 
 103:Drivers/BSP/STM32U5xx_Nucleo/stm32u5xx_nucleo.c **** /**
 104:Drivers/BSP/STM32U5xx_Nucleo/stm32u5xx_nucleo.c ****   * @}
 105:Drivers/BSP/STM32U5xx_Nucleo/stm32u5xx_nucleo.c ****   */
 106:Drivers/BSP/STM32U5xx_Nucleo/stm32u5xx_nucleo.c **** 
 107:Drivers/BSP/STM32U5xx_Nucleo/stm32u5xx_nucleo.c **** /** @defgroup STM32U5XX_NUCLEO_LOW_LEVEL_Private_FunctionPrototypes LOW LEVEL Private functions Pro
 108:Drivers/BSP/STM32U5xx_Nucleo/stm32u5xx_nucleo.c ****   * @{
 109:Drivers/BSP/STM32U5xx_Nucleo/stm32u5xx_nucleo.c ****   */
 110:Drivers/BSP/STM32U5xx_Nucleo/stm32u5xx_nucleo.c **** static void BUTTON_USER_EXTI_Callback(void);
 111:Drivers/BSP/STM32U5xx_Nucleo/stm32u5xx_nucleo.c **** #if (USE_BSP_COM_FEATURE > 0)
 112:Drivers/BSP/STM32U5xx_Nucleo/stm32u5xx_nucleo.c **** static void COM1_MspInit(UART_HandleTypeDef *huart);
 113:Drivers/BSP/STM32U5xx_Nucleo/stm32u5xx_nucleo.c **** static void COM1_MspDeInit(UART_HandleTypeDef *huart);
 114:Drivers/BSP/STM32U5xx_Nucleo/stm32u5xx_nucleo.c **** #endif /* USE_BSP_COM_FEATURE */
 115:Drivers/BSP/STM32U5xx_Nucleo/stm32u5xx_nucleo.c **** /**
 116:Drivers/BSP/STM32U5xx_Nucleo/stm32u5xx_nucleo.c ****   * @}
 117:Drivers/BSP/STM32U5xx_Nucleo/stm32u5xx_nucleo.c ****   */
 118:Drivers/BSP/STM32U5xx_Nucleo/stm32u5xx_nucleo.c **** 
 119:Drivers/BSP/STM32U5xx_Nucleo/stm32u5xx_nucleo.c **** /** @defgroup STM32U5XX_NUCLEO_LOW_LEVEL_Exported_Functions LOW LEVEL Exported Functions
 120:Drivers/BSP/STM32U5xx_Nucleo/stm32u5xx_nucleo.c ****   * @{
 121:Drivers/BSP/STM32U5xx_Nucleo/stm32u5xx_nucleo.c ****   */
 122:Drivers/BSP/STM32U5xx_Nucleo/stm32u5xx_nucleo.c **** 
 123:Drivers/BSP/STM32U5xx_Nucleo/stm32u5xx_nucleo.c **** /**
 124:Drivers/BSP/STM32U5xx_Nucleo/stm32u5xx_nucleo.c ****   * @brief  This method returns the STM32U5XX NUCLEO BSP Driver revision
 125:Drivers/BSP/STM32U5xx_Nucleo/stm32u5xx_nucleo.c ****   * @retval version: 0xXYZR (8bits for each decimal, R for RC)
 126:Drivers/BSP/STM32U5xx_Nucleo/stm32u5xx_nucleo.c ****   */
 127:Drivers/BSP/STM32U5xx_Nucleo/stm32u5xx_nucleo.c **** int32_t BSP_GetVersion(void)
 128:Drivers/BSP/STM32U5xx_Nucleo/stm32u5xx_nucleo.c **** {
  30              		.loc 1 128 1 view -0
  31              		.cfi_startproc
  32              		@ args = 0, pretend = 0, frame = 0
  33              		@ frame_needed = 0, uses_anonymous_args = 0
  34              		@ link register save eliminated.
 129:Drivers/BSP/STM32U5xx_Nucleo/stm32u5xx_nucleo.c ****   return (int32_t)STM32U5XX_NUCLEO_BSP_VERSION;
  35              		.loc 1 129 3 view .LVU1
 130:Drivers/BSP/STM32U5xx_Nucleo/stm32u5xx_nucleo.c **** }
  36              		.loc 1 130 1 is_stmt 0 view .LVU2
  37 0000 4FF08170 		mov	r0, #16908288
  38 0004 7047     		bx	lr
  39              		.cfi_endproc
  40              	.LFE340:
  42              		.section	.rodata.BSP_GetBoardName.str1.4,"aMS",%progbits,1
  43              		.align	2
ARM GAS  C:\Users\Ya\AppData\Local\Temp\ccV6Z6CV.s 			page 4


  44              	.LC0:
  45 0000 4E55434C 		.ascii	"NUCLEO-U575ZI-Q\000"
  45      454F2D55 
  45      3537355A 
  45      492D5100 
  46              		.section	.text.BSP_GetBoardName,"ax",%progbits
  47              		.align	1
  48              		.global	BSP_GetBoardName
  49              		.syntax unified
  50              		.thumb
  51              		.thumb_func
  53              	BSP_GetBoardName:
  54              	.LFB341:
 131:Drivers/BSP/STM32U5xx_Nucleo/stm32u5xx_nucleo.c **** 
 132:Drivers/BSP/STM32U5xx_Nucleo/stm32u5xx_nucleo.c **** /**
 133:Drivers/BSP/STM32U5xx_Nucleo/stm32u5xx_nucleo.c ****   * @brief  This method returns the board name
 134:Drivers/BSP/STM32U5xx_Nucleo/stm32u5xx_nucleo.c ****   * @retval pointer to the board name string
 135:Drivers/BSP/STM32U5xx_Nucleo/stm32u5xx_nucleo.c ****   */
 136:Drivers/BSP/STM32U5xx_Nucleo/stm32u5xx_nucleo.c **** const uint8_t *BSP_GetBoardName(void)
 137:Drivers/BSP/STM32U5xx_Nucleo/stm32u5xx_nucleo.c **** {
  55              		.loc 1 137 1 is_stmt 1 view -0
  56              		.cfi_startproc
  57              		@ args = 0, pretend = 0, frame = 0
  58              		@ frame_needed = 0, uses_anonymous_args = 0
  59              		@ link register save eliminated.
 138:Drivers/BSP/STM32U5xx_Nucleo/stm32u5xx_nucleo.c ****   return (uint8_t *)STM32U5XX_NUCLEO_BSP_BOARD_NAME;
  60              		.loc 1 138 3 view .LVU4
  61              		.loc 1 138 52 view .LVU5
 139:Drivers/BSP/STM32U5xx_Nucleo/stm32u5xx_nucleo.c **** }
  62              		.loc 1 139 1 is_stmt 0 view .LVU6
  63 0000 0048     		ldr	r0, .L3
  64 0002 7047     		bx	lr
  65              	.L4:
  66              		.align	2
  67              	.L3:
  68 0004 00000000 		.word	.LC0
  69              		.cfi_endproc
  70              	.LFE341:
  72              		.section	.rodata.BSP_GetBoardID.str1.4,"aMS",%progbits,1
  73              		.align	2
  74              	.LC1:
  75 0000 4D423135 		.ascii	"MB1549C\000"
  75      34394300 
  76              		.section	.text.BSP_GetBoardID,"ax",%progbits
  77              		.align	1
  78              		.global	BSP_GetBoardID
  79              		.syntax unified
  80              		.thumb
  81              		.thumb_func
  83              	BSP_GetBoardID:
  84              	.LFB342:
 140:Drivers/BSP/STM32U5xx_Nucleo/stm32u5xx_nucleo.c **** 
 141:Drivers/BSP/STM32U5xx_Nucleo/stm32u5xx_nucleo.c **** /**
 142:Drivers/BSP/STM32U5xx_Nucleo/stm32u5xx_nucleo.c ****   * @brief  This method returns the board ID
 143:Drivers/BSP/STM32U5xx_Nucleo/stm32u5xx_nucleo.c ****   * @retval pointer to the board name string
 144:Drivers/BSP/STM32U5xx_Nucleo/stm32u5xx_nucleo.c ****   */
 145:Drivers/BSP/STM32U5xx_Nucleo/stm32u5xx_nucleo.c **** const uint8_t *BSP_GetBoardID(void)
ARM GAS  C:\Users\Ya\AppData\Local\Temp\ccV6Z6CV.s 			page 5


 146:Drivers/BSP/STM32U5xx_Nucleo/stm32u5xx_nucleo.c **** {
  85              		.loc 1 146 1 is_stmt 1 view -0
  86              		.cfi_startproc
  87              		@ args = 0, pretend = 0, frame = 0
  88              		@ frame_needed = 0, uses_anonymous_args = 0
  89              		@ link register save eliminated.
 147:Drivers/BSP/STM32U5xx_Nucleo/stm32u5xx_nucleo.c ****   return (uint8_t *)STM32U5XX_NUCLEO_BSP_BOARD_ID;
  90              		.loc 1 147 3 view .LVU8
  91              		.loc 1 147 50 view .LVU9
 148:Drivers/BSP/STM32U5xx_Nucleo/stm32u5xx_nucleo.c **** }
  92              		.loc 1 148 1 is_stmt 0 view .LVU10
  93 0000 0048     		ldr	r0, .L6
  94 0002 7047     		bx	lr
  95              	.L7:
  96              		.align	2
  97              	.L6:
  98 0004 00000000 		.word	.LC1
  99              		.cfi_endproc
 100              	.LFE342:
 102              		.section	.text.BSP_LED_Init,"ax",%progbits
 103              		.align	1
 104              		.global	BSP_LED_Init
 105              		.syntax unified
 106              		.thumb
 107              		.thumb_func
 109              	BSP_LED_Init:
 110              	.LVL0:
 111              	.LFB343:
 149:Drivers/BSP/STM32U5xx_Nucleo/stm32u5xx_nucleo.c **** 
 150:Drivers/BSP/STM32U5xx_Nucleo/stm32u5xx_nucleo.c **** /**
 151:Drivers/BSP/STM32U5xx_Nucleo/stm32u5xx_nucleo.c ****   * @brief  Configures LED GPIO.
 152:Drivers/BSP/STM32U5xx_Nucleo/stm32u5xx_nucleo.c ****   * @param  Led Specifies the Led to be configured.
 153:Drivers/BSP/STM32U5xx_Nucleo/stm32u5xx_nucleo.c ****   *   This parameter can be one of following parameters:
 154:Drivers/BSP/STM32U5xx_Nucleo/stm32u5xx_nucleo.c ****   *     @arg  LED1
 155:Drivers/BSP/STM32U5xx_Nucleo/stm32u5xx_nucleo.c ****   *     @arg  LED2
 156:Drivers/BSP/STM32U5xx_Nucleo/stm32u5xx_nucleo.c ****   *     @arg  LED3
 157:Drivers/BSP/STM32U5xx_Nucleo/stm32u5xx_nucleo.c ****   * @retval BSP status
 158:Drivers/BSP/STM32U5xx_Nucleo/stm32u5xx_nucleo.c ****   */
 159:Drivers/BSP/STM32U5xx_Nucleo/stm32u5xx_nucleo.c **** int32_t BSP_LED_Init(Led_TypeDef Led)
 160:Drivers/BSP/STM32U5xx_Nucleo/stm32u5xx_nucleo.c **** {
 112              		.loc 1 160 1 is_stmt 1 view -0
 113              		.cfi_startproc
 114              		@ args = 0, pretend = 0, frame = 40
 115              		@ frame_needed = 0, uses_anonymous_args = 0
 161:Drivers/BSP/STM32U5xx_Nucleo/stm32u5xx_nucleo.c ****   int32_t ret = BSP_ERROR_NONE;
 116              		.loc 1 161 3 view .LVU12
 162:Drivers/BSP/STM32U5xx_Nucleo/stm32u5xx_nucleo.c ****   GPIO_InitTypeDef  gpio_init_structure;
 117              		.loc 1 162 3 view .LVU13
 163:Drivers/BSP/STM32U5xx_Nucleo/stm32u5xx_nucleo.c **** #if defined (USE_NUCLEO_144)
 164:Drivers/BSP/STM32U5xx_Nucleo/stm32u5xx_nucleo.c ****   uint32_t pwrenabled = 0U;
 118              		.loc 1 164 3 view .LVU14
 165:Drivers/BSP/STM32U5xx_Nucleo/stm32u5xx_nucleo.c **** #endif /* USE_NUCLEO_144 */
 166:Drivers/BSP/STM32U5xx_Nucleo/stm32u5xx_nucleo.c **** 
 167:Drivers/BSP/STM32U5xx_Nucleo/stm32u5xx_nucleo.c ****   if ((Led != LED2)
 119              		.loc 1 167 3 view .LVU15
 120              		.loc 1 167 6 is_stmt 0 view .LVU16
 121 0000 0228     		cmp	r0, #2
ARM GAS  C:\Users\Ya\AppData\Local\Temp\ccV6Z6CV.s 			page 6


 122 0002 5FD8     		bhi	.L15
 160:Drivers/BSP/STM32U5xx_Nucleo/stm32u5xx_nucleo.c ****   int32_t ret = BSP_ERROR_NONE;
 123              		.loc 1 160 1 view .LVU17
 124 0004 30B5     		push	{r4, r5, lr}
 125              		.cfi_def_cfa_offset 12
 126              		.cfi_offset 4, -12
 127              		.cfi_offset 5, -8
 128              		.cfi_offset 14, -4
 129 0006 8BB0     		sub	sp, sp, #44
 130              		.cfi_def_cfa_offset 56
 131 0008 0446     		mov	r4, r0
 168:Drivers/BSP/STM32U5xx_Nucleo/stm32u5xx_nucleo.c **** #if defined (USE_NUCLEO_144)
 169:Drivers/BSP/STM32U5xx_Nucleo/stm32u5xx_nucleo.c ****       && (Led != LED1) && (Led != LED3)
 170:Drivers/BSP/STM32U5xx_Nucleo/stm32u5xx_nucleo.c **** #endif /* defined (USE_NUCLEO_144) */
 171:Drivers/BSP/STM32U5xx_Nucleo/stm32u5xx_nucleo.c ****      )
 172:Drivers/BSP/STM32U5xx_Nucleo/stm32u5xx_nucleo.c ****   {
 173:Drivers/BSP/STM32U5xx_Nucleo/stm32u5xx_nucleo.c ****     ret = BSP_ERROR_WRONG_PARAM;
 174:Drivers/BSP/STM32U5xx_Nucleo/stm32u5xx_nucleo.c ****   }
 175:Drivers/BSP/STM32U5xx_Nucleo/stm32u5xx_nucleo.c ****   else
 176:Drivers/BSP/STM32U5xx_Nucleo/stm32u5xx_nucleo.c ****   {
 177:Drivers/BSP/STM32U5xx_Nucleo/stm32u5xx_nucleo.c ****     /* Enable the GPIO LED Clock */
 178:Drivers/BSP/STM32U5xx_Nucleo/stm32u5xx_nucleo.c ****     if (Led == LED2)
 132              		.loc 1 178 5 is_stmt 1 view .LVU18
 133              		.loc 1 178 8 is_stmt 0 view .LVU19
 134 000a 0128     		cmp	r0, #1
 135 000c 0ED0     		beq	.L20
 179:Drivers/BSP/STM32U5xx_Nucleo/stm32u5xx_nucleo.c ****     {
 180:Drivers/BSP/STM32U5xx_Nucleo/stm32u5xx_nucleo.c ****       LED2_GPIO_CLK_ENABLE();
 181:Drivers/BSP/STM32U5xx_Nucleo/stm32u5xx_nucleo.c ****     }
 182:Drivers/BSP/STM32U5xx_Nucleo/stm32u5xx_nucleo.c **** #if defined (USE_NUCLEO_144)
 183:Drivers/BSP/STM32U5xx_Nucleo/stm32u5xx_nucleo.c ****     else if (Led == LED1)
 136              		.loc 1 183 10 is_stmt 1 view .LVU20
 137              		.loc 1 183 13 is_stmt 0 view .LVU21
 138 000e 68BB     		cbnz	r0, .L12
 184:Drivers/BSP/STM32U5xx_Nucleo/stm32u5xx_nucleo.c ****     {
 185:Drivers/BSP/STM32U5xx_Nucleo/stm32u5xx_nucleo.c ****       LED1_GPIO_CLK_ENABLE();
 139              		.loc 1 185 7 is_stmt 1 view .LVU22
 140              	.LBB2:
 141              		.loc 1 185 7 view .LVU23
 142              		.loc 1 185 7 view .LVU24
 143 0010 2E4B     		ldr	r3, .L21
 144 0012 D3F88C20 		ldr	r2, [r3, #140]
 145 0016 42F00402 		orr	r2, r2, #4
 146 001a C3F88C20 		str	r2, [r3, #140]
 147              		.loc 1 185 7 view .LVU25
 148 001e D3F88C30 		ldr	r3, [r3, #140]
 149 0022 03F00403 		and	r3, r3, #4
 150 0026 0293     		str	r3, [sp, #8]
 151              		.loc 1 185 7 view .LVU26
 152 0028 029B     		ldr	r3, [sp, #8]
 153              	.LBE2:
 154              		.loc 1 185 7 view .LVU27
 155 002a 0CE0     		b	.L11
 156              	.L20:
 180:Drivers/BSP/STM32U5xx_Nucleo/stm32u5xx_nucleo.c ****     }
 157              		.loc 1 180 7 view .LVU28
 158              	.LBB3:
ARM GAS  C:\Users\Ya\AppData\Local\Temp\ccV6Z6CV.s 			page 7


 180:Drivers/BSP/STM32U5xx_Nucleo/stm32u5xx_nucleo.c ****     }
 159              		.loc 1 180 7 view .LVU29
 180:Drivers/BSP/STM32U5xx_Nucleo/stm32u5xx_nucleo.c ****     }
 160              		.loc 1 180 7 view .LVU30
 161 002c 274B     		ldr	r3, .L21
 162 002e D3F88C20 		ldr	r2, [r3, #140]
 163 0032 42F00202 		orr	r2, r2, #2
 164 0036 C3F88C20 		str	r2, [r3, #140]
 180:Drivers/BSP/STM32U5xx_Nucleo/stm32u5xx_nucleo.c ****     }
 165              		.loc 1 180 7 view .LVU31
 166 003a D3F88C30 		ldr	r3, [r3, #140]
 167 003e 03F00203 		and	r3, r3, #2
 168 0042 0193     		str	r3, [sp, #4]
 180:Drivers/BSP/STM32U5xx_Nucleo/stm32u5xx_nucleo.c ****     }
 169              		.loc 1 180 7 view .LVU32
 170 0044 019B     		ldr	r3, [sp, #4]
 171              	.LBE3:
 180:Drivers/BSP/STM32U5xx_Nucleo/stm32u5xx_nucleo.c ****     }
 172              		.loc 1 180 7 view .LVU33
 173              	.LVL1:
 174              	.L11:
 186:Drivers/BSP/STM32U5xx_Nucleo/stm32u5xx_nucleo.c ****     }
 187:Drivers/BSP/STM32U5xx_Nucleo/stm32u5xx_nucleo.c ****     else /* Led == Led3 */
 188:Drivers/BSP/STM32U5xx_Nucleo/stm32u5xx_nucleo.c ****     {
 189:Drivers/BSP/STM32U5xx_Nucleo/stm32u5xx_nucleo.c ****       /* Enable VddIO2 for Led3 */
 190:Drivers/BSP/STM32U5xx_Nucleo/stm32u5xx_nucleo.c ****       if (__HAL_RCC_PWR_IS_CLK_DISABLED())
 191:Drivers/BSP/STM32U5xx_Nucleo/stm32u5xx_nucleo.c ****       {
 192:Drivers/BSP/STM32U5xx_Nucleo/stm32u5xx_nucleo.c ****         __HAL_RCC_PWR_CLK_ENABLE();
 193:Drivers/BSP/STM32U5xx_Nucleo/stm32u5xx_nucleo.c ****         pwrenabled = 1U;
 194:Drivers/BSP/STM32U5xx_Nucleo/stm32u5xx_nucleo.c ****       }
 195:Drivers/BSP/STM32U5xx_Nucleo/stm32u5xx_nucleo.c **** 
 196:Drivers/BSP/STM32U5xx_Nucleo/stm32u5xx_nucleo.c ****       HAL_PWREx_EnableVddIO2();
 197:Drivers/BSP/STM32U5xx_Nucleo/stm32u5xx_nucleo.c **** 
 198:Drivers/BSP/STM32U5xx_Nucleo/stm32u5xx_nucleo.c ****       if (pwrenabled == 1U)
 199:Drivers/BSP/STM32U5xx_Nucleo/stm32u5xx_nucleo.c ****       {
 200:Drivers/BSP/STM32U5xx_Nucleo/stm32u5xx_nucleo.c ****         __HAL_RCC_PWR_CLK_DISABLE();
 201:Drivers/BSP/STM32U5xx_Nucleo/stm32u5xx_nucleo.c ****       }
 202:Drivers/BSP/STM32U5xx_Nucleo/stm32u5xx_nucleo.c **** 
 203:Drivers/BSP/STM32U5xx_Nucleo/stm32u5xx_nucleo.c ****       LED3_GPIO_CLK_ENABLE();
 175              		.loc 1 203 7 discriminator 1 view .LVU34
 204:Drivers/BSP/STM32U5xx_Nucleo/stm32u5xx_nucleo.c ****     }
 205:Drivers/BSP/STM32U5xx_Nucleo/stm32u5xx_nucleo.c **** #endif /* defined (USE_NUCLEO_144) */
 206:Drivers/BSP/STM32U5xx_Nucleo/stm32u5xx_nucleo.c ****     /* Configure the GPIO_LED pin */
 207:Drivers/BSP/STM32U5xx_Nucleo/stm32u5xx_nucleo.c ****     gpio_init_structure.Pin   = LED_PIN[Led];
 176              		.loc 1 207 5 discriminator 1 view .LVU35
 177              		.loc 1 207 40 is_stmt 0 discriminator 1 view .LVU36
 178 0046 224B     		ldr	r3, .L21+4
 179 0048 33F81430 		ldrh	r3, [r3, r4, lsl #1]
 180              		.loc 1 207 31 discriminator 1 view .LVU37
 181 004c 0593     		str	r3, [sp, #20]
 208:Drivers/BSP/STM32U5xx_Nucleo/stm32u5xx_nucleo.c ****     gpio_init_structure.Mode  = GPIO_MODE_OUTPUT_PP;
 182              		.loc 1 208 5 is_stmt 1 discriminator 1 view .LVU38
 183              		.loc 1 208 31 is_stmt 0 discriminator 1 view .LVU39
 184 004e 0123     		movs	r3, #1
 185 0050 0693     		str	r3, [sp, #24]
 209:Drivers/BSP/STM32U5xx_Nucleo/stm32u5xx_nucleo.c ****     gpio_init_structure.Pull  = GPIO_NOPULL;
 186              		.loc 1 209 5 is_stmt 1 discriminator 1 view .LVU40
ARM GAS  C:\Users\Ya\AppData\Local\Temp\ccV6Z6CV.s 			page 8


 187              		.loc 1 209 31 is_stmt 0 discriminator 1 view .LVU41
 188 0052 0025     		movs	r5, #0
 189 0054 0795     		str	r5, [sp, #28]
 210:Drivers/BSP/STM32U5xx_Nucleo/stm32u5xx_nucleo.c ****     gpio_init_structure.Speed = GPIO_SPEED_FREQ_VERY_HIGH;
 190              		.loc 1 210 5 is_stmt 1 discriminator 1 view .LVU42
 191              		.loc 1 210 31 is_stmt 0 discriminator 1 view .LVU43
 192 0056 0323     		movs	r3, #3
 193 0058 0893     		str	r3, [sp, #32]
 211:Drivers/BSP/STM32U5xx_Nucleo/stm32u5xx_nucleo.c **** 
 212:Drivers/BSP/STM32U5xx_Nucleo/stm32u5xx_nucleo.c ****     HAL_GPIO_Init(LED_PORT[Led], &gpio_init_structure);
 194              		.loc 1 212 5 is_stmt 1 discriminator 1 view .LVU44
 195 005a 05A9     		add	r1, sp, #20
 196 005c 1D4B     		ldr	r3, .L21+8
 197 005e 53F82400 		ldr	r0, [r3, r4, lsl #2]
 198 0062 FFF7FEFF 		bl	HAL_GPIO_Init
 199              	.LVL2:
 161:Drivers/BSP/STM32U5xx_Nucleo/stm32u5xx_nucleo.c ****   GPIO_InitTypeDef  gpio_init_structure;
 200              		.loc 1 161 11 is_stmt 0 discriminator 1 view .LVU45
 201 0066 2846     		mov	r0, r5
 213:Drivers/BSP/STM32U5xx_Nucleo/stm32u5xx_nucleo.c ****   }
 214:Drivers/BSP/STM32U5xx_Nucleo/stm32u5xx_nucleo.c **** 
 215:Drivers/BSP/STM32U5xx_Nucleo/stm32u5xx_nucleo.c ****   return ret;
 216:Drivers/BSP/STM32U5xx_Nucleo/stm32u5xx_nucleo.c **** }
 202              		.loc 1 216 1 discriminator 1 view .LVU46
 203 0068 0BB0     		add	sp, sp, #44
 204              		.cfi_remember_state
 205              		.cfi_def_cfa_offset 12
 206              		@ sp needed
 207 006a 30BD     		pop	{r4, r5, pc}
 208              	.LVL3:
 209              	.L12:
 210              		.cfi_restore_state
 190:Drivers/BSP/STM32U5xx_Nucleo/stm32u5xx_nucleo.c ****       {
 211              		.loc 1 190 7 is_stmt 1 view .LVU47
 190:Drivers/BSP/STM32U5xx_Nucleo/stm32u5xx_nucleo.c ****       {
 212              		.loc 1 190 11 is_stmt 0 view .LVU48
 213 006c 174B     		ldr	r3, .L21
 214 006e D3F89430 		ldr	r3, [r3, #148]
 190:Drivers/BSP/STM32U5xx_Nucleo/stm32u5xx_nucleo.c ****       {
 215              		.loc 1 190 10 view .LVU49
 216 0072 13F0040F 		tst	r3, #4
 217 0076 0FD0     		beq	.L13
 196:Drivers/BSP/STM32U5xx_Nucleo/stm32u5xx_nucleo.c **** 
 218              		.loc 1 196 7 is_stmt 1 view .LVU50
 219 0078 FFF7FEFF 		bl	HAL_PWREx_EnableVddIO2
 220              	.LVL4:
 198:Drivers/BSP/STM32U5xx_Nucleo/stm32u5xx_nucleo.c ****       {
 221              		.loc 1 198 7 view .LVU51
 222              	.L14:
 203:Drivers/BSP/STM32U5xx_Nucleo/stm32u5xx_nucleo.c ****     }
 223              		.loc 1 203 7 view .LVU52
 224              	.LBB4:
 203:Drivers/BSP/STM32U5xx_Nucleo/stm32u5xx_nucleo.c ****     }
 225              		.loc 1 203 7 view .LVU53
 203:Drivers/BSP/STM32U5xx_Nucleo/stm32u5xx_nucleo.c ****     }
 226              		.loc 1 203 7 view .LVU54
 227 007c 134B     		ldr	r3, .L21
ARM GAS  C:\Users\Ya\AppData\Local\Temp\ccV6Z6CV.s 			page 9


 228 007e D3F88C20 		ldr	r2, [r3, #140]
 229 0082 42F04002 		orr	r2, r2, #64
 230 0086 C3F88C20 		str	r2, [r3, #140]
 203:Drivers/BSP/STM32U5xx_Nucleo/stm32u5xx_nucleo.c ****     }
 231              		.loc 1 203 7 view .LVU55
 232 008a D3F88C30 		ldr	r3, [r3, #140]
 233 008e 03F04003 		and	r3, r3, #64
 234 0092 0493     		str	r3, [sp, #16]
 203:Drivers/BSP/STM32U5xx_Nucleo/stm32u5xx_nucleo.c ****     }
 235              		.loc 1 203 7 view .LVU56
 236 0094 049B     		ldr	r3, [sp, #16]
 237 0096 D6E7     		b	.L11
 238              	.LVL5:
 239              	.L13:
 203:Drivers/BSP/STM32U5xx_Nucleo/stm32u5xx_nucleo.c ****     }
 240              		.loc 1 203 7 is_stmt 0 view .LVU57
 241              	.LBE4:
 192:Drivers/BSP/STM32U5xx_Nucleo/stm32u5xx_nucleo.c ****         pwrenabled = 1U;
 242              		.loc 1 192 9 is_stmt 1 view .LVU58
 243              	.LBB5:
 192:Drivers/BSP/STM32U5xx_Nucleo/stm32u5xx_nucleo.c ****         pwrenabled = 1U;
 244              		.loc 1 192 9 view .LVU59
 192:Drivers/BSP/STM32U5xx_Nucleo/stm32u5xx_nucleo.c ****         pwrenabled = 1U;
 245              		.loc 1 192 9 view .LVU60
 246 0098 0C4D     		ldr	r5, .L21
 247 009a D5F89430 		ldr	r3, [r5, #148]
 248 009e 43F00403 		orr	r3, r3, #4
 249 00a2 C5F89430 		str	r3, [r5, #148]
 192:Drivers/BSP/STM32U5xx_Nucleo/stm32u5xx_nucleo.c ****         pwrenabled = 1U;
 250              		.loc 1 192 9 view .LVU61
 251 00a6 D5F89430 		ldr	r3, [r5, #148]
 252 00aa 03F00403 		and	r3, r3, #4
 253 00ae 0393     		str	r3, [sp, #12]
 192:Drivers/BSP/STM32U5xx_Nucleo/stm32u5xx_nucleo.c ****         pwrenabled = 1U;
 254              		.loc 1 192 9 view .LVU62
 255 00b0 039B     		ldr	r3, [sp, #12]
 256              	.LBE5:
 192:Drivers/BSP/STM32U5xx_Nucleo/stm32u5xx_nucleo.c ****         pwrenabled = 1U;
 257              		.loc 1 192 9 view .LVU63
 193:Drivers/BSP/STM32U5xx_Nucleo/stm32u5xx_nucleo.c ****       }
 258              		.loc 1 193 9 view .LVU64
 259              	.LVL6:
 196:Drivers/BSP/STM32U5xx_Nucleo/stm32u5xx_nucleo.c **** 
 260              		.loc 1 196 7 view .LVU65
 261 00b2 FFF7FEFF 		bl	HAL_PWREx_EnableVddIO2
 262              	.LVL7:
 198:Drivers/BSP/STM32U5xx_Nucleo/stm32u5xx_nucleo.c ****       {
 263              		.loc 1 198 7 view .LVU66
 200:Drivers/BSP/STM32U5xx_Nucleo/stm32u5xx_nucleo.c ****       }
 264              		.loc 1 200 9 view .LVU67
 265 00b6 D5F89430 		ldr	r3, [r5, #148]
 266 00ba 23F00403 		bic	r3, r3, #4
 267 00be C5F89430 		str	r3, [r5, #148]
 268 00c2 DBE7     		b	.L14
 269              	.LVL8:
 270              	.L15:
 271              		.cfi_def_cfa_offset 0
ARM GAS  C:\Users\Ya\AppData\Local\Temp\ccV6Z6CV.s 			page 10


 272              		.cfi_restore 4
 273              		.cfi_restore 5
 274              		.cfi_restore 14
 173:Drivers/BSP/STM32U5xx_Nucleo/stm32u5xx_nucleo.c ****   }
 275              		.loc 1 173 9 is_stmt 0 view .LVU68
 276 00c4 6FF00100 		mvn	r0, #1
 277              	.LVL9:
 215:Drivers/BSP/STM32U5xx_Nucleo/stm32u5xx_nucleo.c **** }
 278              		.loc 1 215 3 is_stmt 1 view .LVU69
 279              		.loc 1 216 1 is_stmt 0 view .LVU70
 280 00c8 7047     		bx	lr
 281              	.L22:
 282 00ca 00BF     		.align	2
 283              	.L21:
 284 00cc 000C0246 		.word	1174539264
 285 00d0 00000000 		.word	LED_PIN
 286 00d4 00000000 		.word	LED_PORT
 287              		.cfi_endproc
 288              	.LFE343:
 290              		.section	.text.BSP_LED_DeInit,"ax",%progbits
 291              		.align	1
 292              		.global	BSP_LED_DeInit
 293              		.syntax unified
 294              		.thumb
 295              		.thumb_func
 297              	BSP_LED_DeInit:
 298              	.LVL10:
 299              	.LFB344:
 217:Drivers/BSP/STM32U5xx_Nucleo/stm32u5xx_nucleo.c **** 
 218:Drivers/BSP/STM32U5xx_Nucleo/stm32u5xx_nucleo.c **** /**
 219:Drivers/BSP/STM32U5xx_Nucleo/stm32u5xx_nucleo.c ****   * @brief  DeInit LEDs.
 220:Drivers/BSP/STM32U5xx_Nucleo/stm32u5xx_nucleo.c ****   * @param  Led LED to be de-init.
 221:Drivers/BSP/STM32U5xx_Nucleo/stm32u5xx_nucleo.c ****   *   This parameter can be one of the following values:
 222:Drivers/BSP/STM32U5xx_Nucleo/stm32u5xx_nucleo.c ****   *     @arg  LED1
 223:Drivers/BSP/STM32U5xx_Nucleo/stm32u5xx_nucleo.c ****   *     @arg  LED2
 224:Drivers/BSP/STM32U5xx_Nucleo/stm32u5xx_nucleo.c ****   *     @arg  LED3
 225:Drivers/BSP/STM32U5xx_Nucleo/stm32u5xx_nucleo.c ****   * @note Led DeInit does not disable the GPIO clock nor disable the Mfx
 226:Drivers/BSP/STM32U5xx_Nucleo/stm32u5xx_nucleo.c ****   * @retval BSP status
 227:Drivers/BSP/STM32U5xx_Nucleo/stm32u5xx_nucleo.c ****   */
 228:Drivers/BSP/STM32U5xx_Nucleo/stm32u5xx_nucleo.c **** int32_t BSP_LED_DeInit(Led_TypeDef Led)
 229:Drivers/BSP/STM32U5xx_Nucleo/stm32u5xx_nucleo.c **** {
 300              		.loc 1 229 1 is_stmt 1 view -0
 301              		.cfi_startproc
 302              		@ args = 0, pretend = 0, frame = 24
 303              		@ frame_needed = 0, uses_anonymous_args = 0
 230:Drivers/BSP/STM32U5xx_Nucleo/stm32u5xx_nucleo.c ****   int32_t ret = BSP_ERROR_NONE;
 304              		.loc 1 230 3 view .LVU72
 231:Drivers/BSP/STM32U5xx_Nucleo/stm32u5xx_nucleo.c ****   GPIO_InitTypeDef  gpio_init_structure;
 305              		.loc 1 231 3 view .LVU73
 232:Drivers/BSP/STM32U5xx_Nucleo/stm32u5xx_nucleo.c **** 
 233:Drivers/BSP/STM32U5xx_Nucleo/stm32u5xx_nucleo.c ****   if ((Led != LED2)
 306              		.loc 1 233 3 view .LVU74
 307              		.loc 1 233 6 is_stmt 0 view .LVU75
 308 0000 0228     		cmp	r0, #2
 309 0002 14D8     		bhi	.L25
 229:Drivers/BSP/STM32U5xx_Nucleo/stm32u5xx_nucleo.c ****   int32_t ret = BSP_ERROR_NONE;
 310              		.loc 1 229 1 view .LVU76
ARM GAS  C:\Users\Ya\AppData\Local\Temp\ccV6Z6CV.s 			page 11


 311 0004 30B5     		push	{r4, r5, lr}
 312              		.cfi_def_cfa_offset 12
 313              		.cfi_offset 4, -12
 314              		.cfi_offset 5, -8
 315              		.cfi_offset 14, -4
 316 0006 87B0     		sub	sp, sp, #28
 317              		.cfi_def_cfa_offset 40
 234:Drivers/BSP/STM32U5xx_Nucleo/stm32u5xx_nucleo.c **** #if defined (USE_NUCLEO_144)
 235:Drivers/BSP/STM32U5xx_Nucleo/stm32u5xx_nucleo.c ****       && (Led != LED1) && (Led != LED3)
 236:Drivers/BSP/STM32U5xx_Nucleo/stm32u5xx_nucleo.c **** #endif /* defined (USE_NUCLEO_144) */
 237:Drivers/BSP/STM32U5xx_Nucleo/stm32u5xx_nucleo.c ****      )
 238:Drivers/BSP/STM32U5xx_Nucleo/stm32u5xx_nucleo.c ****   {
 239:Drivers/BSP/STM32U5xx_Nucleo/stm32u5xx_nucleo.c ****     ret = BSP_ERROR_WRONG_PARAM;
 240:Drivers/BSP/STM32U5xx_Nucleo/stm32u5xx_nucleo.c ****   }
 241:Drivers/BSP/STM32U5xx_Nucleo/stm32u5xx_nucleo.c ****   else
 242:Drivers/BSP/STM32U5xx_Nucleo/stm32u5xx_nucleo.c ****   {
 243:Drivers/BSP/STM32U5xx_Nucleo/stm32u5xx_nucleo.c ****     /* Turn off LED */
 244:Drivers/BSP/STM32U5xx_Nucleo/stm32u5xx_nucleo.c ****     HAL_GPIO_WritePin(LED_PORT[Led], LED_PIN[Led], GPIO_PIN_RESET);
 318              		.loc 1 244 5 is_stmt 1 view .LVU77
 319              		.loc 1 244 45 is_stmt 0 view .LVU78
 320 0008 0A4B     		ldr	r3, .L30
 321 000a 33F81040 		ldrh	r4, [r3, r0, lsl #1]
 322              		.loc 1 244 5 view .LVU79
 323 000e 0A4B     		ldr	r3, .L30+4
 324 0010 53F82050 		ldr	r5, [r3, r0, lsl #2]
 325 0014 0022     		movs	r2, #0
 326 0016 2146     		mov	r1, r4
 327 0018 2846     		mov	r0, r5
 328              	.LVL11:
 329              		.loc 1 244 5 view .LVU80
 330 001a FFF7FEFF 		bl	HAL_GPIO_WritePin
 331              	.LVL12:
 245:Drivers/BSP/STM32U5xx_Nucleo/stm32u5xx_nucleo.c ****     /* DeInit the GPIO_LED pin */
 246:Drivers/BSP/STM32U5xx_Nucleo/stm32u5xx_nucleo.c ****     gpio_init_structure.Pin = LED_PIN[Led];
 332              		.loc 1 246 5 is_stmt 1 view .LVU81
 333              		.loc 1 246 29 is_stmt 0 view .LVU82
 334 001e 0194     		str	r4, [sp, #4]
 247:Drivers/BSP/STM32U5xx_Nucleo/stm32u5xx_nucleo.c ****     HAL_GPIO_DeInit(LED_PORT[Led], gpio_init_structure.Pin);
 335              		.loc 1 247 5 is_stmt 1 view .LVU83
 336 0020 2146     		mov	r1, r4
 337 0022 2846     		mov	r0, r5
 338 0024 FFF7FEFF 		bl	HAL_GPIO_DeInit
 339              	.LVL13:
 230:Drivers/BSP/STM32U5xx_Nucleo/stm32u5xx_nucleo.c ****   GPIO_InitTypeDef  gpio_init_structure;
 340              		.loc 1 230 11 is_stmt 0 view .LVU84
 341 0028 0020     		movs	r0, #0
 248:Drivers/BSP/STM32U5xx_Nucleo/stm32u5xx_nucleo.c ****   }
 249:Drivers/BSP/STM32U5xx_Nucleo/stm32u5xx_nucleo.c **** 
 250:Drivers/BSP/STM32U5xx_Nucleo/stm32u5xx_nucleo.c ****   return ret;
 251:Drivers/BSP/STM32U5xx_Nucleo/stm32u5xx_nucleo.c **** }
 342              		.loc 1 251 1 view .LVU85
 343 002a 07B0     		add	sp, sp, #28
 344              		.cfi_def_cfa_offset 12
 345              		@ sp needed
 346 002c 30BD     		pop	{r4, r5, pc}
 347              	.LVL14:
 348              	.L25:
ARM GAS  C:\Users\Ya\AppData\Local\Temp\ccV6Z6CV.s 			page 12


 349              		.cfi_def_cfa_offset 0
 350              		.cfi_restore 4
 351              		.cfi_restore 5
 352              		.cfi_restore 14
 239:Drivers/BSP/STM32U5xx_Nucleo/stm32u5xx_nucleo.c ****   }
 353              		.loc 1 239 9 view .LVU86
 354 002e 6FF00100 		mvn	r0, #1
 355              	.LVL15:
 250:Drivers/BSP/STM32U5xx_Nucleo/stm32u5xx_nucleo.c **** }
 356              		.loc 1 250 3 is_stmt 1 view .LVU87
 357              		.loc 1 251 1 is_stmt 0 view .LVU88
 358 0032 7047     		bx	lr
 359              	.L31:
 360              		.align	2
 361              	.L30:
 362 0034 00000000 		.word	LED_PIN
 363 0038 00000000 		.word	LED_PORT
 364              		.cfi_endproc
 365              	.LFE344:
 367              		.section	.text.BSP_LED_On,"ax",%progbits
 368              		.align	1
 369              		.global	BSP_LED_On
 370              		.syntax unified
 371              		.thumb
 372              		.thumb_func
 374              	BSP_LED_On:
 375              	.LVL16:
 376              	.LFB345:
 252:Drivers/BSP/STM32U5xx_Nucleo/stm32u5xx_nucleo.c **** 
 253:Drivers/BSP/STM32U5xx_Nucleo/stm32u5xx_nucleo.c **** /**
 254:Drivers/BSP/STM32U5xx_Nucleo/stm32u5xx_nucleo.c ****   * @brief  Turns selected LED On.
 255:Drivers/BSP/STM32U5xx_Nucleo/stm32u5xx_nucleo.c ****   * @param  Led Specifies the Led to be set on.
 256:Drivers/BSP/STM32U5xx_Nucleo/stm32u5xx_nucleo.c ****   *   This parameter can be one of following parameters:
 257:Drivers/BSP/STM32U5xx_Nucleo/stm32u5xx_nucleo.c ****   *     @arg  LED1
 258:Drivers/BSP/STM32U5xx_Nucleo/stm32u5xx_nucleo.c ****   *     @arg  LED2
 259:Drivers/BSP/STM32U5xx_Nucleo/stm32u5xx_nucleo.c ****   *     @arg  LED3
 260:Drivers/BSP/STM32U5xx_Nucleo/stm32u5xx_nucleo.c ****   * @retval BSP status
 261:Drivers/BSP/STM32U5xx_Nucleo/stm32u5xx_nucleo.c ****   */
 262:Drivers/BSP/STM32U5xx_Nucleo/stm32u5xx_nucleo.c **** int32_t BSP_LED_On(Led_TypeDef Led)
 263:Drivers/BSP/STM32U5xx_Nucleo/stm32u5xx_nucleo.c **** {
 377              		.loc 1 263 1 is_stmt 1 view -0
 378              		.cfi_startproc
 379              		@ args = 0, pretend = 0, frame = 0
 380              		@ frame_needed = 0, uses_anonymous_args = 0
 264:Drivers/BSP/STM32U5xx_Nucleo/stm32u5xx_nucleo.c ****   int32_t ret = BSP_ERROR_NONE;
 381              		.loc 1 264 3 view .LVU90
 265:Drivers/BSP/STM32U5xx_Nucleo/stm32u5xx_nucleo.c **** 
 266:Drivers/BSP/STM32U5xx_Nucleo/stm32u5xx_nucleo.c ****   if ((Led != LED2)
 382              		.loc 1 266 3 view .LVU91
 383              		.loc 1 266 6 is_stmt 0 view .LVU92
 384 0000 0228     		cmp	r0, #2
 385 0002 0BD8     		bhi	.L34
 263:Drivers/BSP/STM32U5xx_Nucleo/stm32u5xx_nucleo.c ****   int32_t ret = BSP_ERROR_NONE;
 386              		.loc 1 263 1 view .LVU93
 387 0004 08B5     		push	{r3, lr}
 388              		.cfi_def_cfa_offset 8
 389              		.cfi_offset 3, -8
ARM GAS  C:\Users\Ya\AppData\Local\Temp\ccV6Z6CV.s 			page 13


 390              		.cfi_offset 14, -4
 267:Drivers/BSP/STM32U5xx_Nucleo/stm32u5xx_nucleo.c **** #if defined (USE_NUCLEO_144)
 268:Drivers/BSP/STM32U5xx_Nucleo/stm32u5xx_nucleo.c ****       && (Led != LED1) && (Led != LED3)
 269:Drivers/BSP/STM32U5xx_Nucleo/stm32u5xx_nucleo.c **** #endif /* defined (USE_NUCLEO_144) */
 270:Drivers/BSP/STM32U5xx_Nucleo/stm32u5xx_nucleo.c ****      )
 271:Drivers/BSP/STM32U5xx_Nucleo/stm32u5xx_nucleo.c ****   {
 272:Drivers/BSP/STM32U5xx_Nucleo/stm32u5xx_nucleo.c ****     ret = BSP_ERROR_WRONG_PARAM;
 273:Drivers/BSP/STM32U5xx_Nucleo/stm32u5xx_nucleo.c ****   }
 274:Drivers/BSP/STM32U5xx_Nucleo/stm32u5xx_nucleo.c ****   else
 275:Drivers/BSP/STM32U5xx_Nucleo/stm32u5xx_nucleo.c ****   {
 276:Drivers/BSP/STM32U5xx_Nucleo/stm32u5xx_nucleo.c ****     HAL_GPIO_WritePin(LED_PORT[Led], LED_PIN[Led], GPIO_PIN_SET);
 391              		.loc 1 276 5 is_stmt 1 view .LVU94
 392 0006 0122     		movs	r2, #1
 393 0008 064B     		ldr	r3, .L39
 394 000a 33F81010 		ldrh	r1, [r3, r0, lsl #1]
 395 000e 064B     		ldr	r3, .L39+4
 396 0010 53F82000 		ldr	r0, [r3, r0, lsl #2]
 397              	.LVL17:
 398              		.loc 1 276 5 is_stmt 0 view .LVU95
 399 0014 FFF7FEFF 		bl	HAL_GPIO_WritePin
 400              	.LVL18:
 264:Drivers/BSP/STM32U5xx_Nucleo/stm32u5xx_nucleo.c **** 
 401              		.loc 1 264 11 view .LVU96
 402 0018 0020     		movs	r0, #0
 277:Drivers/BSP/STM32U5xx_Nucleo/stm32u5xx_nucleo.c ****   }
 278:Drivers/BSP/STM32U5xx_Nucleo/stm32u5xx_nucleo.c **** 
 279:Drivers/BSP/STM32U5xx_Nucleo/stm32u5xx_nucleo.c ****   return ret;
 280:Drivers/BSP/STM32U5xx_Nucleo/stm32u5xx_nucleo.c **** }
 403              		.loc 1 280 1 view .LVU97
 404 001a 08BD     		pop	{r3, pc}
 405              	.LVL19:
 406              	.L34:
 407              		.cfi_def_cfa_offset 0
 408              		.cfi_restore 3
 409              		.cfi_restore 14
 272:Drivers/BSP/STM32U5xx_Nucleo/stm32u5xx_nucleo.c ****   }
 410              		.loc 1 272 9 view .LVU98
 411 001c 6FF00100 		mvn	r0, #1
 412              	.LVL20:
 279:Drivers/BSP/STM32U5xx_Nucleo/stm32u5xx_nucleo.c **** }
 413              		.loc 1 279 3 is_stmt 1 view .LVU99
 414              		.loc 1 280 1 is_stmt 0 view .LVU100
 415 0020 7047     		bx	lr
 416              	.L40:
 417 0022 00BF     		.align	2
 418              	.L39:
 419 0024 00000000 		.word	LED_PIN
 420 0028 00000000 		.word	LED_PORT
 421              		.cfi_endproc
 422              	.LFE345:
 424              		.section	.text.BSP_LED_Off,"ax",%progbits
 425              		.align	1
 426              		.global	BSP_LED_Off
 427              		.syntax unified
 428              		.thumb
 429              		.thumb_func
 431              	BSP_LED_Off:
ARM GAS  C:\Users\Ya\AppData\Local\Temp\ccV6Z6CV.s 			page 14


 432              	.LVL21:
 433              	.LFB346:
 281:Drivers/BSP/STM32U5xx_Nucleo/stm32u5xx_nucleo.c **** 
 282:Drivers/BSP/STM32U5xx_Nucleo/stm32u5xx_nucleo.c **** /**
 283:Drivers/BSP/STM32U5xx_Nucleo/stm32u5xx_nucleo.c ****   * @brief  Turns selected LED Off.
 284:Drivers/BSP/STM32U5xx_Nucleo/stm32u5xx_nucleo.c ****   * @param  Led: Specifies the Led to be set off.
 285:Drivers/BSP/STM32U5xx_Nucleo/stm32u5xx_nucleo.c ****   *   This parameter can be one of following parameters:
 286:Drivers/BSP/STM32U5xx_Nucleo/stm32u5xx_nucleo.c ****   *     @arg  LED1
 287:Drivers/BSP/STM32U5xx_Nucleo/stm32u5xx_nucleo.c ****   *     @arg  LED2
 288:Drivers/BSP/STM32U5xx_Nucleo/stm32u5xx_nucleo.c ****   *     @arg  LED3
 289:Drivers/BSP/STM32U5xx_Nucleo/stm32u5xx_nucleo.c ****   * @retval BSP status
 290:Drivers/BSP/STM32U5xx_Nucleo/stm32u5xx_nucleo.c ****   */
 291:Drivers/BSP/STM32U5xx_Nucleo/stm32u5xx_nucleo.c **** int32_t BSP_LED_Off(Led_TypeDef Led)
 292:Drivers/BSP/STM32U5xx_Nucleo/stm32u5xx_nucleo.c **** {
 434              		.loc 1 292 1 is_stmt 1 view -0
 435              		.cfi_startproc
 436              		@ args = 0, pretend = 0, frame = 0
 437              		@ frame_needed = 0, uses_anonymous_args = 0
 293:Drivers/BSP/STM32U5xx_Nucleo/stm32u5xx_nucleo.c ****   int32_t ret = BSP_ERROR_NONE;
 438              		.loc 1 293 3 view .LVU102
 294:Drivers/BSP/STM32U5xx_Nucleo/stm32u5xx_nucleo.c **** 
 295:Drivers/BSP/STM32U5xx_Nucleo/stm32u5xx_nucleo.c ****   if ((Led != LED2)
 439              		.loc 1 295 3 view .LVU103
 440              		.loc 1 295 6 is_stmt 0 view .LVU104
 441 0000 0228     		cmp	r0, #2
 442 0002 0BD8     		bhi	.L43
 292:Drivers/BSP/STM32U5xx_Nucleo/stm32u5xx_nucleo.c ****   int32_t ret = BSP_ERROR_NONE;
 443              		.loc 1 292 1 view .LVU105
 444 0004 08B5     		push	{r3, lr}
 445              		.cfi_def_cfa_offset 8
 446              		.cfi_offset 3, -8
 447              		.cfi_offset 14, -4
 296:Drivers/BSP/STM32U5xx_Nucleo/stm32u5xx_nucleo.c **** #if defined (USE_NUCLEO_144)
 297:Drivers/BSP/STM32U5xx_Nucleo/stm32u5xx_nucleo.c ****       && (Led != LED1) && (Led != LED3)
 298:Drivers/BSP/STM32U5xx_Nucleo/stm32u5xx_nucleo.c **** #endif /* defined (USE_NUCLEO_144) */
 299:Drivers/BSP/STM32U5xx_Nucleo/stm32u5xx_nucleo.c ****      )
 300:Drivers/BSP/STM32U5xx_Nucleo/stm32u5xx_nucleo.c ****   {
 301:Drivers/BSP/STM32U5xx_Nucleo/stm32u5xx_nucleo.c ****     ret = BSP_ERROR_WRONG_PARAM;
 302:Drivers/BSP/STM32U5xx_Nucleo/stm32u5xx_nucleo.c ****   }
 303:Drivers/BSP/STM32U5xx_Nucleo/stm32u5xx_nucleo.c ****   else
 304:Drivers/BSP/STM32U5xx_Nucleo/stm32u5xx_nucleo.c ****   {
 305:Drivers/BSP/STM32U5xx_Nucleo/stm32u5xx_nucleo.c ****     HAL_GPIO_WritePin(LED_PORT[Led], LED_PIN[Led], GPIO_PIN_RESET);
 448              		.loc 1 305 5 is_stmt 1 view .LVU106
 449 0006 0022     		movs	r2, #0
 450 0008 064B     		ldr	r3, .L48
 451 000a 33F81010 		ldrh	r1, [r3, r0, lsl #1]
 452 000e 064B     		ldr	r3, .L48+4
 453 0010 53F82000 		ldr	r0, [r3, r0, lsl #2]
 454              	.LVL22:
 455              		.loc 1 305 5 is_stmt 0 view .LVU107
 456 0014 FFF7FEFF 		bl	HAL_GPIO_WritePin
 457              	.LVL23:
 293:Drivers/BSP/STM32U5xx_Nucleo/stm32u5xx_nucleo.c **** 
 458              		.loc 1 293 11 view .LVU108
 459 0018 0020     		movs	r0, #0
 306:Drivers/BSP/STM32U5xx_Nucleo/stm32u5xx_nucleo.c ****   }
 307:Drivers/BSP/STM32U5xx_Nucleo/stm32u5xx_nucleo.c **** 
ARM GAS  C:\Users\Ya\AppData\Local\Temp\ccV6Z6CV.s 			page 15


 308:Drivers/BSP/STM32U5xx_Nucleo/stm32u5xx_nucleo.c ****   return ret;
 309:Drivers/BSP/STM32U5xx_Nucleo/stm32u5xx_nucleo.c **** }
 460              		.loc 1 309 1 view .LVU109
 461 001a 08BD     		pop	{r3, pc}
 462              	.LVL24:
 463              	.L43:
 464              		.cfi_def_cfa_offset 0
 465              		.cfi_restore 3
 466              		.cfi_restore 14
 301:Drivers/BSP/STM32U5xx_Nucleo/stm32u5xx_nucleo.c ****   }
 467              		.loc 1 301 9 view .LVU110
 468 001c 6FF00100 		mvn	r0, #1
 469              	.LVL25:
 308:Drivers/BSP/STM32U5xx_Nucleo/stm32u5xx_nucleo.c **** }
 470              		.loc 1 308 3 is_stmt 1 view .LVU111
 471              		.loc 1 309 1 is_stmt 0 view .LVU112
 472 0020 7047     		bx	lr
 473              	.L49:
 474 0022 00BF     		.align	2
 475              	.L48:
 476 0024 00000000 		.word	LED_PIN
 477 0028 00000000 		.word	LED_PORT
 478              		.cfi_endproc
 479              	.LFE346:
 481              		.section	.text.BSP_LED_Toggle,"ax",%progbits
 482              		.align	1
 483              		.global	BSP_LED_Toggle
 484              		.syntax unified
 485              		.thumb
 486              		.thumb_func
 488              	BSP_LED_Toggle:
 489              	.LVL26:
 490              	.LFB347:
 310:Drivers/BSP/STM32U5xx_Nucleo/stm32u5xx_nucleo.c **** 
 311:Drivers/BSP/STM32U5xx_Nucleo/stm32u5xx_nucleo.c **** /**
 312:Drivers/BSP/STM32U5xx_Nucleo/stm32u5xx_nucleo.c ****   * @brief  Toggles the selected LED.
 313:Drivers/BSP/STM32U5xx_Nucleo/stm32u5xx_nucleo.c ****   * @param  Led Specifies the Led to be toggled.
 314:Drivers/BSP/STM32U5xx_Nucleo/stm32u5xx_nucleo.c ****   *   This parameter can be one of following parameters:
 315:Drivers/BSP/STM32U5xx_Nucleo/stm32u5xx_nucleo.c ****   *     @arg  LED1
 316:Drivers/BSP/STM32U5xx_Nucleo/stm32u5xx_nucleo.c ****   *     @arg  LED2
 317:Drivers/BSP/STM32U5xx_Nucleo/stm32u5xx_nucleo.c ****   *     @arg  LED3
 318:Drivers/BSP/STM32U5xx_Nucleo/stm32u5xx_nucleo.c ****   * @retval BSP status
 319:Drivers/BSP/STM32U5xx_Nucleo/stm32u5xx_nucleo.c ****   */
 320:Drivers/BSP/STM32U5xx_Nucleo/stm32u5xx_nucleo.c **** int32_t BSP_LED_Toggle(Led_TypeDef Led)
 321:Drivers/BSP/STM32U5xx_Nucleo/stm32u5xx_nucleo.c **** {
 491              		.loc 1 321 1 is_stmt 1 view -0
 492              		.cfi_startproc
 493              		@ args = 0, pretend = 0, frame = 0
 494              		@ frame_needed = 0, uses_anonymous_args = 0
 322:Drivers/BSP/STM32U5xx_Nucleo/stm32u5xx_nucleo.c ****   int32_t ret = BSP_ERROR_NONE;
 495              		.loc 1 322 3 view .LVU114
 323:Drivers/BSP/STM32U5xx_Nucleo/stm32u5xx_nucleo.c **** 
 324:Drivers/BSP/STM32U5xx_Nucleo/stm32u5xx_nucleo.c ****   if ((Led != LED2)
 496              		.loc 1 324 3 view .LVU115
 497              		.loc 1 324 6 is_stmt 0 view .LVU116
 498 0000 0228     		cmp	r0, #2
 499 0002 0AD8     		bhi	.L52
ARM GAS  C:\Users\Ya\AppData\Local\Temp\ccV6Z6CV.s 			page 16


 321:Drivers/BSP/STM32U5xx_Nucleo/stm32u5xx_nucleo.c ****   int32_t ret = BSP_ERROR_NONE;
 500              		.loc 1 321 1 view .LVU117
 501 0004 08B5     		push	{r3, lr}
 502              		.cfi_def_cfa_offset 8
 503              		.cfi_offset 3, -8
 504              		.cfi_offset 14, -4
 325:Drivers/BSP/STM32U5xx_Nucleo/stm32u5xx_nucleo.c **** #if defined (USE_NUCLEO_144)
 326:Drivers/BSP/STM32U5xx_Nucleo/stm32u5xx_nucleo.c ****       && (Led != LED1) && (Led != LED3)
 327:Drivers/BSP/STM32U5xx_Nucleo/stm32u5xx_nucleo.c **** #endif /* defined (USE_NUCLEO_144) */
 328:Drivers/BSP/STM32U5xx_Nucleo/stm32u5xx_nucleo.c ****      )
 329:Drivers/BSP/STM32U5xx_Nucleo/stm32u5xx_nucleo.c ****   {
 330:Drivers/BSP/STM32U5xx_Nucleo/stm32u5xx_nucleo.c ****     ret = BSP_ERROR_WRONG_PARAM;
 331:Drivers/BSP/STM32U5xx_Nucleo/stm32u5xx_nucleo.c ****   }
 332:Drivers/BSP/STM32U5xx_Nucleo/stm32u5xx_nucleo.c ****   else
 333:Drivers/BSP/STM32U5xx_Nucleo/stm32u5xx_nucleo.c ****   {
 334:Drivers/BSP/STM32U5xx_Nucleo/stm32u5xx_nucleo.c ****     HAL_GPIO_TogglePin(LED_PORT[Led], LED_PIN[Led]);
 505              		.loc 1 334 5 is_stmt 1 view .LVU118
 506 0006 064B     		ldr	r3, .L57
 507 0008 33F81010 		ldrh	r1, [r3, r0, lsl #1]
 508 000c 054B     		ldr	r3, .L57+4
 509 000e 53F82000 		ldr	r0, [r3, r0, lsl #2]
 510              	.LVL27:
 511              		.loc 1 334 5 is_stmt 0 view .LVU119
 512 0012 FFF7FEFF 		bl	HAL_GPIO_TogglePin
 513              	.LVL28:
 322:Drivers/BSP/STM32U5xx_Nucleo/stm32u5xx_nucleo.c **** 
 514              		.loc 1 322 11 view .LVU120
 515 0016 0020     		movs	r0, #0
 335:Drivers/BSP/STM32U5xx_Nucleo/stm32u5xx_nucleo.c ****   }
 336:Drivers/BSP/STM32U5xx_Nucleo/stm32u5xx_nucleo.c **** 
 337:Drivers/BSP/STM32U5xx_Nucleo/stm32u5xx_nucleo.c ****   return ret;
 338:Drivers/BSP/STM32U5xx_Nucleo/stm32u5xx_nucleo.c **** }
 516              		.loc 1 338 1 view .LVU121
 517 0018 08BD     		pop	{r3, pc}
 518              	.LVL29:
 519              	.L52:
 520              		.cfi_def_cfa_offset 0
 521              		.cfi_restore 3
 522              		.cfi_restore 14
 330:Drivers/BSP/STM32U5xx_Nucleo/stm32u5xx_nucleo.c ****   }
 523              		.loc 1 330 9 view .LVU122
 524 001a 6FF00100 		mvn	r0, #1
 525              	.LVL30:
 337:Drivers/BSP/STM32U5xx_Nucleo/stm32u5xx_nucleo.c **** }
 526              		.loc 1 337 3 is_stmt 1 view .LVU123
 527              		.loc 1 338 1 is_stmt 0 view .LVU124
 528 001e 7047     		bx	lr
 529              	.L58:
 530              		.align	2
 531              	.L57:
 532 0020 00000000 		.word	LED_PIN
 533 0024 00000000 		.word	LED_PORT
 534              		.cfi_endproc
 535              	.LFE347:
 537              		.section	.text.BSP_LED_GetState,"ax",%progbits
 538              		.align	1
 539              		.global	BSP_LED_GetState
ARM GAS  C:\Users\Ya\AppData\Local\Temp\ccV6Z6CV.s 			page 17


 540              		.syntax unified
 541              		.thumb
 542              		.thumb_func
 544              	BSP_LED_GetState:
 545              	.LVL31:
 546              	.LFB348:
 339:Drivers/BSP/STM32U5xx_Nucleo/stm32u5xx_nucleo.c **** 
 340:Drivers/BSP/STM32U5xx_Nucleo/stm32u5xx_nucleo.c **** /**
 341:Drivers/BSP/STM32U5xx_Nucleo/stm32u5xx_nucleo.c ****   * @brief  Get the state of the selected LED.
 342:Drivers/BSP/STM32U5xx_Nucleo/stm32u5xx_nucleo.c ****   * @param  Led LED to get its state
 343:Drivers/BSP/STM32U5xx_Nucleo/stm32u5xx_nucleo.c ****   *   This parameter can be one of following parameters:
 344:Drivers/BSP/STM32U5xx_Nucleo/stm32u5xx_nucleo.c ****   *     @arg  LED1
 345:Drivers/BSP/STM32U5xx_Nucleo/stm32u5xx_nucleo.c ****   *     @arg  LED2
 346:Drivers/BSP/STM32U5xx_Nucleo/stm32u5xx_nucleo.c ****   *     @arg  LED3
 347:Drivers/BSP/STM32U5xx_Nucleo/stm32u5xx_nucleo.c ****   * @retval LED status
 348:Drivers/BSP/STM32U5xx_Nucleo/stm32u5xx_nucleo.c ****   */
 349:Drivers/BSP/STM32U5xx_Nucleo/stm32u5xx_nucleo.c **** int32_t BSP_LED_GetState(Led_TypeDef Led)
 350:Drivers/BSP/STM32U5xx_Nucleo/stm32u5xx_nucleo.c **** {
 547              		.loc 1 350 1 is_stmt 1 view -0
 548              		.cfi_startproc
 549              		@ args = 0, pretend = 0, frame = 0
 550              		@ frame_needed = 0, uses_anonymous_args = 0
 351:Drivers/BSP/STM32U5xx_Nucleo/stm32u5xx_nucleo.c ****   int32_t ret;
 551              		.loc 1 351 3 view .LVU126
 352:Drivers/BSP/STM32U5xx_Nucleo/stm32u5xx_nucleo.c **** 
 353:Drivers/BSP/STM32U5xx_Nucleo/stm32u5xx_nucleo.c ****   if ((Led != LED2)
 552              		.loc 1 353 3 view .LVU127
 553              		.loc 1 353 6 is_stmt 0 view .LVU128
 554 0000 0228     		cmp	r0, #2
 555 0002 09D8     		bhi	.L61
 350:Drivers/BSP/STM32U5xx_Nucleo/stm32u5xx_nucleo.c ****   int32_t ret;
 556              		.loc 1 350 1 view .LVU129
 557 0004 08B5     		push	{r3, lr}
 558              		.cfi_def_cfa_offset 8
 559              		.cfi_offset 3, -8
 560              		.cfi_offset 14, -4
 354:Drivers/BSP/STM32U5xx_Nucleo/stm32u5xx_nucleo.c **** #if defined (USE_NUCLEO_144)
 355:Drivers/BSP/STM32U5xx_Nucleo/stm32u5xx_nucleo.c ****       && (Led != LED1) && (Led != LED3)
 356:Drivers/BSP/STM32U5xx_Nucleo/stm32u5xx_nucleo.c **** #endif /* defined (USE_NUCLEO_144) */
 357:Drivers/BSP/STM32U5xx_Nucleo/stm32u5xx_nucleo.c ****      )
 358:Drivers/BSP/STM32U5xx_Nucleo/stm32u5xx_nucleo.c ****   {
 359:Drivers/BSP/STM32U5xx_Nucleo/stm32u5xx_nucleo.c ****     ret = BSP_ERROR_WRONG_PARAM;
 360:Drivers/BSP/STM32U5xx_Nucleo/stm32u5xx_nucleo.c ****   }
 361:Drivers/BSP/STM32U5xx_Nucleo/stm32u5xx_nucleo.c ****   else
 362:Drivers/BSP/STM32U5xx_Nucleo/stm32u5xx_nucleo.c ****   {
 363:Drivers/BSP/STM32U5xx_Nucleo/stm32u5xx_nucleo.c ****     ret = (int32_t)HAL_GPIO_ReadPin(LED_PORT [Led], LED_PIN [Led]);
 561              		.loc 1 363 5 is_stmt 1 view .LVU130
 562              		.loc 1 363 20 is_stmt 0 view .LVU131
 563 0006 064B     		ldr	r3, .L66
 564 0008 33F81010 		ldrh	r1, [r3, r0, lsl #1]
 565 000c 054B     		ldr	r3, .L66+4
 566 000e 53F82000 		ldr	r0, [r3, r0, lsl #2]
 567              	.LVL32:
 568              		.loc 1 363 20 view .LVU132
 569 0012 FFF7FEFF 		bl	HAL_GPIO_ReadPin
 570              	.LVL33:
 364:Drivers/BSP/STM32U5xx_Nucleo/stm32u5xx_nucleo.c ****   }
ARM GAS  C:\Users\Ya\AppData\Local\Temp\ccV6Z6CV.s 			page 18


 365:Drivers/BSP/STM32U5xx_Nucleo/stm32u5xx_nucleo.c **** 
 366:Drivers/BSP/STM32U5xx_Nucleo/stm32u5xx_nucleo.c ****   return ret;
 367:Drivers/BSP/STM32U5xx_Nucleo/stm32u5xx_nucleo.c **** }
 571              		.loc 1 367 1 view .LVU133
 572 0016 08BD     		pop	{r3, pc}
 573              	.LVL34:
 574              	.L61:
 575              		.cfi_def_cfa_offset 0
 576              		.cfi_restore 3
 577              		.cfi_restore 14
 359:Drivers/BSP/STM32U5xx_Nucleo/stm32u5xx_nucleo.c ****   }
 578              		.loc 1 359 9 view .LVU134
 579 0018 6FF00100 		mvn	r0, #1
 580              	.LVL35:
 366:Drivers/BSP/STM32U5xx_Nucleo/stm32u5xx_nucleo.c **** }
 581              		.loc 1 366 3 is_stmt 1 view .LVU135
 582              		.loc 1 367 1 is_stmt 0 view .LVU136
 583 001c 7047     		bx	lr
 584              	.L67:
 585 001e 00BF     		.align	2
 586              	.L66:
 587 0020 00000000 		.word	LED_PIN
 588 0024 00000000 		.word	LED_PORT
 589              		.cfi_endproc
 590              	.LFE348:
 592              		.section	.text.BSP_PB_Init,"ax",%progbits
 593              		.align	1
 594              		.global	BSP_PB_Init
 595              		.syntax unified
 596              		.thumb
 597              		.thumb_func
 599              	BSP_PB_Init:
 600              	.LVL36:
 601              	.LFB349:
 368:Drivers/BSP/STM32U5xx_Nucleo/stm32u5xx_nucleo.c **** 
 369:Drivers/BSP/STM32U5xx_Nucleo/stm32u5xx_nucleo.c **** /**
 370:Drivers/BSP/STM32U5xx_Nucleo/stm32u5xx_nucleo.c ****   * @brief  Configures button GPIO and EXTI Line.
 371:Drivers/BSP/STM32U5xx_Nucleo/stm32u5xx_nucleo.c ****   * @param  Button Button to be configured
 372:Drivers/BSP/STM32U5xx_Nucleo/stm32u5xx_nucleo.c ****   *          This parameter can be one of the following values:
 373:Drivers/BSP/STM32U5xx_Nucleo/stm32u5xx_nucleo.c ****   *            @arg  BUTTON_USER: Wakeup Push Button
 374:Drivers/BSP/STM32U5xx_Nucleo/stm32u5xx_nucleo.c ****   * @param  ButtonMode Button mode
 375:Drivers/BSP/STM32U5xx_Nucleo/stm32u5xx_nucleo.c ****   *          This parameter can be one of the following values:
 376:Drivers/BSP/STM32U5xx_Nucleo/stm32u5xx_nucleo.c ****   *            @arg  BUTTON_MODE_GPIO: Button will be used as simple IO
 377:Drivers/BSP/STM32U5xx_Nucleo/stm32u5xx_nucleo.c ****   *            @arg  BUTTON_MODE_EXTI: Button will be connected to EXTI line
 378:Drivers/BSP/STM32U5xx_Nucleo/stm32u5xx_nucleo.c ****   *                                    with interrupt generation capability
 379:Drivers/BSP/STM32U5xx_Nucleo/stm32u5xx_nucleo.c ****   */
 380:Drivers/BSP/STM32U5xx_Nucleo/stm32u5xx_nucleo.c **** int32_t BSP_PB_Init(Button_TypeDef Button, ButtonMode_TypeDef ButtonMode)
 381:Drivers/BSP/STM32U5xx_Nucleo/stm32u5xx_nucleo.c **** {
 602              		.loc 1 381 1 is_stmt 1 view -0
 603              		.cfi_startproc
 604              		@ args = 0, pretend = 0, frame = 24
 605              		@ frame_needed = 0, uses_anonymous_args = 0
 606              		.loc 1 381 1 is_stmt 0 view .LVU138
 607 0000 10B5     		push	{r4, lr}
 608              		.cfi_def_cfa_offset 8
 609              		.cfi_offset 4, -8
 610              		.cfi_offset 14, -4
ARM GAS  C:\Users\Ya\AppData\Local\Temp\ccV6Z6CV.s 			page 19


 611 0002 86B0     		sub	sp, sp, #24
 612              		.cfi_def_cfa_offset 32
 382:Drivers/BSP/STM32U5xx_Nucleo/stm32u5xx_nucleo.c ****   GPIO_InitTypeDef gpio_init_structure;
 613              		.loc 1 382 3 is_stmt 1 view .LVU139
 383:Drivers/BSP/STM32U5xx_Nucleo/stm32u5xx_nucleo.c ****   static BSP_EXTI_LineCallback ButtonCallback[BUTTONn] = {BUTTON_USER_EXTI_Callback};
 614              		.loc 1 383 3 view .LVU140
 384:Drivers/BSP/STM32U5xx_Nucleo/stm32u5xx_nucleo.c ****   static uint32_t  BSP_BUTTON_PRIO [BUTTONn] = {BSP_BUTTON_USER_IT_PRIORITY};
 615              		.loc 1 384 3 view .LVU141
 385:Drivers/BSP/STM32U5xx_Nucleo/stm32u5xx_nucleo.c ****   static const uint32_t BUTTON_EXTI_LINE[BUTTONn] = {BUTTON_USER_EXTI_LINE};
 616              		.loc 1 385 3 view .LVU142
 386:Drivers/BSP/STM32U5xx_Nucleo/stm32u5xx_nucleo.c **** 
 387:Drivers/BSP/STM32U5xx_Nucleo/stm32u5xx_nucleo.c ****   /* Enable the BUTTON clock */
 388:Drivers/BSP/STM32U5xx_Nucleo/stm32u5xx_nucleo.c ****   BUTTON_USER_GPIO_CLK_ENABLE();
 617              		.loc 1 388 3 view .LVU143
 618              	.LBB6:
 619              		.loc 1 388 3 view .LVU144
 620              		.loc 1 388 3 view .LVU145
 621 0004 1D4B     		ldr	r3, .L72
 622 0006 D3F88C20 		ldr	r2, [r3, #140]
 623 000a 42F00402 		orr	r2, r2, #4
 624 000e C3F88C20 		str	r2, [r3, #140]
 625              		.loc 1 388 3 view .LVU146
 626 0012 D3F88C30 		ldr	r3, [r3, #140]
 627 0016 03F00403 		and	r3, r3, #4
 628 001a 0093     		str	r3, [sp]
 629              		.loc 1 388 3 view .LVU147
 630 001c 009B     		ldr	r3, [sp]
 631              	.LBE6:
 632              		.loc 1 388 3 view .LVU148
 389:Drivers/BSP/STM32U5xx_Nucleo/stm32u5xx_nucleo.c **** 
 390:Drivers/BSP/STM32U5xx_Nucleo/stm32u5xx_nucleo.c ****   gpio_init_structure.Pin = BUTTON_PIN [Button];
 633              		.loc 1 390 3 view .LVU149
 634              		.loc 1 390 27 is_stmt 0 view .LVU150
 635 001e 4FF40053 		mov	r3, #8192
 636 0022 0193     		str	r3, [sp, #4]
 391:Drivers/BSP/STM32U5xx_Nucleo/stm32u5xx_nucleo.c ****   gpio_init_structure.Pull = GPIO_PULLDOWN;
 637              		.loc 1 391 3 is_stmt 1 view .LVU151
 638              		.loc 1 391 28 is_stmt 0 view .LVU152
 639 0024 0223     		movs	r3, #2
 640 0026 0393     		str	r3, [sp, #12]
 392:Drivers/BSP/STM32U5xx_Nucleo/stm32u5xx_nucleo.c ****   gpio_init_structure.Speed = GPIO_SPEED_FREQ_HIGH;
 641              		.loc 1 392 3 is_stmt 1 view .LVU153
 642              		.loc 1 392 29 is_stmt 0 view .LVU154
 643 0028 0493     		str	r3, [sp, #16]
 393:Drivers/BSP/STM32U5xx_Nucleo/stm32u5xx_nucleo.c **** 
 394:Drivers/BSP/STM32U5xx_Nucleo/stm32u5xx_nucleo.c ****   if (ButtonMode == BUTTON_MODE_GPIO)
 644              		.loc 1 394 3 is_stmt 1 view .LVU155
 645              		.loc 1 394 6 is_stmt 0 view .LVU156
 646 002a 41B9     		cbnz	r1, .L69
 395:Drivers/BSP/STM32U5xx_Nucleo/stm32u5xx_nucleo.c ****   {
 396:Drivers/BSP/STM32U5xx_Nucleo/stm32u5xx_nucleo.c ****     /* Configure Button pin as input */
 397:Drivers/BSP/STM32U5xx_Nucleo/stm32u5xx_nucleo.c ****     gpio_init_structure.Mode = GPIO_MODE_INPUT;
 647              		.loc 1 397 5 is_stmt 1 view .LVU157
 648              		.loc 1 397 30 is_stmt 0 view .LVU158
 649 002c 0023     		movs	r3, #0
 650 002e 0293     		str	r3, [sp, #8]
 398:Drivers/BSP/STM32U5xx_Nucleo/stm32u5xx_nucleo.c ****     HAL_GPIO_Init(BUTTON_PORT [Button], &gpio_init_structure);
ARM GAS  C:\Users\Ya\AppData\Local\Temp\ccV6Z6CV.s 			page 20


 651              		.loc 1 398 5 is_stmt 1 view .LVU159
 652 0030 01A9     		add	r1, sp, #4
 653              	.LVL37:
 654              		.loc 1 398 5 is_stmt 0 view .LVU160
 655 0032 1348     		ldr	r0, .L72+4
 656              	.LVL38:
 657              		.loc 1 398 5 view .LVU161
 658 0034 FFF7FEFF 		bl	HAL_GPIO_Init
 659              	.LVL39:
 660              	.L70:
 399:Drivers/BSP/STM32U5xx_Nucleo/stm32u5xx_nucleo.c ****   }
 400:Drivers/BSP/STM32U5xx_Nucleo/stm32u5xx_nucleo.c ****   else /* (ButtonMode == BUTTON_MODE_EXTI) */
 401:Drivers/BSP/STM32U5xx_Nucleo/stm32u5xx_nucleo.c ****   {
 402:Drivers/BSP/STM32U5xx_Nucleo/stm32u5xx_nucleo.c ****     /* Configure Button pin as input with External interrupt */
 403:Drivers/BSP/STM32U5xx_Nucleo/stm32u5xx_nucleo.c ****     gpio_init_structure.Mode = GPIO_MODE_IT_RISING;
 404:Drivers/BSP/STM32U5xx_Nucleo/stm32u5xx_nucleo.c **** 
 405:Drivers/BSP/STM32U5xx_Nucleo/stm32u5xx_nucleo.c ****     HAL_GPIO_Init(BUTTON_PORT[Button], &gpio_init_structure);
 406:Drivers/BSP/STM32U5xx_Nucleo/stm32u5xx_nucleo.c **** 
 407:Drivers/BSP/STM32U5xx_Nucleo/stm32u5xx_nucleo.c ****     (void)HAL_EXTI_GetHandle(&hpb_exti[Button], BUTTON_EXTI_LINE[Button]);
 408:Drivers/BSP/STM32U5xx_Nucleo/stm32u5xx_nucleo.c ****     (void)HAL_EXTI_RegisterCallback(&hpb_exti[Button],  HAL_EXTI_COMMON_CB_ID, ButtonCallback[Butto
 409:Drivers/BSP/STM32U5xx_Nucleo/stm32u5xx_nucleo.c **** 
 410:Drivers/BSP/STM32U5xx_Nucleo/stm32u5xx_nucleo.c ****     /* Enable and set Button EXTI Interrupt to the lowest priority */
 411:Drivers/BSP/STM32U5xx_Nucleo/stm32u5xx_nucleo.c ****     HAL_NVIC_SetPriority((BUTTON_IRQn[Button]), BSP_BUTTON_PRIO[Button], 0x00);
 412:Drivers/BSP/STM32U5xx_Nucleo/stm32u5xx_nucleo.c ****     HAL_NVIC_EnableIRQ((BUTTON_IRQn[Button]));
 413:Drivers/BSP/STM32U5xx_Nucleo/stm32u5xx_nucleo.c ****   }
 414:Drivers/BSP/STM32U5xx_Nucleo/stm32u5xx_nucleo.c **** 
 415:Drivers/BSP/STM32U5xx_Nucleo/stm32u5xx_nucleo.c ****   return BSP_ERROR_NONE;
 661              		.loc 1 415 3 is_stmt 1 view .LVU162
 416:Drivers/BSP/STM32U5xx_Nucleo/stm32u5xx_nucleo.c **** }
 662              		.loc 1 416 1 is_stmt 0 view .LVU163
 663 0038 0020     		movs	r0, #0
 664 003a 06B0     		add	sp, sp, #24
 665              		.cfi_remember_state
 666              		.cfi_def_cfa_offset 8
 667              		@ sp needed
 668 003c 10BD     		pop	{r4, pc}
 669              	.LVL40:
 670              	.L69:
 671              		.cfi_restore_state
 672              		.loc 1 416 1 view .LVU164
 673 003e 0446     		mov	r4, r0
 403:Drivers/BSP/STM32U5xx_Nucleo/stm32u5xx_nucleo.c **** 
 674              		.loc 1 403 5 is_stmt 1 view .LVU165
 403:Drivers/BSP/STM32U5xx_Nucleo/stm32u5xx_nucleo.c **** 
 675              		.loc 1 403 30 is_stmt 0 view .LVU166
 676 0040 104B     		ldr	r3, .L72+8
 677 0042 0293     		str	r3, [sp, #8]
 405:Drivers/BSP/STM32U5xx_Nucleo/stm32u5xx_nucleo.c **** 
 678              		.loc 1 405 5 is_stmt 1 view .LVU167
 679 0044 01A9     		add	r1, sp, #4
 680              	.LVL41:
 405:Drivers/BSP/STM32U5xx_Nucleo/stm32u5xx_nucleo.c **** 
 681              		.loc 1 405 5 is_stmt 0 view .LVU168
 682 0046 0E48     		ldr	r0, .L72+4
 683              	.LVL42:
 405:Drivers/BSP/STM32U5xx_Nucleo/stm32u5xx_nucleo.c **** 
 684              		.loc 1 405 5 view .LVU169
ARM GAS  C:\Users\Ya\AppData\Local\Temp\ccV6Z6CV.s 			page 21


 685 0048 FFF7FEFF 		bl	HAL_GPIO_Init
 686              	.LVL43:
 407:Drivers/BSP/STM32U5xx_Nucleo/stm32u5xx_nucleo.c ****     (void)HAL_EXTI_RegisterCallback(&hpb_exti[Button],  HAL_EXTI_COMMON_CB_ID, ButtonCallback[Butto
 687              		.loc 1 407 5 is_stmt 1 view .LVU170
 407:Drivers/BSP/STM32U5xx_Nucleo/stm32u5xx_nucleo.c ****     (void)HAL_EXTI_RegisterCallback(&hpb_exti[Button],  HAL_EXTI_COMMON_CB_ID, ButtonCallback[Butto
 688              		.loc 1 407 11 is_stmt 0 view .LVU171
 689 004c 04EB4404 		add	r4, r4, r4, lsl #1
 690 0050 0D4B     		ldr	r3, .L72+12
 691 0052 03EB8404 		add	r4, r3, r4, lsl #2
 692 0056 0D49     		ldr	r1, .L72+16
 693 0058 2046     		mov	r0, r4
 694 005a FFF7FEFF 		bl	HAL_EXTI_GetHandle
 695              	.LVL44:
 408:Drivers/BSP/STM32U5xx_Nucleo/stm32u5xx_nucleo.c **** 
 696              		.loc 1 408 5 is_stmt 1 view .LVU172
 408:Drivers/BSP/STM32U5xx_Nucleo/stm32u5xx_nucleo.c **** 
 697              		.loc 1 408 11 is_stmt 0 view .LVU173
 698 005e 0C4A     		ldr	r2, .L72+20
 699 0060 0021     		movs	r1, #0
 700 0062 2046     		mov	r0, r4
 701 0064 FFF7FEFF 		bl	HAL_EXTI_RegisterCallback
 702              	.LVL45:
 411:Drivers/BSP/STM32U5xx_Nucleo/stm32u5xx_nucleo.c ****     HAL_NVIC_EnableIRQ((BUTTON_IRQn[Button]));
 703              		.loc 1 411 5 is_stmt 1 view .LVU174
 704 0068 0022     		movs	r2, #0
 705 006a 0F21     		movs	r1, #15
 706 006c 1820     		movs	r0, #24
 707 006e FFF7FEFF 		bl	HAL_NVIC_SetPriority
 708              	.LVL46:
 412:Drivers/BSP/STM32U5xx_Nucleo/stm32u5xx_nucleo.c ****   }
 709              		.loc 1 412 5 view .LVU175
 710 0072 1820     		movs	r0, #24
 711 0074 FFF7FEFF 		bl	HAL_NVIC_EnableIRQ
 712              	.LVL47:
 713 0078 DEE7     		b	.L70
 714              	.L73:
 715 007a 00BF     		.align	2
 716              	.L72:
 717 007c 000C0246 		.word	1174539264
 718 0080 00080242 		.word	1107429376
 719 0084 00001110 		.word	269549568
 720 0088 00000000 		.word	hpb_exti
 721 008c 0D000006 		.word	100663309
 722 0090 00000000 		.word	BUTTON_USER_EXTI_Callback
 723              		.cfi_endproc
 724              	.LFE349:
 726              		.section	.text.BSP_PB_DeInit,"ax",%progbits
 727              		.align	1
 728              		.global	BSP_PB_DeInit
 729              		.syntax unified
 730              		.thumb
 731              		.thumb_func
 733              	BSP_PB_DeInit:
 734              	.LVL48:
 735              	.LFB350:
 417:Drivers/BSP/STM32U5xx_Nucleo/stm32u5xx_nucleo.c **** 
 418:Drivers/BSP/STM32U5xx_Nucleo/stm32u5xx_nucleo.c **** /**
ARM GAS  C:\Users\Ya\AppData\Local\Temp\ccV6Z6CV.s 			page 22


 419:Drivers/BSP/STM32U5xx_Nucleo/stm32u5xx_nucleo.c ****   * @brief  Push Button DeInit.
 420:Drivers/BSP/STM32U5xx_Nucleo/stm32u5xx_nucleo.c ****   * @param  Button Button to be configured
 421:Drivers/BSP/STM32U5xx_Nucleo/stm32u5xx_nucleo.c ****   *          This parameter can be one of the following values:
 422:Drivers/BSP/STM32U5xx_Nucleo/stm32u5xx_nucleo.c ****   *            @arg  BUTTON_USER: Wakeup Push Button
 423:Drivers/BSP/STM32U5xx_Nucleo/stm32u5xx_nucleo.c ****   * @note PB DeInit does not disable the GPIO clock
 424:Drivers/BSP/STM32U5xx_Nucleo/stm32u5xx_nucleo.c ****   */
 425:Drivers/BSP/STM32U5xx_Nucleo/stm32u5xx_nucleo.c **** int32_t BSP_PB_DeInit(Button_TypeDef Button)
 426:Drivers/BSP/STM32U5xx_Nucleo/stm32u5xx_nucleo.c **** {
 736              		.loc 1 426 1 view -0
 737              		.cfi_startproc
 738              		@ args = 0, pretend = 0, frame = 24
 739              		@ frame_needed = 0, uses_anonymous_args = 0
 740              		.loc 1 426 1 is_stmt 0 view .LVU177
 741 0000 10B5     		push	{r4, lr}
 742              		.cfi_def_cfa_offset 8
 743              		.cfi_offset 4, -8
 744              		.cfi_offset 14, -4
 745 0002 86B0     		sub	sp, sp, #24
 746              		.cfi_def_cfa_offset 32
 427:Drivers/BSP/STM32U5xx_Nucleo/stm32u5xx_nucleo.c ****   GPIO_InitTypeDef gpio_init_structure;
 747              		.loc 1 427 3 is_stmt 1 view .LVU178
 428:Drivers/BSP/STM32U5xx_Nucleo/stm32u5xx_nucleo.c **** 
 429:Drivers/BSP/STM32U5xx_Nucleo/stm32u5xx_nucleo.c ****   gpio_init_structure.Pin = BUTTON_PIN[Button];
 748              		.loc 1 429 3 view .LVU179
 749              		.loc 1 429 27 is_stmt 0 view .LVU180
 750 0004 4FF40054 		mov	r4, #8192
 751 0008 0194     		str	r4, [sp, #4]
 430:Drivers/BSP/STM32U5xx_Nucleo/stm32u5xx_nucleo.c ****   HAL_NVIC_DisableIRQ((IRQn_Type)(BUTTON_IRQn[Button]));
 752              		.loc 1 430 3 is_stmt 1 view .LVU181
 753 000a 1820     		movs	r0, #24
 754              	.LVL49:
 755              		.loc 1 430 3 is_stmt 0 view .LVU182
 756 000c FFF7FEFF 		bl	HAL_NVIC_DisableIRQ
 757              	.LVL50:
 431:Drivers/BSP/STM32U5xx_Nucleo/stm32u5xx_nucleo.c ****   HAL_GPIO_DeInit(BUTTON_PORT[Button], gpio_init_structure.Pin);
 758              		.loc 1 431 3 is_stmt 1 view .LVU183
 759 0010 2146     		mov	r1, r4
 760 0012 0348     		ldr	r0, .L76
 761 0014 FFF7FEFF 		bl	HAL_GPIO_DeInit
 762              	.LVL51:
 432:Drivers/BSP/STM32U5xx_Nucleo/stm32u5xx_nucleo.c **** 
 433:Drivers/BSP/STM32U5xx_Nucleo/stm32u5xx_nucleo.c ****   return BSP_ERROR_NONE;
 763              		.loc 1 433 3 view .LVU184
 434:Drivers/BSP/STM32U5xx_Nucleo/stm32u5xx_nucleo.c **** }
 764              		.loc 1 434 1 is_stmt 0 view .LVU185
 765 0018 0020     		movs	r0, #0
 766 001a 06B0     		add	sp, sp, #24
 767              		.cfi_def_cfa_offset 8
 768              		@ sp needed
 769 001c 10BD     		pop	{r4, pc}
 770              	.L77:
 771 001e 00BF     		.align	2
 772              	.L76:
 773 0020 00080242 		.word	1107429376
 774              		.cfi_endproc
 775              	.LFE350:
 777              		.section	.text.BSP_PB_GetState,"ax",%progbits
ARM GAS  C:\Users\Ya\AppData\Local\Temp\ccV6Z6CV.s 			page 23


 778              		.align	1
 779              		.global	BSP_PB_GetState
 780              		.syntax unified
 781              		.thumb
 782              		.thumb_func
 784              	BSP_PB_GetState:
 785              	.LVL52:
 786              	.LFB351:
 435:Drivers/BSP/STM32U5xx_Nucleo/stm32u5xx_nucleo.c **** 
 436:Drivers/BSP/STM32U5xx_Nucleo/stm32u5xx_nucleo.c **** /**
 437:Drivers/BSP/STM32U5xx_Nucleo/stm32u5xx_nucleo.c ****   * @brief  Returns the selected button state.
 438:Drivers/BSP/STM32U5xx_Nucleo/stm32u5xx_nucleo.c ****   * @param  Button Button to be checked
 439:Drivers/BSP/STM32U5xx_Nucleo/stm32u5xx_nucleo.c ****   *          This parameter can be one of the following values:
 440:Drivers/BSP/STM32U5xx_Nucleo/stm32u5xx_nucleo.c ****   *            @arg  BUTTON_USER: Wakeup Push Button
 441:Drivers/BSP/STM32U5xx_Nucleo/stm32u5xx_nucleo.c ****   * @retval The Button GPIO pin value (GPIO_PIN_RESET = button pressed)
 442:Drivers/BSP/STM32U5xx_Nucleo/stm32u5xx_nucleo.c ****   */
 443:Drivers/BSP/STM32U5xx_Nucleo/stm32u5xx_nucleo.c **** int32_t BSP_PB_GetState(Button_TypeDef Button)
 444:Drivers/BSP/STM32U5xx_Nucleo/stm32u5xx_nucleo.c **** {
 787              		.loc 1 444 1 is_stmt 1 view -0
 788              		.cfi_startproc
 789              		@ args = 0, pretend = 0, frame = 0
 790              		@ frame_needed = 0, uses_anonymous_args = 0
 791              		.loc 1 444 1 is_stmt 0 view .LVU187
 792 0000 08B5     		push	{r3, lr}
 793              		.cfi_def_cfa_offset 8
 794              		.cfi_offset 3, -8
 795              		.cfi_offset 14, -4
 445:Drivers/BSP/STM32U5xx_Nucleo/stm32u5xx_nucleo.c ****   return (int32_t)HAL_GPIO_ReadPin(BUTTON_PORT[Button], BUTTON_PIN[Button]);
 796              		.loc 1 445 3 is_stmt 1 view .LVU188
 797              		.loc 1 445 19 is_stmt 0 view .LVU189
 798 0002 4FF40051 		mov	r1, #8192
 799 0006 0248     		ldr	r0, .L80
 800              	.LVL53:
 801              		.loc 1 445 19 view .LVU190
 802 0008 FFF7FEFF 		bl	HAL_GPIO_ReadPin
 803              	.LVL54:
 446:Drivers/BSP/STM32U5xx_Nucleo/stm32u5xx_nucleo.c **** }
 804              		.loc 1 446 1 view .LVU191
 805 000c 08BD     		pop	{r3, pc}
 806              	.L81:
 807 000e 00BF     		.align	2
 808              	.L80:
 809 0010 00080242 		.word	1107429376
 810              		.cfi_endproc
 811              	.LFE351:
 813              		.section	.text.BSP_PB_IRQHandler,"ax",%progbits
 814              		.align	1
 815              		.global	BSP_PB_IRQHandler
 816              		.syntax unified
 817              		.thumb
 818              		.thumb_func
 820              	BSP_PB_IRQHandler:
 821              	.LVL55:
 822              	.LFB352:
 447:Drivers/BSP/STM32U5xx_Nucleo/stm32u5xx_nucleo.c **** 
 448:Drivers/BSP/STM32U5xx_Nucleo/stm32u5xx_nucleo.c **** /**
 449:Drivers/BSP/STM32U5xx_Nucleo/stm32u5xx_nucleo.c ****   * @brief  BSP Button IRQ handler
ARM GAS  C:\Users\Ya\AppData\Local\Temp\ccV6Z6CV.s 			page 24


 450:Drivers/BSP/STM32U5xx_Nucleo/stm32u5xx_nucleo.c ****   * @param  Button Can only be BUTTON_USER
 451:Drivers/BSP/STM32U5xx_Nucleo/stm32u5xx_nucleo.c ****   * @retval None
 452:Drivers/BSP/STM32U5xx_Nucleo/stm32u5xx_nucleo.c ****   */
 453:Drivers/BSP/STM32U5xx_Nucleo/stm32u5xx_nucleo.c **** void BSP_PB_IRQHandler(Button_TypeDef Button)
 454:Drivers/BSP/STM32U5xx_Nucleo/stm32u5xx_nucleo.c **** {
 823              		.loc 1 454 1 is_stmt 1 view -0
 824              		.cfi_startproc
 825              		@ args = 0, pretend = 0, frame = 0
 826              		@ frame_needed = 0, uses_anonymous_args = 0
 827              		.loc 1 454 1 is_stmt 0 view .LVU193
 828 0000 08B5     		push	{r3, lr}
 829              		.cfi_def_cfa_offset 8
 830              		.cfi_offset 3, -8
 831              		.cfi_offset 14, -4
 455:Drivers/BSP/STM32U5xx_Nucleo/stm32u5xx_nucleo.c ****   HAL_EXTI_IRQHandler(&hpb_exti[Button]);
 832              		.loc 1 455 3 is_stmt 1 view .LVU194
 833              		.loc 1 455 23 is_stmt 0 view .LVU195
 834 0002 00EB4000 		add	r0, r0, r0, lsl #1
 835              	.LVL56:
 836              		.loc 1 455 3 view .LVU196
 837 0006 034B     		ldr	r3, .L84
 838 0008 03EB8000 		add	r0, r3, r0, lsl #2
 839 000c FFF7FEFF 		bl	HAL_EXTI_IRQHandler
 840              	.LVL57:
 456:Drivers/BSP/STM32U5xx_Nucleo/stm32u5xx_nucleo.c **** }
 841              		.loc 1 456 1 view .LVU197
 842 0010 08BD     		pop	{r3, pc}
 843              	.L85:
 844 0012 00BF     		.align	2
 845              	.L84:
 846 0014 00000000 		.word	hpb_exti
 847              		.cfi_endproc
 848              	.LFE352:
 850              		.section	.text.BSP_PB_Callback,"ax",%progbits
 851              		.align	1
 852              		.weak	BSP_PB_Callback
 853              		.syntax unified
 854              		.thumb
 855              		.thumb_func
 857              	BSP_PB_Callback:
 858              	.LVL58:
 859              	.LFB353:
 457:Drivers/BSP/STM32U5xx_Nucleo/stm32u5xx_nucleo.c **** 
 458:Drivers/BSP/STM32U5xx_Nucleo/stm32u5xx_nucleo.c **** /**
 459:Drivers/BSP/STM32U5xx_Nucleo/stm32u5xx_nucleo.c ****   * @brief  BSP Push Button callback
 460:Drivers/BSP/STM32U5xx_Nucleo/stm32u5xx_nucleo.c ****   * @param  Button Specifies the pin connected EXTI line
 461:Drivers/BSP/STM32U5xx_Nucleo/stm32u5xx_nucleo.c ****   * @retval None
 462:Drivers/BSP/STM32U5xx_Nucleo/stm32u5xx_nucleo.c ****   */
 463:Drivers/BSP/STM32U5xx_Nucleo/stm32u5xx_nucleo.c **** __weak void BSP_PB_Callback(Button_TypeDef Button)
 464:Drivers/BSP/STM32U5xx_Nucleo/stm32u5xx_nucleo.c **** {
 860              		.loc 1 464 1 is_stmt 1 view -0
 861              		.cfi_startproc
 862              		@ args = 0, pretend = 0, frame = 0
 863              		@ frame_needed = 0, uses_anonymous_args = 0
 864              		@ link register save eliminated.
 465:Drivers/BSP/STM32U5xx_Nucleo/stm32u5xx_nucleo.c ****   /* Prevent unused argument(s) compilation warning */
 466:Drivers/BSP/STM32U5xx_Nucleo/stm32u5xx_nucleo.c ****   UNUSED(Button);
ARM GAS  C:\Users\Ya\AppData\Local\Temp\ccV6Z6CV.s 			page 25


 865              		.loc 1 466 3 view .LVU199
 467:Drivers/BSP/STM32U5xx_Nucleo/stm32u5xx_nucleo.c **** 
 468:Drivers/BSP/STM32U5xx_Nucleo/stm32u5xx_nucleo.c ****   /* This function should be implemented by the user application.
 469:Drivers/BSP/STM32U5xx_Nucleo/stm32u5xx_nucleo.c ****      It is called into this driver when an event on Button is triggered. */
 470:Drivers/BSP/STM32U5xx_Nucleo/stm32u5xx_nucleo.c **** }
 866              		.loc 1 470 1 is_stmt 0 view .LVU200
 867 0000 7047     		bx	lr
 868              		.cfi_endproc
 869              	.LFE353:
 871              		.section	.text.BUTTON_USER_EXTI_Callback,"ax",%progbits
 872              		.align	1
 873              		.syntax unified
 874              		.thumb
 875              		.thumb_func
 877              	BUTTON_USER_EXTI_Callback:
 878              	.LFB354:
 471:Drivers/BSP/STM32U5xx_Nucleo/stm32u5xx_nucleo.c **** 
 472:Drivers/BSP/STM32U5xx_Nucleo/stm32u5xx_nucleo.c **** #if (USE_BSP_COM_FEATURE > 0)
 473:Drivers/BSP/STM32U5xx_Nucleo/stm32u5xx_nucleo.c **** /**
 474:Drivers/BSP/STM32U5xx_Nucleo/stm32u5xx_nucleo.c ****   * @brief  Configures COM port.
 475:Drivers/BSP/STM32U5xx_Nucleo/stm32u5xx_nucleo.c ****   * @param  COM COM port to be configured.
 476:Drivers/BSP/STM32U5xx_Nucleo/stm32u5xx_nucleo.c ****   *          This parameter can be COM1
 477:Drivers/BSP/STM32U5xx_Nucleo/stm32u5xx_nucleo.c ****   * @param  COM_Init Pointer to a UART_HandleTypeDef structure that contains the
 478:Drivers/BSP/STM32U5xx_Nucleo/stm32u5xx_nucleo.c ****   *                  configuration information for the specified USART peripheral.
 479:Drivers/BSP/STM32U5xx_Nucleo/stm32u5xx_nucleo.c ****   * @retval BSP error code
 480:Drivers/BSP/STM32U5xx_Nucleo/stm32u5xx_nucleo.c ****   */
 481:Drivers/BSP/STM32U5xx_Nucleo/stm32u5xx_nucleo.c **** int32_t BSP_COM_Init(COM_TypeDef COM, COM_InitTypeDef *COM_Init)
 482:Drivers/BSP/STM32U5xx_Nucleo/stm32u5xx_nucleo.c **** {
 483:Drivers/BSP/STM32U5xx_Nucleo/stm32u5xx_nucleo.c ****   int32_t ret = BSP_ERROR_NONE;
 484:Drivers/BSP/STM32U5xx_Nucleo/stm32u5xx_nucleo.c **** 
 485:Drivers/BSP/STM32U5xx_Nucleo/stm32u5xx_nucleo.c ****   if (COM >= COMn)
 486:Drivers/BSP/STM32U5xx_Nucleo/stm32u5xx_nucleo.c ****   {
 487:Drivers/BSP/STM32U5xx_Nucleo/stm32u5xx_nucleo.c ****     ret = BSP_ERROR_WRONG_PARAM;
 488:Drivers/BSP/STM32U5xx_Nucleo/stm32u5xx_nucleo.c ****   }
 489:Drivers/BSP/STM32U5xx_Nucleo/stm32u5xx_nucleo.c ****   else
 490:Drivers/BSP/STM32U5xx_Nucleo/stm32u5xx_nucleo.c ****   {
 491:Drivers/BSP/STM32U5xx_Nucleo/stm32u5xx_nucleo.c **** #if (USE_HAL_UART_REGISTER_CALLBACKS == 0)
 492:Drivers/BSP/STM32U5xx_Nucleo/stm32u5xx_nucleo.c ****     /* Init the UART Msp */
 493:Drivers/BSP/STM32U5xx_Nucleo/stm32u5xx_nucleo.c ****     COM1_MspInit(&hcom_uart[COM]);
 494:Drivers/BSP/STM32U5xx_Nucleo/stm32u5xx_nucleo.c **** #else
 495:Drivers/BSP/STM32U5xx_Nucleo/stm32u5xx_nucleo.c ****     if (IsComMspCbValid[COM] == 0U)
 496:Drivers/BSP/STM32U5xx_Nucleo/stm32u5xx_nucleo.c ****     {
 497:Drivers/BSP/STM32U5xx_Nucleo/stm32u5xx_nucleo.c ****       if (BSP_COM_RegisterDefaultMspCallbacks(COM) != BSP_ERROR_NONE)
 498:Drivers/BSP/STM32U5xx_Nucleo/stm32u5xx_nucleo.c ****       {
 499:Drivers/BSP/STM32U5xx_Nucleo/stm32u5xx_nucleo.c ****         return BSP_ERROR_MSP_FAILURE;
 500:Drivers/BSP/STM32U5xx_Nucleo/stm32u5xx_nucleo.c ****       }
 501:Drivers/BSP/STM32U5xx_Nucleo/stm32u5xx_nucleo.c ****     }
 502:Drivers/BSP/STM32U5xx_Nucleo/stm32u5xx_nucleo.c **** #endif /* (USE_HAL_UART_REGISTER_CALLBACKS == 0) */
 503:Drivers/BSP/STM32U5xx_Nucleo/stm32u5xx_nucleo.c **** 
 504:Drivers/BSP/STM32U5xx_Nucleo/stm32u5xx_nucleo.c ****     if (MX_USART1_Init(&hcom_uart[COM], COM_Init) != HAL_OK)
 505:Drivers/BSP/STM32U5xx_Nucleo/stm32u5xx_nucleo.c ****     {
 506:Drivers/BSP/STM32U5xx_Nucleo/stm32u5xx_nucleo.c ****       ret = BSP_ERROR_PERIPH_FAILURE;
 507:Drivers/BSP/STM32U5xx_Nucleo/stm32u5xx_nucleo.c ****     }
 508:Drivers/BSP/STM32U5xx_Nucleo/stm32u5xx_nucleo.c ****   }
 509:Drivers/BSP/STM32U5xx_Nucleo/stm32u5xx_nucleo.c **** 
 510:Drivers/BSP/STM32U5xx_Nucleo/stm32u5xx_nucleo.c ****   return ret;
 511:Drivers/BSP/STM32U5xx_Nucleo/stm32u5xx_nucleo.c **** }
ARM GAS  C:\Users\Ya\AppData\Local\Temp\ccV6Z6CV.s 			page 26


 512:Drivers/BSP/STM32U5xx_Nucleo/stm32u5xx_nucleo.c **** 
 513:Drivers/BSP/STM32U5xx_Nucleo/stm32u5xx_nucleo.c **** /**
 514:Drivers/BSP/STM32U5xx_Nucleo/stm32u5xx_nucleo.c ****   * @brief  DeInit COM port.
 515:Drivers/BSP/STM32U5xx_Nucleo/stm32u5xx_nucleo.c ****   * @param  COM COM port to be configured.
 516:Drivers/BSP/STM32U5xx_Nucleo/stm32u5xx_nucleo.c ****   *          This parameter can be COM1
 517:Drivers/BSP/STM32U5xx_Nucleo/stm32u5xx_nucleo.c ****   * @retval BSP status
 518:Drivers/BSP/STM32U5xx_Nucleo/stm32u5xx_nucleo.c ****   */
 519:Drivers/BSP/STM32U5xx_Nucleo/stm32u5xx_nucleo.c **** int32_t BSP_COM_DeInit(COM_TypeDef COM)
 520:Drivers/BSP/STM32U5xx_Nucleo/stm32u5xx_nucleo.c **** {
 521:Drivers/BSP/STM32U5xx_Nucleo/stm32u5xx_nucleo.c ****   int32_t ret = BSP_ERROR_NONE;
 522:Drivers/BSP/STM32U5xx_Nucleo/stm32u5xx_nucleo.c **** 
 523:Drivers/BSP/STM32U5xx_Nucleo/stm32u5xx_nucleo.c ****   if (COM >= COMn)
 524:Drivers/BSP/STM32U5xx_Nucleo/stm32u5xx_nucleo.c ****   {
 525:Drivers/BSP/STM32U5xx_Nucleo/stm32u5xx_nucleo.c ****     ret = BSP_ERROR_WRONG_PARAM;
 526:Drivers/BSP/STM32U5xx_Nucleo/stm32u5xx_nucleo.c ****   }
 527:Drivers/BSP/STM32U5xx_Nucleo/stm32u5xx_nucleo.c ****   else
 528:Drivers/BSP/STM32U5xx_Nucleo/stm32u5xx_nucleo.c ****   {
 529:Drivers/BSP/STM32U5xx_Nucleo/stm32u5xx_nucleo.c ****     /* USART configuration */
 530:Drivers/BSP/STM32U5xx_Nucleo/stm32u5xx_nucleo.c ****     hcom_uart[COM].Instance = COM_USART[COM];
 531:Drivers/BSP/STM32U5xx_Nucleo/stm32u5xx_nucleo.c **** 
 532:Drivers/BSP/STM32U5xx_Nucleo/stm32u5xx_nucleo.c **** #if (USE_HAL_UART_REGISTER_CALLBACKS == 0)
 533:Drivers/BSP/STM32U5xx_Nucleo/stm32u5xx_nucleo.c ****     COM1_MspDeInit(&hcom_uart[COM]);
 534:Drivers/BSP/STM32U5xx_Nucleo/stm32u5xx_nucleo.c **** #endif /* (USE_HAL_UART_REGISTER_CALLBACKS == 0) */
 535:Drivers/BSP/STM32U5xx_Nucleo/stm32u5xx_nucleo.c **** 
 536:Drivers/BSP/STM32U5xx_Nucleo/stm32u5xx_nucleo.c ****     if (HAL_UART_DeInit(&hcom_uart[COM]) != HAL_OK)
 537:Drivers/BSP/STM32U5xx_Nucleo/stm32u5xx_nucleo.c ****     {
 538:Drivers/BSP/STM32U5xx_Nucleo/stm32u5xx_nucleo.c ****       ret = BSP_ERROR_PERIPH_FAILURE;
 539:Drivers/BSP/STM32U5xx_Nucleo/stm32u5xx_nucleo.c ****     }
 540:Drivers/BSP/STM32U5xx_Nucleo/stm32u5xx_nucleo.c ****   }
 541:Drivers/BSP/STM32U5xx_Nucleo/stm32u5xx_nucleo.c **** 
 542:Drivers/BSP/STM32U5xx_Nucleo/stm32u5xx_nucleo.c ****   return ret;
 543:Drivers/BSP/STM32U5xx_Nucleo/stm32u5xx_nucleo.c **** }
 544:Drivers/BSP/STM32U5xx_Nucleo/stm32u5xx_nucleo.c **** 
 545:Drivers/BSP/STM32U5xx_Nucleo/stm32u5xx_nucleo.c **** /**
 546:Drivers/BSP/STM32U5xx_Nucleo/stm32u5xx_nucleo.c ****   * @brief  Configures COM port.
 547:Drivers/BSP/STM32U5xx_Nucleo/stm32u5xx_nucleo.c ****   * @param  huart USART handle
 548:Drivers/BSP/STM32U5xx_Nucleo/stm32u5xx_nucleo.c ****   * @param  COM_Init Pointer to a UART_HandleTypeDef structure that contains the
 549:Drivers/BSP/STM32U5xx_Nucleo/stm32u5xx_nucleo.c ****   *                  configuration information for the specified USART peripheral.
 550:Drivers/BSP/STM32U5xx_Nucleo/stm32u5xx_nucleo.c ****   * @retval HAL error code
 551:Drivers/BSP/STM32U5xx_Nucleo/stm32u5xx_nucleo.c ****   */
 552:Drivers/BSP/STM32U5xx_Nucleo/stm32u5xx_nucleo.c **** __weak HAL_StatusTypeDef MX_USART1_Init(UART_HandleTypeDef *huart, MX_UART_InitTypeDef *COM_Init)
 553:Drivers/BSP/STM32U5xx_Nucleo/stm32u5xx_nucleo.c **** {
 554:Drivers/BSP/STM32U5xx_Nucleo/stm32u5xx_nucleo.c ****   /* USART configuration */
 555:Drivers/BSP/STM32U5xx_Nucleo/stm32u5xx_nucleo.c ****   huart->Instance                = COM_USART[COM1];
 556:Drivers/BSP/STM32U5xx_Nucleo/stm32u5xx_nucleo.c ****   huart->Init.BaudRate           = COM_Init->BaudRate;
 557:Drivers/BSP/STM32U5xx_Nucleo/stm32u5xx_nucleo.c ****   huart->Init.Mode               = UART_MODE_TX_RX;
 558:Drivers/BSP/STM32U5xx_Nucleo/stm32u5xx_nucleo.c ****   huart->Init.Parity             = (uint32_t)COM_Init->Parity;
 559:Drivers/BSP/STM32U5xx_Nucleo/stm32u5xx_nucleo.c ****   huart->Init.WordLength         = (uint32_t)COM_Init->WordLength;
 560:Drivers/BSP/STM32U5xx_Nucleo/stm32u5xx_nucleo.c ****   huart->Init.StopBits           = (uint32_t)COM_Init->StopBits;
 561:Drivers/BSP/STM32U5xx_Nucleo/stm32u5xx_nucleo.c ****   huart->Init.HwFlowCtl          = (uint32_t)COM_Init->HwFlowCtl;
 562:Drivers/BSP/STM32U5xx_Nucleo/stm32u5xx_nucleo.c ****   huart->Init.OverSampling       = UART_OVERSAMPLING_8;
 563:Drivers/BSP/STM32U5xx_Nucleo/stm32u5xx_nucleo.c ****   huart->Init.ClockPrescaler     = UART_PRESCALER_DIV1;
 564:Drivers/BSP/STM32U5xx_Nucleo/stm32u5xx_nucleo.c ****   return HAL_UART_Init(huart);
 565:Drivers/BSP/STM32U5xx_Nucleo/stm32u5xx_nucleo.c **** }
 566:Drivers/BSP/STM32U5xx_Nucleo/stm32u5xx_nucleo.c **** 
 567:Drivers/BSP/STM32U5xx_Nucleo/stm32u5xx_nucleo.c **** #if (USE_HAL_UART_REGISTER_CALLBACKS == 1)
 568:Drivers/BSP/STM32U5xx_Nucleo/stm32u5xx_nucleo.c **** /**
ARM GAS  C:\Users\Ya\AppData\Local\Temp\ccV6Z6CV.s 			page 27


 569:Drivers/BSP/STM32U5xx_Nucleo/stm32u5xx_nucleo.c ****   * @brief Register Default COM Msp Callbacks
 570:Drivers/BSP/STM32U5xx_Nucleo/stm32u5xx_nucleo.c ****   * @param  COM COM port to be configured.
 571:Drivers/BSP/STM32U5xx_Nucleo/stm32u5xx_nucleo.c ****   *          This parameter can be COM1
 572:Drivers/BSP/STM32U5xx_Nucleo/stm32u5xx_nucleo.c ****   * @retval BSP status
 573:Drivers/BSP/STM32U5xx_Nucleo/stm32u5xx_nucleo.c ****   */
 574:Drivers/BSP/STM32U5xx_Nucleo/stm32u5xx_nucleo.c **** int32_t BSP_COM_RegisterDefaultMspCallbacks(COM_TypeDef COM)
 575:Drivers/BSP/STM32U5xx_Nucleo/stm32u5xx_nucleo.c **** {
 576:Drivers/BSP/STM32U5xx_Nucleo/stm32u5xx_nucleo.c ****   int32_t ret = BSP_ERROR_NONE;
 577:Drivers/BSP/STM32U5xx_Nucleo/stm32u5xx_nucleo.c **** 
 578:Drivers/BSP/STM32U5xx_Nucleo/stm32u5xx_nucleo.c ****   if (COM >= COMn)
 579:Drivers/BSP/STM32U5xx_Nucleo/stm32u5xx_nucleo.c ****   {
 580:Drivers/BSP/STM32U5xx_Nucleo/stm32u5xx_nucleo.c ****     ret = BSP_ERROR_WRONG_PARAM;
 581:Drivers/BSP/STM32U5xx_Nucleo/stm32u5xx_nucleo.c ****   }
 582:Drivers/BSP/STM32U5xx_Nucleo/stm32u5xx_nucleo.c ****   else
 583:Drivers/BSP/STM32U5xx_Nucleo/stm32u5xx_nucleo.c ****   {
 584:Drivers/BSP/STM32U5xx_Nucleo/stm32u5xx_nucleo.c ****     __HAL_UART_RESET_HANDLE_STATE(&hcom_uart[COM]);
 585:Drivers/BSP/STM32U5xx_Nucleo/stm32u5xx_nucleo.c **** 
 586:Drivers/BSP/STM32U5xx_Nucleo/stm32u5xx_nucleo.c ****     /* Register default MspInit/MspDeInit Callback */
 587:Drivers/BSP/STM32U5xx_Nucleo/stm32u5xx_nucleo.c ****     if (HAL_UART_RegisterCallback(&hcom_uart[COM], HAL_UART_MSPINIT_CB_ID, COM1_MspInit) != HAL_OK)
 588:Drivers/BSP/STM32U5xx_Nucleo/stm32u5xx_nucleo.c ****     {
 589:Drivers/BSP/STM32U5xx_Nucleo/stm32u5xx_nucleo.c ****       ret = BSP_ERROR_PERIPH_FAILURE;
 590:Drivers/BSP/STM32U5xx_Nucleo/stm32u5xx_nucleo.c ****     }
 591:Drivers/BSP/STM32U5xx_Nucleo/stm32u5xx_nucleo.c ****     else if (HAL_UART_RegisterCallback(&hcom_uart[COM], HAL_UART_MSPDEINIT_CB_ID, COM1_MspDeInit) !
 592:Drivers/BSP/STM32U5xx_Nucleo/stm32u5xx_nucleo.c ****     {
 593:Drivers/BSP/STM32U5xx_Nucleo/stm32u5xx_nucleo.c ****       ret = BSP_ERROR_PERIPH_FAILURE;
 594:Drivers/BSP/STM32U5xx_Nucleo/stm32u5xx_nucleo.c ****     }
 595:Drivers/BSP/STM32U5xx_Nucleo/stm32u5xx_nucleo.c ****     else
 596:Drivers/BSP/STM32U5xx_Nucleo/stm32u5xx_nucleo.c ****     {
 597:Drivers/BSP/STM32U5xx_Nucleo/stm32u5xx_nucleo.c ****       IsComMspCbValid[COM] = 1U;
 598:Drivers/BSP/STM32U5xx_Nucleo/stm32u5xx_nucleo.c ****     }
 599:Drivers/BSP/STM32U5xx_Nucleo/stm32u5xx_nucleo.c ****   }
 600:Drivers/BSP/STM32U5xx_Nucleo/stm32u5xx_nucleo.c **** 
 601:Drivers/BSP/STM32U5xx_Nucleo/stm32u5xx_nucleo.c ****   /* BSP status */
 602:Drivers/BSP/STM32U5xx_Nucleo/stm32u5xx_nucleo.c ****   return ret;
 603:Drivers/BSP/STM32U5xx_Nucleo/stm32u5xx_nucleo.c **** }
 604:Drivers/BSP/STM32U5xx_Nucleo/stm32u5xx_nucleo.c **** 
 605:Drivers/BSP/STM32U5xx_Nucleo/stm32u5xx_nucleo.c **** /**
 606:Drivers/BSP/STM32U5xx_Nucleo/stm32u5xx_nucleo.c ****   * @brief Register COM Msp Callback registering
 607:Drivers/BSP/STM32U5xx_Nucleo/stm32u5xx_nucleo.c ****   * @param  COM COM port to be configured.
 608:Drivers/BSP/STM32U5xx_Nucleo/stm32u5xx_nucleo.c ****   *          This parameter can be COM1
 609:Drivers/BSP/STM32U5xx_Nucleo/stm32u5xx_nucleo.c ****   * @param Callbacks     pointer to COM1 MspInit/MspDeInit callback functions
 610:Drivers/BSP/STM32U5xx_Nucleo/stm32u5xx_nucleo.c ****   * @retval BSP status
 611:Drivers/BSP/STM32U5xx_Nucleo/stm32u5xx_nucleo.c ****   */
 612:Drivers/BSP/STM32U5xx_Nucleo/stm32u5xx_nucleo.c **** int32_t BSP_COM_RegisterMspCallbacks(COM_TypeDef COM, BSP_COM_Cb_t *Callback)
 613:Drivers/BSP/STM32U5xx_Nucleo/stm32u5xx_nucleo.c **** {
 614:Drivers/BSP/STM32U5xx_Nucleo/stm32u5xx_nucleo.c ****   int32_t ret = BSP_ERROR_NONE;
 615:Drivers/BSP/STM32U5xx_Nucleo/stm32u5xx_nucleo.c **** 
 616:Drivers/BSP/STM32U5xx_Nucleo/stm32u5xx_nucleo.c ****   if (COM >= COMn)
 617:Drivers/BSP/STM32U5xx_Nucleo/stm32u5xx_nucleo.c ****   {
 618:Drivers/BSP/STM32U5xx_Nucleo/stm32u5xx_nucleo.c ****     ret = BSP_ERROR_WRONG_PARAM;
 619:Drivers/BSP/STM32U5xx_Nucleo/stm32u5xx_nucleo.c ****   }
 620:Drivers/BSP/STM32U5xx_Nucleo/stm32u5xx_nucleo.c ****   else
 621:Drivers/BSP/STM32U5xx_Nucleo/stm32u5xx_nucleo.c ****   {
 622:Drivers/BSP/STM32U5xx_Nucleo/stm32u5xx_nucleo.c ****     __HAL_UART_RESET_HANDLE_STATE(&hcom_uart[COM]);
 623:Drivers/BSP/STM32U5xx_Nucleo/stm32u5xx_nucleo.c **** 
 624:Drivers/BSP/STM32U5xx_Nucleo/stm32u5xx_nucleo.c ****     /* Register MspInit/MspDeInit Callbacks */
 625:Drivers/BSP/STM32U5xx_Nucleo/stm32u5xx_nucleo.c ****     if (HAL_UART_RegisterCallback(&hcom_uart[COM], HAL_UART_MSPINIT_CB_ID, Callback->pMspInitCb) !=
ARM GAS  C:\Users\Ya\AppData\Local\Temp\ccV6Z6CV.s 			page 28


 626:Drivers/BSP/STM32U5xx_Nucleo/stm32u5xx_nucleo.c ****     {
 627:Drivers/BSP/STM32U5xx_Nucleo/stm32u5xx_nucleo.c ****       ret = BSP_ERROR_PERIPH_FAILURE;
 628:Drivers/BSP/STM32U5xx_Nucleo/stm32u5xx_nucleo.c ****     }
 629:Drivers/BSP/STM32U5xx_Nucleo/stm32u5xx_nucleo.c ****     else if (HAL_UART_RegisterCallback(&hcom_uart[COM], HAL_UART_MSPDEINIT_CB_ID, Callback->pMspDeI
 630:Drivers/BSP/STM32U5xx_Nucleo/stm32u5xx_nucleo.c ****     {
 631:Drivers/BSP/STM32U5xx_Nucleo/stm32u5xx_nucleo.c ****       ret = BSP_ERROR_PERIPH_FAILURE;
 632:Drivers/BSP/STM32U5xx_Nucleo/stm32u5xx_nucleo.c ****     }
 633:Drivers/BSP/STM32U5xx_Nucleo/stm32u5xx_nucleo.c ****     else
 634:Drivers/BSP/STM32U5xx_Nucleo/stm32u5xx_nucleo.c ****     {
 635:Drivers/BSP/STM32U5xx_Nucleo/stm32u5xx_nucleo.c ****       IsComMspCbValid[COM] = 1U;
 636:Drivers/BSP/STM32U5xx_Nucleo/stm32u5xx_nucleo.c ****     }
 637:Drivers/BSP/STM32U5xx_Nucleo/stm32u5xx_nucleo.c ****   }
 638:Drivers/BSP/STM32U5xx_Nucleo/stm32u5xx_nucleo.c ****   /* BSP status */
 639:Drivers/BSP/STM32U5xx_Nucleo/stm32u5xx_nucleo.c ****   return ret;
 640:Drivers/BSP/STM32U5xx_Nucleo/stm32u5xx_nucleo.c **** }
 641:Drivers/BSP/STM32U5xx_Nucleo/stm32u5xx_nucleo.c **** #endif /* USE_HAL_UART_REGISTER_CALLBACKS */
 642:Drivers/BSP/STM32U5xx_Nucleo/stm32u5xx_nucleo.c **** 
 643:Drivers/BSP/STM32U5xx_Nucleo/stm32u5xx_nucleo.c **** #if (USE_COM_LOG > 0)
 644:Drivers/BSP/STM32U5xx_Nucleo/stm32u5xx_nucleo.c **** /**
 645:Drivers/BSP/STM32U5xx_Nucleo/stm32u5xx_nucleo.c ****   * @brief  Select the active COM port.
 646:Drivers/BSP/STM32U5xx_Nucleo/stm32u5xx_nucleo.c ****   * @param  COM COM port to be activated.
 647:Drivers/BSP/STM32U5xx_Nucleo/stm32u5xx_nucleo.c ****   *          This parameter can be COM1
 648:Drivers/BSP/STM32U5xx_Nucleo/stm32u5xx_nucleo.c ****   * @retval BSP status
 649:Drivers/BSP/STM32U5xx_Nucleo/stm32u5xx_nucleo.c ****   */
 650:Drivers/BSP/STM32U5xx_Nucleo/stm32u5xx_nucleo.c **** int32_t BSP_COM_SelectLogPort(COM_TypeDef COM)
 651:Drivers/BSP/STM32U5xx_Nucleo/stm32u5xx_nucleo.c **** {
 652:Drivers/BSP/STM32U5xx_Nucleo/stm32u5xx_nucleo.c ****   if (COM_ActiveLogPort != COM)
 653:Drivers/BSP/STM32U5xx_Nucleo/stm32u5xx_nucleo.c ****   {
 654:Drivers/BSP/STM32U5xx_Nucleo/stm32u5xx_nucleo.c ****     COM_ActiveLogPort = COM;
 655:Drivers/BSP/STM32U5xx_Nucleo/stm32u5xx_nucleo.c ****   }
 656:Drivers/BSP/STM32U5xx_Nucleo/stm32u5xx_nucleo.c ****   return BSP_ERROR_NONE;
 657:Drivers/BSP/STM32U5xx_Nucleo/stm32u5xx_nucleo.c **** }
 658:Drivers/BSP/STM32U5xx_Nucleo/stm32u5xx_nucleo.c **** 
 659:Drivers/BSP/STM32U5xx_Nucleo/stm32u5xx_nucleo.c **** /**
 660:Drivers/BSP/STM32U5xx_Nucleo/stm32u5xx_nucleo.c ****   * @brief  Redirect console output to COM
 661:Drivers/BSP/STM32U5xx_Nucleo/stm32u5xx_nucleo.c ****   */
 662:Drivers/BSP/STM32U5xx_Nucleo/stm32u5xx_nucleo.c **** #ifdef __GNUC__
 663:Drivers/BSP/STM32U5xx_Nucleo/stm32u5xx_nucleo.c **** int __io_putchar(int ch)
 664:Drivers/BSP/STM32U5xx_Nucleo/stm32u5xx_nucleo.c **** #else
 665:Drivers/BSP/STM32U5xx_Nucleo/stm32u5xx_nucleo.c **** int fputc(int ch, FILE *f)
 666:Drivers/BSP/STM32U5xx_Nucleo/stm32u5xx_nucleo.c **** #endif /* __GNUC__ */
 667:Drivers/BSP/STM32U5xx_Nucleo/stm32u5xx_nucleo.c **** {
 668:Drivers/BSP/STM32U5xx_Nucleo/stm32u5xx_nucleo.c ****   HAL_UART_Transmit(&hcom_uart [COM_ActiveLogPort], (uint8_t *) &ch, 1, COM_POLL_TIMEOUT);
 669:Drivers/BSP/STM32U5xx_Nucleo/stm32u5xx_nucleo.c ****   return ch;
 670:Drivers/BSP/STM32U5xx_Nucleo/stm32u5xx_nucleo.c **** }
 671:Drivers/BSP/STM32U5xx_Nucleo/stm32u5xx_nucleo.c **** #endif /* USE_COM_LOG */
 672:Drivers/BSP/STM32U5xx_Nucleo/stm32u5xx_nucleo.c **** #endif /* USE_BSP_COM_FEATURE */
 673:Drivers/BSP/STM32U5xx_Nucleo/stm32u5xx_nucleo.c **** 
 674:Drivers/BSP/STM32U5xx_Nucleo/stm32u5xx_nucleo.c **** /**
 675:Drivers/BSP/STM32U5xx_Nucleo/stm32u5xx_nucleo.c ****   * @}
 676:Drivers/BSP/STM32U5xx_Nucleo/stm32u5xx_nucleo.c ****   */
 677:Drivers/BSP/STM32U5xx_Nucleo/stm32u5xx_nucleo.c **** 
 678:Drivers/BSP/STM32U5xx_Nucleo/stm32u5xx_nucleo.c **** /** @defgroup STM32U5XX_NUCLEO_LOW_LEVEL_Private_Functions LOW LEVEL Private functions
 679:Drivers/BSP/STM32U5xx_Nucleo/stm32u5xx_nucleo.c ****   * @{
 680:Drivers/BSP/STM32U5xx_Nucleo/stm32u5xx_nucleo.c ****   */
 681:Drivers/BSP/STM32U5xx_Nucleo/stm32u5xx_nucleo.c **** /**
 682:Drivers/BSP/STM32U5xx_Nucleo/stm32u5xx_nucleo.c ****   * @brief  Key EXTI line detection callbacks.
ARM GAS  C:\Users\Ya\AppData\Local\Temp\ccV6Z6CV.s 			page 29


 683:Drivers/BSP/STM32U5xx_Nucleo/stm32u5xx_nucleo.c ****   * @retval BSP status
 684:Drivers/BSP/STM32U5xx_Nucleo/stm32u5xx_nucleo.c ****   */
 685:Drivers/BSP/STM32U5xx_Nucleo/stm32u5xx_nucleo.c **** static void BUTTON_USER_EXTI_Callback(void)
 686:Drivers/BSP/STM32U5xx_Nucleo/stm32u5xx_nucleo.c **** {
 879              		.loc 1 686 1 is_stmt 1 view -0
 880              		.cfi_startproc
 881              		@ args = 0, pretend = 0, frame = 0
 882              		@ frame_needed = 0, uses_anonymous_args = 0
 883 0000 08B5     		push	{r3, lr}
 884              		.cfi_def_cfa_offset 8
 885              		.cfi_offset 3, -8
 886              		.cfi_offset 14, -4
 687:Drivers/BSP/STM32U5xx_Nucleo/stm32u5xx_nucleo.c ****   BSP_PB_Callback(BUTTON_USER);
 887              		.loc 1 687 3 view .LVU202
 888 0002 0020     		movs	r0, #0
 889 0004 FFF7FEFF 		bl	BSP_PB_Callback
 890              	.LVL59:
 688:Drivers/BSP/STM32U5xx_Nucleo/stm32u5xx_nucleo.c **** }
 891              		.loc 1 688 1 is_stmt 0 view .LVU203
 892 0008 08BD     		pop	{r3, pc}
 893              		.cfi_endproc
 894              	.LFE354:
 896              		.section	.rodata.LED_PIN,"a"
 897              		.align	2
 900              	LED_PIN:
 901 0000 8000     		.short	128
 902 0002 8000     		.short	128
 903 0004 0400     		.short	4
 904              		.section	.rodata.LED_PORT,"a"
 905              		.align	2
 908              	LED_PORT:
 909 0000 00080242 		.word	1107429376
 910 0004 00040242 		.word	1107428352
 911 0008 00180242 		.word	1107433472
 912              		.global	hpb_exti
 913              		.section	.bss.hpb_exti,"aw",%nobits
 914              		.align	2
 917              	hpb_exti:
 918 0000 00000000 		.space	12
 918      00000000 
 918      00000000 
 919              		.text
 920              	.Letext0:
 921              		.file 2 "Drivers/CMSIS/Device/ST/STM32U5xx/Include/stm32u575xx.h"
 922              		.file 3 "c:\\users\\ya\\appdata\\roaming\\code\\user\\globalstorage\\bmd.stm32-for-vscode\\@xpack-
 923              		.file 4 "c:\\users\\ya\\appdata\\roaming\\code\\user\\globalstorage\\bmd.stm32-for-vscode\\@xpack-
 924              		.file 5 "Drivers/STM32U5xx_HAL_Driver/Inc/stm32u5xx_hal_def.h"
 925              		.file 6 "Drivers/STM32U5xx_HAL_Driver/Inc/stm32u5xx_hal_gpio.h"
 926              		.file 7 "Drivers/STM32U5xx_HAL_Driver/Inc/stm32u5xx_hal_exti.h"
 927              		.file 8 "Drivers/BSP/STM32U5xx_Nucleo/stm32u5xx_nucleo.h"
 928              		.file 9 "Drivers/STM32U5xx_HAL_Driver/Inc/stm32u5xx_hal_cortex.h"
 929              		.file 10 "Drivers/STM32U5xx_HAL_Driver/Inc/stm32u5xx_hal_pwr_ex.h"
ARM GAS  C:\Users\Ya\AppData\Local\Temp\ccV6Z6CV.s 			page 30

