ARM GAS  C:\Users\Ya\AppData\Local\Temp\ccY6d54u.s 			page 1


   1              		.cpu cortex-m33
   2              		.arch armv8-m.main
   3              		.fpu fpv5-sp-d16
   4              		.arch_extension dsp
   5              		.eabi_attribute 27, 1
   6              		.eabi_attribute 28, 1
   7              		.eabi_attribute 20, 1
   8              		.eabi_attribute 21, 1
   9              		.eabi_attribute 23, 3
  10              		.eabi_attribute 24, 1
  11              		.eabi_attribute 25, 1
  12              		.eabi_attribute 26, 1
  13              		.eabi_attribute 30, 1
  14              		.eabi_attribute 34, 1
  15              		.eabi_attribute 18, 4
  16              		.file	"stm32u5xx_hal_dma.c"
  17              		.text
  18              	.Ltext0:
  19              		.cfi_sections	.debug_frame
  20              		.file 1 "Drivers/STM32U5xx_HAL_Driver/Src/stm32u5xx_hal_dma.c"
  21              		.section	.text.DMA_SetConfig,"ax",%progbits
  22              		.align	1
  23              		.syntax unified
  24              		.thumb
  25              		.thumb_func
  27              	DMA_SetConfig:
  28              	.LVL0:
  29              	.LFB355:
   1:Drivers/STM32U5xx_HAL_Driver/Src/stm32u5xx_hal_dma.c **** /**
   2:Drivers/STM32U5xx_HAL_Driver/Src/stm32u5xx_hal_dma.c ****   *************************************************************************************************
   3:Drivers/STM32U5xx_HAL_Driver/Src/stm32u5xx_hal_dma.c ****   * @file    stm32u5xx_hal_dma.c
   4:Drivers/STM32U5xx_HAL_Driver/Src/stm32u5xx_hal_dma.c ****   * @author  MCD Application Team
   5:Drivers/STM32U5xx_HAL_Driver/Src/stm32u5xx_hal_dma.c ****   * @brief   This file provides firmware functions to manage the following functionalities of the D
   6:Drivers/STM32U5xx_HAL_Driver/Src/stm32u5xx_hal_dma.c ****   *          (DMA) peripheral:
   7:Drivers/STM32U5xx_HAL_Driver/Src/stm32u5xx_hal_dma.c ****   *            + Initialization/De-Initialization Functions
   8:Drivers/STM32U5xx_HAL_Driver/Src/stm32u5xx_hal_dma.c ****   *            + I/O Operation Functions
   9:Drivers/STM32U5xx_HAL_Driver/Src/stm32u5xx_hal_dma.c ****   *            + State and Errors Functions
  10:Drivers/STM32U5xx_HAL_Driver/Src/stm32u5xx_hal_dma.c ****   *            + DMA Attributes Functions
  11:Drivers/STM32U5xx_HAL_Driver/Src/stm32u5xx_hal_dma.c ****   *
  12:Drivers/STM32U5xx_HAL_Driver/Src/stm32u5xx_hal_dma.c ****   *************************************************************************************************
  13:Drivers/STM32U5xx_HAL_Driver/Src/stm32u5xx_hal_dma.c ****   * @attention
  14:Drivers/STM32U5xx_HAL_Driver/Src/stm32u5xx_hal_dma.c ****   *
  15:Drivers/STM32U5xx_HAL_Driver/Src/stm32u5xx_hal_dma.c ****   * Copyright (c) 2021 STMicroelectronics.
  16:Drivers/STM32U5xx_HAL_Driver/Src/stm32u5xx_hal_dma.c ****   * All rights reserved.
  17:Drivers/STM32U5xx_HAL_Driver/Src/stm32u5xx_hal_dma.c ****   *
  18:Drivers/STM32U5xx_HAL_Driver/Src/stm32u5xx_hal_dma.c ****   * This software is licensed under terms that can be found in the LICENSE file
  19:Drivers/STM32U5xx_HAL_Driver/Src/stm32u5xx_hal_dma.c ****   * in the root directory of this software component.
  20:Drivers/STM32U5xx_HAL_Driver/Src/stm32u5xx_hal_dma.c ****   * If no LICENSE file comes with this software, it is provided AS-IS.
  21:Drivers/STM32U5xx_HAL_Driver/Src/stm32u5xx_hal_dma.c ****   *
  22:Drivers/STM32U5xx_HAL_Driver/Src/stm32u5xx_hal_dma.c ****   *************************************************************************************************
  23:Drivers/STM32U5xx_HAL_Driver/Src/stm32u5xx_hal_dma.c ****   @verbatim
  24:Drivers/STM32U5xx_HAL_Driver/Src/stm32u5xx_hal_dma.c ****   =================================================================================================
  25:Drivers/STM32U5xx_HAL_Driver/Src/stm32u5xx_hal_dma.c ****                                  ############### How to use this driver ###############
  26:Drivers/STM32U5xx_HAL_Driver/Src/stm32u5xx_hal_dma.c ****   =================================================================================================
  27:Drivers/STM32U5xx_HAL_Driver/Src/stm32u5xx_hal_dma.c ****     [..]
  28:Drivers/STM32U5xx_HAL_Driver/Src/stm32u5xx_hal_dma.c ****       DMA transfer modes are divided to 2 major categories :
  29:Drivers/STM32U5xx_HAL_Driver/Src/stm32u5xx_hal_dma.c ****           (+) Normal transfers (legacy)
ARM GAS  C:\Users\Ya\AppData\Local\Temp\ccY6d54u.s 			page 2


  30:Drivers/STM32U5xx_HAL_Driver/Src/stm32u5xx_hal_dma.c ****           (+) Linked-list transfers
  31:Drivers/STM32U5xx_HAL_Driver/Src/stm32u5xx_hal_dma.c **** 
  32:Drivers/STM32U5xx_HAL_Driver/Src/stm32u5xx_hal_dma.c ****     [..]
  33:Drivers/STM32U5xx_HAL_Driver/Src/stm32u5xx_hal_dma.c ****       Normal transfers mode is initialized via the standard module and linked-list mode is configur
  34:Drivers/STM32U5xx_HAL_Driver/Src/stm32u5xx_hal_dma.c ****       module.
  35:Drivers/STM32U5xx_HAL_Driver/Src/stm32u5xx_hal_dma.c **** 
  36:Drivers/STM32U5xx_HAL_Driver/Src/stm32u5xx_hal_dma.c ****     [..]
  37:Drivers/STM32U5xx_HAL_Driver/Src/stm32u5xx_hal_dma.c ****       Additionally to linked-list capability, all advanced DMA features are managed and configured 
  38:Drivers/STM32U5xx_HAL_Driver/Src/stm32u5xx_hal_dma.c ****       module as extensions to normal mode.
  39:Drivers/STM32U5xx_HAL_Driver/Src/stm32u5xx_hal_dma.c ****       Advanced features are :
  40:Drivers/STM32U5xx_HAL_Driver/Src/stm32u5xx_hal_dma.c ****           (+) Repeated block feature.
  41:Drivers/STM32U5xx_HAL_Driver/Src/stm32u5xx_hal_dma.c ****           (+) Trigger feature.
  42:Drivers/STM32U5xx_HAL_Driver/Src/stm32u5xx_hal_dma.c ****           (+) Data handling feature.
  43:Drivers/STM32U5xx_HAL_Driver/Src/stm32u5xx_hal_dma.c **** 
  44:Drivers/STM32U5xx_HAL_Driver/Src/stm32u5xx_hal_dma.c ****     [..]
  45:Drivers/STM32U5xx_HAL_Driver/Src/stm32u5xx_hal_dma.c ****       DMA Legacy circular transfer, is replaced by circular linked-list configuration.
  46:Drivers/STM32U5xx_HAL_Driver/Src/stm32u5xx_hal_dma.c **** 
  47:Drivers/STM32U5xx_HAL_Driver/Src/stm32u5xx_hal_dma.c **** 
  48:Drivers/STM32U5xx_HAL_Driver/Src/stm32u5xx_hal_dma.c ****     *** Initialization and De-Initialization ***
  49:Drivers/STM32U5xx_HAL_Driver/Src/stm32u5xx_hal_dma.c ****     ============================================
  50:Drivers/STM32U5xx_HAL_Driver/Src/stm32u5xx_hal_dma.c ****     [..]
  51:Drivers/STM32U5xx_HAL_Driver/Src/stm32u5xx_hal_dma.c ****       For a given channel, enable and configure the peripheral to be connected to the DMA Channel (
  52:Drivers/STM32U5xx_HAL_Driver/Src/stm32u5xx_hal_dma.c ****       SRAM/FLASH memories: no initialization is necessary) please refer to Reference manual for con
  53:Drivers/STM32U5xx_HAL_Driver/Src/stm32u5xx_hal_dma.c ****       peripherals and DMA requests.
  54:Drivers/STM32U5xx_HAL_Driver/Src/stm32u5xx_hal_dma.c **** 
  55:Drivers/STM32U5xx_HAL_Driver/Src/stm32u5xx_hal_dma.c ****     [..]
  56:Drivers/STM32U5xx_HAL_Driver/Src/stm32u5xx_hal_dma.c ****       For a given channel, use HAL_DMA_Init function to program the required configuration for norm
  57:Drivers/STM32U5xx_HAL_Driver/Src/stm32u5xx_hal_dma.c ****       the following parameters:
  58:Drivers/STM32U5xx_HAL_Driver/Src/stm32u5xx_hal_dma.c **** 
  59:Drivers/STM32U5xx_HAL_Driver/Src/stm32u5xx_hal_dma.c ****           (+) Request               : Specifies the DMA channel request
  60:Drivers/STM32U5xx_HAL_Driver/Src/stm32u5xx_hal_dma.c ****               Request parameters    :
  61:Drivers/STM32U5xx_HAL_Driver/Src/stm32u5xx_hal_dma.c ****               (++) can be a value of @ref DMA_Request_Selection
  62:Drivers/STM32U5xx_HAL_Driver/Src/stm32u5xx_hal_dma.c **** 
  63:Drivers/STM32U5xx_HAL_Driver/Src/stm32u5xx_hal_dma.c ****           (+) BlkHWRequest          : Specifies the Block hardware request mode for DMA channel
  64:Drivers/STM32U5xx_HAL_Driver/Src/stm32u5xx_hal_dma.c ****               (++) can be a value of @ref DMA_Block_Request
  65:Drivers/STM32U5xx_HAL_Driver/Src/stm32u5xx_hal_dma.c **** 
  66:Drivers/STM32U5xx_HAL_Driver/Src/stm32u5xx_hal_dma.c ****           (+) Direction             : Specifies the transfer direction for DMA channel
  67:Drivers/STM32U5xx_HAL_Driver/Src/stm32u5xx_hal_dma.c ****               (++) can be a value of @ref DMA_Transfer_Direction
  68:Drivers/STM32U5xx_HAL_Driver/Src/stm32u5xx_hal_dma.c **** 
  69:Drivers/STM32U5xx_HAL_Driver/Src/stm32u5xx_hal_dma.c ****           (+) SrcInc                : Specifies the source increment mode for the DMA channel
  70:Drivers/STM32U5xx_HAL_Driver/Src/stm32u5xx_hal_dma.c ****               (++) can be a value of @ref DMA_Source_Increment_Mode
  71:Drivers/STM32U5xx_HAL_Driver/Src/stm32u5xx_hal_dma.c **** 
  72:Drivers/STM32U5xx_HAL_Driver/Src/stm32u5xx_hal_dma.c ****           (+) DestInc               : Specifies the destination increment mode for the DMA channel
  73:Drivers/STM32U5xx_HAL_Driver/Src/stm32u5xx_hal_dma.c ****               (++) can be a value of @ref DMA_Destination_Increment_Mode
  74:Drivers/STM32U5xx_HAL_Driver/Src/stm32u5xx_hal_dma.c **** 
  75:Drivers/STM32U5xx_HAL_Driver/Src/stm32u5xx_hal_dma.c ****           (+) SrcDataWidth          : Specifies the source data width for the DMA channel
  76:Drivers/STM32U5xx_HAL_Driver/Src/stm32u5xx_hal_dma.c ****               (++) can be a value of @ref DMA_Source_Data_Width
  77:Drivers/STM32U5xx_HAL_Driver/Src/stm32u5xx_hal_dma.c **** 
  78:Drivers/STM32U5xx_HAL_Driver/Src/stm32u5xx_hal_dma.c ****           (+) DestDataWidth         : Specifies the destination data width for the DMA channel
  79:Drivers/STM32U5xx_HAL_Driver/Src/stm32u5xx_hal_dma.c ****               (++) can be a value of @ref DMA_Destination_Data_Width
  80:Drivers/STM32U5xx_HAL_Driver/Src/stm32u5xx_hal_dma.c **** 
  81:Drivers/STM32U5xx_HAL_Driver/Src/stm32u5xx_hal_dma.c ****           (+) Priority              : Specifies the priority for the DMA channel
  82:Drivers/STM32U5xx_HAL_Driver/Src/stm32u5xx_hal_dma.c ****               (++) can be a value of @ref DMA_Priority_Level
  83:Drivers/STM32U5xx_HAL_Driver/Src/stm32u5xx_hal_dma.c **** 
  84:Drivers/STM32U5xx_HAL_Driver/Src/stm32u5xx_hal_dma.c ****           (+) SrcBurstLength        : Specifies the source burst length (number of beats) for the D
  85:Drivers/STM32U5xx_HAL_Driver/Src/stm32u5xx_hal_dma.c ****               (++) can be a value of between 1 and 64
  86:Drivers/STM32U5xx_HAL_Driver/Src/stm32u5xx_hal_dma.c **** 
ARM GAS  C:\Users\Ya\AppData\Local\Temp\ccY6d54u.s 			page 3


  87:Drivers/STM32U5xx_HAL_Driver/Src/stm32u5xx_hal_dma.c ****           (+) DestBurstLength       : Specifies the destination burst length (number of beats) for 
  88:Drivers/STM32U5xx_HAL_Driver/Src/stm32u5xx_hal_dma.c ****               (++) can be a value of between 1 and 64
  89:Drivers/STM32U5xx_HAL_Driver/Src/stm32u5xx_hal_dma.c **** 
  90:Drivers/STM32U5xx_HAL_Driver/Src/stm32u5xx_hal_dma.c ****           (+) TransferAllocatedPort : Specifies the source and destination allocated ports
  91:Drivers/STM32U5xx_HAL_Driver/Src/stm32u5xx_hal_dma.c ****               (++) can be a value of @ref DMA_Transfer_Allocated_Port
  92:Drivers/STM32U5xx_HAL_Driver/Src/stm32u5xx_hal_dma.c **** 
  93:Drivers/STM32U5xx_HAL_Driver/Src/stm32u5xx_hal_dma.c ****           (+) TransferEventMode     : Specifies the transfer event mode for the DMA channel
  94:Drivers/STM32U5xx_HAL_Driver/Src/stm32u5xx_hal_dma.c ****               (++) can be a value of @ref DMA_Transfer_Event_Mode
  95:Drivers/STM32U5xx_HAL_Driver/Src/stm32u5xx_hal_dma.c **** 
  96:Drivers/STM32U5xx_HAL_Driver/Src/stm32u5xx_hal_dma.c ****           (+) Mode                  : Specifies the transfer mode for the DMA channel
  97:Drivers/STM32U5xx_HAL_Driver/Src/stm32u5xx_hal_dma.c ****               (++) can be a value of @ref DMA_Transfer_Mode
  98:Drivers/STM32U5xx_HAL_Driver/Src/stm32u5xx_hal_dma.c **** 
  99:Drivers/STM32U5xx_HAL_Driver/Src/stm32u5xx_hal_dma.c **** 
 100:Drivers/STM32U5xx_HAL_Driver/Src/stm32u5xx_hal_dma.c ****     *** Polling mode IO operation ***
 101:Drivers/STM32U5xx_HAL_Driver/Src/stm32u5xx_hal_dma.c ****     =================================
 102:Drivers/STM32U5xx_HAL_Driver/Src/stm32u5xx_hal_dma.c ****     [..]
 103:Drivers/STM32U5xx_HAL_Driver/Src/stm32u5xx_hal_dma.c ****           (+) Use HAL_DMA_Start() to start a DMA normal transfer after the configuration of source 
 104:Drivers/STM32U5xx_HAL_Driver/Src/stm32u5xx_hal_dma.c ****               address and the size of data to be transferred.
 105:Drivers/STM32U5xx_HAL_Driver/Src/stm32u5xx_hal_dma.c **** 
 106:Drivers/STM32U5xx_HAL_Driver/Src/stm32u5xx_hal_dma.c ****           (+) Use HAL_DMA_PollForTransfer() to poll for selected transfer level. In this case a fix
 107:Drivers/STM32U5xx_HAL_Driver/Src/stm32u5xx_hal_dma.c ****               configured by User depending on his application.
 108:Drivers/STM32U5xx_HAL_Driver/Src/stm32u5xx_hal_dma.c ****               Transfer level can be :
 109:Drivers/STM32U5xx_HAL_Driver/Src/stm32u5xx_hal_dma.c ****               (++) HAL_DMA_HALF_TRANSFER
 110:Drivers/STM32U5xx_HAL_Driver/Src/stm32u5xx_hal_dma.c ****               (++) HAL_DMA_FULL_TRANSFER
 111:Drivers/STM32U5xx_HAL_Driver/Src/stm32u5xx_hal_dma.c ****               For circular transfer, this API returns an HAL_ERROR with HAL_DMA_ERROR_NOT_SUPPORTED
 112:Drivers/STM32U5xx_HAL_Driver/Src/stm32u5xx_hal_dma.c **** 
 113:Drivers/STM32U5xx_HAL_Driver/Src/stm32u5xx_hal_dma.c ****           (+) Use HAL_DMA_Abort() function to abort any ongoing DMA transfer in blocking mode.
 114:Drivers/STM32U5xx_HAL_Driver/Src/stm32u5xx_hal_dma.c ****               This API returns HAL_ERROR when there is no ongoing transfer or timeout is reached wh
 115:Drivers/STM32U5xx_HAL_Driver/Src/stm32u5xx_hal_dma.c ****               channel. (This API should not be called from an interrupt service routine)
 116:Drivers/STM32U5xx_HAL_Driver/Src/stm32u5xx_hal_dma.c **** 
 117:Drivers/STM32U5xx_HAL_Driver/Src/stm32u5xx_hal_dma.c **** 
 118:Drivers/STM32U5xx_HAL_Driver/Src/stm32u5xx_hal_dma.c ****     *** Interrupt mode IO operation ***
 119:Drivers/STM32U5xx_HAL_Driver/Src/stm32u5xx_hal_dma.c ****     ===================================
 120:Drivers/STM32U5xx_HAL_Driver/Src/stm32u5xx_hal_dma.c ****     [..]
 121:Drivers/STM32U5xx_HAL_Driver/Src/stm32u5xx_hal_dma.c ****           (+) Configure the DMA interrupt priority using HAL_NVIC_SetPriority()
 122:Drivers/STM32U5xx_HAL_Driver/Src/stm32u5xx_hal_dma.c **** 
 123:Drivers/STM32U5xx_HAL_Driver/Src/stm32u5xx_hal_dma.c ****           (+) Enable the DMA IRQ handler using HAL_NVIC_EnableIRQ()
 124:Drivers/STM32U5xx_HAL_Driver/Src/stm32u5xx_hal_dma.c **** 
 125:Drivers/STM32U5xx_HAL_Driver/Src/stm32u5xx_hal_dma.c ****           (+) Use HAL_DMA_RegisterCallback() function to register user callbacks from the following
 126:Drivers/STM32U5xx_HAL_Driver/Src/stm32u5xx_hal_dma.c ****               (++) XferCpltCallback     : transfer complete callback.
 127:Drivers/STM32U5xx_HAL_Driver/Src/stm32u5xx_hal_dma.c ****               (++) XferHalfCpltCallback : half transfer complete callback.
 128:Drivers/STM32U5xx_HAL_Driver/Src/stm32u5xx_hal_dma.c ****               (++) XferErrorCallback    : transfer error callback.
 129:Drivers/STM32U5xx_HAL_Driver/Src/stm32u5xx_hal_dma.c ****               (++) XferAbortCallback    : transfer abort complete callback.
 130:Drivers/STM32U5xx_HAL_Driver/Src/stm32u5xx_hal_dma.c ****               (++) XferSuspendCallback  : transfer suspend complete callback.
 131:Drivers/STM32U5xx_HAL_Driver/Src/stm32u5xx_hal_dma.c **** 
 132:Drivers/STM32U5xx_HAL_Driver/Src/stm32u5xx_hal_dma.c ****           (+) Use HAL_DMA_Start_IT() to start the DMA transfer after the enable of DMA interrupts a
 133:Drivers/STM32U5xx_HAL_Driver/Src/stm32u5xx_hal_dma.c ****               of source address,destination address and the size of data to be transferred.
 134:Drivers/STM32U5xx_HAL_Driver/Src/stm32u5xx_hal_dma.c **** 
 135:Drivers/STM32U5xx_HAL_Driver/Src/stm32u5xx_hal_dma.c ****           (+) Use HAL_DMA_IRQHandler() called under DMA_IRQHandler() interrupt subroutine to handle
 136:Drivers/STM32U5xx_HAL_Driver/Src/stm32u5xx_hal_dma.c **** 
 137:Drivers/STM32U5xx_HAL_Driver/Src/stm32u5xx_hal_dma.c ****           (+) Use HAL_DMA_Abort_IT() function to abort any on-going DMA transfer in non-blocking mo
 138:Drivers/STM32U5xx_HAL_Driver/Src/stm32u5xx_hal_dma.c ****               This API will suspend immediately the DMA channel execution. When the transfer is eff
 139:Drivers/STM32U5xx_HAL_Driver/Src/stm32u5xx_hal_dma.c ****               an interrupt is generated and HAL_DMA_IRQHandler() will reset the channel and execute
 140:Drivers/STM32U5xx_HAL_Driver/Src/stm32u5xx_hal_dma.c ****               XferAbortCallback. (This API could be called from an interrupt service routine)
 141:Drivers/STM32U5xx_HAL_Driver/Src/stm32u5xx_hal_dma.c **** 
 142:Drivers/STM32U5xx_HAL_Driver/Src/stm32u5xx_hal_dma.c **** 
 143:Drivers/STM32U5xx_HAL_Driver/Src/stm32u5xx_hal_dma.c ****     *** State and errors ***
ARM GAS  C:\Users\Ya\AppData\Local\Temp\ccY6d54u.s 			page 4


 144:Drivers/STM32U5xx_HAL_Driver/Src/stm32u5xx_hal_dma.c ****     ========================
 145:Drivers/STM32U5xx_HAL_Driver/Src/stm32u5xx_hal_dma.c ****     [..]
 146:Drivers/STM32U5xx_HAL_Driver/Src/stm32u5xx_hal_dma.c ****           (+) Use HAL_DMA_GetState() function to get the DMA state.
 147:Drivers/STM32U5xx_HAL_Driver/Src/stm32u5xx_hal_dma.c ****           (+) Use HAL_DMA_GetError() function to get the DMA error code.
 148:Drivers/STM32U5xx_HAL_Driver/Src/stm32u5xx_hal_dma.c **** 
 149:Drivers/STM32U5xx_HAL_Driver/Src/stm32u5xx_hal_dma.c **** 
 150:Drivers/STM32U5xx_HAL_Driver/Src/stm32u5xx_hal_dma.c ****     *** Security and privilege attributes ***
 151:Drivers/STM32U5xx_HAL_Driver/Src/stm32u5xx_hal_dma.c ****     =========================================
 152:Drivers/STM32U5xx_HAL_Driver/Src/stm32u5xx_hal_dma.c ****     [..]
 153:Drivers/STM32U5xx_HAL_Driver/Src/stm32u5xx_hal_dma.c ****           (+) Use HAL_DMA_ConfigChannelAttributes() function to configure DMA channel security and 
 154:Drivers/STM32U5xx_HAL_Driver/Src/stm32u5xx_hal_dma.c ****               (++) Security  : at channel level, at source level and at destination level.
 155:Drivers/STM32U5xx_HAL_Driver/Src/stm32u5xx_hal_dma.c ****               (++) Privilege : at channel level.
 156:Drivers/STM32U5xx_HAL_Driver/Src/stm32u5xx_hal_dma.c ****           (+) Use HAL_DMA_GetConfigChannelAttributes() function to get the DMA channel attributes.
 157:Drivers/STM32U5xx_HAL_Driver/Src/stm32u5xx_hal_dma.c ****           (+) Use HAL_DMA_LockChannelAttributes() function to lock the DMA channel security and pri
 158:Drivers/STM32U5xx_HAL_Driver/Src/stm32u5xx_hal_dma.c ****               configuration. This API is called once after each system boot.
 159:Drivers/STM32U5xx_HAL_Driver/Src/stm32u5xx_hal_dma.c ****               When this API is called, HAL_DMA_ConfigChannelAttributes() API cannot be used anymore
 160:Drivers/STM32U5xx_HAL_Driver/Src/stm32u5xx_hal_dma.c ****           (+) Use HAL_DMA_GetLockChannelAttributes() function to get the attributes lock status.
 161:Drivers/STM32U5xx_HAL_Driver/Src/stm32u5xx_hal_dma.c **** 
 162:Drivers/STM32U5xx_HAL_Driver/Src/stm32u5xx_hal_dma.c **** 
 163:Drivers/STM32U5xx_HAL_Driver/Src/stm32u5xx_hal_dma.c ****     *** DMA HAL driver macros list ***
 164:Drivers/STM32U5xx_HAL_Driver/Src/stm32u5xx_hal_dma.c ****     ==================================
 165:Drivers/STM32U5xx_HAL_Driver/Src/stm32u5xx_hal_dma.c ****     [..]
 166:Drivers/STM32U5xx_HAL_Driver/Src/stm32u5xx_hal_dma.c ****       Below the list of most used macros in DMA HAL driver.
 167:Drivers/STM32U5xx_HAL_Driver/Src/stm32u5xx_hal_dma.c **** 
 168:Drivers/STM32U5xx_HAL_Driver/Src/stm32u5xx_hal_dma.c ****           (+) __HAL_DMA_ENABLE        : Enable the specified DMA Channel.
 169:Drivers/STM32U5xx_HAL_Driver/Src/stm32u5xx_hal_dma.c ****           (+) __HAL_DMA_DISABLE       : Disable the specified DMA Channel.
 170:Drivers/STM32U5xx_HAL_Driver/Src/stm32u5xx_hal_dma.c ****           (+) __HAL_DMA_GET_FLAG      : Get the DMA Channel pending flags.
 171:Drivers/STM32U5xx_HAL_Driver/Src/stm32u5xx_hal_dma.c ****           (+) __HAL_DMA_CLEAR_FLAG    : Clear the DMA Channel pending flags.
 172:Drivers/STM32U5xx_HAL_Driver/Src/stm32u5xx_hal_dma.c ****           (+) __HAL_DMA_ENABLE_IT     : Enable the specified DMA Channel interrupts.
 173:Drivers/STM32U5xx_HAL_Driver/Src/stm32u5xx_hal_dma.c ****           (+) __HAL_DMA_DISABLE_IT    : Disable the specified DMA Channel interrupts.
 174:Drivers/STM32U5xx_HAL_Driver/Src/stm32u5xx_hal_dma.c ****           (+) __HAL_DMA_GET_IT_SOURCE : Check whether the specified DMA Channel interrupt has occur
 175:Drivers/STM32U5xx_HAL_Driver/Src/stm32u5xx_hal_dma.c **** 
 176:Drivers/STM32U5xx_HAL_Driver/Src/stm32u5xx_hal_dma.c ****     [..]
 177:Drivers/STM32U5xx_HAL_Driver/Src/stm32u5xx_hal_dma.c ****      (@) You can refer to the header file of the DMA HAL driver for more useful macros.
 178:Drivers/STM32U5xx_HAL_Driver/Src/stm32u5xx_hal_dma.c **** 
 179:Drivers/STM32U5xx_HAL_Driver/Src/stm32u5xx_hal_dma.c ****     @endverbatim
 180:Drivers/STM32U5xx_HAL_Driver/Src/stm32u5xx_hal_dma.c ****   *************************************************************************************************
 181:Drivers/STM32U5xx_HAL_Driver/Src/stm32u5xx_hal_dma.c ****   */
 182:Drivers/STM32U5xx_HAL_Driver/Src/stm32u5xx_hal_dma.c **** 
 183:Drivers/STM32U5xx_HAL_Driver/Src/stm32u5xx_hal_dma.c **** /* Includes ---------------------------------------------------------------------------------------
 184:Drivers/STM32U5xx_HAL_Driver/Src/stm32u5xx_hal_dma.c **** #include "stm32u5xx_hal.h"
 185:Drivers/STM32U5xx_HAL_Driver/Src/stm32u5xx_hal_dma.c **** 
 186:Drivers/STM32U5xx_HAL_Driver/Src/stm32u5xx_hal_dma.c **** /** @addtogroup STM32U5xx_HAL_Driver
 187:Drivers/STM32U5xx_HAL_Driver/Src/stm32u5xx_hal_dma.c ****   * @{
 188:Drivers/STM32U5xx_HAL_Driver/Src/stm32u5xx_hal_dma.c ****   */
 189:Drivers/STM32U5xx_HAL_Driver/Src/stm32u5xx_hal_dma.c **** 
 190:Drivers/STM32U5xx_HAL_Driver/Src/stm32u5xx_hal_dma.c **** /** @defgroup DMA DMA
 191:Drivers/STM32U5xx_HAL_Driver/Src/stm32u5xx_hal_dma.c ****   * @brief DMA HAL module driver
 192:Drivers/STM32U5xx_HAL_Driver/Src/stm32u5xx_hal_dma.c ****   * @{
 193:Drivers/STM32U5xx_HAL_Driver/Src/stm32u5xx_hal_dma.c ****   */
 194:Drivers/STM32U5xx_HAL_Driver/Src/stm32u5xx_hal_dma.c **** 
 195:Drivers/STM32U5xx_HAL_Driver/Src/stm32u5xx_hal_dma.c **** #ifdef HAL_DMA_MODULE_ENABLED
 196:Drivers/STM32U5xx_HAL_Driver/Src/stm32u5xx_hal_dma.c **** 
 197:Drivers/STM32U5xx_HAL_Driver/Src/stm32u5xx_hal_dma.c **** /* Private typedef --------------------------------------------------------------------------------
 198:Drivers/STM32U5xx_HAL_Driver/Src/stm32u5xx_hal_dma.c **** /* Private constants ------------------------------------------------------------------------------
 199:Drivers/STM32U5xx_HAL_Driver/Src/stm32u5xx_hal_dma.c **** /* Private macro ----------------------------------------------------------------------------------
 200:Drivers/STM32U5xx_HAL_Driver/Src/stm32u5xx_hal_dma.c **** /* Private variables ------------------------------------------------------------------------------
ARM GAS  C:\Users\Ya\AppData\Local\Temp\ccY6d54u.s 			page 5


 201:Drivers/STM32U5xx_HAL_Driver/Src/stm32u5xx_hal_dma.c **** /* Private function prototypes --------------------------------------------------------------------
 202:Drivers/STM32U5xx_HAL_Driver/Src/stm32u5xx_hal_dma.c **** static void DMA_SetConfig(DMA_HandleTypeDef const *const hdma,
 203:Drivers/STM32U5xx_HAL_Driver/Src/stm32u5xx_hal_dma.c ****                           uint32_t SrcAddress,
 204:Drivers/STM32U5xx_HAL_Driver/Src/stm32u5xx_hal_dma.c ****                           uint32_t DstAddress,
 205:Drivers/STM32U5xx_HAL_Driver/Src/stm32u5xx_hal_dma.c ****                           uint32_t SrcDataSize);
 206:Drivers/STM32U5xx_HAL_Driver/Src/stm32u5xx_hal_dma.c **** static void DMA_Init(DMA_HandleTypeDef const *const hdma);
 207:Drivers/STM32U5xx_HAL_Driver/Src/stm32u5xx_hal_dma.c **** 
 208:Drivers/STM32U5xx_HAL_Driver/Src/stm32u5xx_hal_dma.c **** /* Exported functions -----------------------------------------------------------------------------
 209:Drivers/STM32U5xx_HAL_Driver/Src/stm32u5xx_hal_dma.c **** 
 210:Drivers/STM32U5xx_HAL_Driver/Src/stm32u5xx_hal_dma.c **** /** @addtogroup DMA_Exported_Functions DMA Exported Functions
 211:Drivers/STM32U5xx_HAL_Driver/Src/stm32u5xx_hal_dma.c ****   * @{
 212:Drivers/STM32U5xx_HAL_Driver/Src/stm32u5xx_hal_dma.c ****   */
 213:Drivers/STM32U5xx_HAL_Driver/Src/stm32u5xx_hal_dma.c **** 
 214:Drivers/STM32U5xx_HAL_Driver/Src/stm32u5xx_hal_dma.c **** /** @addtogroup DMA_Exported_Functions_Group1
 215:Drivers/STM32U5xx_HAL_Driver/Src/stm32u5xx_hal_dma.c ****   *
 216:Drivers/STM32U5xx_HAL_Driver/Src/stm32u5xx_hal_dma.c **** @verbatim
 217:Drivers/STM32U5xx_HAL_Driver/Src/stm32u5xx_hal_dma.c ****   =================================================================================================
 218:Drivers/STM32U5xx_HAL_Driver/Src/stm32u5xx_hal_dma.c ****                        ############### Initialization and de-initialization functions #############
 219:Drivers/STM32U5xx_HAL_Driver/Src/stm32u5xx_hal_dma.c ****   =================================================================================================
 220:Drivers/STM32U5xx_HAL_Driver/Src/stm32u5xx_hal_dma.c ****     [..]
 221:Drivers/STM32U5xx_HAL_Driver/Src/stm32u5xx_hal_dma.c ****       This section provides functions allowing to initialize and de-initialize the DMA channel in n
 222:Drivers/STM32U5xx_HAL_Driver/Src/stm32u5xx_hal_dma.c **** 
 223:Drivers/STM32U5xx_HAL_Driver/Src/stm32u5xx_hal_dma.c ****     [..]
 224:Drivers/STM32U5xx_HAL_Driver/Src/stm32u5xx_hal_dma.c ****       (+) The HAL_DMA_Init() function follows the DMA channel configuration procedures as described
 225:Drivers/STM32U5xx_HAL_Driver/Src/stm32u5xx_hal_dma.c ****       (+) The HAL_DMA_DeInit() function allows to de-initialize the DMA channel.
 226:Drivers/STM32U5xx_HAL_Driver/Src/stm32u5xx_hal_dma.c **** 
 227:Drivers/STM32U5xx_HAL_Driver/Src/stm32u5xx_hal_dma.c **** @endverbatim
 228:Drivers/STM32U5xx_HAL_Driver/Src/stm32u5xx_hal_dma.c ****   * @{
 229:Drivers/STM32U5xx_HAL_Driver/Src/stm32u5xx_hal_dma.c ****   */
 230:Drivers/STM32U5xx_HAL_Driver/Src/stm32u5xx_hal_dma.c **** 
 231:Drivers/STM32U5xx_HAL_Driver/Src/stm32u5xx_hal_dma.c **** /**
 232:Drivers/STM32U5xx_HAL_Driver/Src/stm32u5xx_hal_dma.c ****   * @brief  Initialize the DMA channel in normal mode according to the specified parameters in the 
 233:Drivers/STM32U5xx_HAL_Driver/Src/stm32u5xx_hal_dma.c ****   *         create the associated handle.
 234:Drivers/STM32U5xx_HAL_Driver/Src/stm32u5xx_hal_dma.c ****   * @param  hdma : Pointer to a DMA_HandleTypeDef structure that contains the configuration informa
 235:Drivers/STM32U5xx_HAL_Driver/Src/stm32u5xx_hal_dma.c ****   *                specified DMA Channel.
 236:Drivers/STM32U5xx_HAL_Driver/Src/stm32u5xx_hal_dma.c ****   * @retval HAL status.
 237:Drivers/STM32U5xx_HAL_Driver/Src/stm32u5xx_hal_dma.c ****   */
 238:Drivers/STM32U5xx_HAL_Driver/Src/stm32u5xx_hal_dma.c **** HAL_StatusTypeDef HAL_DMA_Init(DMA_HandleTypeDef *const hdma)
 239:Drivers/STM32U5xx_HAL_Driver/Src/stm32u5xx_hal_dma.c **** {
 240:Drivers/STM32U5xx_HAL_Driver/Src/stm32u5xx_hal_dma.c ****   /* Get tick number */
 241:Drivers/STM32U5xx_HAL_Driver/Src/stm32u5xx_hal_dma.c ****   uint32_t tickstart = HAL_GetTick();
 242:Drivers/STM32U5xx_HAL_Driver/Src/stm32u5xx_hal_dma.c **** 
 243:Drivers/STM32U5xx_HAL_Driver/Src/stm32u5xx_hal_dma.c ****   /* Check the DMA peripheral handle parameter */
 244:Drivers/STM32U5xx_HAL_Driver/Src/stm32u5xx_hal_dma.c ****   if (hdma == NULL)
 245:Drivers/STM32U5xx_HAL_Driver/Src/stm32u5xx_hal_dma.c ****   {
 246:Drivers/STM32U5xx_HAL_Driver/Src/stm32u5xx_hal_dma.c ****     return HAL_ERROR;
 247:Drivers/STM32U5xx_HAL_Driver/Src/stm32u5xx_hal_dma.c ****   }
 248:Drivers/STM32U5xx_HAL_Driver/Src/stm32u5xx_hal_dma.c **** 
 249:Drivers/STM32U5xx_HAL_Driver/Src/stm32u5xx_hal_dma.c ****   /* Check the parameters */
 250:Drivers/STM32U5xx_HAL_Driver/Src/stm32u5xx_hal_dma.c ****   assert_param(IS_DMA_ALL_INSTANCE(hdma->Instance));
 251:Drivers/STM32U5xx_HAL_Driver/Src/stm32u5xx_hal_dma.c ****   assert_param(IS_DMA_DIRECTION(hdma->Init.Direction));
 252:Drivers/STM32U5xx_HAL_Driver/Src/stm32u5xx_hal_dma.c ****   if ((hdma->Init.Direction == DMA_MEMORY_TO_PERIPH) || (hdma->Init.Direction == DMA_MEMORY_TO_MEMO
 253:Drivers/STM32U5xx_HAL_Driver/Src/stm32u5xx_hal_dma.c ****   {
 254:Drivers/STM32U5xx_HAL_Driver/Src/stm32u5xx_hal_dma.c ****     assert_param(IS_DMA_REQUEST(hdma->Init.Request));
 255:Drivers/STM32U5xx_HAL_Driver/Src/stm32u5xx_hal_dma.c ****   }
 256:Drivers/STM32U5xx_HAL_Driver/Src/stm32u5xx_hal_dma.c ****   assert_param(IS_DMA_BLOCK_HW_REQUEST(hdma->Init.BlkHWRequest));
 257:Drivers/STM32U5xx_HAL_Driver/Src/stm32u5xx_hal_dma.c ****   assert_param(IS_DMA_SOURCE_INC(hdma->Init.SrcInc));
ARM GAS  C:\Users\Ya\AppData\Local\Temp\ccY6d54u.s 			page 6


 258:Drivers/STM32U5xx_HAL_Driver/Src/stm32u5xx_hal_dma.c ****   assert_param(IS_DMA_DESTINATION_INC(hdma->Init.DestInc));
 259:Drivers/STM32U5xx_HAL_Driver/Src/stm32u5xx_hal_dma.c ****   assert_param(IS_DMA_SOURCE_DATA_WIDTH(hdma->Init.SrcDataWidth));
 260:Drivers/STM32U5xx_HAL_Driver/Src/stm32u5xx_hal_dma.c ****   assert_param(IS_DMA_DESTINATION_DATA_WIDTH(hdma->Init.DestDataWidth));
 261:Drivers/STM32U5xx_HAL_Driver/Src/stm32u5xx_hal_dma.c ****   assert_param(IS_DMA_PRIORITY(hdma->Init.Priority));
 262:Drivers/STM32U5xx_HAL_Driver/Src/stm32u5xx_hal_dma.c ****   assert_param(IS_DMA_TCEM_EVENT_MODE(hdma->Init.TransferEventMode));
 263:Drivers/STM32U5xx_HAL_Driver/Src/stm32u5xx_hal_dma.c ****   assert_param(IS_DMA_MODE(hdma->Init.Mode));
 264:Drivers/STM32U5xx_HAL_Driver/Src/stm32u5xx_hal_dma.c ****   /* Check DMA channel instance */
 265:Drivers/STM32U5xx_HAL_Driver/Src/stm32u5xx_hal_dma.c ****   if (IS_GPDMA_INSTANCE(hdma->Instance) != 0U)
 266:Drivers/STM32U5xx_HAL_Driver/Src/stm32u5xx_hal_dma.c ****   {
 267:Drivers/STM32U5xx_HAL_Driver/Src/stm32u5xx_hal_dma.c ****     assert_param(IS_DMA_BURST_LENGTH(hdma->Init.SrcBurstLength));
 268:Drivers/STM32U5xx_HAL_Driver/Src/stm32u5xx_hal_dma.c ****     assert_param(IS_DMA_BURST_LENGTH(hdma->Init.DestBurstLength));
 269:Drivers/STM32U5xx_HAL_Driver/Src/stm32u5xx_hal_dma.c ****     assert_param(IS_DMA_TRANSFER_ALLOCATED_PORT(hdma->Init.TransferAllocatedPort));
 270:Drivers/STM32U5xx_HAL_Driver/Src/stm32u5xx_hal_dma.c ****   }
 271:Drivers/STM32U5xx_HAL_Driver/Src/stm32u5xx_hal_dma.c **** 
 272:Drivers/STM32U5xx_HAL_Driver/Src/stm32u5xx_hal_dma.c ****   /* Allocate lock resource */
 273:Drivers/STM32U5xx_HAL_Driver/Src/stm32u5xx_hal_dma.c ****   __HAL_UNLOCK(hdma);
 274:Drivers/STM32U5xx_HAL_Driver/Src/stm32u5xx_hal_dma.c **** 
 275:Drivers/STM32U5xx_HAL_Driver/Src/stm32u5xx_hal_dma.c ****   /* Update the DMA channel state */
 276:Drivers/STM32U5xx_HAL_Driver/Src/stm32u5xx_hal_dma.c ****   hdma->State = HAL_DMA_STATE_BUSY;
 277:Drivers/STM32U5xx_HAL_Driver/Src/stm32u5xx_hal_dma.c **** 
 278:Drivers/STM32U5xx_HAL_Driver/Src/stm32u5xx_hal_dma.c ****   /* Disable the DMA channel */
 279:Drivers/STM32U5xx_HAL_Driver/Src/stm32u5xx_hal_dma.c ****   __HAL_DMA_DISABLE(hdma);
 280:Drivers/STM32U5xx_HAL_Driver/Src/stm32u5xx_hal_dma.c **** 
 281:Drivers/STM32U5xx_HAL_Driver/Src/stm32u5xx_hal_dma.c ****   /* Check if the DMA channel is effectively disabled */
 282:Drivers/STM32U5xx_HAL_Driver/Src/stm32u5xx_hal_dma.c ****   while ((hdma->Instance->CCR & DMA_CCR_EN) != 0U)
 283:Drivers/STM32U5xx_HAL_Driver/Src/stm32u5xx_hal_dma.c ****   {
 284:Drivers/STM32U5xx_HAL_Driver/Src/stm32u5xx_hal_dma.c ****     /* Check for the Timeout */
 285:Drivers/STM32U5xx_HAL_Driver/Src/stm32u5xx_hal_dma.c ****     if ((HAL_GetTick() - tickstart) > HAL_TIMEOUT_DMA_ABORT)
 286:Drivers/STM32U5xx_HAL_Driver/Src/stm32u5xx_hal_dma.c ****     {
 287:Drivers/STM32U5xx_HAL_Driver/Src/stm32u5xx_hal_dma.c ****       /* Update the DMA channel error code */
 288:Drivers/STM32U5xx_HAL_Driver/Src/stm32u5xx_hal_dma.c ****       hdma->ErrorCode = HAL_DMA_ERROR_TIMEOUT;
 289:Drivers/STM32U5xx_HAL_Driver/Src/stm32u5xx_hal_dma.c **** 
 290:Drivers/STM32U5xx_HAL_Driver/Src/stm32u5xx_hal_dma.c ****       /* Update the DMA channel state */
 291:Drivers/STM32U5xx_HAL_Driver/Src/stm32u5xx_hal_dma.c ****       hdma->State = HAL_DMA_STATE_ERROR;
 292:Drivers/STM32U5xx_HAL_Driver/Src/stm32u5xx_hal_dma.c **** 
 293:Drivers/STM32U5xx_HAL_Driver/Src/stm32u5xx_hal_dma.c ****       return HAL_ERROR;
 294:Drivers/STM32U5xx_HAL_Driver/Src/stm32u5xx_hal_dma.c ****     }
 295:Drivers/STM32U5xx_HAL_Driver/Src/stm32u5xx_hal_dma.c ****   }
 296:Drivers/STM32U5xx_HAL_Driver/Src/stm32u5xx_hal_dma.c **** 
 297:Drivers/STM32U5xx_HAL_Driver/Src/stm32u5xx_hal_dma.c ****   /* Initialize the DMA channel registers */
 298:Drivers/STM32U5xx_HAL_Driver/Src/stm32u5xx_hal_dma.c ****   DMA_Init(hdma);
 299:Drivers/STM32U5xx_HAL_Driver/Src/stm32u5xx_hal_dma.c **** 
 300:Drivers/STM32U5xx_HAL_Driver/Src/stm32u5xx_hal_dma.c ****   /* Update DMA channel operation mode */
 301:Drivers/STM32U5xx_HAL_Driver/Src/stm32u5xx_hal_dma.c ****   hdma->Mode = hdma->Init.Mode;
 302:Drivers/STM32U5xx_HAL_Driver/Src/stm32u5xx_hal_dma.c **** 
 303:Drivers/STM32U5xx_HAL_Driver/Src/stm32u5xx_hal_dma.c ****   /* Update the DMA channel error code */
 304:Drivers/STM32U5xx_HAL_Driver/Src/stm32u5xx_hal_dma.c ****   hdma->ErrorCode = HAL_DMA_ERROR_NONE;
 305:Drivers/STM32U5xx_HAL_Driver/Src/stm32u5xx_hal_dma.c **** 
 306:Drivers/STM32U5xx_HAL_Driver/Src/stm32u5xx_hal_dma.c ****   /* Update the DMA channel state */
 307:Drivers/STM32U5xx_HAL_Driver/Src/stm32u5xx_hal_dma.c ****   hdma->State = HAL_DMA_STATE_READY;
 308:Drivers/STM32U5xx_HAL_Driver/Src/stm32u5xx_hal_dma.c **** 
 309:Drivers/STM32U5xx_HAL_Driver/Src/stm32u5xx_hal_dma.c ****   return HAL_OK;
 310:Drivers/STM32U5xx_HAL_Driver/Src/stm32u5xx_hal_dma.c **** }
 311:Drivers/STM32U5xx_HAL_Driver/Src/stm32u5xx_hal_dma.c **** 
 312:Drivers/STM32U5xx_HAL_Driver/Src/stm32u5xx_hal_dma.c **** /**
 313:Drivers/STM32U5xx_HAL_Driver/Src/stm32u5xx_hal_dma.c ****   * @brief  DeInitialize the DMA channel when it is configured in normal mode.
 314:Drivers/STM32U5xx_HAL_Driver/Src/stm32u5xx_hal_dma.c ****   * @param  hdma : Pointer to a DMA_HandleTypeDef structure that contains the configuration informa
ARM GAS  C:\Users\Ya\AppData\Local\Temp\ccY6d54u.s 			page 7


 315:Drivers/STM32U5xx_HAL_Driver/Src/stm32u5xx_hal_dma.c ****   *                specified DMA Channel.
 316:Drivers/STM32U5xx_HAL_Driver/Src/stm32u5xx_hal_dma.c ****   * @retval HAL status.
 317:Drivers/STM32U5xx_HAL_Driver/Src/stm32u5xx_hal_dma.c ****   */
 318:Drivers/STM32U5xx_HAL_Driver/Src/stm32u5xx_hal_dma.c **** HAL_StatusTypeDef HAL_DMA_DeInit(DMA_HandleTypeDef *const hdma)
 319:Drivers/STM32U5xx_HAL_Driver/Src/stm32u5xx_hal_dma.c **** {
 320:Drivers/STM32U5xx_HAL_Driver/Src/stm32u5xx_hal_dma.c ****   DMA_TypeDef *p_dma_instance;
 321:Drivers/STM32U5xx_HAL_Driver/Src/stm32u5xx_hal_dma.c ****   uint32_t tickstart = HAL_GetTick();
 322:Drivers/STM32U5xx_HAL_Driver/Src/stm32u5xx_hal_dma.c **** 
 323:Drivers/STM32U5xx_HAL_Driver/Src/stm32u5xx_hal_dma.c ****   /* Check the DMA peripheral handle parameter */
 324:Drivers/STM32U5xx_HAL_Driver/Src/stm32u5xx_hal_dma.c ****   if (hdma == NULL)
 325:Drivers/STM32U5xx_HAL_Driver/Src/stm32u5xx_hal_dma.c ****   {
 326:Drivers/STM32U5xx_HAL_Driver/Src/stm32u5xx_hal_dma.c ****     return HAL_ERROR;
 327:Drivers/STM32U5xx_HAL_Driver/Src/stm32u5xx_hal_dma.c ****   }
 328:Drivers/STM32U5xx_HAL_Driver/Src/stm32u5xx_hal_dma.c **** 
 329:Drivers/STM32U5xx_HAL_Driver/Src/stm32u5xx_hal_dma.c ****   /* Check the parameters */
 330:Drivers/STM32U5xx_HAL_Driver/Src/stm32u5xx_hal_dma.c ****   assert_param(IS_DMA_ALL_INSTANCE(hdma->Instance));
 331:Drivers/STM32U5xx_HAL_Driver/Src/stm32u5xx_hal_dma.c **** 
 332:Drivers/STM32U5xx_HAL_Driver/Src/stm32u5xx_hal_dma.c ****   /* Get DMA instance */
 333:Drivers/STM32U5xx_HAL_Driver/Src/stm32u5xx_hal_dma.c ****   p_dma_instance = GET_DMA_INSTANCE(hdma);
 334:Drivers/STM32U5xx_HAL_Driver/Src/stm32u5xx_hal_dma.c **** 
 335:Drivers/STM32U5xx_HAL_Driver/Src/stm32u5xx_hal_dma.c ****   /* Disable the selected DMA Channel */
 336:Drivers/STM32U5xx_HAL_Driver/Src/stm32u5xx_hal_dma.c ****   __HAL_DMA_DISABLE(hdma);
 337:Drivers/STM32U5xx_HAL_Driver/Src/stm32u5xx_hal_dma.c **** 
 338:Drivers/STM32U5xx_HAL_Driver/Src/stm32u5xx_hal_dma.c ****   /* Check if the DMA channel is effectively disabled */
 339:Drivers/STM32U5xx_HAL_Driver/Src/stm32u5xx_hal_dma.c ****   while ((hdma->Instance->CCR & DMA_CCR_EN) != 0U)
 340:Drivers/STM32U5xx_HAL_Driver/Src/stm32u5xx_hal_dma.c ****   {
 341:Drivers/STM32U5xx_HAL_Driver/Src/stm32u5xx_hal_dma.c ****     /* Check for the Timeout */
 342:Drivers/STM32U5xx_HAL_Driver/Src/stm32u5xx_hal_dma.c ****     if ((HAL_GetTick() - tickstart) > HAL_TIMEOUT_DMA_ABORT)
 343:Drivers/STM32U5xx_HAL_Driver/Src/stm32u5xx_hal_dma.c ****     {
 344:Drivers/STM32U5xx_HAL_Driver/Src/stm32u5xx_hal_dma.c ****       /* Update the DMA channel error code */
 345:Drivers/STM32U5xx_HAL_Driver/Src/stm32u5xx_hal_dma.c ****       hdma->ErrorCode = HAL_DMA_ERROR_TIMEOUT;
 346:Drivers/STM32U5xx_HAL_Driver/Src/stm32u5xx_hal_dma.c **** 
 347:Drivers/STM32U5xx_HAL_Driver/Src/stm32u5xx_hal_dma.c ****       /* Update the DMA channel state */
 348:Drivers/STM32U5xx_HAL_Driver/Src/stm32u5xx_hal_dma.c ****       hdma->State = HAL_DMA_STATE_ERROR;
 349:Drivers/STM32U5xx_HAL_Driver/Src/stm32u5xx_hal_dma.c **** 
 350:Drivers/STM32U5xx_HAL_Driver/Src/stm32u5xx_hal_dma.c ****       return HAL_ERROR;
 351:Drivers/STM32U5xx_HAL_Driver/Src/stm32u5xx_hal_dma.c ****     }
 352:Drivers/STM32U5xx_HAL_Driver/Src/stm32u5xx_hal_dma.c ****   }
 353:Drivers/STM32U5xx_HAL_Driver/Src/stm32u5xx_hal_dma.c **** 
 354:Drivers/STM32U5xx_HAL_Driver/Src/stm32u5xx_hal_dma.c ****   /* Reset DMA Channel registers */
 355:Drivers/STM32U5xx_HAL_Driver/Src/stm32u5xx_hal_dma.c ****   hdma->Instance->CLBAR = 0U;
 356:Drivers/STM32U5xx_HAL_Driver/Src/stm32u5xx_hal_dma.c ****   hdma->Instance->CCR   = 0U;
 357:Drivers/STM32U5xx_HAL_Driver/Src/stm32u5xx_hal_dma.c ****   hdma->Instance->CTR1  = 0U;
 358:Drivers/STM32U5xx_HAL_Driver/Src/stm32u5xx_hal_dma.c ****   hdma->Instance->CTR2  = 0U;
 359:Drivers/STM32U5xx_HAL_Driver/Src/stm32u5xx_hal_dma.c ****   hdma->Instance->CBR1  = 0U;
 360:Drivers/STM32U5xx_HAL_Driver/Src/stm32u5xx_hal_dma.c ****   hdma->Instance->CSAR  = 0U;
 361:Drivers/STM32U5xx_HAL_Driver/Src/stm32u5xx_hal_dma.c ****   hdma->Instance->CDAR  = 0U;
 362:Drivers/STM32U5xx_HAL_Driver/Src/stm32u5xx_hal_dma.c ****   hdma->Instance->CLLR  = 0U;
 363:Drivers/STM32U5xx_HAL_Driver/Src/stm32u5xx_hal_dma.c **** 
 364:Drivers/STM32U5xx_HAL_Driver/Src/stm32u5xx_hal_dma.c ****   /* Reset 2D Addressing registers */
 365:Drivers/STM32U5xx_HAL_Driver/Src/stm32u5xx_hal_dma.c ****   if (IS_DMA_2D_ADDRESSING_INSTANCE(hdma->Instance) != 0U)
 366:Drivers/STM32U5xx_HAL_Driver/Src/stm32u5xx_hal_dma.c ****   {
 367:Drivers/STM32U5xx_HAL_Driver/Src/stm32u5xx_hal_dma.c ****     hdma->Instance->CTR3 = 0U;
 368:Drivers/STM32U5xx_HAL_Driver/Src/stm32u5xx_hal_dma.c ****     hdma->Instance->CBR2 = 0U;
 369:Drivers/STM32U5xx_HAL_Driver/Src/stm32u5xx_hal_dma.c ****   }
 370:Drivers/STM32U5xx_HAL_Driver/Src/stm32u5xx_hal_dma.c **** 
 371:Drivers/STM32U5xx_HAL_Driver/Src/stm32u5xx_hal_dma.c ****   /* Clear privilege attribute */
ARM GAS  C:\Users\Ya\AppData\Local\Temp\ccY6d54u.s 			page 8


 372:Drivers/STM32U5xx_HAL_Driver/Src/stm32u5xx_hal_dma.c ****   CLEAR_BIT(p_dma_instance->PRIVCFGR, (1UL << (GET_DMA_CHANNEL(hdma) & 0x1FU)));
 373:Drivers/STM32U5xx_HAL_Driver/Src/stm32u5xx_hal_dma.c **** 
 374:Drivers/STM32U5xx_HAL_Driver/Src/stm32u5xx_hal_dma.c **** #if defined (__ARM_FEATURE_CMSE) && (__ARM_FEATURE_CMSE == 3U)
 375:Drivers/STM32U5xx_HAL_Driver/Src/stm32u5xx_hal_dma.c ****   /* Clear secure attribute */
 376:Drivers/STM32U5xx_HAL_Driver/Src/stm32u5xx_hal_dma.c ****   CLEAR_BIT(p_dma_instance->SECCFGR, (1UL << (GET_DMA_CHANNEL(hdma) & 0x1FU)));
 377:Drivers/STM32U5xx_HAL_Driver/Src/stm32u5xx_hal_dma.c **** #endif /* defined (__ARM_FEATURE_CMSE) && (__ARM_FEATURE_CMSE == 3U) */
 378:Drivers/STM32U5xx_HAL_Driver/Src/stm32u5xx_hal_dma.c **** 
 379:Drivers/STM32U5xx_HAL_Driver/Src/stm32u5xx_hal_dma.c ****   /* Clear all flags */
 380:Drivers/STM32U5xx_HAL_Driver/Src/stm32u5xx_hal_dma.c ****   __HAL_DMA_CLEAR_FLAG(hdma, (DMA_FLAG_TC | DMA_FLAG_HT | DMA_FLAG_DTE | DMA_FLAG_ULE | DMA_FLAG_US
 381:Drivers/STM32U5xx_HAL_Driver/Src/stm32u5xx_hal_dma.c ****                               DMA_FLAG_TO));
 382:Drivers/STM32U5xx_HAL_Driver/Src/stm32u5xx_hal_dma.c **** 
 383:Drivers/STM32U5xx_HAL_Driver/Src/stm32u5xx_hal_dma.c ****   /* Clean all callbacks */
 384:Drivers/STM32U5xx_HAL_Driver/Src/stm32u5xx_hal_dma.c ****   hdma->XferCpltCallback     = NULL;
 385:Drivers/STM32U5xx_HAL_Driver/Src/stm32u5xx_hal_dma.c ****   hdma->XferHalfCpltCallback = NULL;
 386:Drivers/STM32U5xx_HAL_Driver/Src/stm32u5xx_hal_dma.c ****   hdma->XferErrorCallback    = NULL;
 387:Drivers/STM32U5xx_HAL_Driver/Src/stm32u5xx_hal_dma.c ****   hdma->XferAbortCallback    = NULL;
 388:Drivers/STM32U5xx_HAL_Driver/Src/stm32u5xx_hal_dma.c ****   hdma->XferSuspendCallback  = NULL;
 389:Drivers/STM32U5xx_HAL_Driver/Src/stm32u5xx_hal_dma.c **** 
 390:Drivers/STM32U5xx_HAL_Driver/Src/stm32u5xx_hal_dma.c ****   /* Clean DMA queue */
 391:Drivers/STM32U5xx_HAL_Driver/Src/stm32u5xx_hal_dma.c ****   hdma->LinkedListQueue = NULL;
 392:Drivers/STM32U5xx_HAL_Driver/Src/stm32u5xx_hal_dma.c **** 
 393:Drivers/STM32U5xx_HAL_Driver/Src/stm32u5xx_hal_dma.c ****   /* Clean DMA parent */
 394:Drivers/STM32U5xx_HAL_Driver/Src/stm32u5xx_hal_dma.c ****   if (hdma->Parent != NULL)
 395:Drivers/STM32U5xx_HAL_Driver/Src/stm32u5xx_hal_dma.c ****   {
 396:Drivers/STM32U5xx_HAL_Driver/Src/stm32u5xx_hal_dma.c ****     hdma->Parent = NULL;
 397:Drivers/STM32U5xx_HAL_Driver/Src/stm32u5xx_hal_dma.c ****   }
 398:Drivers/STM32U5xx_HAL_Driver/Src/stm32u5xx_hal_dma.c **** 
 399:Drivers/STM32U5xx_HAL_Driver/Src/stm32u5xx_hal_dma.c ****   /* Update DMA channel operation mode */
 400:Drivers/STM32U5xx_HAL_Driver/Src/stm32u5xx_hal_dma.c ****   hdma->Mode = DMA_NORMAL;
 401:Drivers/STM32U5xx_HAL_Driver/Src/stm32u5xx_hal_dma.c **** 
 402:Drivers/STM32U5xx_HAL_Driver/Src/stm32u5xx_hal_dma.c ****   /* Update the DMA channel error code */
 403:Drivers/STM32U5xx_HAL_Driver/Src/stm32u5xx_hal_dma.c ****   hdma->ErrorCode = HAL_DMA_ERROR_NONE;
 404:Drivers/STM32U5xx_HAL_Driver/Src/stm32u5xx_hal_dma.c **** 
 405:Drivers/STM32U5xx_HAL_Driver/Src/stm32u5xx_hal_dma.c ****   /* Update the DMA channel state */
 406:Drivers/STM32U5xx_HAL_Driver/Src/stm32u5xx_hal_dma.c ****   hdma->State = HAL_DMA_STATE_RESET;
 407:Drivers/STM32U5xx_HAL_Driver/Src/stm32u5xx_hal_dma.c **** 
 408:Drivers/STM32U5xx_HAL_Driver/Src/stm32u5xx_hal_dma.c ****   /* Release Lock */
 409:Drivers/STM32U5xx_HAL_Driver/Src/stm32u5xx_hal_dma.c ****   __HAL_UNLOCK(hdma);
 410:Drivers/STM32U5xx_HAL_Driver/Src/stm32u5xx_hal_dma.c **** 
 411:Drivers/STM32U5xx_HAL_Driver/Src/stm32u5xx_hal_dma.c ****   return HAL_OK;
 412:Drivers/STM32U5xx_HAL_Driver/Src/stm32u5xx_hal_dma.c **** }
 413:Drivers/STM32U5xx_HAL_Driver/Src/stm32u5xx_hal_dma.c **** /**
 414:Drivers/STM32U5xx_HAL_Driver/Src/stm32u5xx_hal_dma.c ****   * @}
 415:Drivers/STM32U5xx_HAL_Driver/Src/stm32u5xx_hal_dma.c ****   */
 416:Drivers/STM32U5xx_HAL_Driver/Src/stm32u5xx_hal_dma.c **** 
 417:Drivers/STM32U5xx_HAL_Driver/Src/stm32u5xx_hal_dma.c **** /** @addtogroup DMA_Exported_Functions_Group2
 418:Drivers/STM32U5xx_HAL_Driver/Src/stm32u5xx_hal_dma.c ****   *
 419:Drivers/STM32U5xx_HAL_Driver/Src/stm32u5xx_hal_dma.c **** @verbatim
 420:Drivers/STM32U5xx_HAL_Driver/Src/stm32u5xx_hal_dma.c ****   =================================================================================================
 421:Drivers/STM32U5xx_HAL_Driver/Src/stm32u5xx_hal_dma.c ****                                 ############### IO operation functions ###############
 422:Drivers/STM32U5xx_HAL_Driver/Src/stm32u5xx_hal_dma.c ****   =================================================================================================
 423:Drivers/STM32U5xx_HAL_Driver/Src/stm32u5xx_hal_dma.c ****     [..]
 424:Drivers/STM32U5xx_HAL_Driver/Src/stm32u5xx_hal_dma.c ****       This section provides functions allowing to :
 425:Drivers/STM32U5xx_HAL_Driver/Src/stm32u5xx_hal_dma.c ****       (+) Configure the source, destination address and data size and Start DMA transfer in normal 
 426:Drivers/STM32U5xx_HAL_Driver/Src/stm32u5xx_hal_dma.c ****       (+) Abort DMA transfer
 427:Drivers/STM32U5xx_HAL_Driver/Src/stm32u5xx_hal_dma.c ****       (+) Poll for transfer complete
 428:Drivers/STM32U5xx_HAL_Driver/Src/stm32u5xx_hal_dma.c ****       (+) Handle DMA interrupt request
ARM GAS  C:\Users\Ya\AppData\Local\Temp\ccY6d54u.s 			page 9


 429:Drivers/STM32U5xx_HAL_Driver/Src/stm32u5xx_hal_dma.c ****       (+) Register and Unregister DMA callbacks
 430:Drivers/STM32U5xx_HAL_Driver/Src/stm32u5xx_hal_dma.c **** 
 431:Drivers/STM32U5xx_HAL_Driver/Src/stm32u5xx_hal_dma.c ****     [..]
 432:Drivers/STM32U5xx_HAL_Driver/Src/stm32u5xx_hal_dma.c ****       (+) The HAL_DMA_Start() function allows to start the DMA channel transfer in normal mode (Blo
 433:Drivers/STM32U5xx_HAL_Driver/Src/stm32u5xx_hal_dma.c ****       (+) The HAL_DMA_Start_IT() function allows to start the DMA channel transfer in normal mode (
 434:Drivers/STM32U5xx_HAL_Driver/Src/stm32u5xx_hal_dma.c ****       (+) The HAL_DMA_Abort() function allows to abort any on-going transfer (Blocking mode).
 435:Drivers/STM32U5xx_HAL_Driver/Src/stm32u5xx_hal_dma.c ****       (+) The HAL_DMA_Abort_IT() function allows to abort any on-going transfer (Non-blocking mode)
 436:Drivers/STM32U5xx_HAL_Driver/Src/stm32u5xx_hal_dma.c ****       (+) The HAL_DMA_PollForTransfer() function allows to poll on half transfer and transfer compl
 437:Drivers/STM32U5xx_HAL_Driver/Src/stm32u5xx_hal_dma.c ****           This API cannot be used for circular transfers.
 438:Drivers/STM32U5xx_HAL_Driver/Src/stm32u5xx_hal_dma.c ****       (+) The HAL_DMA_IRQHandler() function allows to handle any DMA channel interrupt (Non-blockin
 439:Drivers/STM32U5xx_HAL_Driver/Src/stm32u5xx_hal_dma.c ****       (+) The HAL_DMA_RegisterCallback() and HAL_DMA_UnRegisterCallback() functions allow respectiv
 440:Drivers/STM32U5xx_HAL_Driver/Src/stm32u5xx_hal_dma.c ****           unregister user customized callbacks.
 441:Drivers/STM32U5xx_HAL_Driver/Src/stm32u5xx_hal_dma.c ****           User callbacks are called under HAL_DMA_IRQHandler().
 442:Drivers/STM32U5xx_HAL_Driver/Src/stm32u5xx_hal_dma.c **** 
 443:Drivers/STM32U5xx_HAL_Driver/Src/stm32u5xx_hal_dma.c **** @endverbatim
 444:Drivers/STM32U5xx_HAL_Driver/Src/stm32u5xx_hal_dma.c ****   * @{
 445:Drivers/STM32U5xx_HAL_Driver/Src/stm32u5xx_hal_dma.c ****   */
 446:Drivers/STM32U5xx_HAL_Driver/Src/stm32u5xx_hal_dma.c **** 
 447:Drivers/STM32U5xx_HAL_Driver/Src/stm32u5xx_hal_dma.c **** /**
 448:Drivers/STM32U5xx_HAL_Driver/Src/stm32u5xx_hal_dma.c ****   * @brief  Start the DMA channel transfer in normal mode (Blocking mode).
 449:Drivers/STM32U5xx_HAL_Driver/Src/stm32u5xx_hal_dma.c ****   * @param  hdma        : Pointer to a DMA_HandleTypeDef structure that contains the configuration 
 450:Drivers/STM32U5xx_HAL_Driver/Src/stm32u5xx_hal_dma.c ****   *                       the specified DMA Channel.
 451:Drivers/STM32U5xx_HAL_Driver/Src/stm32u5xx_hal_dma.c ****   * @param  SrcAddress  : The source data address.
 452:Drivers/STM32U5xx_HAL_Driver/Src/stm32u5xx_hal_dma.c ****   * @param  DstAddress  : The destination data address.
 453:Drivers/STM32U5xx_HAL_Driver/Src/stm32u5xx_hal_dma.c ****   * @param  SrcDataSize : The length of data to be transferred from source to destination in bytes.
 454:Drivers/STM32U5xx_HAL_Driver/Src/stm32u5xx_hal_dma.c ****   * @retval HAL status.
 455:Drivers/STM32U5xx_HAL_Driver/Src/stm32u5xx_hal_dma.c ****   */
 456:Drivers/STM32U5xx_HAL_Driver/Src/stm32u5xx_hal_dma.c **** HAL_StatusTypeDef HAL_DMA_Start(DMA_HandleTypeDef *const hdma,
 457:Drivers/STM32U5xx_HAL_Driver/Src/stm32u5xx_hal_dma.c ****                                 uint32_t SrcAddress,
 458:Drivers/STM32U5xx_HAL_Driver/Src/stm32u5xx_hal_dma.c ****                                 uint32_t DstAddress,
 459:Drivers/STM32U5xx_HAL_Driver/Src/stm32u5xx_hal_dma.c ****                                 uint32_t SrcDataSize)
 460:Drivers/STM32U5xx_HAL_Driver/Src/stm32u5xx_hal_dma.c **** {
 461:Drivers/STM32U5xx_HAL_Driver/Src/stm32u5xx_hal_dma.c ****   /* Check the DMA peripheral handle parameter */
 462:Drivers/STM32U5xx_HAL_Driver/Src/stm32u5xx_hal_dma.c ****   if (hdma == NULL)
 463:Drivers/STM32U5xx_HAL_Driver/Src/stm32u5xx_hal_dma.c ****   {
 464:Drivers/STM32U5xx_HAL_Driver/Src/stm32u5xx_hal_dma.c ****     return HAL_ERROR;
 465:Drivers/STM32U5xx_HAL_Driver/Src/stm32u5xx_hal_dma.c ****   }
 466:Drivers/STM32U5xx_HAL_Driver/Src/stm32u5xx_hal_dma.c **** 
 467:Drivers/STM32U5xx_HAL_Driver/Src/stm32u5xx_hal_dma.c ****   /* Check the parameters */
 468:Drivers/STM32U5xx_HAL_Driver/Src/stm32u5xx_hal_dma.c ****   assert_param(IS_DMA_BLOCK_SIZE(SrcDataSize));
 469:Drivers/STM32U5xx_HAL_Driver/Src/stm32u5xx_hal_dma.c **** 
 470:Drivers/STM32U5xx_HAL_Driver/Src/stm32u5xx_hal_dma.c ****   /* Process locked */
 471:Drivers/STM32U5xx_HAL_Driver/Src/stm32u5xx_hal_dma.c ****   __HAL_LOCK(hdma);
 472:Drivers/STM32U5xx_HAL_Driver/Src/stm32u5xx_hal_dma.c **** 
 473:Drivers/STM32U5xx_HAL_Driver/Src/stm32u5xx_hal_dma.c ****   /* Check DMA channel state */
 474:Drivers/STM32U5xx_HAL_Driver/Src/stm32u5xx_hal_dma.c ****   if (hdma->State == HAL_DMA_STATE_READY)
 475:Drivers/STM32U5xx_HAL_Driver/Src/stm32u5xx_hal_dma.c ****   {
 476:Drivers/STM32U5xx_HAL_Driver/Src/stm32u5xx_hal_dma.c ****     /* Update the DMA channel state */
 477:Drivers/STM32U5xx_HAL_Driver/Src/stm32u5xx_hal_dma.c ****     hdma->State = HAL_DMA_STATE_BUSY;
 478:Drivers/STM32U5xx_HAL_Driver/Src/stm32u5xx_hal_dma.c **** 
 479:Drivers/STM32U5xx_HAL_Driver/Src/stm32u5xx_hal_dma.c ****     /* Update the DMA channel error code */
 480:Drivers/STM32U5xx_HAL_Driver/Src/stm32u5xx_hal_dma.c ****     hdma->ErrorCode = HAL_DMA_ERROR_NONE;
 481:Drivers/STM32U5xx_HAL_Driver/Src/stm32u5xx_hal_dma.c **** 
 482:Drivers/STM32U5xx_HAL_Driver/Src/stm32u5xx_hal_dma.c ****     /* Configure the source address, destination address, the data size and clear flags */
 483:Drivers/STM32U5xx_HAL_Driver/Src/stm32u5xx_hal_dma.c ****     DMA_SetConfig(hdma, SrcAddress, DstAddress, SrcDataSize);
 484:Drivers/STM32U5xx_HAL_Driver/Src/stm32u5xx_hal_dma.c **** 
 485:Drivers/STM32U5xx_HAL_Driver/Src/stm32u5xx_hal_dma.c ****     /* Enable DMA channel */
ARM GAS  C:\Users\Ya\AppData\Local\Temp\ccY6d54u.s 			page 10


 486:Drivers/STM32U5xx_HAL_Driver/Src/stm32u5xx_hal_dma.c ****     __HAL_DMA_ENABLE(hdma);
 487:Drivers/STM32U5xx_HAL_Driver/Src/stm32u5xx_hal_dma.c ****   }
 488:Drivers/STM32U5xx_HAL_Driver/Src/stm32u5xx_hal_dma.c ****   else
 489:Drivers/STM32U5xx_HAL_Driver/Src/stm32u5xx_hal_dma.c ****   {
 490:Drivers/STM32U5xx_HAL_Driver/Src/stm32u5xx_hal_dma.c ****     /* Update the DMA channel error code */
 491:Drivers/STM32U5xx_HAL_Driver/Src/stm32u5xx_hal_dma.c ****     hdma->ErrorCode = HAL_DMA_ERROR_BUSY;
 492:Drivers/STM32U5xx_HAL_Driver/Src/stm32u5xx_hal_dma.c **** 
 493:Drivers/STM32U5xx_HAL_Driver/Src/stm32u5xx_hal_dma.c ****     /* Process unlocked */
 494:Drivers/STM32U5xx_HAL_Driver/Src/stm32u5xx_hal_dma.c ****     __HAL_UNLOCK(hdma);
 495:Drivers/STM32U5xx_HAL_Driver/Src/stm32u5xx_hal_dma.c **** 
 496:Drivers/STM32U5xx_HAL_Driver/Src/stm32u5xx_hal_dma.c ****     return HAL_ERROR;
 497:Drivers/STM32U5xx_HAL_Driver/Src/stm32u5xx_hal_dma.c ****   }
 498:Drivers/STM32U5xx_HAL_Driver/Src/stm32u5xx_hal_dma.c **** 
 499:Drivers/STM32U5xx_HAL_Driver/Src/stm32u5xx_hal_dma.c ****   return HAL_OK;
 500:Drivers/STM32U5xx_HAL_Driver/Src/stm32u5xx_hal_dma.c **** }
 501:Drivers/STM32U5xx_HAL_Driver/Src/stm32u5xx_hal_dma.c **** 
 502:Drivers/STM32U5xx_HAL_Driver/Src/stm32u5xx_hal_dma.c **** /**
 503:Drivers/STM32U5xx_HAL_Driver/Src/stm32u5xx_hal_dma.c ****   * @brief  Starts the DMA channel transfer in normal mode with interrupts enabled (Non-blocking mo
 504:Drivers/STM32U5xx_HAL_Driver/Src/stm32u5xx_hal_dma.c ****   * @param  hdma         : Pointer to a DMA_HandleTypeDef structure that contains the configuration
 505:Drivers/STM32U5xx_HAL_Driver/Src/stm32u5xx_hal_dma.c ****   *                        specified DMA Channel.
 506:Drivers/STM32U5xx_HAL_Driver/Src/stm32u5xx_hal_dma.c ****   * @param  SrcAddress   : The source data address.
 507:Drivers/STM32U5xx_HAL_Driver/Src/stm32u5xx_hal_dma.c ****   * @param  DstAddress   : The destination data address.
 508:Drivers/STM32U5xx_HAL_Driver/Src/stm32u5xx_hal_dma.c ****   * @param  SrcDataSize  : The length of data to be transferred from source to destination in bytes
 509:Drivers/STM32U5xx_HAL_Driver/Src/stm32u5xx_hal_dma.c ****   * @retval HAL status.
 510:Drivers/STM32U5xx_HAL_Driver/Src/stm32u5xx_hal_dma.c ****   */
 511:Drivers/STM32U5xx_HAL_Driver/Src/stm32u5xx_hal_dma.c **** HAL_StatusTypeDef HAL_DMA_Start_IT(DMA_HandleTypeDef *const hdma,
 512:Drivers/STM32U5xx_HAL_Driver/Src/stm32u5xx_hal_dma.c ****                                    uint32_t SrcAddress,
 513:Drivers/STM32U5xx_HAL_Driver/Src/stm32u5xx_hal_dma.c ****                                    uint32_t DstAddress,
 514:Drivers/STM32U5xx_HAL_Driver/Src/stm32u5xx_hal_dma.c ****                                    uint32_t SrcDataSize)
 515:Drivers/STM32U5xx_HAL_Driver/Src/stm32u5xx_hal_dma.c **** {
 516:Drivers/STM32U5xx_HAL_Driver/Src/stm32u5xx_hal_dma.c ****   /* Check the DMA peripheral handle parameter */
 517:Drivers/STM32U5xx_HAL_Driver/Src/stm32u5xx_hal_dma.c ****   if (hdma == NULL)
 518:Drivers/STM32U5xx_HAL_Driver/Src/stm32u5xx_hal_dma.c ****   {
 519:Drivers/STM32U5xx_HAL_Driver/Src/stm32u5xx_hal_dma.c ****     return HAL_ERROR;
 520:Drivers/STM32U5xx_HAL_Driver/Src/stm32u5xx_hal_dma.c ****   }
 521:Drivers/STM32U5xx_HAL_Driver/Src/stm32u5xx_hal_dma.c **** 
 522:Drivers/STM32U5xx_HAL_Driver/Src/stm32u5xx_hal_dma.c ****   /* Check the parameters */
 523:Drivers/STM32U5xx_HAL_Driver/Src/stm32u5xx_hal_dma.c ****   assert_param(IS_DMA_BLOCK_SIZE(SrcDataSize));
 524:Drivers/STM32U5xx_HAL_Driver/Src/stm32u5xx_hal_dma.c **** 
 525:Drivers/STM32U5xx_HAL_Driver/Src/stm32u5xx_hal_dma.c ****   /* Process locked */
 526:Drivers/STM32U5xx_HAL_Driver/Src/stm32u5xx_hal_dma.c ****   __HAL_LOCK(hdma);
 527:Drivers/STM32U5xx_HAL_Driver/Src/stm32u5xx_hal_dma.c **** 
 528:Drivers/STM32U5xx_HAL_Driver/Src/stm32u5xx_hal_dma.c ****   /* Check DMA channel state */
 529:Drivers/STM32U5xx_HAL_Driver/Src/stm32u5xx_hal_dma.c ****   if (hdma->State == HAL_DMA_STATE_READY)
 530:Drivers/STM32U5xx_HAL_Driver/Src/stm32u5xx_hal_dma.c ****   {
 531:Drivers/STM32U5xx_HAL_Driver/Src/stm32u5xx_hal_dma.c ****     /* Update the DMA channel state */
 532:Drivers/STM32U5xx_HAL_Driver/Src/stm32u5xx_hal_dma.c ****     hdma->State = HAL_DMA_STATE_BUSY;
 533:Drivers/STM32U5xx_HAL_Driver/Src/stm32u5xx_hal_dma.c **** 
 534:Drivers/STM32U5xx_HAL_Driver/Src/stm32u5xx_hal_dma.c ****     /* Update the DMA channel error code */
 535:Drivers/STM32U5xx_HAL_Driver/Src/stm32u5xx_hal_dma.c ****     hdma->ErrorCode = HAL_DMA_ERROR_NONE;
 536:Drivers/STM32U5xx_HAL_Driver/Src/stm32u5xx_hal_dma.c **** 
 537:Drivers/STM32U5xx_HAL_Driver/Src/stm32u5xx_hal_dma.c ****     /* Configure the source address, destination address, the data size and clear flags */
 538:Drivers/STM32U5xx_HAL_Driver/Src/stm32u5xx_hal_dma.c ****     DMA_SetConfig(hdma, SrcAddress, DstAddress, SrcDataSize);
 539:Drivers/STM32U5xx_HAL_Driver/Src/stm32u5xx_hal_dma.c **** 
 540:Drivers/STM32U5xx_HAL_Driver/Src/stm32u5xx_hal_dma.c ****     /* Enable common interrupts: Transfer Complete and Transfer Errors ITs */
 541:Drivers/STM32U5xx_HAL_Driver/Src/stm32u5xx_hal_dma.c ****     __HAL_DMA_ENABLE_IT(hdma, (DMA_IT_TC | DMA_IT_DTE | DMA_IT_ULE | DMA_IT_USE | DMA_IT_TO));
 542:Drivers/STM32U5xx_HAL_Driver/Src/stm32u5xx_hal_dma.c **** 
ARM GAS  C:\Users\Ya\AppData\Local\Temp\ccY6d54u.s 			page 11


 543:Drivers/STM32U5xx_HAL_Driver/Src/stm32u5xx_hal_dma.c ****     /* Check half transfer complete callback */
 544:Drivers/STM32U5xx_HAL_Driver/Src/stm32u5xx_hal_dma.c ****     if (hdma->XferHalfCpltCallback != NULL)
 545:Drivers/STM32U5xx_HAL_Driver/Src/stm32u5xx_hal_dma.c ****     {
 546:Drivers/STM32U5xx_HAL_Driver/Src/stm32u5xx_hal_dma.c ****       /* If Half Transfer complete callback is set, enable the corresponding IT */
 547:Drivers/STM32U5xx_HAL_Driver/Src/stm32u5xx_hal_dma.c ****       __HAL_DMA_ENABLE_IT(hdma, DMA_IT_HT);
 548:Drivers/STM32U5xx_HAL_Driver/Src/stm32u5xx_hal_dma.c ****     }
 549:Drivers/STM32U5xx_HAL_Driver/Src/stm32u5xx_hal_dma.c **** 
 550:Drivers/STM32U5xx_HAL_Driver/Src/stm32u5xx_hal_dma.c ****     /* Check Half suspend callback */
 551:Drivers/STM32U5xx_HAL_Driver/Src/stm32u5xx_hal_dma.c ****     if (hdma->XferSuspendCallback != NULL)
 552:Drivers/STM32U5xx_HAL_Driver/Src/stm32u5xx_hal_dma.c ****     {
 553:Drivers/STM32U5xx_HAL_Driver/Src/stm32u5xx_hal_dma.c ****       /* If Transfer suspend callback is set, enable the corresponding IT */
 554:Drivers/STM32U5xx_HAL_Driver/Src/stm32u5xx_hal_dma.c ****       __HAL_DMA_ENABLE_IT(hdma, DMA_IT_SUSP);
 555:Drivers/STM32U5xx_HAL_Driver/Src/stm32u5xx_hal_dma.c ****     }
 556:Drivers/STM32U5xx_HAL_Driver/Src/stm32u5xx_hal_dma.c **** 
 557:Drivers/STM32U5xx_HAL_Driver/Src/stm32u5xx_hal_dma.c ****     /* Enable DMA channel */
 558:Drivers/STM32U5xx_HAL_Driver/Src/stm32u5xx_hal_dma.c ****     __HAL_DMA_ENABLE(hdma);
 559:Drivers/STM32U5xx_HAL_Driver/Src/stm32u5xx_hal_dma.c ****   }
 560:Drivers/STM32U5xx_HAL_Driver/Src/stm32u5xx_hal_dma.c ****   else
 561:Drivers/STM32U5xx_HAL_Driver/Src/stm32u5xx_hal_dma.c ****   {
 562:Drivers/STM32U5xx_HAL_Driver/Src/stm32u5xx_hal_dma.c ****     /* Update the DMA channel error code */
 563:Drivers/STM32U5xx_HAL_Driver/Src/stm32u5xx_hal_dma.c ****     hdma->ErrorCode = HAL_DMA_ERROR_BUSY;
 564:Drivers/STM32U5xx_HAL_Driver/Src/stm32u5xx_hal_dma.c **** 
 565:Drivers/STM32U5xx_HAL_Driver/Src/stm32u5xx_hal_dma.c ****     /* Process unlocked */
 566:Drivers/STM32U5xx_HAL_Driver/Src/stm32u5xx_hal_dma.c ****     __HAL_UNLOCK(hdma);
 567:Drivers/STM32U5xx_HAL_Driver/Src/stm32u5xx_hal_dma.c **** 
 568:Drivers/STM32U5xx_HAL_Driver/Src/stm32u5xx_hal_dma.c ****     return HAL_ERROR;
 569:Drivers/STM32U5xx_HAL_Driver/Src/stm32u5xx_hal_dma.c ****   }
 570:Drivers/STM32U5xx_HAL_Driver/Src/stm32u5xx_hal_dma.c **** 
 571:Drivers/STM32U5xx_HAL_Driver/Src/stm32u5xx_hal_dma.c ****   return HAL_OK;
 572:Drivers/STM32U5xx_HAL_Driver/Src/stm32u5xx_hal_dma.c **** }
 573:Drivers/STM32U5xx_HAL_Driver/Src/stm32u5xx_hal_dma.c **** 
 574:Drivers/STM32U5xx_HAL_Driver/Src/stm32u5xx_hal_dma.c **** /**
 575:Drivers/STM32U5xx_HAL_Driver/Src/stm32u5xx_hal_dma.c ****   * @brief  Abort any on-going DMA channel transfer (Blocking mode).
 576:Drivers/STM32U5xx_HAL_Driver/Src/stm32u5xx_hal_dma.c ****   * @param  hdma : Pointer to a DMA_HandleTypeDef structure that contains the configuration informa
 577:Drivers/STM32U5xx_HAL_Driver/Src/stm32u5xx_hal_dma.c ****   *                specified DMA Channel.
 578:Drivers/STM32U5xx_HAL_Driver/Src/stm32u5xx_hal_dma.c ****   * @note   After suspending a DMA channel, a wait until the DMA channel is effectively stopped is 
 579:Drivers/STM32U5xx_HAL_Driver/Src/stm32u5xx_hal_dma.c ****   *         is suspended while a data transfer is on-going, the current data will be transferred an
 580:Drivers/STM32U5xx_HAL_Driver/Src/stm32u5xx_hal_dma.c ****   *         effectively suspended only after the transfer of any on-going data is finished.
 581:Drivers/STM32U5xx_HAL_Driver/Src/stm32u5xx_hal_dma.c ****   * @retval HAL status.
 582:Drivers/STM32U5xx_HAL_Driver/Src/stm32u5xx_hal_dma.c ****   */
 583:Drivers/STM32U5xx_HAL_Driver/Src/stm32u5xx_hal_dma.c **** HAL_StatusTypeDef HAL_DMA_Abort(DMA_HandleTypeDef *const hdma)
 584:Drivers/STM32U5xx_HAL_Driver/Src/stm32u5xx_hal_dma.c **** {
 585:Drivers/STM32U5xx_HAL_Driver/Src/stm32u5xx_hal_dma.c ****   /* Get tick number */
 586:Drivers/STM32U5xx_HAL_Driver/Src/stm32u5xx_hal_dma.c ****   uint32_t tickstart =  HAL_GetTick();
 587:Drivers/STM32U5xx_HAL_Driver/Src/stm32u5xx_hal_dma.c **** 
 588:Drivers/STM32U5xx_HAL_Driver/Src/stm32u5xx_hal_dma.c ****   /* Check the DMA peripheral handle parameter */
 589:Drivers/STM32U5xx_HAL_Driver/Src/stm32u5xx_hal_dma.c ****   if (hdma == NULL)
 590:Drivers/STM32U5xx_HAL_Driver/Src/stm32u5xx_hal_dma.c ****   {
 591:Drivers/STM32U5xx_HAL_Driver/Src/stm32u5xx_hal_dma.c ****     return HAL_ERROR;
 592:Drivers/STM32U5xx_HAL_Driver/Src/stm32u5xx_hal_dma.c ****   }
 593:Drivers/STM32U5xx_HAL_Driver/Src/stm32u5xx_hal_dma.c **** 
 594:Drivers/STM32U5xx_HAL_Driver/Src/stm32u5xx_hal_dma.c ****   /* Check DMA channel state */
 595:Drivers/STM32U5xx_HAL_Driver/Src/stm32u5xx_hal_dma.c ****   if (hdma->State != HAL_DMA_STATE_BUSY)
 596:Drivers/STM32U5xx_HAL_Driver/Src/stm32u5xx_hal_dma.c ****   {
 597:Drivers/STM32U5xx_HAL_Driver/Src/stm32u5xx_hal_dma.c ****     /* Update the DMA channel error code */
 598:Drivers/STM32U5xx_HAL_Driver/Src/stm32u5xx_hal_dma.c ****     hdma->ErrorCode = HAL_DMA_ERROR_NO_XFER;
 599:Drivers/STM32U5xx_HAL_Driver/Src/stm32u5xx_hal_dma.c **** 
ARM GAS  C:\Users\Ya\AppData\Local\Temp\ccY6d54u.s 			page 12


 600:Drivers/STM32U5xx_HAL_Driver/Src/stm32u5xx_hal_dma.c ****     /* Process Unlocked */
 601:Drivers/STM32U5xx_HAL_Driver/Src/stm32u5xx_hal_dma.c ****     __HAL_UNLOCK(hdma);
 602:Drivers/STM32U5xx_HAL_Driver/Src/stm32u5xx_hal_dma.c **** 
 603:Drivers/STM32U5xx_HAL_Driver/Src/stm32u5xx_hal_dma.c ****     return HAL_ERROR;
 604:Drivers/STM32U5xx_HAL_Driver/Src/stm32u5xx_hal_dma.c ****   }
 605:Drivers/STM32U5xx_HAL_Driver/Src/stm32u5xx_hal_dma.c ****   else
 606:Drivers/STM32U5xx_HAL_Driver/Src/stm32u5xx_hal_dma.c ****   {
 607:Drivers/STM32U5xx_HAL_Driver/Src/stm32u5xx_hal_dma.c ****     /* Suspend the channel */
 608:Drivers/STM32U5xx_HAL_Driver/Src/stm32u5xx_hal_dma.c ****     hdma->Instance->CCR |= DMA_CCR_SUSP;
 609:Drivers/STM32U5xx_HAL_Driver/Src/stm32u5xx_hal_dma.c **** 
 610:Drivers/STM32U5xx_HAL_Driver/Src/stm32u5xx_hal_dma.c ****     /* Update the DMA channel state */
 611:Drivers/STM32U5xx_HAL_Driver/Src/stm32u5xx_hal_dma.c ****     hdma->State = HAL_DMA_STATE_SUSPEND;
 612:Drivers/STM32U5xx_HAL_Driver/Src/stm32u5xx_hal_dma.c **** 
 613:Drivers/STM32U5xx_HAL_Driver/Src/stm32u5xx_hal_dma.c ****     /* Check if the DMA Channel is suspended */
 614:Drivers/STM32U5xx_HAL_Driver/Src/stm32u5xx_hal_dma.c ****     while ((hdma->Instance->CSR & DMA_CSR_SUSPF) == 0U)
 615:Drivers/STM32U5xx_HAL_Driver/Src/stm32u5xx_hal_dma.c ****     {
 616:Drivers/STM32U5xx_HAL_Driver/Src/stm32u5xx_hal_dma.c ****       /* Check for the Timeout */
 617:Drivers/STM32U5xx_HAL_Driver/Src/stm32u5xx_hal_dma.c ****       if ((HAL_GetTick() - tickstart) > HAL_TIMEOUT_DMA_ABORT)
 618:Drivers/STM32U5xx_HAL_Driver/Src/stm32u5xx_hal_dma.c ****       {
 619:Drivers/STM32U5xx_HAL_Driver/Src/stm32u5xx_hal_dma.c ****         /* Update the DMA channel error code */
 620:Drivers/STM32U5xx_HAL_Driver/Src/stm32u5xx_hal_dma.c ****         hdma->ErrorCode |= HAL_DMA_ERROR_TIMEOUT;
 621:Drivers/STM32U5xx_HAL_Driver/Src/stm32u5xx_hal_dma.c **** 
 622:Drivers/STM32U5xx_HAL_Driver/Src/stm32u5xx_hal_dma.c ****         /* Update the DMA channel state */
 623:Drivers/STM32U5xx_HAL_Driver/Src/stm32u5xx_hal_dma.c ****         hdma->State = HAL_DMA_STATE_ERROR;
 624:Drivers/STM32U5xx_HAL_Driver/Src/stm32u5xx_hal_dma.c **** 
 625:Drivers/STM32U5xx_HAL_Driver/Src/stm32u5xx_hal_dma.c ****         /* Check DMA channel transfer mode */
 626:Drivers/STM32U5xx_HAL_Driver/Src/stm32u5xx_hal_dma.c ****         if ((hdma->Mode & DMA_LINKEDLIST) == DMA_LINKEDLIST)
 627:Drivers/STM32U5xx_HAL_Driver/Src/stm32u5xx_hal_dma.c ****         {
 628:Drivers/STM32U5xx_HAL_Driver/Src/stm32u5xx_hal_dma.c ****           /* Update the linked-list queue state */
 629:Drivers/STM32U5xx_HAL_Driver/Src/stm32u5xx_hal_dma.c ****           hdma->LinkedListQueue->State = HAL_DMA_QUEUE_STATE_READY;
 630:Drivers/STM32U5xx_HAL_Driver/Src/stm32u5xx_hal_dma.c ****         }
 631:Drivers/STM32U5xx_HAL_Driver/Src/stm32u5xx_hal_dma.c **** 
 632:Drivers/STM32U5xx_HAL_Driver/Src/stm32u5xx_hal_dma.c ****         /* Process Unlocked */
 633:Drivers/STM32U5xx_HAL_Driver/Src/stm32u5xx_hal_dma.c ****         __HAL_UNLOCK(hdma);
 634:Drivers/STM32U5xx_HAL_Driver/Src/stm32u5xx_hal_dma.c **** 
 635:Drivers/STM32U5xx_HAL_Driver/Src/stm32u5xx_hal_dma.c ****         return HAL_ERROR;
 636:Drivers/STM32U5xx_HAL_Driver/Src/stm32u5xx_hal_dma.c ****       }
 637:Drivers/STM32U5xx_HAL_Driver/Src/stm32u5xx_hal_dma.c ****     }
 638:Drivers/STM32U5xx_HAL_Driver/Src/stm32u5xx_hal_dma.c **** 
 639:Drivers/STM32U5xx_HAL_Driver/Src/stm32u5xx_hal_dma.c ****     /* Reset the channel */
 640:Drivers/STM32U5xx_HAL_Driver/Src/stm32u5xx_hal_dma.c ****     hdma->Instance->CCR |= DMA_CCR_RESET;
 641:Drivers/STM32U5xx_HAL_Driver/Src/stm32u5xx_hal_dma.c **** 
 642:Drivers/STM32U5xx_HAL_Driver/Src/stm32u5xx_hal_dma.c ****     /* Update the DMA channel state */
 643:Drivers/STM32U5xx_HAL_Driver/Src/stm32u5xx_hal_dma.c ****     hdma->State = HAL_DMA_STATE_ABORT;
 644:Drivers/STM32U5xx_HAL_Driver/Src/stm32u5xx_hal_dma.c **** 
 645:Drivers/STM32U5xx_HAL_Driver/Src/stm32u5xx_hal_dma.c ****     /* Clear all status flags */
 646:Drivers/STM32U5xx_HAL_Driver/Src/stm32u5xx_hal_dma.c ****     __HAL_DMA_CLEAR_FLAG(hdma, (DMA_FLAG_TC | DMA_FLAG_HT | DMA_FLAG_DTE | DMA_FLAG_ULE | DMA_FLAG_
 647:Drivers/STM32U5xx_HAL_Driver/Src/stm32u5xx_hal_dma.c ****                                 DMA_FLAG_TO));
 648:Drivers/STM32U5xx_HAL_Driver/Src/stm32u5xx_hal_dma.c **** 
 649:Drivers/STM32U5xx_HAL_Driver/Src/stm32u5xx_hal_dma.c ****     /* Update the DMA channel state */
 650:Drivers/STM32U5xx_HAL_Driver/Src/stm32u5xx_hal_dma.c ****     hdma->State = HAL_DMA_STATE_READY;
 651:Drivers/STM32U5xx_HAL_Driver/Src/stm32u5xx_hal_dma.c **** 
 652:Drivers/STM32U5xx_HAL_Driver/Src/stm32u5xx_hal_dma.c ****     /* Check DMA channel transfer mode */
 653:Drivers/STM32U5xx_HAL_Driver/Src/stm32u5xx_hal_dma.c ****     if ((hdma->Mode & DMA_LINKEDLIST) == DMA_LINKEDLIST)
 654:Drivers/STM32U5xx_HAL_Driver/Src/stm32u5xx_hal_dma.c ****     {
 655:Drivers/STM32U5xx_HAL_Driver/Src/stm32u5xx_hal_dma.c ****       /* Update the linked-list queue state */
 656:Drivers/STM32U5xx_HAL_Driver/Src/stm32u5xx_hal_dma.c ****       hdma->LinkedListQueue->State = HAL_DMA_QUEUE_STATE_READY;
ARM GAS  C:\Users\Ya\AppData\Local\Temp\ccY6d54u.s 			page 13


 657:Drivers/STM32U5xx_HAL_Driver/Src/stm32u5xx_hal_dma.c **** 
 658:Drivers/STM32U5xx_HAL_Driver/Src/stm32u5xx_hal_dma.c ****       /* Clear remaining data size to ensure loading linked-list from memory next start */
 659:Drivers/STM32U5xx_HAL_Driver/Src/stm32u5xx_hal_dma.c ****       hdma->Instance->CBR1 = 0U;
 660:Drivers/STM32U5xx_HAL_Driver/Src/stm32u5xx_hal_dma.c ****     }
 661:Drivers/STM32U5xx_HAL_Driver/Src/stm32u5xx_hal_dma.c **** 
 662:Drivers/STM32U5xx_HAL_Driver/Src/stm32u5xx_hal_dma.c ****     /* Process Unlocked */
 663:Drivers/STM32U5xx_HAL_Driver/Src/stm32u5xx_hal_dma.c ****     __HAL_UNLOCK(hdma);
 664:Drivers/STM32U5xx_HAL_Driver/Src/stm32u5xx_hal_dma.c ****   }
 665:Drivers/STM32U5xx_HAL_Driver/Src/stm32u5xx_hal_dma.c **** 
 666:Drivers/STM32U5xx_HAL_Driver/Src/stm32u5xx_hal_dma.c ****   return HAL_OK;
 667:Drivers/STM32U5xx_HAL_Driver/Src/stm32u5xx_hal_dma.c **** }
 668:Drivers/STM32U5xx_HAL_Driver/Src/stm32u5xx_hal_dma.c **** 
 669:Drivers/STM32U5xx_HAL_Driver/Src/stm32u5xx_hal_dma.c **** /**
 670:Drivers/STM32U5xx_HAL_Driver/Src/stm32u5xx_hal_dma.c ****   * @brief  Abort any on-going DMA channel transfer in interrupt mode (Non-blocking mode).
 671:Drivers/STM32U5xx_HAL_Driver/Src/stm32u5xx_hal_dma.c ****   * @param  hdma : Pointer to a DMA_HandleTypeDef structure that contains the configuration informa
 672:Drivers/STM32U5xx_HAL_Driver/Src/stm32u5xx_hal_dma.c ****   *                specified DMA Channel.
 673:Drivers/STM32U5xx_HAL_Driver/Src/stm32u5xx_hal_dma.c ****   * @retval HAL status.
 674:Drivers/STM32U5xx_HAL_Driver/Src/stm32u5xx_hal_dma.c ****   */
 675:Drivers/STM32U5xx_HAL_Driver/Src/stm32u5xx_hal_dma.c **** HAL_StatusTypeDef HAL_DMA_Abort_IT(DMA_HandleTypeDef *const hdma)
 676:Drivers/STM32U5xx_HAL_Driver/Src/stm32u5xx_hal_dma.c **** {
 677:Drivers/STM32U5xx_HAL_Driver/Src/stm32u5xx_hal_dma.c ****   /* Check the DMA peripheral handle parameter */
 678:Drivers/STM32U5xx_HAL_Driver/Src/stm32u5xx_hal_dma.c ****   if (hdma == NULL)
 679:Drivers/STM32U5xx_HAL_Driver/Src/stm32u5xx_hal_dma.c ****   {
 680:Drivers/STM32U5xx_HAL_Driver/Src/stm32u5xx_hal_dma.c ****     return HAL_ERROR;
 681:Drivers/STM32U5xx_HAL_Driver/Src/stm32u5xx_hal_dma.c ****   }
 682:Drivers/STM32U5xx_HAL_Driver/Src/stm32u5xx_hal_dma.c **** 
 683:Drivers/STM32U5xx_HAL_Driver/Src/stm32u5xx_hal_dma.c ****   /* Check DMA channel state */
 684:Drivers/STM32U5xx_HAL_Driver/Src/stm32u5xx_hal_dma.c ****   if (hdma->State != HAL_DMA_STATE_BUSY)
 685:Drivers/STM32U5xx_HAL_Driver/Src/stm32u5xx_hal_dma.c ****   {
 686:Drivers/STM32U5xx_HAL_Driver/Src/stm32u5xx_hal_dma.c ****     /* Update the DMA channel error code */
 687:Drivers/STM32U5xx_HAL_Driver/Src/stm32u5xx_hal_dma.c ****     hdma->ErrorCode = HAL_DMA_ERROR_NO_XFER;
 688:Drivers/STM32U5xx_HAL_Driver/Src/stm32u5xx_hal_dma.c **** 
 689:Drivers/STM32U5xx_HAL_Driver/Src/stm32u5xx_hal_dma.c ****     return HAL_ERROR;
 690:Drivers/STM32U5xx_HAL_Driver/Src/stm32u5xx_hal_dma.c ****   }
 691:Drivers/STM32U5xx_HAL_Driver/Src/stm32u5xx_hal_dma.c ****   else
 692:Drivers/STM32U5xx_HAL_Driver/Src/stm32u5xx_hal_dma.c ****   {
 693:Drivers/STM32U5xx_HAL_Driver/Src/stm32u5xx_hal_dma.c ****     /* Update the DMA channel state */
 694:Drivers/STM32U5xx_HAL_Driver/Src/stm32u5xx_hal_dma.c ****     hdma->State = HAL_DMA_STATE_ABORT;
 695:Drivers/STM32U5xx_HAL_Driver/Src/stm32u5xx_hal_dma.c **** 
 696:Drivers/STM32U5xx_HAL_Driver/Src/stm32u5xx_hal_dma.c ****     /* Suspend the channel and activate suspend interrupt */
 697:Drivers/STM32U5xx_HAL_Driver/Src/stm32u5xx_hal_dma.c ****     hdma->Instance->CCR |= (DMA_CCR_SUSP | DMA_CCR_SUSPIE);
 698:Drivers/STM32U5xx_HAL_Driver/Src/stm32u5xx_hal_dma.c ****   }
 699:Drivers/STM32U5xx_HAL_Driver/Src/stm32u5xx_hal_dma.c **** 
 700:Drivers/STM32U5xx_HAL_Driver/Src/stm32u5xx_hal_dma.c ****   return HAL_OK;
 701:Drivers/STM32U5xx_HAL_Driver/Src/stm32u5xx_hal_dma.c **** }
 702:Drivers/STM32U5xx_HAL_Driver/Src/stm32u5xx_hal_dma.c **** 
 703:Drivers/STM32U5xx_HAL_Driver/Src/stm32u5xx_hal_dma.c **** /**
 704:Drivers/STM32U5xx_HAL_Driver/Src/stm32u5xx_hal_dma.c ****   * @brief  Polling for transfer status (Blocking mode).
 705:Drivers/STM32U5xx_HAL_Driver/Src/stm32u5xx_hal_dma.c ****   * @param  hdma          : Pointer to a DMA_HandleTypeDef structure that contains the configuratio
 706:Drivers/STM32U5xx_HAL_Driver/Src/stm32u5xx_hal_dma.c ****   *                         specified DMA Channel.
 707:Drivers/STM32U5xx_HAL_Driver/Src/stm32u5xx_hal_dma.c ****   * @param  CompleteLevel : Specifies the DMA level complete.
 708:Drivers/STM32U5xx_HAL_Driver/Src/stm32u5xx_hal_dma.c ****   * @param  Timeout       : Timeout duration.
 709:Drivers/STM32U5xx_HAL_Driver/Src/stm32u5xx_hal_dma.c ****   * @retval HAL status
 710:Drivers/STM32U5xx_HAL_Driver/Src/stm32u5xx_hal_dma.c ****   */
 711:Drivers/STM32U5xx_HAL_Driver/Src/stm32u5xx_hal_dma.c **** HAL_StatusTypeDef HAL_DMA_PollForTransfer(DMA_HandleTypeDef *const hdma,
 712:Drivers/STM32U5xx_HAL_Driver/Src/stm32u5xx_hal_dma.c ****                                           HAL_DMA_LevelCompleteTypeDef CompleteLevel,
 713:Drivers/STM32U5xx_HAL_Driver/Src/stm32u5xx_hal_dma.c ****                                           uint32_t Timeout)
ARM GAS  C:\Users\Ya\AppData\Local\Temp\ccY6d54u.s 			page 14


 714:Drivers/STM32U5xx_HAL_Driver/Src/stm32u5xx_hal_dma.c **** {
 715:Drivers/STM32U5xx_HAL_Driver/Src/stm32u5xx_hal_dma.c ****   /* Get tick number */
 716:Drivers/STM32U5xx_HAL_Driver/Src/stm32u5xx_hal_dma.c ****   uint32_t tickstart = HAL_GetTick();
 717:Drivers/STM32U5xx_HAL_Driver/Src/stm32u5xx_hal_dma.c ****   uint32_t level_flag;
 718:Drivers/STM32U5xx_HAL_Driver/Src/stm32u5xx_hal_dma.c ****   uint32_t tmp_csr;
 719:Drivers/STM32U5xx_HAL_Driver/Src/stm32u5xx_hal_dma.c **** 
 720:Drivers/STM32U5xx_HAL_Driver/Src/stm32u5xx_hal_dma.c ****   /* Check the DMA peripheral handle parameter */
 721:Drivers/STM32U5xx_HAL_Driver/Src/stm32u5xx_hal_dma.c ****   if (hdma == NULL)
 722:Drivers/STM32U5xx_HAL_Driver/Src/stm32u5xx_hal_dma.c ****   {
 723:Drivers/STM32U5xx_HAL_Driver/Src/stm32u5xx_hal_dma.c ****     return HAL_ERROR;
 724:Drivers/STM32U5xx_HAL_Driver/Src/stm32u5xx_hal_dma.c ****   }
 725:Drivers/STM32U5xx_HAL_Driver/Src/stm32u5xx_hal_dma.c **** 
 726:Drivers/STM32U5xx_HAL_Driver/Src/stm32u5xx_hal_dma.c ****   /* Check the parameters */
 727:Drivers/STM32U5xx_HAL_Driver/Src/stm32u5xx_hal_dma.c ****   assert_param(IS_DMA_LEVEL_COMPLETE(CompleteLevel));
 728:Drivers/STM32U5xx_HAL_Driver/Src/stm32u5xx_hal_dma.c **** 
 729:Drivers/STM32U5xx_HAL_Driver/Src/stm32u5xx_hal_dma.c ****   /* Check DMA channel state */
 730:Drivers/STM32U5xx_HAL_Driver/Src/stm32u5xx_hal_dma.c ****   if (hdma->State != HAL_DMA_STATE_BUSY)
 731:Drivers/STM32U5xx_HAL_Driver/Src/stm32u5xx_hal_dma.c ****   {
 732:Drivers/STM32U5xx_HAL_Driver/Src/stm32u5xx_hal_dma.c ****     /* Update the DMA channel error code */
 733:Drivers/STM32U5xx_HAL_Driver/Src/stm32u5xx_hal_dma.c ****     hdma->ErrorCode = HAL_DMA_ERROR_NO_XFER;
 734:Drivers/STM32U5xx_HAL_Driver/Src/stm32u5xx_hal_dma.c **** 
 735:Drivers/STM32U5xx_HAL_Driver/Src/stm32u5xx_hal_dma.c ****     /* Process Unlocked */
 736:Drivers/STM32U5xx_HAL_Driver/Src/stm32u5xx_hal_dma.c ****     __HAL_UNLOCK(hdma);
 737:Drivers/STM32U5xx_HAL_Driver/Src/stm32u5xx_hal_dma.c **** 
 738:Drivers/STM32U5xx_HAL_Driver/Src/stm32u5xx_hal_dma.c ****     return HAL_ERROR;
 739:Drivers/STM32U5xx_HAL_Driver/Src/stm32u5xx_hal_dma.c ****   }
 740:Drivers/STM32U5xx_HAL_Driver/Src/stm32u5xx_hal_dma.c **** 
 741:Drivers/STM32U5xx_HAL_Driver/Src/stm32u5xx_hal_dma.c ****   /* Polling mode is not supported in circular mode */
 742:Drivers/STM32U5xx_HAL_Driver/Src/stm32u5xx_hal_dma.c ****   if ((hdma->Mode & DMA_LINKEDLIST_CIRCULAR) == DMA_LINKEDLIST_CIRCULAR)
 743:Drivers/STM32U5xx_HAL_Driver/Src/stm32u5xx_hal_dma.c ****   {
 744:Drivers/STM32U5xx_HAL_Driver/Src/stm32u5xx_hal_dma.c ****     /* Update the DMA channel error code */
 745:Drivers/STM32U5xx_HAL_Driver/Src/stm32u5xx_hal_dma.c ****     hdma->ErrorCode = HAL_DMA_ERROR_NOT_SUPPORTED;
 746:Drivers/STM32U5xx_HAL_Driver/Src/stm32u5xx_hal_dma.c **** 
 747:Drivers/STM32U5xx_HAL_Driver/Src/stm32u5xx_hal_dma.c ****     return HAL_ERROR;
 748:Drivers/STM32U5xx_HAL_Driver/Src/stm32u5xx_hal_dma.c ****   }
 749:Drivers/STM32U5xx_HAL_Driver/Src/stm32u5xx_hal_dma.c **** 
 750:Drivers/STM32U5xx_HAL_Driver/Src/stm32u5xx_hal_dma.c ****   /* Get the level transfer complete flag */
 751:Drivers/STM32U5xx_HAL_Driver/Src/stm32u5xx_hal_dma.c ****   level_flag = ((CompleteLevel == HAL_DMA_FULL_TRANSFER) ? DMA_FLAG_IDLE : DMA_FLAG_HT);
 752:Drivers/STM32U5xx_HAL_Driver/Src/stm32u5xx_hal_dma.c **** 
 753:Drivers/STM32U5xx_HAL_Driver/Src/stm32u5xx_hal_dma.c ****   /* Get DMA channel status */
 754:Drivers/STM32U5xx_HAL_Driver/Src/stm32u5xx_hal_dma.c ****   tmp_csr = hdma->Instance->CSR;
 755:Drivers/STM32U5xx_HAL_Driver/Src/stm32u5xx_hal_dma.c **** 
 756:Drivers/STM32U5xx_HAL_Driver/Src/stm32u5xx_hal_dma.c ****   while ((tmp_csr & level_flag) == 0U)
 757:Drivers/STM32U5xx_HAL_Driver/Src/stm32u5xx_hal_dma.c ****   {
 758:Drivers/STM32U5xx_HAL_Driver/Src/stm32u5xx_hal_dma.c ****     /* Check for the timeout */
 759:Drivers/STM32U5xx_HAL_Driver/Src/stm32u5xx_hal_dma.c ****     if (Timeout != HAL_MAX_DELAY)
 760:Drivers/STM32U5xx_HAL_Driver/Src/stm32u5xx_hal_dma.c ****     {
 761:Drivers/STM32U5xx_HAL_Driver/Src/stm32u5xx_hal_dma.c ****       if (((HAL_GetTick() - tickstart) > Timeout) || (Timeout == 0U))
 762:Drivers/STM32U5xx_HAL_Driver/Src/stm32u5xx_hal_dma.c ****       {
 763:Drivers/STM32U5xx_HAL_Driver/Src/stm32u5xx_hal_dma.c ****         /* Update the DMA channel error code */
 764:Drivers/STM32U5xx_HAL_Driver/Src/stm32u5xx_hal_dma.c ****         hdma->ErrorCode |= HAL_DMA_ERROR_TIMEOUT;
 765:Drivers/STM32U5xx_HAL_Driver/Src/stm32u5xx_hal_dma.c **** 
 766:Drivers/STM32U5xx_HAL_Driver/Src/stm32u5xx_hal_dma.c ****         /*
 767:Drivers/STM32U5xx_HAL_Driver/Src/stm32u5xx_hal_dma.c ****           If timeout, abort the current transfer.
 768:Drivers/STM32U5xx_HAL_Driver/Src/stm32u5xx_hal_dma.c ****           Note that the Abort function will
 769:Drivers/STM32U5xx_HAL_Driver/Src/stm32u5xx_hal_dma.c ****           - Clear all transfer flags.
 770:Drivers/STM32U5xx_HAL_Driver/Src/stm32u5xx_hal_dma.c ****           - Unlock.
ARM GAS  C:\Users\Ya\AppData\Local\Temp\ccY6d54u.s 			page 15


 771:Drivers/STM32U5xx_HAL_Driver/Src/stm32u5xx_hal_dma.c ****           - Set the State.
 772:Drivers/STM32U5xx_HAL_Driver/Src/stm32u5xx_hal_dma.c ****         */
 773:Drivers/STM32U5xx_HAL_Driver/Src/stm32u5xx_hal_dma.c ****         (void)HAL_DMA_Abort(hdma);
 774:Drivers/STM32U5xx_HAL_Driver/Src/stm32u5xx_hal_dma.c **** 
 775:Drivers/STM32U5xx_HAL_Driver/Src/stm32u5xx_hal_dma.c ****         return HAL_ERROR;
 776:Drivers/STM32U5xx_HAL_Driver/Src/stm32u5xx_hal_dma.c ****       }
 777:Drivers/STM32U5xx_HAL_Driver/Src/stm32u5xx_hal_dma.c ****     }
 778:Drivers/STM32U5xx_HAL_Driver/Src/stm32u5xx_hal_dma.c **** 
 779:Drivers/STM32U5xx_HAL_Driver/Src/stm32u5xx_hal_dma.c ****     /* Get a newer CSR register value */
 780:Drivers/STM32U5xx_HAL_Driver/Src/stm32u5xx_hal_dma.c ****     tmp_csr = hdma->Instance->CSR;
 781:Drivers/STM32U5xx_HAL_Driver/Src/stm32u5xx_hal_dma.c ****   }
 782:Drivers/STM32U5xx_HAL_Driver/Src/stm32u5xx_hal_dma.c **** 
 783:Drivers/STM32U5xx_HAL_Driver/Src/stm32u5xx_hal_dma.c ****   /* Check trigger overrun flag */
 784:Drivers/STM32U5xx_HAL_Driver/Src/stm32u5xx_hal_dma.c ****   if ((tmp_csr & DMA_FLAG_TO) != 0U)
 785:Drivers/STM32U5xx_HAL_Driver/Src/stm32u5xx_hal_dma.c ****   {
 786:Drivers/STM32U5xx_HAL_Driver/Src/stm32u5xx_hal_dma.c ****     /* Update the DMA channel error code */
 787:Drivers/STM32U5xx_HAL_Driver/Src/stm32u5xx_hal_dma.c ****     hdma->ErrorCode |= HAL_DMA_ERROR_TO;
 788:Drivers/STM32U5xx_HAL_Driver/Src/stm32u5xx_hal_dma.c **** 
 789:Drivers/STM32U5xx_HAL_Driver/Src/stm32u5xx_hal_dma.c ****     /* Clear the error flag */
 790:Drivers/STM32U5xx_HAL_Driver/Src/stm32u5xx_hal_dma.c ****     __HAL_DMA_CLEAR_FLAG(hdma, DMA_FLAG_TO);
 791:Drivers/STM32U5xx_HAL_Driver/Src/stm32u5xx_hal_dma.c ****   }
 792:Drivers/STM32U5xx_HAL_Driver/Src/stm32u5xx_hal_dma.c **** 
 793:Drivers/STM32U5xx_HAL_Driver/Src/stm32u5xx_hal_dma.c ****   /* Check error flags */
 794:Drivers/STM32U5xx_HAL_Driver/Src/stm32u5xx_hal_dma.c ****   if ((tmp_csr & (DMA_FLAG_DTE | DMA_FLAG_ULE | DMA_FLAG_USE)) != 0U)
 795:Drivers/STM32U5xx_HAL_Driver/Src/stm32u5xx_hal_dma.c ****   {
 796:Drivers/STM32U5xx_HAL_Driver/Src/stm32u5xx_hal_dma.c ****     /* Check the data transfer error flag */
 797:Drivers/STM32U5xx_HAL_Driver/Src/stm32u5xx_hal_dma.c ****     if ((tmp_csr & DMA_FLAG_DTE) != 0U)
 798:Drivers/STM32U5xx_HAL_Driver/Src/stm32u5xx_hal_dma.c ****     {
 799:Drivers/STM32U5xx_HAL_Driver/Src/stm32u5xx_hal_dma.c ****       /* Update the DMA channel error code */
 800:Drivers/STM32U5xx_HAL_Driver/Src/stm32u5xx_hal_dma.c ****       hdma->ErrorCode |= HAL_DMA_ERROR_DTE;
 801:Drivers/STM32U5xx_HAL_Driver/Src/stm32u5xx_hal_dma.c **** 
 802:Drivers/STM32U5xx_HAL_Driver/Src/stm32u5xx_hal_dma.c ****       /* Clear the error flag */
 803:Drivers/STM32U5xx_HAL_Driver/Src/stm32u5xx_hal_dma.c ****       __HAL_DMA_CLEAR_FLAG(hdma, DMA_FLAG_DTE);
 804:Drivers/STM32U5xx_HAL_Driver/Src/stm32u5xx_hal_dma.c ****     }
 805:Drivers/STM32U5xx_HAL_Driver/Src/stm32u5xx_hal_dma.c **** 
 806:Drivers/STM32U5xx_HAL_Driver/Src/stm32u5xx_hal_dma.c ****     /* Check the update link error flag */
 807:Drivers/STM32U5xx_HAL_Driver/Src/stm32u5xx_hal_dma.c ****     if ((tmp_csr & DMA_FLAG_ULE) != 0U)
 808:Drivers/STM32U5xx_HAL_Driver/Src/stm32u5xx_hal_dma.c ****     {
 809:Drivers/STM32U5xx_HAL_Driver/Src/stm32u5xx_hal_dma.c ****       /* Update the DMA channel error code */
 810:Drivers/STM32U5xx_HAL_Driver/Src/stm32u5xx_hal_dma.c ****       hdma->ErrorCode |= HAL_DMA_ERROR_ULE;
 811:Drivers/STM32U5xx_HAL_Driver/Src/stm32u5xx_hal_dma.c **** 
 812:Drivers/STM32U5xx_HAL_Driver/Src/stm32u5xx_hal_dma.c ****       /* Clear the error flag */
 813:Drivers/STM32U5xx_HAL_Driver/Src/stm32u5xx_hal_dma.c ****       __HAL_DMA_CLEAR_FLAG(hdma, DMA_FLAG_ULE);
 814:Drivers/STM32U5xx_HAL_Driver/Src/stm32u5xx_hal_dma.c ****     }
 815:Drivers/STM32U5xx_HAL_Driver/Src/stm32u5xx_hal_dma.c **** 
 816:Drivers/STM32U5xx_HAL_Driver/Src/stm32u5xx_hal_dma.c ****     /* Check the user setting error flag */
 817:Drivers/STM32U5xx_HAL_Driver/Src/stm32u5xx_hal_dma.c ****     if ((tmp_csr & DMA_FLAG_USE) != 0U)
 818:Drivers/STM32U5xx_HAL_Driver/Src/stm32u5xx_hal_dma.c ****     {
 819:Drivers/STM32U5xx_HAL_Driver/Src/stm32u5xx_hal_dma.c ****       /* Update the DMA channel error code */
 820:Drivers/STM32U5xx_HAL_Driver/Src/stm32u5xx_hal_dma.c ****       hdma->ErrorCode |= HAL_DMA_ERROR_USE;
 821:Drivers/STM32U5xx_HAL_Driver/Src/stm32u5xx_hal_dma.c **** 
 822:Drivers/STM32U5xx_HAL_Driver/Src/stm32u5xx_hal_dma.c ****       /* Clear the error flag */
 823:Drivers/STM32U5xx_HAL_Driver/Src/stm32u5xx_hal_dma.c ****       __HAL_DMA_CLEAR_FLAG(hdma, DMA_FLAG_USE);
 824:Drivers/STM32U5xx_HAL_Driver/Src/stm32u5xx_hal_dma.c ****     }
 825:Drivers/STM32U5xx_HAL_Driver/Src/stm32u5xx_hal_dma.c **** 
 826:Drivers/STM32U5xx_HAL_Driver/Src/stm32u5xx_hal_dma.c ****     /* Reset the channel */
 827:Drivers/STM32U5xx_HAL_Driver/Src/stm32u5xx_hal_dma.c ****     hdma->Instance->CCR |= DMA_CCR_RESET;
ARM GAS  C:\Users\Ya\AppData\Local\Temp\ccY6d54u.s 			page 16


 828:Drivers/STM32U5xx_HAL_Driver/Src/stm32u5xx_hal_dma.c **** 
 829:Drivers/STM32U5xx_HAL_Driver/Src/stm32u5xx_hal_dma.c ****     /* Update the DMA channel state */
 830:Drivers/STM32U5xx_HAL_Driver/Src/stm32u5xx_hal_dma.c ****     hdma->State = HAL_DMA_STATE_READY;
 831:Drivers/STM32U5xx_HAL_Driver/Src/stm32u5xx_hal_dma.c **** 
 832:Drivers/STM32U5xx_HAL_Driver/Src/stm32u5xx_hal_dma.c ****     /* Check DMA channel transfer mode */
 833:Drivers/STM32U5xx_HAL_Driver/Src/stm32u5xx_hal_dma.c ****     if ((hdma->Mode & DMA_LINKEDLIST) == DMA_LINKEDLIST)
 834:Drivers/STM32U5xx_HAL_Driver/Src/stm32u5xx_hal_dma.c ****     {
 835:Drivers/STM32U5xx_HAL_Driver/Src/stm32u5xx_hal_dma.c ****       /* Update the linked-list queue state */
 836:Drivers/STM32U5xx_HAL_Driver/Src/stm32u5xx_hal_dma.c ****       hdma->LinkedListQueue->State = HAL_DMA_QUEUE_STATE_READY;
 837:Drivers/STM32U5xx_HAL_Driver/Src/stm32u5xx_hal_dma.c ****     }
 838:Drivers/STM32U5xx_HAL_Driver/Src/stm32u5xx_hal_dma.c **** 
 839:Drivers/STM32U5xx_HAL_Driver/Src/stm32u5xx_hal_dma.c ****     /* Process Unlocked */
 840:Drivers/STM32U5xx_HAL_Driver/Src/stm32u5xx_hal_dma.c ****     __HAL_UNLOCK(hdma);
 841:Drivers/STM32U5xx_HAL_Driver/Src/stm32u5xx_hal_dma.c **** 
 842:Drivers/STM32U5xx_HAL_Driver/Src/stm32u5xx_hal_dma.c ****     return HAL_ERROR;
 843:Drivers/STM32U5xx_HAL_Driver/Src/stm32u5xx_hal_dma.c ****   }
 844:Drivers/STM32U5xx_HAL_Driver/Src/stm32u5xx_hal_dma.c **** 
 845:Drivers/STM32U5xx_HAL_Driver/Src/stm32u5xx_hal_dma.c ****   /* Clear the transfer level flag */
 846:Drivers/STM32U5xx_HAL_Driver/Src/stm32u5xx_hal_dma.c ****   if (CompleteLevel == HAL_DMA_HALF_TRANSFER)
 847:Drivers/STM32U5xx_HAL_Driver/Src/stm32u5xx_hal_dma.c ****   {
 848:Drivers/STM32U5xx_HAL_Driver/Src/stm32u5xx_hal_dma.c ****     /* Clear the Half Transfer flag */
 849:Drivers/STM32U5xx_HAL_Driver/Src/stm32u5xx_hal_dma.c ****     __HAL_DMA_CLEAR_FLAG(hdma, DMA_FLAG_HT);
 850:Drivers/STM32U5xx_HAL_Driver/Src/stm32u5xx_hal_dma.c ****   }
 851:Drivers/STM32U5xx_HAL_Driver/Src/stm32u5xx_hal_dma.c ****   else if (CompleteLevel == HAL_DMA_FULL_TRANSFER)
 852:Drivers/STM32U5xx_HAL_Driver/Src/stm32u5xx_hal_dma.c ****   {
 853:Drivers/STM32U5xx_HAL_Driver/Src/stm32u5xx_hal_dma.c ****     /* Clear the transfer flags */
 854:Drivers/STM32U5xx_HAL_Driver/Src/stm32u5xx_hal_dma.c ****     __HAL_DMA_CLEAR_FLAG(hdma, (DMA_FLAG_TC | DMA_FLAG_HT));
 855:Drivers/STM32U5xx_HAL_Driver/Src/stm32u5xx_hal_dma.c **** 
 856:Drivers/STM32U5xx_HAL_Driver/Src/stm32u5xx_hal_dma.c ****     /* Update the DMA channel state */
 857:Drivers/STM32U5xx_HAL_Driver/Src/stm32u5xx_hal_dma.c ****     hdma->State = HAL_DMA_STATE_READY;
 858:Drivers/STM32U5xx_HAL_Driver/Src/stm32u5xx_hal_dma.c **** 
 859:Drivers/STM32U5xx_HAL_Driver/Src/stm32u5xx_hal_dma.c ****     /* Check DMA channel transfer mode */
 860:Drivers/STM32U5xx_HAL_Driver/Src/stm32u5xx_hal_dma.c ****     if ((hdma->Mode & DMA_LINKEDLIST) == DMA_LINKEDLIST)
 861:Drivers/STM32U5xx_HAL_Driver/Src/stm32u5xx_hal_dma.c ****     {
 862:Drivers/STM32U5xx_HAL_Driver/Src/stm32u5xx_hal_dma.c ****       /* Update the linked-list queue state */
 863:Drivers/STM32U5xx_HAL_Driver/Src/stm32u5xx_hal_dma.c ****       hdma->LinkedListQueue->State = HAL_DMA_QUEUE_STATE_READY;
 864:Drivers/STM32U5xx_HAL_Driver/Src/stm32u5xx_hal_dma.c ****     }
 865:Drivers/STM32U5xx_HAL_Driver/Src/stm32u5xx_hal_dma.c **** 
 866:Drivers/STM32U5xx_HAL_Driver/Src/stm32u5xx_hal_dma.c ****     /* Process unlocked */
 867:Drivers/STM32U5xx_HAL_Driver/Src/stm32u5xx_hal_dma.c ****     __HAL_UNLOCK(hdma);
 868:Drivers/STM32U5xx_HAL_Driver/Src/stm32u5xx_hal_dma.c ****   }
 869:Drivers/STM32U5xx_HAL_Driver/Src/stm32u5xx_hal_dma.c ****   else
 870:Drivers/STM32U5xx_HAL_Driver/Src/stm32u5xx_hal_dma.c ****   {
 871:Drivers/STM32U5xx_HAL_Driver/Src/stm32u5xx_hal_dma.c ****     return HAL_ERROR;
 872:Drivers/STM32U5xx_HAL_Driver/Src/stm32u5xx_hal_dma.c ****   }
 873:Drivers/STM32U5xx_HAL_Driver/Src/stm32u5xx_hal_dma.c **** 
 874:Drivers/STM32U5xx_HAL_Driver/Src/stm32u5xx_hal_dma.c ****   return HAL_OK;
 875:Drivers/STM32U5xx_HAL_Driver/Src/stm32u5xx_hal_dma.c **** }
 876:Drivers/STM32U5xx_HAL_Driver/Src/stm32u5xx_hal_dma.c **** 
 877:Drivers/STM32U5xx_HAL_Driver/Src/stm32u5xx_hal_dma.c **** /**
 878:Drivers/STM32U5xx_HAL_Driver/Src/stm32u5xx_hal_dma.c ****   * @brief  Handle DMA interrupt request (Non-blocking mode).
 879:Drivers/STM32U5xx_HAL_Driver/Src/stm32u5xx_hal_dma.c ****   * @param  hdma : Pointer to a DMA_HandleTypeDef structure that contains the configuration informa
 880:Drivers/STM32U5xx_HAL_Driver/Src/stm32u5xx_hal_dma.c ****   *                specified DMA Channel.
 881:Drivers/STM32U5xx_HAL_Driver/Src/stm32u5xx_hal_dma.c ****   * @retval None.
 882:Drivers/STM32U5xx_HAL_Driver/Src/stm32u5xx_hal_dma.c ****   */
 883:Drivers/STM32U5xx_HAL_Driver/Src/stm32u5xx_hal_dma.c **** void HAL_DMA_IRQHandler(DMA_HandleTypeDef *const hdma)
 884:Drivers/STM32U5xx_HAL_Driver/Src/stm32u5xx_hal_dma.c **** {
ARM GAS  C:\Users\Ya\AppData\Local\Temp\ccY6d54u.s 			page 17


 885:Drivers/STM32U5xx_HAL_Driver/Src/stm32u5xx_hal_dma.c ****   DMA_TypeDef *p_dma_instance = GET_DMA_INSTANCE(hdma);
 886:Drivers/STM32U5xx_HAL_Driver/Src/stm32u5xx_hal_dma.c ****   uint32_t global_it_flag =  1UL << (GET_DMA_CHANNEL(hdma) & 0x1FU);
 887:Drivers/STM32U5xx_HAL_Driver/Src/stm32u5xx_hal_dma.c ****   uint32_t global_active_flag_ns = IS_DMA_GLOBAL_ACTIVE_FLAG_NS(p_dma_instance, global_it_flag);
 888:Drivers/STM32U5xx_HAL_Driver/Src/stm32u5xx_hal_dma.c **** #if defined (__ARM_FEATURE_CMSE) && (__ARM_FEATURE_CMSE == 3U)
 889:Drivers/STM32U5xx_HAL_Driver/Src/stm32u5xx_hal_dma.c ****   uint32_t global_active_flag_s = IS_DMA_GLOBAL_ACTIVE_FLAG_S(p_dma_instance, global_it_flag);
 890:Drivers/STM32U5xx_HAL_Driver/Src/stm32u5xx_hal_dma.c **** #endif /* defined (__ARM_FEATURE_CMSE) && (__ARM_FEATURE_CMSE == 3U) */
 891:Drivers/STM32U5xx_HAL_Driver/Src/stm32u5xx_hal_dma.c **** 
 892:Drivers/STM32U5xx_HAL_Driver/Src/stm32u5xx_hal_dma.c ****   /* Global Interrupt Flag management *************************************************************
 893:Drivers/STM32U5xx_HAL_Driver/Src/stm32u5xx_hal_dma.c **** #if defined (__ARM_FEATURE_CMSE) && (__ARM_FEATURE_CMSE == 3U)
 894:Drivers/STM32U5xx_HAL_Driver/Src/stm32u5xx_hal_dma.c ****   if ((global_active_flag_s == 0U) && (global_active_flag_ns == 0U))
 895:Drivers/STM32U5xx_HAL_Driver/Src/stm32u5xx_hal_dma.c **** #else
 896:Drivers/STM32U5xx_HAL_Driver/Src/stm32u5xx_hal_dma.c ****   if (global_active_flag_ns == 0U)
 897:Drivers/STM32U5xx_HAL_Driver/Src/stm32u5xx_hal_dma.c **** #endif /* defined (__ARM_FEATURE_CMSE) && (__ARM_FEATURE_CMSE == 3U) */
 898:Drivers/STM32U5xx_HAL_Driver/Src/stm32u5xx_hal_dma.c ****   {
 899:Drivers/STM32U5xx_HAL_Driver/Src/stm32u5xx_hal_dma.c ****     return; /* the global interrupt flag for the current channel is down , nothing to do */
 900:Drivers/STM32U5xx_HAL_Driver/Src/stm32u5xx_hal_dma.c ****   }
 901:Drivers/STM32U5xx_HAL_Driver/Src/stm32u5xx_hal_dma.c **** 
 902:Drivers/STM32U5xx_HAL_Driver/Src/stm32u5xx_hal_dma.c ****   /* Data Transfer Error Interrupt management *****************************************************
 903:Drivers/STM32U5xx_HAL_Driver/Src/stm32u5xx_hal_dma.c ****   if ((__HAL_DMA_GET_FLAG(hdma, DMA_FLAG_DTE) != 0U))
 904:Drivers/STM32U5xx_HAL_Driver/Src/stm32u5xx_hal_dma.c ****   {
 905:Drivers/STM32U5xx_HAL_Driver/Src/stm32u5xx_hal_dma.c ****     /* Check if interrupt source is enabled */
 906:Drivers/STM32U5xx_HAL_Driver/Src/stm32u5xx_hal_dma.c ****     if (__HAL_DMA_GET_IT_SOURCE(hdma, DMA_IT_DTE) != 0U)
 907:Drivers/STM32U5xx_HAL_Driver/Src/stm32u5xx_hal_dma.c ****     {
 908:Drivers/STM32U5xx_HAL_Driver/Src/stm32u5xx_hal_dma.c ****       /* Clear the transfer error flag */
 909:Drivers/STM32U5xx_HAL_Driver/Src/stm32u5xx_hal_dma.c ****       __HAL_DMA_CLEAR_FLAG(hdma, DMA_FLAG_DTE);
 910:Drivers/STM32U5xx_HAL_Driver/Src/stm32u5xx_hal_dma.c **** 
 911:Drivers/STM32U5xx_HAL_Driver/Src/stm32u5xx_hal_dma.c ****       /* Update the DMA channel error code */
 912:Drivers/STM32U5xx_HAL_Driver/Src/stm32u5xx_hal_dma.c ****       hdma->ErrorCode |= HAL_DMA_ERROR_DTE;
 913:Drivers/STM32U5xx_HAL_Driver/Src/stm32u5xx_hal_dma.c ****     }
 914:Drivers/STM32U5xx_HAL_Driver/Src/stm32u5xx_hal_dma.c ****   }
 915:Drivers/STM32U5xx_HAL_Driver/Src/stm32u5xx_hal_dma.c **** 
 916:Drivers/STM32U5xx_HAL_Driver/Src/stm32u5xx_hal_dma.c ****   /* Update Linked-list Error Interrupt management ************************************************
 917:Drivers/STM32U5xx_HAL_Driver/Src/stm32u5xx_hal_dma.c ****   if ((__HAL_DMA_GET_FLAG(hdma, DMA_FLAG_ULE) != 0U))
 918:Drivers/STM32U5xx_HAL_Driver/Src/stm32u5xx_hal_dma.c ****   {
 919:Drivers/STM32U5xx_HAL_Driver/Src/stm32u5xx_hal_dma.c ****     /* Check if interrupt source is enabled */
 920:Drivers/STM32U5xx_HAL_Driver/Src/stm32u5xx_hal_dma.c ****     if (__HAL_DMA_GET_IT_SOURCE(hdma, DMA_IT_ULE) != 0U)
 921:Drivers/STM32U5xx_HAL_Driver/Src/stm32u5xx_hal_dma.c ****     {
 922:Drivers/STM32U5xx_HAL_Driver/Src/stm32u5xx_hal_dma.c ****       /* Clear the update linked-list error flag */
 923:Drivers/STM32U5xx_HAL_Driver/Src/stm32u5xx_hal_dma.c ****       __HAL_DMA_CLEAR_FLAG(hdma, DMA_FLAG_ULE);
 924:Drivers/STM32U5xx_HAL_Driver/Src/stm32u5xx_hal_dma.c **** 
 925:Drivers/STM32U5xx_HAL_Driver/Src/stm32u5xx_hal_dma.c ****       /* Update the DMA channel error code */
 926:Drivers/STM32U5xx_HAL_Driver/Src/stm32u5xx_hal_dma.c ****       hdma->ErrorCode |= HAL_DMA_ERROR_ULE;
 927:Drivers/STM32U5xx_HAL_Driver/Src/stm32u5xx_hal_dma.c ****     }
 928:Drivers/STM32U5xx_HAL_Driver/Src/stm32u5xx_hal_dma.c ****   }
 929:Drivers/STM32U5xx_HAL_Driver/Src/stm32u5xx_hal_dma.c **** 
 930:Drivers/STM32U5xx_HAL_Driver/Src/stm32u5xx_hal_dma.c ****   /* User Setting Error Interrupt management ******************************************************
 931:Drivers/STM32U5xx_HAL_Driver/Src/stm32u5xx_hal_dma.c ****   if ((__HAL_DMA_GET_FLAG(hdma, DMA_FLAG_USE) != 0U))
 932:Drivers/STM32U5xx_HAL_Driver/Src/stm32u5xx_hal_dma.c ****   {
 933:Drivers/STM32U5xx_HAL_Driver/Src/stm32u5xx_hal_dma.c ****     /* Check if interrupt source is enabled */
 934:Drivers/STM32U5xx_HAL_Driver/Src/stm32u5xx_hal_dma.c ****     if (__HAL_DMA_GET_IT_SOURCE(hdma, DMA_IT_USE) != 0U)
 935:Drivers/STM32U5xx_HAL_Driver/Src/stm32u5xx_hal_dma.c ****     {
 936:Drivers/STM32U5xx_HAL_Driver/Src/stm32u5xx_hal_dma.c ****       /* Clear the user setting error flag */
 937:Drivers/STM32U5xx_HAL_Driver/Src/stm32u5xx_hal_dma.c ****       __HAL_DMA_CLEAR_FLAG(hdma, DMA_FLAG_USE);
 938:Drivers/STM32U5xx_HAL_Driver/Src/stm32u5xx_hal_dma.c **** 
 939:Drivers/STM32U5xx_HAL_Driver/Src/stm32u5xx_hal_dma.c ****       /* Update the DMA channel error code */
 940:Drivers/STM32U5xx_HAL_Driver/Src/stm32u5xx_hal_dma.c ****       hdma->ErrorCode |= HAL_DMA_ERROR_USE;
 941:Drivers/STM32U5xx_HAL_Driver/Src/stm32u5xx_hal_dma.c ****     }
ARM GAS  C:\Users\Ya\AppData\Local\Temp\ccY6d54u.s 			page 18


 942:Drivers/STM32U5xx_HAL_Driver/Src/stm32u5xx_hal_dma.c ****   }
 943:Drivers/STM32U5xx_HAL_Driver/Src/stm32u5xx_hal_dma.c **** 
 944:Drivers/STM32U5xx_HAL_Driver/Src/stm32u5xx_hal_dma.c ****   /* Trigger Overrun Interrupt management *********************************************************
 945:Drivers/STM32U5xx_HAL_Driver/Src/stm32u5xx_hal_dma.c ****   if ((__HAL_DMA_GET_FLAG(hdma, DMA_FLAG_TO) != 0U))
 946:Drivers/STM32U5xx_HAL_Driver/Src/stm32u5xx_hal_dma.c ****   {
 947:Drivers/STM32U5xx_HAL_Driver/Src/stm32u5xx_hal_dma.c ****     /* Check if interrupt source is enabled */
 948:Drivers/STM32U5xx_HAL_Driver/Src/stm32u5xx_hal_dma.c ****     if (__HAL_DMA_GET_IT_SOURCE(hdma, DMA_IT_TO) != 0U)
 949:Drivers/STM32U5xx_HAL_Driver/Src/stm32u5xx_hal_dma.c ****     {
 950:Drivers/STM32U5xx_HAL_Driver/Src/stm32u5xx_hal_dma.c ****       /* Clear the trigger overrun flag */
 951:Drivers/STM32U5xx_HAL_Driver/Src/stm32u5xx_hal_dma.c ****       __HAL_DMA_CLEAR_FLAG(hdma, DMA_FLAG_TO);
 952:Drivers/STM32U5xx_HAL_Driver/Src/stm32u5xx_hal_dma.c **** 
 953:Drivers/STM32U5xx_HAL_Driver/Src/stm32u5xx_hal_dma.c ****       /* Update the DMA channel error code */
 954:Drivers/STM32U5xx_HAL_Driver/Src/stm32u5xx_hal_dma.c ****       hdma->ErrorCode |= HAL_DMA_ERROR_TO;
 955:Drivers/STM32U5xx_HAL_Driver/Src/stm32u5xx_hal_dma.c ****     }
 956:Drivers/STM32U5xx_HAL_Driver/Src/stm32u5xx_hal_dma.c ****   }
 957:Drivers/STM32U5xx_HAL_Driver/Src/stm32u5xx_hal_dma.c **** 
 958:Drivers/STM32U5xx_HAL_Driver/Src/stm32u5xx_hal_dma.c ****   /* Half Transfer Complete Interrupt management **************************************************
 959:Drivers/STM32U5xx_HAL_Driver/Src/stm32u5xx_hal_dma.c ****   if ((__HAL_DMA_GET_FLAG(hdma, DMA_FLAG_HT) != 0U))
 960:Drivers/STM32U5xx_HAL_Driver/Src/stm32u5xx_hal_dma.c ****   {
 961:Drivers/STM32U5xx_HAL_Driver/Src/stm32u5xx_hal_dma.c ****     /* Check if interrupt source is enabled */
 962:Drivers/STM32U5xx_HAL_Driver/Src/stm32u5xx_hal_dma.c ****     if (__HAL_DMA_GET_IT_SOURCE(hdma, DMA_IT_HT) != 0U)
 963:Drivers/STM32U5xx_HAL_Driver/Src/stm32u5xx_hal_dma.c ****     {
 964:Drivers/STM32U5xx_HAL_Driver/Src/stm32u5xx_hal_dma.c ****       /* Clear the half transfer flag */
 965:Drivers/STM32U5xx_HAL_Driver/Src/stm32u5xx_hal_dma.c ****       __HAL_DMA_CLEAR_FLAG(hdma, DMA_FLAG_HT);
 966:Drivers/STM32U5xx_HAL_Driver/Src/stm32u5xx_hal_dma.c **** 
 967:Drivers/STM32U5xx_HAL_Driver/Src/stm32u5xx_hal_dma.c ****       /* Check half transfer complete callback */
 968:Drivers/STM32U5xx_HAL_Driver/Src/stm32u5xx_hal_dma.c ****       if (hdma->XferHalfCpltCallback != NULL)
 969:Drivers/STM32U5xx_HAL_Driver/Src/stm32u5xx_hal_dma.c ****       {
 970:Drivers/STM32U5xx_HAL_Driver/Src/stm32u5xx_hal_dma.c ****         /* Half transfer callback */
 971:Drivers/STM32U5xx_HAL_Driver/Src/stm32u5xx_hal_dma.c ****         hdma->XferHalfCpltCallback(hdma);
 972:Drivers/STM32U5xx_HAL_Driver/Src/stm32u5xx_hal_dma.c ****       }
 973:Drivers/STM32U5xx_HAL_Driver/Src/stm32u5xx_hal_dma.c ****     }
 974:Drivers/STM32U5xx_HAL_Driver/Src/stm32u5xx_hal_dma.c ****   }
 975:Drivers/STM32U5xx_HAL_Driver/Src/stm32u5xx_hal_dma.c **** 
 976:Drivers/STM32U5xx_HAL_Driver/Src/stm32u5xx_hal_dma.c ****   /* Suspend Transfer Interrupt management ********************************************************
 977:Drivers/STM32U5xx_HAL_Driver/Src/stm32u5xx_hal_dma.c ****   if ((__HAL_DMA_GET_FLAG(hdma, DMA_FLAG_SUSP) != 0U))
 978:Drivers/STM32U5xx_HAL_Driver/Src/stm32u5xx_hal_dma.c ****   {
 979:Drivers/STM32U5xx_HAL_Driver/Src/stm32u5xx_hal_dma.c ****     /* Check if interrupt source is enabled */
 980:Drivers/STM32U5xx_HAL_Driver/Src/stm32u5xx_hal_dma.c ****     if (__HAL_DMA_GET_IT_SOURCE(hdma, DMA_IT_SUSP) != 0U)
 981:Drivers/STM32U5xx_HAL_Driver/Src/stm32u5xx_hal_dma.c ****     {
 982:Drivers/STM32U5xx_HAL_Driver/Src/stm32u5xx_hal_dma.c ****       /* Clear the block transfer complete flag */
 983:Drivers/STM32U5xx_HAL_Driver/Src/stm32u5xx_hal_dma.c ****       __HAL_DMA_CLEAR_FLAG(hdma, DMA_FLAG_SUSP);
 984:Drivers/STM32U5xx_HAL_Driver/Src/stm32u5xx_hal_dma.c **** 
 985:Drivers/STM32U5xx_HAL_Driver/Src/stm32u5xx_hal_dma.c ****       /* Check DMA channel state */
 986:Drivers/STM32U5xx_HAL_Driver/Src/stm32u5xx_hal_dma.c ****       if (hdma->State == HAL_DMA_STATE_ABORT)
 987:Drivers/STM32U5xx_HAL_Driver/Src/stm32u5xx_hal_dma.c ****       {
 988:Drivers/STM32U5xx_HAL_Driver/Src/stm32u5xx_hal_dma.c ****         /* Disable the suspend transfer interrupt */
 989:Drivers/STM32U5xx_HAL_Driver/Src/stm32u5xx_hal_dma.c ****         __HAL_DMA_DISABLE_IT(hdma, DMA_IT_SUSP);
 990:Drivers/STM32U5xx_HAL_Driver/Src/stm32u5xx_hal_dma.c **** 
 991:Drivers/STM32U5xx_HAL_Driver/Src/stm32u5xx_hal_dma.c ****         /* Reset the channel internal state and reset the FIFO */
 992:Drivers/STM32U5xx_HAL_Driver/Src/stm32u5xx_hal_dma.c ****         hdma->Instance->CCR |= DMA_CCR_RESET;
 993:Drivers/STM32U5xx_HAL_Driver/Src/stm32u5xx_hal_dma.c **** 
 994:Drivers/STM32U5xx_HAL_Driver/Src/stm32u5xx_hal_dma.c ****         if ((hdma->Instance->CCR & DMA_CCR_EN) != 0U)
 995:Drivers/STM32U5xx_HAL_Driver/Src/stm32u5xx_hal_dma.c ****         {
 996:Drivers/STM32U5xx_HAL_Driver/Src/stm32u5xx_hal_dma.c ****           /* Update the DMA channel state */
 997:Drivers/STM32U5xx_HAL_Driver/Src/stm32u5xx_hal_dma.c ****           hdma->State = HAL_DMA_STATE_ERROR;
 998:Drivers/STM32U5xx_HAL_Driver/Src/stm32u5xx_hal_dma.c ****         }
ARM GAS  C:\Users\Ya\AppData\Local\Temp\ccY6d54u.s 			page 19


 999:Drivers/STM32U5xx_HAL_Driver/Src/stm32u5xx_hal_dma.c ****         else
1000:Drivers/STM32U5xx_HAL_Driver/Src/stm32u5xx_hal_dma.c ****         {
1001:Drivers/STM32U5xx_HAL_Driver/Src/stm32u5xx_hal_dma.c ****           /* Update the DMA channel state */
1002:Drivers/STM32U5xx_HAL_Driver/Src/stm32u5xx_hal_dma.c ****           hdma->State = HAL_DMA_STATE_READY;
1003:Drivers/STM32U5xx_HAL_Driver/Src/stm32u5xx_hal_dma.c ****         }
1004:Drivers/STM32U5xx_HAL_Driver/Src/stm32u5xx_hal_dma.c **** 
1005:Drivers/STM32U5xx_HAL_Driver/Src/stm32u5xx_hal_dma.c ****         /* Check DMA channel transfer mode */
1006:Drivers/STM32U5xx_HAL_Driver/Src/stm32u5xx_hal_dma.c ****         if ((hdma->Mode & DMA_LINKEDLIST) == DMA_LINKEDLIST)
1007:Drivers/STM32U5xx_HAL_Driver/Src/stm32u5xx_hal_dma.c ****         {
1008:Drivers/STM32U5xx_HAL_Driver/Src/stm32u5xx_hal_dma.c ****           /* Update the linked-list queue state */
1009:Drivers/STM32U5xx_HAL_Driver/Src/stm32u5xx_hal_dma.c ****           hdma->LinkedListQueue->State = HAL_DMA_QUEUE_STATE_READY;
1010:Drivers/STM32U5xx_HAL_Driver/Src/stm32u5xx_hal_dma.c **** 
1011:Drivers/STM32U5xx_HAL_Driver/Src/stm32u5xx_hal_dma.c ****           /* Clear remaining data size to ensure loading linked-list from memory next start */
1012:Drivers/STM32U5xx_HAL_Driver/Src/stm32u5xx_hal_dma.c ****           hdma->Instance->CBR1 = 0U;
1013:Drivers/STM32U5xx_HAL_Driver/Src/stm32u5xx_hal_dma.c ****         }
1014:Drivers/STM32U5xx_HAL_Driver/Src/stm32u5xx_hal_dma.c **** 
1015:Drivers/STM32U5xx_HAL_Driver/Src/stm32u5xx_hal_dma.c ****         /* Process Unlocked */
1016:Drivers/STM32U5xx_HAL_Driver/Src/stm32u5xx_hal_dma.c ****         __HAL_UNLOCK(hdma);
1017:Drivers/STM32U5xx_HAL_Driver/Src/stm32u5xx_hal_dma.c **** 
1018:Drivers/STM32U5xx_HAL_Driver/Src/stm32u5xx_hal_dma.c ****         /* Check transfer abort callback */
1019:Drivers/STM32U5xx_HAL_Driver/Src/stm32u5xx_hal_dma.c ****         if (hdma->XferAbortCallback != NULL)
1020:Drivers/STM32U5xx_HAL_Driver/Src/stm32u5xx_hal_dma.c ****         {
1021:Drivers/STM32U5xx_HAL_Driver/Src/stm32u5xx_hal_dma.c ****           /* Transfer abort callback */
1022:Drivers/STM32U5xx_HAL_Driver/Src/stm32u5xx_hal_dma.c ****           hdma->XferAbortCallback(hdma);
1023:Drivers/STM32U5xx_HAL_Driver/Src/stm32u5xx_hal_dma.c ****         }
1024:Drivers/STM32U5xx_HAL_Driver/Src/stm32u5xx_hal_dma.c **** 
1025:Drivers/STM32U5xx_HAL_Driver/Src/stm32u5xx_hal_dma.c ****         return;
1026:Drivers/STM32U5xx_HAL_Driver/Src/stm32u5xx_hal_dma.c ****       }
1027:Drivers/STM32U5xx_HAL_Driver/Src/stm32u5xx_hal_dma.c ****       else
1028:Drivers/STM32U5xx_HAL_Driver/Src/stm32u5xx_hal_dma.c ****       {
1029:Drivers/STM32U5xx_HAL_Driver/Src/stm32u5xx_hal_dma.c ****         /* Update the DMA channel state */
1030:Drivers/STM32U5xx_HAL_Driver/Src/stm32u5xx_hal_dma.c ****         hdma->State = HAL_DMA_STATE_SUSPEND;
1031:Drivers/STM32U5xx_HAL_Driver/Src/stm32u5xx_hal_dma.c **** 
1032:Drivers/STM32U5xx_HAL_Driver/Src/stm32u5xx_hal_dma.c ****         /* Check transfer suspend callback */
1033:Drivers/STM32U5xx_HAL_Driver/Src/stm32u5xx_hal_dma.c ****         if (hdma->XferSuspendCallback != NULL)
1034:Drivers/STM32U5xx_HAL_Driver/Src/stm32u5xx_hal_dma.c ****         {
1035:Drivers/STM32U5xx_HAL_Driver/Src/stm32u5xx_hal_dma.c ****           /* Transfer suspend callback */
1036:Drivers/STM32U5xx_HAL_Driver/Src/stm32u5xx_hal_dma.c ****           hdma->XferSuspendCallback(hdma);
1037:Drivers/STM32U5xx_HAL_Driver/Src/stm32u5xx_hal_dma.c ****         }
1038:Drivers/STM32U5xx_HAL_Driver/Src/stm32u5xx_hal_dma.c ****       }
1039:Drivers/STM32U5xx_HAL_Driver/Src/stm32u5xx_hal_dma.c ****     }
1040:Drivers/STM32U5xx_HAL_Driver/Src/stm32u5xx_hal_dma.c ****   }
1041:Drivers/STM32U5xx_HAL_Driver/Src/stm32u5xx_hal_dma.c **** 
1042:Drivers/STM32U5xx_HAL_Driver/Src/stm32u5xx_hal_dma.c ****   /* Transfer Complete Interrupt management *******************************************************
1043:Drivers/STM32U5xx_HAL_Driver/Src/stm32u5xx_hal_dma.c ****   if ((__HAL_DMA_GET_FLAG(hdma, DMA_FLAG_TC) != 0U))
1044:Drivers/STM32U5xx_HAL_Driver/Src/stm32u5xx_hal_dma.c ****   {
1045:Drivers/STM32U5xx_HAL_Driver/Src/stm32u5xx_hal_dma.c ****     /* Check if interrupt source is enabled */
1046:Drivers/STM32U5xx_HAL_Driver/Src/stm32u5xx_hal_dma.c ****     if (__HAL_DMA_GET_IT_SOURCE(hdma, DMA_IT_TC) != 0U)
1047:Drivers/STM32U5xx_HAL_Driver/Src/stm32u5xx_hal_dma.c ****     {
1048:Drivers/STM32U5xx_HAL_Driver/Src/stm32u5xx_hal_dma.c ****       /* Check DMA channel transfer mode */
1049:Drivers/STM32U5xx_HAL_Driver/Src/stm32u5xx_hal_dma.c ****       if ((hdma->Mode & DMA_LINKEDLIST) == DMA_LINKEDLIST)
1050:Drivers/STM32U5xx_HAL_Driver/Src/stm32u5xx_hal_dma.c ****       {
1051:Drivers/STM32U5xx_HAL_Driver/Src/stm32u5xx_hal_dma.c ****         /* If linked-list transfer */
1052:Drivers/STM32U5xx_HAL_Driver/Src/stm32u5xx_hal_dma.c ****         if (hdma->Instance->CLLR == 0U)
1053:Drivers/STM32U5xx_HAL_Driver/Src/stm32u5xx_hal_dma.c ****         {
1054:Drivers/STM32U5xx_HAL_Driver/Src/stm32u5xx_hal_dma.c ****           if (hdma->Instance->CBR1 == 0U)
1055:Drivers/STM32U5xx_HAL_Driver/Src/stm32u5xx_hal_dma.c ****           {
ARM GAS  C:\Users\Ya\AppData\Local\Temp\ccY6d54u.s 			page 20


1056:Drivers/STM32U5xx_HAL_Driver/Src/stm32u5xx_hal_dma.c ****             /* Update the DMA channel state */
1057:Drivers/STM32U5xx_HAL_Driver/Src/stm32u5xx_hal_dma.c ****             hdma->State = HAL_DMA_STATE_READY;
1058:Drivers/STM32U5xx_HAL_Driver/Src/stm32u5xx_hal_dma.c **** 
1059:Drivers/STM32U5xx_HAL_Driver/Src/stm32u5xx_hal_dma.c ****             /* Update the linked-list queue state */
1060:Drivers/STM32U5xx_HAL_Driver/Src/stm32u5xx_hal_dma.c ****             hdma->LinkedListQueue->State = HAL_DMA_QUEUE_STATE_READY;
1061:Drivers/STM32U5xx_HAL_Driver/Src/stm32u5xx_hal_dma.c ****           }
1062:Drivers/STM32U5xx_HAL_Driver/Src/stm32u5xx_hal_dma.c ****         }
1063:Drivers/STM32U5xx_HAL_Driver/Src/stm32u5xx_hal_dma.c ****       }
1064:Drivers/STM32U5xx_HAL_Driver/Src/stm32u5xx_hal_dma.c ****       else
1065:Drivers/STM32U5xx_HAL_Driver/Src/stm32u5xx_hal_dma.c ****       {
1066:Drivers/STM32U5xx_HAL_Driver/Src/stm32u5xx_hal_dma.c ****         /* If normal transfer */
1067:Drivers/STM32U5xx_HAL_Driver/Src/stm32u5xx_hal_dma.c ****         if (hdma->Instance->CBR1 == 0U)
1068:Drivers/STM32U5xx_HAL_Driver/Src/stm32u5xx_hal_dma.c ****         {
1069:Drivers/STM32U5xx_HAL_Driver/Src/stm32u5xx_hal_dma.c ****           /* Update the DMA channel state */
1070:Drivers/STM32U5xx_HAL_Driver/Src/stm32u5xx_hal_dma.c ****           hdma->State = HAL_DMA_STATE_READY;
1071:Drivers/STM32U5xx_HAL_Driver/Src/stm32u5xx_hal_dma.c ****         }
1072:Drivers/STM32U5xx_HAL_Driver/Src/stm32u5xx_hal_dma.c ****       }
1073:Drivers/STM32U5xx_HAL_Driver/Src/stm32u5xx_hal_dma.c **** 
1074:Drivers/STM32U5xx_HAL_Driver/Src/stm32u5xx_hal_dma.c ****       /* Clear TC and HT transfer flags */
1075:Drivers/STM32U5xx_HAL_Driver/Src/stm32u5xx_hal_dma.c ****       __HAL_DMA_CLEAR_FLAG(hdma, (DMA_FLAG_TC | DMA_FLAG_HT));
1076:Drivers/STM32U5xx_HAL_Driver/Src/stm32u5xx_hal_dma.c **** 
1077:Drivers/STM32U5xx_HAL_Driver/Src/stm32u5xx_hal_dma.c ****       /* Process Unlocked */
1078:Drivers/STM32U5xx_HAL_Driver/Src/stm32u5xx_hal_dma.c ****       __HAL_UNLOCK(hdma);
1079:Drivers/STM32U5xx_HAL_Driver/Src/stm32u5xx_hal_dma.c **** 
1080:Drivers/STM32U5xx_HAL_Driver/Src/stm32u5xx_hal_dma.c ****       /* Check transfer complete callback */
1081:Drivers/STM32U5xx_HAL_Driver/Src/stm32u5xx_hal_dma.c ****       if (hdma->XferCpltCallback != NULL)
1082:Drivers/STM32U5xx_HAL_Driver/Src/stm32u5xx_hal_dma.c ****       {
1083:Drivers/STM32U5xx_HAL_Driver/Src/stm32u5xx_hal_dma.c ****         /* Channel Transfer Complete callback */
1084:Drivers/STM32U5xx_HAL_Driver/Src/stm32u5xx_hal_dma.c ****         hdma->XferCpltCallback(hdma);
1085:Drivers/STM32U5xx_HAL_Driver/Src/stm32u5xx_hal_dma.c ****       }
1086:Drivers/STM32U5xx_HAL_Driver/Src/stm32u5xx_hal_dma.c ****     }
1087:Drivers/STM32U5xx_HAL_Driver/Src/stm32u5xx_hal_dma.c ****   }
1088:Drivers/STM32U5xx_HAL_Driver/Src/stm32u5xx_hal_dma.c **** 
1089:Drivers/STM32U5xx_HAL_Driver/Src/stm32u5xx_hal_dma.c ****   /* Manage error case ****************************************************************************
1090:Drivers/STM32U5xx_HAL_Driver/Src/stm32u5xx_hal_dma.c ****   if (hdma->ErrorCode != HAL_DMA_ERROR_NONE)
1091:Drivers/STM32U5xx_HAL_Driver/Src/stm32u5xx_hal_dma.c ****   {
1092:Drivers/STM32U5xx_HAL_Driver/Src/stm32u5xx_hal_dma.c ****     /* Reset the channel internal state and reset the FIFO */
1093:Drivers/STM32U5xx_HAL_Driver/Src/stm32u5xx_hal_dma.c ****     hdma->Instance->CCR |= DMA_CCR_RESET;
1094:Drivers/STM32U5xx_HAL_Driver/Src/stm32u5xx_hal_dma.c **** 
1095:Drivers/STM32U5xx_HAL_Driver/Src/stm32u5xx_hal_dma.c ****     if ((hdma->Instance->CCR & DMA_CCR_EN) != 0U)
1096:Drivers/STM32U5xx_HAL_Driver/Src/stm32u5xx_hal_dma.c ****     {
1097:Drivers/STM32U5xx_HAL_Driver/Src/stm32u5xx_hal_dma.c ****       /* Update the DMA channel state */
1098:Drivers/STM32U5xx_HAL_Driver/Src/stm32u5xx_hal_dma.c ****       hdma->State = HAL_DMA_STATE_ERROR;
1099:Drivers/STM32U5xx_HAL_Driver/Src/stm32u5xx_hal_dma.c ****     }
1100:Drivers/STM32U5xx_HAL_Driver/Src/stm32u5xx_hal_dma.c ****     else
1101:Drivers/STM32U5xx_HAL_Driver/Src/stm32u5xx_hal_dma.c ****     {
1102:Drivers/STM32U5xx_HAL_Driver/Src/stm32u5xx_hal_dma.c ****       /* Update the DMA channel state */
1103:Drivers/STM32U5xx_HAL_Driver/Src/stm32u5xx_hal_dma.c ****       hdma->State = HAL_DMA_STATE_READY;
1104:Drivers/STM32U5xx_HAL_Driver/Src/stm32u5xx_hal_dma.c ****     }
1105:Drivers/STM32U5xx_HAL_Driver/Src/stm32u5xx_hal_dma.c **** 
1106:Drivers/STM32U5xx_HAL_Driver/Src/stm32u5xx_hal_dma.c ****     /* Check DMA channel transfer mode */
1107:Drivers/STM32U5xx_HAL_Driver/Src/stm32u5xx_hal_dma.c ****     if ((hdma->Mode & DMA_LINKEDLIST) == DMA_LINKEDLIST)
1108:Drivers/STM32U5xx_HAL_Driver/Src/stm32u5xx_hal_dma.c ****     {
1109:Drivers/STM32U5xx_HAL_Driver/Src/stm32u5xx_hal_dma.c ****       /* Update the linked-list queue state */
1110:Drivers/STM32U5xx_HAL_Driver/Src/stm32u5xx_hal_dma.c ****       hdma->LinkedListQueue->State = HAL_DMA_QUEUE_STATE_READY;
1111:Drivers/STM32U5xx_HAL_Driver/Src/stm32u5xx_hal_dma.c ****     }
1112:Drivers/STM32U5xx_HAL_Driver/Src/stm32u5xx_hal_dma.c **** 
ARM GAS  C:\Users\Ya\AppData\Local\Temp\ccY6d54u.s 			page 21


1113:Drivers/STM32U5xx_HAL_Driver/Src/stm32u5xx_hal_dma.c ****     /* Process Unlocked */
1114:Drivers/STM32U5xx_HAL_Driver/Src/stm32u5xx_hal_dma.c ****     __HAL_UNLOCK(hdma);
1115:Drivers/STM32U5xx_HAL_Driver/Src/stm32u5xx_hal_dma.c **** 
1116:Drivers/STM32U5xx_HAL_Driver/Src/stm32u5xx_hal_dma.c ****     /* Check transfer error callback */
1117:Drivers/STM32U5xx_HAL_Driver/Src/stm32u5xx_hal_dma.c ****     if (hdma->XferErrorCallback != NULL)
1118:Drivers/STM32U5xx_HAL_Driver/Src/stm32u5xx_hal_dma.c ****     {
1119:Drivers/STM32U5xx_HAL_Driver/Src/stm32u5xx_hal_dma.c ****       /* Transfer error callback */
1120:Drivers/STM32U5xx_HAL_Driver/Src/stm32u5xx_hal_dma.c ****       hdma->XferErrorCallback(hdma);
1121:Drivers/STM32U5xx_HAL_Driver/Src/stm32u5xx_hal_dma.c ****     }
1122:Drivers/STM32U5xx_HAL_Driver/Src/stm32u5xx_hal_dma.c ****   }
1123:Drivers/STM32U5xx_HAL_Driver/Src/stm32u5xx_hal_dma.c **** }
1124:Drivers/STM32U5xx_HAL_Driver/Src/stm32u5xx_hal_dma.c **** 
1125:Drivers/STM32U5xx_HAL_Driver/Src/stm32u5xx_hal_dma.c **** /**
1126:Drivers/STM32U5xx_HAL_Driver/Src/stm32u5xx_hal_dma.c ****   * @brief  Register callback according to specified ID.
1127:Drivers/STM32U5xx_HAL_Driver/Src/stm32u5xx_hal_dma.c ****   * @note   The HAL_DMA_RegisterCallback() may be called before HAL_DMA_Init() in HAL_DMA_STATE_RES
1128:Drivers/STM32U5xx_HAL_Driver/Src/stm32u5xx_hal_dma.c ****   *         to register callbacks for HAL_DMA_MSPINIT_CB_ID and HAL_DMA_MSPDEINIT_CB_ID.
1129:Drivers/STM32U5xx_HAL_Driver/Src/stm32u5xx_hal_dma.c ****   * @param  hdma       : Pointer to a DMA_HandleTypeDef structure that contains the configuration i
1130:Drivers/STM32U5xx_HAL_Driver/Src/stm32u5xx_hal_dma.c ****   *                      specified DMA Channel.
1131:Drivers/STM32U5xx_HAL_Driver/Src/stm32u5xx_hal_dma.c ****   * @param  CallbackID : User Callback identifier which could be a value of HAL_DMA_CallbackIDTypeD
1132:Drivers/STM32U5xx_HAL_Driver/Src/stm32u5xx_hal_dma.c ****   * @param  pCallback  : Pointer to private callback function.
1133:Drivers/STM32U5xx_HAL_Driver/Src/stm32u5xx_hal_dma.c ****   * @retval HAL status.
1134:Drivers/STM32U5xx_HAL_Driver/Src/stm32u5xx_hal_dma.c ****   */
1135:Drivers/STM32U5xx_HAL_Driver/Src/stm32u5xx_hal_dma.c **** HAL_StatusTypeDef HAL_DMA_RegisterCallback(DMA_HandleTypeDef *const hdma,
1136:Drivers/STM32U5xx_HAL_Driver/Src/stm32u5xx_hal_dma.c ****                                            HAL_DMA_CallbackIDTypeDef CallbackID,
1137:Drivers/STM32U5xx_HAL_Driver/Src/stm32u5xx_hal_dma.c ****                                            void (*const pCallback)(DMA_HandleTypeDef *const _hdma))
1138:Drivers/STM32U5xx_HAL_Driver/Src/stm32u5xx_hal_dma.c **** {
1139:Drivers/STM32U5xx_HAL_Driver/Src/stm32u5xx_hal_dma.c ****   HAL_StatusTypeDef status = HAL_OK;
1140:Drivers/STM32U5xx_HAL_Driver/Src/stm32u5xx_hal_dma.c **** 
1141:Drivers/STM32U5xx_HAL_Driver/Src/stm32u5xx_hal_dma.c ****   /* Check the DMA peripheral handle parameter */
1142:Drivers/STM32U5xx_HAL_Driver/Src/stm32u5xx_hal_dma.c ****   if (hdma == NULL)
1143:Drivers/STM32U5xx_HAL_Driver/Src/stm32u5xx_hal_dma.c ****   {
1144:Drivers/STM32U5xx_HAL_Driver/Src/stm32u5xx_hal_dma.c ****     return HAL_ERROR;
1145:Drivers/STM32U5xx_HAL_Driver/Src/stm32u5xx_hal_dma.c ****   }
1146:Drivers/STM32U5xx_HAL_Driver/Src/stm32u5xx_hal_dma.c **** 
1147:Drivers/STM32U5xx_HAL_Driver/Src/stm32u5xx_hal_dma.c ****   /* Check DMA channel state */
1148:Drivers/STM32U5xx_HAL_Driver/Src/stm32u5xx_hal_dma.c ****   if (hdma->State == HAL_DMA_STATE_READY)
1149:Drivers/STM32U5xx_HAL_Driver/Src/stm32u5xx_hal_dma.c ****   {
1150:Drivers/STM32U5xx_HAL_Driver/Src/stm32u5xx_hal_dma.c ****     /* Check callback ID */
1151:Drivers/STM32U5xx_HAL_Driver/Src/stm32u5xx_hal_dma.c ****     switch (CallbackID)
1152:Drivers/STM32U5xx_HAL_Driver/Src/stm32u5xx_hal_dma.c ****     {
1153:Drivers/STM32U5xx_HAL_Driver/Src/stm32u5xx_hal_dma.c ****       case HAL_DMA_XFER_CPLT_CB_ID:
1154:Drivers/STM32U5xx_HAL_Driver/Src/stm32u5xx_hal_dma.c ****       {
1155:Drivers/STM32U5xx_HAL_Driver/Src/stm32u5xx_hal_dma.c ****         /* Register transfer complete callback */
1156:Drivers/STM32U5xx_HAL_Driver/Src/stm32u5xx_hal_dma.c ****         hdma->XferCpltCallback = pCallback;
1157:Drivers/STM32U5xx_HAL_Driver/Src/stm32u5xx_hal_dma.c ****         break;
1158:Drivers/STM32U5xx_HAL_Driver/Src/stm32u5xx_hal_dma.c ****       }
1159:Drivers/STM32U5xx_HAL_Driver/Src/stm32u5xx_hal_dma.c **** 
1160:Drivers/STM32U5xx_HAL_Driver/Src/stm32u5xx_hal_dma.c ****       case HAL_DMA_XFER_HALFCPLT_CB_ID:
1161:Drivers/STM32U5xx_HAL_Driver/Src/stm32u5xx_hal_dma.c ****       {
1162:Drivers/STM32U5xx_HAL_Driver/Src/stm32u5xx_hal_dma.c ****         /* Register half transfer callback */
1163:Drivers/STM32U5xx_HAL_Driver/Src/stm32u5xx_hal_dma.c ****         hdma->XferHalfCpltCallback = pCallback;
1164:Drivers/STM32U5xx_HAL_Driver/Src/stm32u5xx_hal_dma.c ****         break;
1165:Drivers/STM32U5xx_HAL_Driver/Src/stm32u5xx_hal_dma.c ****       }
1166:Drivers/STM32U5xx_HAL_Driver/Src/stm32u5xx_hal_dma.c **** 
1167:Drivers/STM32U5xx_HAL_Driver/Src/stm32u5xx_hal_dma.c ****       case HAL_DMA_XFER_ERROR_CB_ID:
1168:Drivers/STM32U5xx_HAL_Driver/Src/stm32u5xx_hal_dma.c ****       {
1169:Drivers/STM32U5xx_HAL_Driver/Src/stm32u5xx_hal_dma.c ****         /* Register transfer error callback */
ARM GAS  C:\Users\Ya\AppData\Local\Temp\ccY6d54u.s 			page 22


1170:Drivers/STM32U5xx_HAL_Driver/Src/stm32u5xx_hal_dma.c ****         hdma->XferErrorCallback = pCallback;
1171:Drivers/STM32U5xx_HAL_Driver/Src/stm32u5xx_hal_dma.c ****         break;
1172:Drivers/STM32U5xx_HAL_Driver/Src/stm32u5xx_hal_dma.c ****       }
1173:Drivers/STM32U5xx_HAL_Driver/Src/stm32u5xx_hal_dma.c **** 
1174:Drivers/STM32U5xx_HAL_Driver/Src/stm32u5xx_hal_dma.c ****       case HAL_DMA_XFER_ABORT_CB_ID:
1175:Drivers/STM32U5xx_HAL_Driver/Src/stm32u5xx_hal_dma.c ****       {
1176:Drivers/STM32U5xx_HAL_Driver/Src/stm32u5xx_hal_dma.c ****         /* Register abort callback */
1177:Drivers/STM32U5xx_HAL_Driver/Src/stm32u5xx_hal_dma.c ****         hdma->XferAbortCallback = pCallback;
1178:Drivers/STM32U5xx_HAL_Driver/Src/stm32u5xx_hal_dma.c ****         break;
1179:Drivers/STM32U5xx_HAL_Driver/Src/stm32u5xx_hal_dma.c ****       }
1180:Drivers/STM32U5xx_HAL_Driver/Src/stm32u5xx_hal_dma.c **** 
1181:Drivers/STM32U5xx_HAL_Driver/Src/stm32u5xx_hal_dma.c ****       case HAL_DMA_XFER_SUSPEND_CB_ID:
1182:Drivers/STM32U5xx_HAL_Driver/Src/stm32u5xx_hal_dma.c ****       {
1183:Drivers/STM32U5xx_HAL_Driver/Src/stm32u5xx_hal_dma.c ****         /* Register suspend callback */
1184:Drivers/STM32U5xx_HAL_Driver/Src/stm32u5xx_hal_dma.c ****         hdma->XferSuspendCallback = pCallback;
1185:Drivers/STM32U5xx_HAL_Driver/Src/stm32u5xx_hal_dma.c ****         break;
1186:Drivers/STM32U5xx_HAL_Driver/Src/stm32u5xx_hal_dma.c ****       }
1187:Drivers/STM32U5xx_HAL_Driver/Src/stm32u5xx_hal_dma.c **** 
1188:Drivers/STM32U5xx_HAL_Driver/Src/stm32u5xx_hal_dma.c ****       default:
1189:Drivers/STM32U5xx_HAL_Driver/Src/stm32u5xx_hal_dma.c ****       {
1190:Drivers/STM32U5xx_HAL_Driver/Src/stm32u5xx_hal_dma.c ****         /* Update error status */
1191:Drivers/STM32U5xx_HAL_Driver/Src/stm32u5xx_hal_dma.c ****         status = HAL_ERROR;
1192:Drivers/STM32U5xx_HAL_Driver/Src/stm32u5xx_hal_dma.c ****         break;
1193:Drivers/STM32U5xx_HAL_Driver/Src/stm32u5xx_hal_dma.c ****       }
1194:Drivers/STM32U5xx_HAL_Driver/Src/stm32u5xx_hal_dma.c ****     }
1195:Drivers/STM32U5xx_HAL_Driver/Src/stm32u5xx_hal_dma.c ****   }
1196:Drivers/STM32U5xx_HAL_Driver/Src/stm32u5xx_hal_dma.c ****   else
1197:Drivers/STM32U5xx_HAL_Driver/Src/stm32u5xx_hal_dma.c ****   {
1198:Drivers/STM32U5xx_HAL_Driver/Src/stm32u5xx_hal_dma.c ****     /* Update error status */
1199:Drivers/STM32U5xx_HAL_Driver/Src/stm32u5xx_hal_dma.c ****     status =  HAL_ERROR;
1200:Drivers/STM32U5xx_HAL_Driver/Src/stm32u5xx_hal_dma.c ****   }
1201:Drivers/STM32U5xx_HAL_Driver/Src/stm32u5xx_hal_dma.c **** 
1202:Drivers/STM32U5xx_HAL_Driver/Src/stm32u5xx_hal_dma.c ****   return status;
1203:Drivers/STM32U5xx_HAL_Driver/Src/stm32u5xx_hal_dma.c **** }
1204:Drivers/STM32U5xx_HAL_Driver/Src/stm32u5xx_hal_dma.c **** 
1205:Drivers/STM32U5xx_HAL_Driver/Src/stm32u5xx_hal_dma.c **** /**
1206:Drivers/STM32U5xx_HAL_Driver/Src/stm32u5xx_hal_dma.c ****   * @brief  Unregister callback according to specified ID.
1207:Drivers/STM32U5xx_HAL_Driver/Src/stm32u5xx_hal_dma.c ****   * @note   The HAL_DMA_UnRegisterCallback() may be called before HAL_DMA_Init() in HAL_DMA_STATE_R
1208:Drivers/STM32U5xx_HAL_Driver/Src/stm32u5xx_hal_dma.c ****   *         to un-register callbacks for HAL_DMA_MSPINIT_CB_ID and HAL_DMA_MSPDEINIT_CB_ID.
1209:Drivers/STM32U5xx_HAL_Driver/Src/stm32u5xx_hal_dma.c ****   * @param  hdma       : Pointer to a DMA_HandleTypeDef structure that contains the configuration i
1210:Drivers/STM32U5xx_HAL_Driver/Src/stm32u5xx_hal_dma.c ****   *                      specified DMA Channel.
1211:Drivers/STM32U5xx_HAL_Driver/Src/stm32u5xx_hal_dma.c ****   * @param  CallbackID : User Callback identifier which could be a value of HAL_DMA_CallbackIDTypeD
1212:Drivers/STM32U5xx_HAL_Driver/Src/stm32u5xx_hal_dma.c ****   * @retval HAL status.
1213:Drivers/STM32U5xx_HAL_Driver/Src/stm32u5xx_hal_dma.c ****   */
1214:Drivers/STM32U5xx_HAL_Driver/Src/stm32u5xx_hal_dma.c **** HAL_StatusTypeDef HAL_DMA_UnRegisterCallback(DMA_HandleTypeDef *const hdma,
1215:Drivers/STM32U5xx_HAL_Driver/Src/stm32u5xx_hal_dma.c ****                                              HAL_DMA_CallbackIDTypeDef CallbackID)
1216:Drivers/STM32U5xx_HAL_Driver/Src/stm32u5xx_hal_dma.c **** {
1217:Drivers/STM32U5xx_HAL_Driver/Src/stm32u5xx_hal_dma.c ****   HAL_StatusTypeDef status = HAL_OK;
1218:Drivers/STM32U5xx_HAL_Driver/Src/stm32u5xx_hal_dma.c **** 
1219:Drivers/STM32U5xx_HAL_Driver/Src/stm32u5xx_hal_dma.c ****   /* Check the DMA peripheral handle parameter */
1220:Drivers/STM32U5xx_HAL_Driver/Src/stm32u5xx_hal_dma.c ****   if (hdma == NULL)
1221:Drivers/STM32U5xx_HAL_Driver/Src/stm32u5xx_hal_dma.c ****   {
1222:Drivers/STM32U5xx_HAL_Driver/Src/stm32u5xx_hal_dma.c ****     return HAL_ERROR;
1223:Drivers/STM32U5xx_HAL_Driver/Src/stm32u5xx_hal_dma.c ****   }
1224:Drivers/STM32U5xx_HAL_Driver/Src/stm32u5xx_hal_dma.c **** 
1225:Drivers/STM32U5xx_HAL_Driver/Src/stm32u5xx_hal_dma.c ****   /* Check DMA channel state */
1226:Drivers/STM32U5xx_HAL_Driver/Src/stm32u5xx_hal_dma.c ****   if (hdma->State == HAL_DMA_STATE_READY)
ARM GAS  C:\Users\Ya\AppData\Local\Temp\ccY6d54u.s 			page 23


1227:Drivers/STM32U5xx_HAL_Driver/Src/stm32u5xx_hal_dma.c ****   {
1228:Drivers/STM32U5xx_HAL_Driver/Src/stm32u5xx_hal_dma.c ****     /* Check callback ID */
1229:Drivers/STM32U5xx_HAL_Driver/Src/stm32u5xx_hal_dma.c ****     switch (CallbackID)
1230:Drivers/STM32U5xx_HAL_Driver/Src/stm32u5xx_hal_dma.c ****     {
1231:Drivers/STM32U5xx_HAL_Driver/Src/stm32u5xx_hal_dma.c ****       case HAL_DMA_XFER_CPLT_CB_ID:
1232:Drivers/STM32U5xx_HAL_Driver/Src/stm32u5xx_hal_dma.c ****       {
1233:Drivers/STM32U5xx_HAL_Driver/Src/stm32u5xx_hal_dma.c ****         /* UnRegister transfer complete callback */
1234:Drivers/STM32U5xx_HAL_Driver/Src/stm32u5xx_hal_dma.c ****         hdma->XferCpltCallback = NULL;
1235:Drivers/STM32U5xx_HAL_Driver/Src/stm32u5xx_hal_dma.c ****         break;
1236:Drivers/STM32U5xx_HAL_Driver/Src/stm32u5xx_hal_dma.c ****       }
1237:Drivers/STM32U5xx_HAL_Driver/Src/stm32u5xx_hal_dma.c **** 
1238:Drivers/STM32U5xx_HAL_Driver/Src/stm32u5xx_hal_dma.c ****       case HAL_DMA_XFER_HALFCPLT_CB_ID:
1239:Drivers/STM32U5xx_HAL_Driver/Src/stm32u5xx_hal_dma.c ****       {
1240:Drivers/STM32U5xx_HAL_Driver/Src/stm32u5xx_hal_dma.c ****         /* UnRegister half transfer callback */
1241:Drivers/STM32U5xx_HAL_Driver/Src/stm32u5xx_hal_dma.c ****         hdma->XferHalfCpltCallback = NULL;
1242:Drivers/STM32U5xx_HAL_Driver/Src/stm32u5xx_hal_dma.c ****         break;
1243:Drivers/STM32U5xx_HAL_Driver/Src/stm32u5xx_hal_dma.c ****       }
1244:Drivers/STM32U5xx_HAL_Driver/Src/stm32u5xx_hal_dma.c **** 
1245:Drivers/STM32U5xx_HAL_Driver/Src/stm32u5xx_hal_dma.c ****       case HAL_DMA_XFER_ERROR_CB_ID:
1246:Drivers/STM32U5xx_HAL_Driver/Src/stm32u5xx_hal_dma.c ****       {
1247:Drivers/STM32U5xx_HAL_Driver/Src/stm32u5xx_hal_dma.c ****         /* UnRegister transfer error callback */
1248:Drivers/STM32U5xx_HAL_Driver/Src/stm32u5xx_hal_dma.c ****         hdma->XferErrorCallback = NULL;
1249:Drivers/STM32U5xx_HAL_Driver/Src/stm32u5xx_hal_dma.c ****         break;
1250:Drivers/STM32U5xx_HAL_Driver/Src/stm32u5xx_hal_dma.c ****       }
1251:Drivers/STM32U5xx_HAL_Driver/Src/stm32u5xx_hal_dma.c **** 
1252:Drivers/STM32U5xx_HAL_Driver/Src/stm32u5xx_hal_dma.c ****       case HAL_DMA_XFER_ABORT_CB_ID:
1253:Drivers/STM32U5xx_HAL_Driver/Src/stm32u5xx_hal_dma.c ****       {
1254:Drivers/STM32U5xx_HAL_Driver/Src/stm32u5xx_hal_dma.c ****         /* UnRegister abort callback */
1255:Drivers/STM32U5xx_HAL_Driver/Src/stm32u5xx_hal_dma.c ****         hdma->XferAbortCallback = NULL;
1256:Drivers/STM32U5xx_HAL_Driver/Src/stm32u5xx_hal_dma.c ****         break;
1257:Drivers/STM32U5xx_HAL_Driver/Src/stm32u5xx_hal_dma.c ****       }
1258:Drivers/STM32U5xx_HAL_Driver/Src/stm32u5xx_hal_dma.c **** 
1259:Drivers/STM32U5xx_HAL_Driver/Src/stm32u5xx_hal_dma.c ****       case HAL_DMA_XFER_SUSPEND_CB_ID:
1260:Drivers/STM32U5xx_HAL_Driver/Src/stm32u5xx_hal_dma.c ****       {
1261:Drivers/STM32U5xx_HAL_Driver/Src/stm32u5xx_hal_dma.c ****         /* UnRegister suspend callback */
1262:Drivers/STM32U5xx_HAL_Driver/Src/stm32u5xx_hal_dma.c ****         hdma->XferSuspendCallback = NULL;
1263:Drivers/STM32U5xx_HAL_Driver/Src/stm32u5xx_hal_dma.c ****         break;
1264:Drivers/STM32U5xx_HAL_Driver/Src/stm32u5xx_hal_dma.c ****       }
1265:Drivers/STM32U5xx_HAL_Driver/Src/stm32u5xx_hal_dma.c **** 
1266:Drivers/STM32U5xx_HAL_Driver/Src/stm32u5xx_hal_dma.c ****       case HAL_DMA_XFER_ALL_CB_ID:
1267:Drivers/STM32U5xx_HAL_Driver/Src/stm32u5xx_hal_dma.c ****       {
1268:Drivers/STM32U5xx_HAL_Driver/Src/stm32u5xx_hal_dma.c ****         /* UnRegister all available callbacks */
1269:Drivers/STM32U5xx_HAL_Driver/Src/stm32u5xx_hal_dma.c ****         hdma->XferCpltCallback     = NULL;
1270:Drivers/STM32U5xx_HAL_Driver/Src/stm32u5xx_hal_dma.c ****         hdma->XferHalfCpltCallback = NULL;
1271:Drivers/STM32U5xx_HAL_Driver/Src/stm32u5xx_hal_dma.c ****         hdma->XferErrorCallback    = NULL;
1272:Drivers/STM32U5xx_HAL_Driver/Src/stm32u5xx_hal_dma.c ****         hdma->XferAbortCallback    = NULL;
1273:Drivers/STM32U5xx_HAL_Driver/Src/stm32u5xx_hal_dma.c ****         hdma->XferSuspendCallback  = NULL;
1274:Drivers/STM32U5xx_HAL_Driver/Src/stm32u5xx_hal_dma.c ****         break;
1275:Drivers/STM32U5xx_HAL_Driver/Src/stm32u5xx_hal_dma.c ****       }
1276:Drivers/STM32U5xx_HAL_Driver/Src/stm32u5xx_hal_dma.c **** 
1277:Drivers/STM32U5xx_HAL_Driver/Src/stm32u5xx_hal_dma.c ****       default:
1278:Drivers/STM32U5xx_HAL_Driver/Src/stm32u5xx_hal_dma.c ****       {
1279:Drivers/STM32U5xx_HAL_Driver/Src/stm32u5xx_hal_dma.c ****         /* Update error status */
1280:Drivers/STM32U5xx_HAL_Driver/Src/stm32u5xx_hal_dma.c ****         status = HAL_ERROR;
1281:Drivers/STM32U5xx_HAL_Driver/Src/stm32u5xx_hal_dma.c ****         break;
1282:Drivers/STM32U5xx_HAL_Driver/Src/stm32u5xx_hal_dma.c ****       }
1283:Drivers/STM32U5xx_HAL_Driver/Src/stm32u5xx_hal_dma.c ****     }
ARM GAS  C:\Users\Ya\AppData\Local\Temp\ccY6d54u.s 			page 24


1284:Drivers/STM32U5xx_HAL_Driver/Src/stm32u5xx_hal_dma.c ****   }
1285:Drivers/STM32U5xx_HAL_Driver/Src/stm32u5xx_hal_dma.c ****   else
1286:Drivers/STM32U5xx_HAL_Driver/Src/stm32u5xx_hal_dma.c ****   {
1287:Drivers/STM32U5xx_HAL_Driver/Src/stm32u5xx_hal_dma.c ****     /* Update error status */
1288:Drivers/STM32U5xx_HAL_Driver/Src/stm32u5xx_hal_dma.c ****     status = HAL_ERROR;
1289:Drivers/STM32U5xx_HAL_Driver/Src/stm32u5xx_hal_dma.c ****   }
1290:Drivers/STM32U5xx_HAL_Driver/Src/stm32u5xx_hal_dma.c **** 
1291:Drivers/STM32U5xx_HAL_Driver/Src/stm32u5xx_hal_dma.c ****   return status;
1292:Drivers/STM32U5xx_HAL_Driver/Src/stm32u5xx_hal_dma.c **** }
1293:Drivers/STM32U5xx_HAL_Driver/Src/stm32u5xx_hal_dma.c **** /**
1294:Drivers/STM32U5xx_HAL_Driver/Src/stm32u5xx_hal_dma.c ****   * @}
1295:Drivers/STM32U5xx_HAL_Driver/Src/stm32u5xx_hal_dma.c ****   */
1296:Drivers/STM32U5xx_HAL_Driver/Src/stm32u5xx_hal_dma.c **** 
1297:Drivers/STM32U5xx_HAL_Driver/Src/stm32u5xx_hal_dma.c **** /** @addtogroup DMA_Exported_Functions_Group3
1298:Drivers/STM32U5xx_HAL_Driver/Src/stm32u5xx_hal_dma.c ****   *
1299:Drivers/STM32U5xx_HAL_Driver/Src/stm32u5xx_hal_dma.c **** @verbatim
1300:Drivers/STM32U5xx_HAL_Driver/Src/stm32u5xx_hal_dma.c ****   =================================================================================================
1301:Drivers/STM32U5xx_HAL_Driver/Src/stm32u5xx_hal_dma.c ****                               ############### State and Errors functions ###############
1302:Drivers/STM32U5xx_HAL_Driver/Src/stm32u5xx_hal_dma.c ****   =================================================================================================
1303:Drivers/STM32U5xx_HAL_Driver/Src/stm32u5xx_hal_dma.c ****     [..]
1304:Drivers/STM32U5xx_HAL_Driver/Src/stm32u5xx_hal_dma.c ****       This section provides functions allowing to :
1305:Drivers/STM32U5xx_HAL_Driver/Src/stm32u5xx_hal_dma.c ****       (+) Check the DMA state
1306:Drivers/STM32U5xx_HAL_Driver/Src/stm32u5xx_hal_dma.c ****       (+) Get error code
1307:Drivers/STM32U5xx_HAL_Driver/Src/stm32u5xx_hal_dma.c **** 
1308:Drivers/STM32U5xx_HAL_Driver/Src/stm32u5xx_hal_dma.c ****     [..]
1309:Drivers/STM32U5xx_HAL_Driver/Src/stm32u5xx_hal_dma.c ****       (+) The HAL_DMA_GetState() function allows to get the DMA channel state.
1310:Drivers/STM32U5xx_HAL_Driver/Src/stm32u5xx_hal_dma.c ****       (+) The HAL_DMA_DeInit() function allows to get the DMA channel error code.
1311:Drivers/STM32U5xx_HAL_Driver/Src/stm32u5xx_hal_dma.c **** 
1312:Drivers/STM32U5xx_HAL_Driver/Src/stm32u5xx_hal_dma.c **** @endverbatim
1313:Drivers/STM32U5xx_HAL_Driver/Src/stm32u5xx_hal_dma.c ****   * @{
1314:Drivers/STM32U5xx_HAL_Driver/Src/stm32u5xx_hal_dma.c ****   */
1315:Drivers/STM32U5xx_HAL_Driver/Src/stm32u5xx_hal_dma.c **** 
1316:Drivers/STM32U5xx_HAL_Driver/Src/stm32u5xx_hal_dma.c **** /**
1317:Drivers/STM32U5xx_HAL_Driver/Src/stm32u5xx_hal_dma.c ****   * @brief  Returns the DMA channel state.
1318:Drivers/STM32U5xx_HAL_Driver/Src/stm32u5xx_hal_dma.c ****   * @param  hdma : Pointer to a DMA_HandleTypeDef structure that contains the configuration informa
1319:Drivers/STM32U5xx_HAL_Driver/Src/stm32u5xx_hal_dma.c ****   *                specified DMA Channel.
1320:Drivers/STM32U5xx_HAL_Driver/Src/stm32u5xx_hal_dma.c ****   * @retval DMA state.
1321:Drivers/STM32U5xx_HAL_Driver/Src/stm32u5xx_hal_dma.c ****   */
1322:Drivers/STM32U5xx_HAL_Driver/Src/stm32u5xx_hal_dma.c **** HAL_DMA_StateTypeDef HAL_DMA_GetState(DMA_HandleTypeDef const *const hdma)
1323:Drivers/STM32U5xx_HAL_Driver/Src/stm32u5xx_hal_dma.c **** {
1324:Drivers/STM32U5xx_HAL_Driver/Src/stm32u5xx_hal_dma.c ****   /* Return the DMA channel state */
1325:Drivers/STM32U5xx_HAL_Driver/Src/stm32u5xx_hal_dma.c ****   return hdma->State;
1326:Drivers/STM32U5xx_HAL_Driver/Src/stm32u5xx_hal_dma.c **** }
1327:Drivers/STM32U5xx_HAL_Driver/Src/stm32u5xx_hal_dma.c **** 
1328:Drivers/STM32U5xx_HAL_Driver/Src/stm32u5xx_hal_dma.c **** /**
1329:Drivers/STM32U5xx_HAL_Driver/Src/stm32u5xx_hal_dma.c ****   * @brief  Return the DMA channel error code.
1330:Drivers/STM32U5xx_HAL_Driver/Src/stm32u5xx_hal_dma.c ****   * @param  hdma : Pointer to a DMA_HandleTypeDef structure that contains the configuration informa
1331:Drivers/STM32U5xx_HAL_Driver/Src/stm32u5xx_hal_dma.c ****   *                specified DMA Channel.
1332:Drivers/STM32U5xx_HAL_Driver/Src/stm32u5xx_hal_dma.c ****   * @retval DMA Error Code.
1333:Drivers/STM32U5xx_HAL_Driver/Src/stm32u5xx_hal_dma.c ****   */
1334:Drivers/STM32U5xx_HAL_Driver/Src/stm32u5xx_hal_dma.c **** uint32_t HAL_DMA_GetError(DMA_HandleTypeDef const *const hdma)
1335:Drivers/STM32U5xx_HAL_Driver/Src/stm32u5xx_hal_dma.c **** {
1336:Drivers/STM32U5xx_HAL_Driver/Src/stm32u5xx_hal_dma.c ****   /* Return the DMA channel error code */
1337:Drivers/STM32U5xx_HAL_Driver/Src/stm32u5xx_hal_dma.c ****   return hdma->ErrorCode;
1338:Drivers/STM32U5xx_HAL_Driver/Src/stm32u5xx_hal_dma.c **** }
1339:Drivers/STM32U5xx_HAL_Driver/Src/stm32u5xx_hal_dma.c **** /**
1340:Drivers/STM32U5xx_HAL_Driver/Src/stm32u5xx_hal_dma.c ****   * @}
ARM GAS  C:\Users\Ya\AppData\Local\Temp\ccY6d54u.s 			page 25


1341:Drivers/STM32U5xx_HAL_Driver/Src/stm32u5xx_hal_dma.c ****   */
1342:Drivers/STM32U5xx_HAL_Driver/Src/stm32u5xx_hal_dma.c **** 
1343:Drivers/STM32U5xx_HAL_Driver/Src/stm32u5xx_hal_dma.c **** /** @addtogroup DMA_Exported_Functions_Group4
1344:Drivers/STM32U5xx_HAL_Driver/Src/stm32u5xx_hal_dma.c ****   *
1345:Drivers/STM32U5xx_HAL_Driver/Src/stm32u5xx_hal_dma.c **** @verbatim
1346:Drivers/STM32U5xx_HAL_Driver/Src/stm32u5xx_hal_dma.c ****   =================================================================================================
1347:Drivers/STM32U5xx_HAL_Driver/Src/stm32u5xx_hal_dma.c ****                            ############### DMA Attributes functions ###############
1348:Drivers/STM32U5xx_HAL_Driver/Src/stm32u5xx_hal_dma.c ****   =================================================================================================
1349:Drivers/STM32U5xx_HAL_Driver/Src/stm32u5xx_hal_dma.c ****     [..]
1350:Drivers/STM32U5xx_HAL_Driver/Src/stm32u5xx_hal_dma.c ****       This section provides functions allowing to :
1351:Drivers/STM32U5xx_HAL_Driver/Src/stm32u5xx_hal_dma.c ****       (+) Configure DMA channel secure and privilege attributes.
1352:Drivers/STM32U5xx_HAL_Driver/Src/stm32u5xx_hal_dma.c ****       (+) Get DMA channel secure and privilege attributes.
1353:Drivers/STM32U5xx_HAL_Driver/Src/stm32u5xx_hal_dma.c ****       (+) Lock DMA channel secure and privilege attributes configuration.
1354:Drivers/STM32U5xx_HAL_Driver/Src/stm32u5xx_hal_dma.c ****       (+) Check whether DMA channel secure and privilege attributes configuration is locked or not.
1355:Drivers/STM32U5xx_HAL_Driver/Src/stm32u5xx_hal_dma.c **** 
1356:Drivers/STM32U5xx_HAL_Driver/Src/stm32u5xx_hal_dma.c ****     [..]
1357:Drivers/STM32U5xx_HAL_Driver/Src/stm32u5xx_hal_dma.c ****       (+) The HAL_DMA_ConfigChannelAttributes() function allows to configure DMA channel security a
1358:Drivers/STM32U5xx_HAL_Driver/Src/stm32u5xx_hal_dma.c ****           attributes.
1359:Drivers/STM32U5xx_HAL_Driver/Src/stm32u5xx_hal_dma.c ****       (+) The HAL_DMA_GetConfigChannelAttributes() function allows to get DMA channel security and 
1360:Drivers/STM32U5xx_HAL_Driver/Src/stm32u5xx_hal_dma.c ****           configuration.
1361:Drivers/STM32U5xx_HAL_Driver/Src/stm32u5xx_hal_dma.c ****       (+) The HAL_DMA_LockChannelAttributes() function allows to lock the DMA channel security and 
1362:Drivers/STM32U5xx_HAL_Driver/Src/stm32u5xx_hal_dma.c ****       (+) The HAL_DMA_GetLockChannelAttributes() function allows to get the DMA channel security an
1363:Drivers/STM32U5xx_HAL_Driver/Src/stm32u5xx_hal_dma.c ****           attributes lock status.
1364:Drivers/STM32U5xx_HAL_Driver/Src/stm32u5xx_hal_dma.c **** 
1365:Drivers/STM32U5xx_HAL_Driver/Src/stm32u5xx_hal_dma.c **** @endverbatim
1366:Drivers/STM32U5xx_HAL_Driver/Src/stm32u5xx_hal_dma.c ****   * @{
1367:Drivers/STM32U5xx_HAL_Driver/Src/stm32u5xx_hal_dma.c ****   */
1368:Drivers/STM32U5xx_HAL_Driver/Src/stm32u5xx_hal_dma.c **** 
1369:Drivers/STM32U5xx_HAL_Driver/Src/stm32u5xx_hal_dma.c **** /**
1370:Drivers/STM32U5xx_HAL_Driver/Src/stm32u5xx_hal_dma.c ****   * @brief  Configure the DMA channel security and privilege attribute(s).
1371:Drivers/STM32U5xx_HAL_Driver/Src/stm32u5xx_hal_dma.c ****   * @note   These attributes cannot be modified when the corresponding lock state is enabled.
1372:Drivers/STM32U5xx_HAL_Driver/Src/stm32u5xx_hal_dma.c ****   * @param  hdma              : Pointer to a DMA_HandleTypeDef structure that contains the configur
1373:Drivers/STM32U5xx_HAL_Driver/Src/stm32u5xx_hal_dma.c ****   *                             the specified DMA Channel.
1374:Drivers/STM32U5xx_HAL_Driver/Src/stm32u5xx_hal_dma.c ****   * @param  ChannelAttributes : Specifies the DMA channel secure/privilege attributes.
1375:Drivers/STM32U5xx_HAL_Driver/Src/stm32u5xx_hal_dma.c ****   *                             This parameter can be a one or a combination of @ref DMA_Channel_At
1376:Drivers/STM32U5xx_HAL_Driver/Src/stm32u5xx_hal_dma.c ****   * @retval HAL Status.
1377:Drivers/STM32U5xx_HAL_Driver/Src/stm32u5xx_hal_dma.c ****   */
1378:Drivers/STM32U5xx_HAL_Driver/Src/stm32u5xx_hal_dma.c **** HAL_StatusTypeDef HAL_DMA_ConfigChannelAttributes(DMA_HandleTypeDef *const hdma, uint32_t ChannelAt
1379:Drivers/STM32U5xx_HAL_Driver/Src/stm32u5xx_hal_dma.c **** {
1380:Drivers/STM32U5xx_HAL_Driver/Src/stm32u5xx_hal_dma.c ****   DMA_TypeDef *p_dma_instance;
1381:Drivers/STM32U5xx_HAL_Driver/Src/stm32u5xx_hal_dma.c ****   uint32_t channel_idx;
1382:Drivers/STM32U5xx_HAL_Driver/Src/stm32u5xx_hal_dma.c **** 
1383:Drivers/STM32U5xx_HAL_Driver/Src/stm32u5xx_hal_dma.c ****   /* Check the DMA peripheral handle parameter */
1384:Drivers/STM32U5xx_HAL_Driver/Src/stm32u5xx_hal_dma.c ****   if (hdma == NULL)
1385:Drivers/STM32U5xx_HAL_Driver/Src/stm32u5xx_hal_dma.c ****   {
1386:Drivers/STM32U5xx_HAL_Driver/Src/stm32u5xx_hal_dma.c ****     return HAL_ERROR;
1387:Drivers/STM32U5xx_HAL_Driver/Src/stm32u5xx_hal_dma.c ****   }
1388:Drivers/STM32U5xx_HAL_Driver/Src/stm32u5xx_hal_dma.c **** 
1389:Drivers/STM32U5xx_HAL_Driver/Src/stm32u5xx_hal_dma.c ****   /* Check the parameters */
1390:Drivers/STM32U5xx_HAL_Driver/Src/stm32u5xx_hal_dma.c ****   assert_param(IS_DMA_ATTRIBUTES(ChannelAttributes));
1391:Drivers/STM32U5xx_HAL_Driver/Src/stm32u5xx_hal_dma.c **** 
1392:Drivers/STM32U5xx_HAL_Driver/Src/stm32u5xx_hal_dma.c ****   /* Get DMA instance */
1393:Drivers/STM32U5xx_HAL_Driver/Src/stm32u5xx_hal_dma.c ****   p_dma_instance = GET_DMA_INSTANCE(hdma);
1394:Drivers/STM32U5xx_HAL_Driver/Src/stm32u5xx_hal_dma.c **** 
1395:Drivers/STM32U5xx_HAL_Driver/Src/stm32u5xx_hal_dma.c ****   /* Get channel index */
1396:Drivers/STM32U5xx_HAL_Driver/Src/stm32u5xx_hal_dma.c ****   channel_idx = 1UL << (GET_DMA_CHANNEL(hdma) & 0x1FU);
1397:Drivers/STM32U5xx_HAL_Driver/Src/stm32u5xx_hal_dma.c **** 
ARM GAS  C:\Users\Ya\AppData\Local\Temp\ccY6d54u.s 			page 26


1398:Drivers/STM32U5xx_HAL_Driver/Src/stm32u5xx_hal_dma.c ****   /* Check DMA channel privilege attribute management */
1399:Drivers/STM32U5xx_HAL_Driver/Src/stm32u5xx_hal_dma.c ****   if ((ChannelAttributes & DMA_CHANNEL_ATTR_PRIV_MASK) == DMA_CHANNEL_ATTR_PRIV_MASK)
1400:Drivers/STM32U5xx_HAL_Driver/Src/stm32u5xx_hal_dma.c ****   {
1401:Drivers/STM32U5xx_HAL_Driver/Src/stm32u5xx_hal_dma.c ****     /* Configure DMA channel privilege attribute */
1402:Drivers/STM32U5xx_HAL_Driver/Src/stm32u5xx_hal_dma.c ****     if ((ChannelAttributes & DMA_CHANNEL_PRIV) == DMA_CHANNEL_PRIV)
1403:Drivers/STM32U5xx_HAL_Driver/Src/stm32u5xx_hal_dma.c ****     {
1404:Drivers/STM32U5xx_HAL_Driver/Src/stm32u5xx_hal_dma.c ****       p_dma_instance->PRIVCFGR |= channel_idx;
1405:Drivers/STM32U5xx_HAL_Driver/Src/stm32u5xx_hal_dma.c ****     }
1406:Drivers/STM32U5xx_HAL_Driver/Src/stm32u5xx_hal_dma.c ****     else
1407:Drivers/STM32U5xx_HAL_Driver/Src/stm32u5xx_hal_dma.c ****     {
1408:Drivers/STM32U5xx_HAL_Driver/Src/stm32u5xx_hal_dma.c ****       p_dma_instance->PRIVCFGR &= (~channel_idx);
1409:Drivers/STM32U5xx_HAL_Driver/Src/stm32u5xx_hal_dma.c ****     }
1410:Drivers/STM32U5xx_HAL_Driver/Src/stm32u5xx_hal_dma.c ****   }
1411:Drivers/STM32U5xx_HAL_Driver/Src/stm32u5xx_hal_dma.c **** 
1412:Drivers/STM32U5xx_HAL_Driver/Src/stm32u5xx_hal_dma.c **** #if defined (__ARM_FEATURE_CMSE) && (__ARM_FEATURE_CMSE == 3U)
1413:Drivers/STM32U5xx_HAL_Driver/Src/stm32u5xx_hal_dma.c ****   /* Check DMA channel security attribute management */
1414:Drivers/STM32U5xx_HAL_Driver/Src/stm32u5xx_hal_dma.c ****   if ((ChannelAttributes & DMA_CHANNEL_ATTR_SEC_MASK) == DMA_CHANNEL_ATTR_SEC_MASK)
1415:Drivers/STM32U5xx_HAL_Driver/Src/stm32u5xx_hal_dma.c ****   {
1416:Drivers/STM32U5xx_HAL_Driver/Src/stm32u5xx_hal_dma.c ****     /* Configure DMA channel security attribute */
1417:Drivers/STM32U5xx_HAL_Driver/Src/stm32u5xx_hal_dma.c ****     if ((ChannelAttributes & DMA_CHANNEL_SEC) == DMA_CHANNEL_SEC)
1418:Drivers/STM32U5xx_HAL_Driver/Src/stm32u5xx_hal_dma.c ****     {
1419:Drivers/STM32U5xx_HAL_Driver/Src/stm32u5xx_hal_dma.c ****       p_dma_instance->SECCFGR |= channel_idx;
1420:Drivers/STM32U5xx_HAL_Driver/Src/stm32u5xx_hal_dma.c ****     }
1421:Drivers/STM32U5xx_HAL_Driver/Src/stm32u5xx_hal_dma.c ****     else
1422:Drivers/STM32U5xx_HAL_Driver/Src/stm32u5xx_hal_dma.c ****     {
1423:Drivers/STM32U5xx_HAL_Driver/Src/stm32u5xx_hal_dma.c ****       p_dma_instance->SECCFGR &= (~channel_idx);
1424:Drivers/STM32U5xx_HAL_Driver/Src/stm32u5xx_hal_dma.c ****     }
1425:Drivers/STM32U5xx_HAL_Driver/Src/stm32u5xx_hal_dma.c ****   }
1426:Drivers/STM32U5xx_HAL_Driver/Src/stm32u5xx_hal_dma.c **** 
1427:Drivers/STM32U5xx_HAL_Driver/Src/stm32u5xx_hal_dma.c ****   /* Channel source security attribute management */
1428:Drivers/STM32U5xx_HAL_Driver/Src/stm32u5xx_hal_dma.c ****   if ((ChannelAttributes & DMA_CHANNEL_ATTR_SEC_SRC_MASK) == DMA_CHANNEL_ATTR_SEC_SRC_MASK)
1429:Drivers/STM32U5xx_HAL_Driver/Src/stm32u5xx_hal_dma.c ****   {
1430:Drivers/STM32U5xx_HAL_Driver/Src/stm32u5xx_hal_dma.c ****     /* Configure DMA channel source security attribute */
1431:Drivers/STM32U5xx_HAL_Driver/Src/stm32u5xx_hal_dma.c ****     if ((ChannelAttributes & DMA_CHANNEL_SRC_SEC) == DMA_CHANNEL_SRC_SEC)
1432:Drivers/STM32U5xx_HAL_Driver/Src/stm32u5xx_hal_dma.c ****     {
1433:Drivers/STM32U5xx_HAL_Driver/Src/stm32u5xx_hal_dma.c ****       hdma->Instance->CTR1 |= DMA_CTR1_SSEC;
1434:Drivers/STM32U5xx_HAL_Driver/Src/stm32u5xx_hal_dma.c ****     }
1435:Drivers/STM32U5xx_HAL_Driver/Src/stm32u5xx_hal_dma.c ****     else
1436:Drivers/STM32U5xx_HAL_Driver/Src/stm32u5xx_hal_dma.c ****     {
1437:Drivers/STM32U5xx_HAL_Driver/Src/stm32u5xx_hal_dma.c ****       hdma->Instance->CTR1 &= (~DMA_CTR1_SSEC);
1438:Drivers/STM32U5xx_HAL_Driver/Src/stm32u5xx_hal_dma.c ****     }
1439:Drivers/STM32U5xx_HAL_Driver/Src/stm32u5xx_hal_dma.c ****   }
1440:Drivers/STM32U5xx_HAL_Driver/Src/stm32u5xx_hal_dma.c **** 
1441:Drivers/STM32U5xx_HAL_Driver/Src/stm32u5xx_hal_dma.c ****   /* Channel destination security attribute management */
1442:Drivers/STM32U5xx_HAL_Driver/Src/stm32u5xx_hal_dma.c ****   if ((ChannelAttributes & DMA_CHANNEL_ATTR_SEC_DEST_MASK) == DMA_CHANNEL_ATTR_SEC_DEST_MASK)
1443:Drivers/STM32U5xx_HAL_Driver/Src/stm32u5xx_hal_dma.c ****   {
1444:Drivers/STM32U5xx_HAL_Driver/Src/stm32u5xx_hal_dma.c ****     /* Configure DMA channel destination security attribute */
1445:Drivers/STM32U5xx_HAL_Driver/Src/stm32u5xx_hal_dma.c ****     if ((ChannelAttributes & DMA_CHANNEL_DEST_SEC) == DMA_CHANNEL_DEST_SEC)
1446:Drivers/STM32U5xx_HAL_Driver/Src/stm32u5xx_hal_dma.c ****     {
1447:Drivers/STM32U5xx_HAL_Driver/Src/stm32u5xx_hal_dma.c ****       hdma->Instance->CTR1 |= DMA_CTR1_DSEC;
1448:Drivers/STM32U5xx_HAL_Driver/Src/stm32u5xx_hal_dma.c ****     }
1449:Drivers/STM32U5xx_HAL_Driver/Src/stm32u5xx_hal_dma.c ****     else
1450:Drivers/STM32U5xx_HAL_Driver/Src/stm32u5xx_hal_dma.c ****     {
1451:Drivers/STM32U5xx_HAL_Driver/Src/stm32u5xx_hal_dma.c ****       hdma->Instance->CTR1 &= (~DMA_CTR1_DSEC);
1452:Drivers/STM32U5xx_HAL_Driver/Src/stm32u5xx_hal_dma.c ****     }
1453:Drivers/STM32U5xx_HAL_Driver/Src/stm32u5xx_hal_dma.c ****   }
1454:Drivers/STM32U5xx_HAL_Driver/Src/stm32u5xx_hal_dma.c **** #endif /* defined (__ARM_FEATURE_CMSE) && (__ARM_FEATURE_CMSE == 3U) */
ARM GAS  C:\Users\Ya\AppData\Local\Temp\ccY6d54u.s 			page 27


1455:Drivers/STM32U5xx_HAL_Driver/Src/stm32u5xx_hal_dma.c **** 
1456:Drivers/STM32U5xx_HAL_Driver/Src/stm32u5xx_hal_dma.c ****   return HAL_OK;
1457:Drivers/STM32U5xx_HAL_Driver/Src/stm32u5xx_hal_dma.c **** }
1458:Drivers/STM32U5xx_HAL_Driver/Src/stm32u5xx_hal_dma.c **** 
1459:Drivers/STM32U5xx_HAL_Driver/Src/stm32u5xx_hal_dma.c **** /**
1460:Drivers/STM32U5xx_HAL_Driver/Src/stm32u5xx_hal_dma.c ****   * @brief  Get the DMA channel security and privilege attributes.
1461:Drivers/STM32U5xx_HAL_Driver/Src/stm32u5xx_hal_dma.c ****   * @param  hdma               : Pointer to a DMA_HandleTypeDef structure that contains the configu
1462:Drivers/STM32U5xx_HAL_Driver/Src/stm32u5xx_hal_dma.c ****   *                              for the specified DMA Channel.
1463:Drivers/STM32U5xx_HAL_Driver/Src/stm32u5xx_hal_dma.c ****   * @param  pChannelAttributes : Pointer to the returned attributes.
1464:Drivers/STM32U5xx_HAL_Driver/Src/stm32u5xx_hal_dma.c ****   * @retval HAL Status.
1465:Drivers/STM32U5xx_HAL_Driver/Src/stm32u5xx_hal_dma.c ****   */
1466:Drivers/STM32U5xx_HAL_Driver/Src/stm32u5xx_hal_dma.c **** HAL_StatusTypeDef HAL_DMA_GetConfigChannelAttributes(DMA_HandleTypeDef const *const hdma,
1467:Drivers/STM32U5xx_HAL_Driver/Src/stm32u5xx_hal_dma.c ****                                                      uint32_t *const pChannelAttributes)
1468:Drivers/STM32U5xx_HAL_Driver/Src/stm32u5xx_hal_dma.c **** {
1469:Drivers/STM32U5xx_HAL_Driver/Src/stm32u5xx_hal_dma.c ****   DMA_TypeDef *p_dma_instance;
1470:Drivers/STM32U5xx_HAL_Driver/Src/stm32u5xx_hal_dma.c ****   uint32_t attributes;
1471:Drivers/STM32U5xx_HAL_Driver/Src/stm32u5xx_hal_dma.c ****   uint32_t channel_idx;
1472:Drivers/STM32U5xx_HAL_Driver/Src/stm32u5xx_hal_dma.c **** 
1473:Drivers/STM32U5xx_HAL_Driver/Src/stm32u5xx_hal_dma.c ****   /* Check the DMA peripheral handle and channel attributes parameters */
1474:Drivers/STM32U5xx_HAL_Driver/Src/stm32u5xx_hal_dma.c ****   if ((hdma == NULL) || (pChannelAttributes == NULL))
1475:Drivers/STM32U5xx_HAL_Driver/Src/stm32u5xx_hal_dma.c ****   {
1476:Drivers/STM32U5xx_HAL_Driver/Src/stm32u5xx_hal_dma.c ****     return HAL_ERROR;
1477:Drivers/STM32U5xx_HAL_Driver/Src/stm32u5xx_hal_dma.c ****   }
1478:Drivers/STM32U5xx_HAL_Driver/Src/stm32u5xx_hal_dma.c **** 
1479:Drivers/STM32U5xx_HAL_Driver/Src/stm32u5xx_hal_dma.c ****   /* Get DMA instance */
1480:Drivers/STM32U5xx_HAL_Driver/Src/stm32u5xx_hal_dma.c ****   p_dma_instance = GET_DMA_INSTANCE(hdma);
1481:Drivers/STM32U5xx_HAL_Driver/Src/stm32u5xx_hal_dma.c **** 
1482:Drivers/STM32U5xx_HAL_Driver/Src/stm32u5xx_hal_dma.c ****   /* Get channel index */
1483:Drivers/STM32U5xx_HAL_Driver/Src/stm32u5xx_hal_dma.c ****   channel_idx = 1UL << (GET_DMA_CHANNEL(hdma) & 0x1FU);
1484:Drivers/STM32U5xx_HAL_Driver/Src/stm32u5xx_hal_dma.c **** 
1485:Drivers/STM32U5xx_HAL_Driver/Src/stm32u5xx_hal_dma.c ****   /* Get DMA channel privilege attribute */
1486:Drivers/STM32U5xx_HAL_Driver/Src/stm32u5xx_hal_dma.c ****   attributes = ((p_dma_instance->PRIVCFGR & channel_idx) == 0U) ? DMA_CHANNEL_NPRIV : DMA_CHANNEL_P
1487:Drivers/STM32U5xx_HAL_Driver/Src/stm32u5xx_hal_dma.c **** 
1488:Drivers/STM32U5xx_HAL_Driver/Src/stm32u5xx_hal_dma.c **** #if defined (__ARM_FEATURE_CMSE) && (__ARM_FEATURE_CMSE == 3U)
1489:Drivers/STM32U5xx_HAL_Driver/Src/stm32u5xx_hal_dma.c ****   /* Get DMA channel security attribute */
1490:Drivers/STM32U5xx_HAL_Driver/Src/stm32u5xx_hal_dma.c ****   attributes |= ((p_dma_instance->SECCFGR & channel_idx) == 0U) ? DMA_CHANNEL_NSEC : DMA_CHANNEL_SE
1491:Drivers/STM32U5xx_HAL_Driver/Src/stm32u5xx_hal_dma.c **** 
1492:Drivers/STM32U5xx_HAL_Driver/Src/stm32u5xx_hal_dma.c ****   /* Get DMA channel source security attribute */
1493:Drivers/STM32U5xx_HAL_Driver/Src/stm32u5xx_hal_dma.c ****   attributes |= ((hdma->Instance->CTR1 & DMA_CTR1_SSEC) == 0U) ? DMA_CHANNEL_SRC_NSEC : DMA_CHANNEL
1494:Drivers/STM32U5xx_HAL_Driver/Src/stm32u5xx_hal_dma.c **** 
1495:Drivers/STM32U5xx_HAL_Driver/Src/stm32u5xx_hal_dma.c ****   /* Get DMA channel destination security attribute */
1496:Drivers/STM32U5xx_HAL_Driver/Src/stm32u5xx_hal_dma.c ****   attributes |= ((hdma->Instance->CTR1 & DMA_CTR1_DSEC) == 0U) ? DMA_CHANNEL_DEST_NSEC : DMA_CHANNE
1497:Drivers/STM32U5xx_HAL_Driver/Src/stm32u5xx_hal_dma.c **** 
1498:Drivers/STM32U5xx_HAL_Driver/Src/stm32u5xx_hal_dma.c **** #endif /* defined (__ARM_FEATURE_CMSE) && (__ARM_FEATURE_CMSE == 3U) */
1499:Drivers/STM32U5xx_HAL_Driver/Src/stm32u5xx_hal_dma.c ****   /* return value */
1500:Drivers/STM32U5xx_HAL_Driver/Src/stm32u5xx_hal_dma.c ****   *pChannelAttributes = attributes;
1501:Drivers/STM32U5xx_HAL_Driver/Src/stm32u5xx_hal_dma.c **** 
1502:Drivers/STM32U5xx_HAL_Driver/Src/stm32u5xx_hal_dma.c ****   return HAL_OK;
1503:Drivers/STM32U5xx_HAL_Driver/Src/stm32u5xx_hal_dma.c **** }
1504:Drivers/STM32U5xx_HAL_Driver/Src/stm32u5xx_hal_dma.c **** 
1505:Drivers/STM32U5xx_HAL_Driver/Src/stm32u5xx_hal_dma.c **** #if defined (__ARM_FEATURE_CMSE) && (__ARM_FEATURE_CMSE == 3U)
1506:Drivers/STM32U5xx_HAL_Driver/Src/stm32u5xx_hal_dma.c **** /**
1507:Drivers/STM32U5xx_HAL_Driver/Src/stm32u5xx_hal_dma.c ****   * @brief  Lock the DMA channel security and privilege attribute(s).
1508:Drivers/STM32U5xx_HAL_Driver/Src/stm32u5xx_hal_dma.c ****   * @param  hdma : Pointer to a DMA_HandleTypeDef structure that contains the configuration informa
1509:Drivers/STM32U5xx_HAL_Driver/Src/stm32u5xx_hal_dma.c ****   *                specified DMA Channel.
1510:Drivers/STM32U5xx_HAL_Driver/Src/stm32u5xx_hal_dma.c ****   * @retval HAL Status.
1511:Drivers/STM32U5xx_HAL_Driver/Src/stm32u5xx_hal_dma.c ****   */
ARM GAS  C:\Users\Ya\AppData\Local\Temp\ccY6d54u.s 			page 28


1512:Drivers/STM32U5xx_HAL_Driver/Src/stm32u5xx_hal_dma.c **** HAL_StatusTypeDef HAL_DMA_LockChannelAttributes(DMA_HandleTypeDef const *const hdma)
1513:Drivers/STM32U5xx_HAL_Driver/Src/stm32u5xx_hal_dma.c **** {
1514:Drivers/STM32U5xx_HAL_Driver/Src/stm32u5xx_hal_dma.c ****   DMA_TypeDef *p_dma_instance;
1515:Drivers/STM32U5xx_HAL_Driver/Src/stm32u5xx_hal_dma.c ****   uint32_t channel_idx;
1516:Drivers/STM32U5xx_HAL_Driver/Src/stm32u5xx_hal_dma.c **** 
1517:Drivers/STM32U5xx_HAL_Driver/Src/stm32u5xx_hal_dma.c ****   /* Check the DMA peripheral handle parameter */
1518:Drivers/STM32U5xx_HAL_Driver/Src/stm32u5xx_hal_dma.c ****   if (hdma == NULL)
1519:Drivers/STM32U5xx_HAL_Driver/Src/stm32u5xx_hal_dma.c ****   {
1520:Drivers/STM32U5xx_HAL_Driver/Src/stm32u5xx_hal_dma.c ****     return HAL_ERROR;
1521:Drivers/STM32U5xx_HAL_Driver/Src/stm32u5xx_hal_dma.c ****   }
1522:Drivers/STM32U5xx_HAL_Driver/Src/stm32u5xx_hal_dma.c **** 
1523:Drivers/STM32U5xx_HAL_Driver/Src/stm32u5xx_hal_dma.c ****   /* Get DMA instance */
1524:Drivers/STM32U5xx_HAL_Driver/Src/stm32u5xx_hal_dma.c ****   p_dma_instance = GET_DMA_INSTANCE(hdma);
1525:Drivers/STM32U5xx_HAL_Driver/Src/stm32u5xx_hal_dma.c **** 
1526:Drivers/STM32U5xx_HAL_Driver/Src/stm32u5xx_hal_dma.c ****   /* Get channel index */
1527:Drivers/STM32U5xx_HAL_Driver/Src/stm32u5xx_hal_dma.c ****   channel_idx = 1UL << (GET_DMA_CHANNEL(hdma) & 0x1FU);
1528:Drivers/STM32U5xx_HAL_Driver/Src/stm32u5xx_hal_dma.c **** 
1529:Drivers/STM32U5xx_HAL_Driver/Src/stm32u5xx_hal_dma.c ****   /* Lock the DMA channel privilege and security attributes */
1530:Drivers/STM32U5xx_HAL_Driver/Src/stm32u5xx_hal_dma.c ****   p_dma_instance->RCFGLOCKR |= channel_idx;
1531:Drivers/STM32U5xx_HAL_Driver/Src/stm32u5xx_hal_dma.c **** 
1532:Drivers/STM32U5xx_HAL_Driver/Src/stm32u5xx_hal_dma.c ****   return HAL_OK;
1533:Drivers/STM32U5xx_HAL_Driver/Src/stm32u5xx_hal_dma.c **** }
1534:Drivers/STM32U5xx_HAL_Driver/Src/stm32u5xx_hal_dma.c **** #endif /* defined (__ARM_FEATURE_CMSE) && (__ARM_FEATURE_CMSE == 3U) */
1535:Drivers/STM32U5xx_HAL_Driver/Src/stm32u5xx_hal_dma.c **** 
1536:Drivers/STM32U5xx_HAL_Driver/Src/stm32u5xx_hal_dma.c **** /**
1537:Drivers/STM32U5xx_HAL_Driver/Src/stm32u5xx_hal_dma.c ****   * @brief  Get the security and privilege attribute lock state of a DMA channel.
1538:Drivers/STM32U5xx_HAL_Driver/Src/stm32u5xx_hal_dma.c ****   * @param  hdma       : Pointer to a DMA_HandleTypeDef structure that contains the configuration i
1539:Drivers/STM32U5xx_HAL_Driver/Src/stm32u5xx_hal_dma.c ****   *                      specified DMA Channel.
1540:Drivers/STM32U5xx_HAL_Driver/Src/stm32u5xx_hal_dma.c ****   * @param  pLockState : Pointer to lock state (returned value can be DMA_CHANNEL_ATTRIBUTE_UNLOCKE
1541:Drivers/STM32U5xx_HAL_Driver/Src/stm32u5xx_hal_dma.c ****   *                      DMA_CHANNEL_ATTRIBUTE_LOCKED).
1542:Drivers/STM32U5xx_HAL_Driver/Src/stm32u5xx_hal_dma.c ****   * @retval HAL status.
1543:Drivers/STM32U5xx_HAL_Driver/Src/stm32u5xx_hal_dma.c ****   */
1544:Drivers/STM32U5xx_HAL_Driver/Src/stm32u5xx_hal_dma.c **** HAL_StatusTypeDef HAL_DMA_GetLockChannelAttributes(DMA_HandleTypeDef const *const hdma, uint32_t *c
1545:Drivers/STM32U5xx_HAL_Driver/Src/stm32u5xx_hal_dma.c **** {
1546:Drivers/STM32U5xx_HAL_Driver/Src/stm32u5xx_hal_dma.c ****   DMA_TypeDef *p_dma_instance;
1547:Drivers/STM32U5xx_HAL_Driver/Src/stm32u5xx_hal_dma.c ****   uint32_t channel_idx;
1548:Drivers/STM32U5xx_HAL_Driver/Src/stm32u5xx_hal_dma.c **** 
1549:Drivers/STM32U5xx_HAL_Driver/Src/stm32u5xx_hal_dma.c ****   /* Check the DMA peripheral handle and lock state parameters */
1550:Drivers/STM32U5xx_HAL_Driver/Src/stm32u5xx_hal_dma.c ****   if ((hdma == NULL) || (pLockState == NULL))
1551:Drivers/STM32U5xx_HAL_Driver/Src/stm32u5xx_hal_dma.c ****   {
1552:Drivers/STM32U5xx_HAL_Driver/Src/stm32u5xx_hal_dma.c ****     return HAL_ERROR;
1553:Drivers/STM32U5xx_HAL_Driver/Src/stm32u5xx_hal_dma.c ****   }
1554:Drivers/STM32U5xx_HAL_Driver/Src/stm32u5xx_hal_dma.c **** 
1555:Drivers/STM32U5xx_HAL_Driver/Src/stm32u5xx_hal_dma.c ****   /* Get DMA instance */
1556:Drivers/STM32U5xx_HAL_Driver/Src/stm32u5xx_hal_dma.c ****   p_dma_instance = GET_DMA_INSTANCE(hdma);
1557:Drivers/STM32U5xx_HAL_Driver/Src/stm32u5xx_hal_dma.c **** 
1558:Drivers/STM32U5xx_HAL_Driver/Src/stm32u5xx_hal_dma.c ****   /* Get channel index */
1559:Drivers/STM32U5xx_HAL_Driver/Src/stm32u5xx_hal_dma.c ****   channel_idx = 1UL << (GET_DMA_CHANNEL(hdma) & 0x1FU);
1560:Drivers/STM32U5xx_HAL_Driver/Src/stm32u5xx_hal_dma.c **** 
1561:Drivers/STM32U5xx_HAL_Driver/Src/stm32u5xx_hal_dma.c ****   /* Get channel lock attribute state */
1562:Drivers/STM32U5xx_HAL_Driver/Src/stm32u5xx_hal_dma.c ****   *pLockState = ((p_dma_instance->RCFGLOCKR & channel_idx) == 0U) ? DMA_CHANNEL_ATTRIBUTE_UNLOCKED 
1563:Drivers/STM32U5xx_HAL_Driver/Src/stm32u5xx_hal_dma.c ****                 DMA_CHANNEL_ATTRIBUTE_LOCKED;
1564:Drivers/STM32U5xx_HAL_Driver/Src/stm32u5xx_hal_dma.c **** 
1565:Drivers/STM32U5xx_HAL_Driver/Src/stm32u5xx_hal_dma.c ****   return HAL_OK;
1566:Drivers/STM32U5xx_HAL_Driver/Src/stm32u5xx_hal_dma.c **** }
1567:Drivers/STM32U5xx_HAL_Driver/Src/stm32u5xx_hal_dma.c **** /**
1568:Drivers/STM32U5xx_HAL_Driver/Src/stm32u5xx_hal_dma.c ****   * @}
ARM GAS  C:\Users\Ya\AppData\Local\Temp\ccY6d54u.s 			page 29


1569:Drivers/STM32U5xx_HAL_Driver/Src/stm32u5xx_hal_dma.c ****   */
1570:Drivers/STM32U5xx_HAL_Driver/Src/stm32u5xx_hal_dma.c **** 
1571:Drivers/STM32U5xx_HAL_Driver/Src/stm32u5xx_hal_dma.c **** /**
1572:Drivers/STM32U5xx_HAL_Driver/Src/stm32u5xx_hal_dma.c ****   * @}
1573:Drivers/STM32U5xx_HAL_Driver/Src/stm32u5xx_hal_dma.c ****   */
1574:Drivers/STM32U5xx_HAL_Driver/Src/stm32u5xx_hal_dma.c **** 
1575:Drivers/STM32U5xx_HAL_Driver/Src/stm32u5xx_hal_dma.c **** 
1576:Drivers/STM32U5xx_HAL_Driver/Src/stm32u5xx_hal_dma.c **** /* Private functions ------------------------------------------------------------------------------
1577:Drivers/STM32U5xx_HAL_Driver/Src/stm32u5xx_hal_dma.c **** /** @defgroup DMA_Private_Functions DMA Private Functions
1578:Drivers/STM32U5xx_HAL_Driver/Src/stm32u5xx_hal_dma.c ****   * @brief    DMA Private Functions
1579:Drivers/STM32U5xx_HAL_Driver/Src/stm32u5xx_hal_dma.c ****   * @{
1580:Drivers/STM32U5xx_HAL_Driver/Src/stm32u5xx_hal_dma.c ****   */
1581:Drivers/STM32U5xx_HAL_Driver/Src/stm32u5xx_hal_dma.c **** 
1582:Drivers/STM32U5xx_HAL_Driver/Src/stm32u5xx_hal_dma.c **** /**
1583:Drivers/STM32U5xx_HAL_Driver/Src/stm32u5xx_hal_dma.c ****   * @brief  Set the DMA channel normal transfer parameters.
1584:Drivers/STM32U5xx_HAL_Driver/Src/stm32u5xx_hal_dma.c ****   * @param  hdma        : Pointer to a DMA_HandleTypeDef structure that contains the configuration 
1585:Drivers/STM32U5xx_HAL_Driver/Src/stm32u5xx_hal_dma.c ****   *                       specified DMA Channel.
1586:Drivers/STM32U5xx_HAL_Driver/Src/stm32u5xx_hal_dma.c ****   * @param  SrcAddress  : The source data address.
1587:Drivers/STM32U5xx_HAL_Driver/Src/stm32u5xx_hal_dma.c ****   * @param  DstAddress  : The destination data address.
1588:Drivers/STM32U5xx_HAL_Driver/Src/stm32u5xx_hal_dma.c ****   * @param  SrcDataSize : The length of data to be transferred from source to destination in bytes.
1589:Drivers/STM32U5xx_HAL_Driver/Src/stm32u5xx_hal_dma.c ****   * @retval None.
1590:Drivers/STM32U5xx_HAL_Driver/Src/stm32u5xx_hal_dma.c ****   */
1591:Drivers/STM32U5xx_HAL_Driver/Src/stm32u5xx_hal_dma.c **** static void DMA_SetConfig(DMA_HandleTypeDef const *const hdma,
1592:Drivers/STM32U5xx_HAL_Driver/Src/stm32u5xx_hal_dma.c ****                           uint32_t SrcAddress,
1593:Drivers/STM32U5xx_HAL_Driver/Src/stm32u5xx_hal_dma.c ****                           uint32_t DstAddress,
1594:Drivers/STM32U5xx_HAL_Driver/Src/stm32u5xx_hal_dma.c ****                           uint32_t SrcDataSize)
1595:Drivers/STM32U5xx_HAL_Driver/Src/stm32u5xx_hal_dma.c **** {
  30              		.loc 1 1595 1 view -0
  31              		.cfi_startproc
  32              		@ args = 0, pretend = 0, frame = 0
  33              		@ frame_needed = 0, uses_anonymous_args = 0
  34              		@ link register save eliminated.
  35              		.loc 1 1595 1 is_stmt 0 view .LVU1
  36 0000 30B4     		push	{r4, r5}
  37              		.cfi_def_cfa_offset 8
  38              		.cfi_offset 4, -8
  39              		.cfi_offset 5, -4
1596:Drivers/STM32U5xx_HAL_Driver/Src/stm32u5xx_hal_dma.c ****   /* Configure the DMA channel data size */
1597:Drivers/STM32U5xx_HAL_Driver/Src/stm32u5xx_hal_dma.c ****   MODIFY_REG(hdma->Instance->CBR1, DMA_CBR1_BNDT, (SrcDataSize & DMA_CBR1_BNDT));
  40              		.loc 1 1597 3 is_stmt 1 view .LVU2
  41 0002 0568     		ldr	r5, [r0]
  42 0004 AC6C     		ldr	r4, [r5, #72]
  43 0006 4FEA144C 		lsr	ip, r4, #16
  44 000a 4FEA0C4C 		lsl	ip, ip, #16
  45 000e 9BB2     		uxth	r3, r3
  46              	.LVL1:
  47              		.loc 1 1597 3 is_stmt 0 view .LVU3
  48 0010 4CEA0303 		orr	r3, ip, r3
  49 0014 AB64     		str	r3, [r5, #72]
1598:Drivers/STM32U5xx_HAL_Driver/Src/stm32u5xx_hal_dma.c **** 
1599:Drivers/STM32U5xx_HAL_Driver/Src/stm32u5xx_hal_dma.c ****   /* Clear all interrupt flags */
1600:Drivers/STM32U5xx_HAL_Driver/Src/stm32u5xx_hal_dma.c ****   __HAL_DMA_CLEAR_FLAG(hdma, DMA_FLAG_TC | DMA_FLAG_HT | DMA_FLAG_DTE | DMA_FLAG_ULE | DMA_FLAG_USE
  50              		.loc 1 1600 3 is_stmt 1 view .LVU4
  51 0016 0368     		ldr	r3, [r0]
  52 0018 4FF4FE44 		mov	r4, #32512
  53 001c DC60     		str	r4, [r3, #12]
1601:Drivers/STM32U5xx_HAL_Driver/Src/stm32u5xx_hal_dma.c ****                        DMA_FLAG_TO);
ARM GAS  C:\Users\Ya\AppData\Local\Temp\ccY6d54u.s 			page 30


1602:Drivers/STM32U5xx_HAL_Driver/Src/stm32u5xx_hal_dma.c **** 
1603:Drivers/STM32U5xx_HAL_Driver/Src/stm32u5xx_hal_dma.c ****   /* Configure DMA channel source address */
1604:Drivers/STM32U5xx_HAL_Driver/Src/stm32u5xx_hal_dma.c ****   hdma->Instance->CSAR = SrcAddress;
  54              		.loc 1 1604 3 view .LVU5
  55              		.loc 1 1604 7 is_stmt 0 view .LVU6
  56 001e 0368     		ldr	r3, [r0]
  57              		.loc 1 1604 24 view .LVU7
  58 0020 D964     		str	r1, [r3, #76]
1605:Drivers/STM32U5xx_HAL_Driver/Src/stm32u5xx_hal_dma.c **** 
1606:Drivers/STM32U5xx_HAL_Driver/Src/stm32u5xx_hal_dma.c ****   /* Configure DMA channel destination address */
1607:Drivers/STM32U5xx_HAL_Driver/Src/stm32u5xx_hal_dma.c ****   hdma->Instance->CDAR = DstAddress;
  59              		.loc 1 1607 3 is_stmt 1 view .LVU8
  60              		.loc 1 1607 7 is_stmt 0 view .LVU9
  61 0022 0368     		ldr	r3, [r0]
  62              		.loc 1 1607 24 view .LVU10
  63 0024 1A65     		str	r2, [r3, #80]
1608:Drivers/STM32U5xx_HAL_Driver/Src/stm32u5xx_hal_dma.c **** }
  64              		.loc 1 1608 1 view .LVU11
  65 0026 30BC     		pop	{r4, r5}
  66              		.cfi_restore 5
  67              		.cfi_restore 4
  68              		.cfi_def_cfa_offset 0
  69 0028 7047     		bx	lr
  70              		.cfi_endproc
  71              	.LFE355:
  73              		.section	.text.DMA_Init,"ax",%progbits
  74              		.align	1
  75              		.syntax unified
  76              		.thumb
  77              		.thumb_func
  79              	DMA_Init:
  80              	.LVL2:
  81              	.LFB356:
1609:Drivers/STM32U5xx_HAL_Driver/Src/stm32u5xx_hal_dma.c **** 
1610:Drivers/STM32U5xx_HAL_Driver/Src/stm32u5xx_hal_dma.c **** /**
1611:Drivers/STM32U5xx_HAL_Driver/Src/stm32u5xx_hal_dma.c ****   * @brief  Initialize the DMA channel in normal mode according to the specified parameters in the 
1612:Drivers/STM32U5xx_HAL_Driver/Src/stm32u5xx_hal_dma.c ****   * @param  hdma : pointer to a DMA_HandleTypeDef structure that contains the configuration informa
1613:Drivers/STM32U5xx_HAL_Driver/Src/stm32u5xx_hal_dma.c ****   *                specified DMA Channel.
1614:Drivers/STM32U5xx_HAL_Driver/Src/stm32u5xx_hal_dma.c ****   * @retval None.
1615:Drivers/STM32U5xx_HAL_Driver/Src/stm32u5xx_hal_dma.c ****   */
1616:Drivers/STM32U5xx_HAL_Driver/Src/stm32u5xx_hal_dma.c **** static void DMA_Init(DMA_HandleTypeDef const *const hdma)
1617:Drivers/STM32U5xx_HAL_Driver/Src/stm32u5xx_hal_dma.c **** {
  82              		.loc 1 1617 1 is_stmt 1 view -0
  83              		.cfi_startproc
  84              		@ args = 0, pretend = 0, frame = 0
  85              		@ frame_needed = 0, uses_anonymous_args = 0
  86              		@ link register save eliminated.
  87              		.loc 1 1617 1 is_stmt 0 view .LVU13
  88 0000 10B4     		push	{r4}
  89              		.cfi_def_cfa_offset 4
  90              		.cfi_offset 4, -4
1618:Drivers/STM32U5xx_HAL_Driver/Src/stm32u5xx_hal_dma.c ****   uint32_t tmpreg;
  91              		.loc 1 1618 3 is_stmt 1 view .LVU14
1619:Drivers/STM32U5xx_HAL_Driver/Src/stm32u5xx_hal_dma.c **** 
1620:Drivers/STM32U5xx_HAL_Driver/Src/stm32u5xx_hal_dma.c ****   /* Prepare DMA Channel Control Register (CCR) value *********************************************
1621:Drivers/STM32U5xx_HAL_Driver/Src/stm32u5xx_hal_dma.c ****   tmpreg = hdma->Init.Priority;
  92              		.loc 1 1621 3 view .LVU15
ARM GAS  C:\Users\Ya\AppData\Local\Temp\ccY6d54u.s 			page 31


  93              		.loc 1 1621 10 is_stmt 0 view .LVU16
  94 0002 016A     		ldr	r1, [r0, #32]
  95              	.LVL3:
1622:Drivers/STM32U5xx_HAL_Driver/Src/stm32u5xx_hal_dma.c **** 
1623:Drivers/STM32U5xx_HAL_Driver/Src/stm32u5xx_hal_dma.c ****   /* Write DMA Channel Control Register (CCR) */
1624:Drivers/STM32U5xx_HAL_Driver/Src/stm32u5xx_hal_dma.c ****   MODIFY_REG(hdma->Instance->CCR, DMA_CCR_PRIO | DMA_CCR_LAP | DMA_CCR_LSM, tmpreg);
  96              		.loc 1 1624 3 is_stmt 1 view .LVU17
  97 0004 0268     		ldr	r2, [r0]
  98 0006 5369     		ldr	r3, [r2, #20]
  99 0008 23F44303 		bic	r3, r3, #12779520
 100 000c 0B43     		orrs	r3, r3, r1
 101 000e 5361     		str	r3, [r2, #20]
1625:Drivers/STM32U5xx_HAL_Driver/Src/stm32u5xx_hal_dma.c **** 
1626:Drivers/STM32U5xx_HAL_Driver/Src/stm32u5xx_hal_dma.c **** 
1627:Drivers/STM32U5xx_HAL_Driver/Src/stm32u5xx_hal_dma.c ****   /* Prepare DMA Channel Transfer Register (CTR1) value *******************************************
1628:Drivers/STM32U5xx_HAL_Driver/Src/stm32u5xx_hal_dma.c ****   tmpreg = hdma->Init.DestInc | hdma->Init.DestDataWidth | hdma->Init.SrcInc | hdma->Init.SrcDataWi
 102              		.loc 1 1628 3 view .LVU18
 103              		.loc 1 1628 22 is_stmt 0 view .LVU19
 104 0010 4369     		ldr	r3, [r0, #20]
 105              		.loc 1 1628 43 view .LVU20
 106 0012 C269     		ldr	r2, [r0, #28]
 107              		.loc 1 1628 31 view .LVU21
 108 0014 1343     		orrs	r3, r3, r2
 109              		.loc 1 1628 70 view .LVU22
 110 0016 0269     		ldr	r2, [r0, #16]
 111              		.loc 1 1628 58 view .LVU23
 112 0018 1343     		orrs	r3, r3, r2
 113              		.loc 1 1628 90 view .LVU24
 114 001a 8269     		ldr	r2, [r0, #24]
 115              		.loc 1 1628 10 view .LVU25
 116 001c 1343     		orrs	r3, r3, r2
 117              	.LVL4:
1629:Drivers/STM32U5xx_HAL_Driver/Src/stm32u5xx_hal_dma.c **** 
1630:Drivers/STM32U5xx_HAL_Driver/Src/stm32u5xx_hal_dma.c ****   /* Add parameters specific to GPDMA */
1631:Drivers/STM32U5xx_HAL_Driver/Src/stm32u5xx_hal_dma.c ****   if (IS_GPDMA_INSTANCE(hdma->Instance) != 0U)
 118              		.loc 1 1631 3 is_stmt 1 view .LVU26
 119              		.loc 1 1631 7 is_stmt 0 view .LVU27
 120 001e 0168     		ldr	r1, [r0]
 121 0020 784A     		ldr	r2, .L14
 122 0022 9142     		cmp	r1, r2
 123 0024 00F08D80 		beq	.L4
 124              		.loc 1 1631 7 discriminator 2 view .LVU28
 125 0028 02F18052 		add	r2, r2, #268435456
 126 002c 9142     		cmp	r1, r2
 127 002e 00F08880 		beq	.L4
 128              		.loc 1 1631 7 discriminator 4 view .LVU29
 129 0032 02F17042 		add	r2, r2, #-268435456
 130 0036 8032     		adds	r2, r2, #128
 131 0038 9142     		cmp	r1, r2
 132 003a 00F08280 		beq	.L4
 133              		.loc 1 1631 7 discriminator 6 view .LVU30
 134 003e 02F18052 		add	r2, r2, #268435456
 135 0042 9142     		cmp	r1, r2
 136 0044 7DD0     		beq	.L4
 137              		.loc 1 1631 7 discriminator 8 view .LVU31
 138 0046 02F17042 		add	r2, r2, #-268435456
 139 004a 8032     		adds	r2, r2, #128
ARM GAS  C:\Users\Ya\AppData\Local\Temp\ccY6d54u.s 			page 32


 140 004c 9142     		cmp	r1, r2
 141 004e 78D0     		beq	.L4
 142              		.loc 1 1631 7 discriminator 10 view .LVU32
 143 0050 02F18052 		add	r2, r2, #268435456
 144 0054 9142     		cmp	r1, r2
 145 0056 74D0     		beq	.L4
 146              		.loc 1 1631 7 discriminator 12 view .LVU33
 147 0058 02F17042 		add	r2, r2, #-268435456
 148 005c 8032     		adds	r2, r2, #128
 149 005e 9142     		cmp	r1, r2
 150 0060 6FD0     		beq	.L4
 151              		.loc 1 1631 7 discriminator 14 view .LVU34
 152 0062 02F18052 		add	r2, r2, #268435456
 153 0066 9142     		cmp	r1, r2
 154 0068 6BD0     		beq	.L4
 155              		.loc 1 1631 7 discriminator 16 view .LVU35
 156 006a 02F17042 		add	r2, r2, #-268435456
 157 006e 8032     		adds	r2, r2, #128
 158 0070 9142     		cmp	r1, r2
 159 0072 66D0     		beq	.L4
 160              		.loc 1 1631 7 discriminator 18 view .LVU36
 161 0074 02F18052 		add	r2, r2, #268435456
 162 0078 9142     		cmp	r1, r2
 163 007a 62D0     		beq	.L4
 164              		.loc 1 1631 7 discriminator 20 view .LVU37
 165 007c 02F17042 		add	r2, r2, #-268435456
 166 0080 8032     		adds	r2, r2, #128
 167 0082 9142     		cmp	r1, r2
 168 0084 5DD0     		beq	.L4
 169              		.loc 1 1631 7 discriminator 22 view .LVU38
 170 0086 02F18052 		add	r2, r2, #268435456
 171 008a 9142     		cmp	r1, r2
 172 008c 59D0     		beq	.L4
 173              		.loc 1 1631 7 discriminator 24 view .LVU39
 174 008e 02F17042 		add	r2, r2, #-268435456
 175 0092 8032     		adds	r2, r2, #128
 176 0094 9142     		cmp	r1, r2
 177 0096 54D0     		beq	.L4
 178              		.loc 1 1631 7 discriminator 26 view .LVU40
 179 0098 02F18052 		add	r2, r2, #268435456
 180 009c 9142     		cmp	r1, r2
 181 009e 50D0     		beq	.L4
 182              		.loc 1 1631 7 discriminator 28 view .LVU41
 183 00a0 02F17042 		add	r2, r2, #-268435456
 184 00a4 8032     		adds	r2, r2, #128
 185 00a6 9142     		cmp	r1, r2
 186 00a8 4BD0     		beq	.L4
 187              		.loc 1 1631 7 discriminator 30 view .LVU42
 188 00aa 02F18052 		add	r2, r2, #268435456
 189 00ae 9142     		cmp	r1, r2
 190 00b0 47D0     		beq	.L4
 191              		.loc 1 1631 7 discriminator 32 view .LVU43
 192 00b2 02F17042 		add	r2, r2, #-268435456
 193 00b6 8032     		adds	r2, r2, #128
 194 00b8 9142     		cmp	r1, r2
 195 00ba 42D0     		beq	.L4
 196              		.loc 1 1631 7 discriminator 34 view .LVU44
ARM GAS  C:\Users\Ya\AppData\Local\Temp\ccY6d54u.s 			page 33


 197 00bc 02F18052 		add	r2, r2, #268435456
 198 00c0 9142     		cmp	r1, r2
 199 00c2 3ED0     		beq	.L4
 200              		.loc 1 1631 7 discriminator 36 view .LVU45
 201 00c4 02F17042 		add	r2, r2, #-268435456
 202 00c8 8032     		adds	r2, r2, #128
 203 00ca 9142     		cmp	r1, r2
 204 00cc 39D0     		beq	.L4
 205              		.loc 1 1631 7 discriminator 38 view .LVU46
 206 00ce 02F18052 		add	r2, r2, #268435456
 207 00d2 9142     		cmp	r1, r2
 208 00d4 35D0     		beq	.L4
 209              		.loc 1 1631 7 discriminator 40 view .LVU47
 210 00d6 02F17042 		add	r2, r2, #-268435456
 211 00da 8032     		adds	r2, r2, #128
 212 00dc 9142     		cmp	r1, r2
 213 00de 30D0     		beq	.L4
 214              		.loc 1 1631 7 discriminator 42 view .LVU48
 215 00e0 02F18052 		add	r2, r2, #268435456
 216 00e4 9142     		cmp	r1, r2
 217 00e6 2CD0     		beq	.L4
 218              		.loc 1 1631 7 discriminator 44 view .LVU49
 219 00e8 02F17042 		add	r2, r2, #-268435456
 220 00ec 8032     		adds	r2, r2, #128
 221 00ee 9142     		cmp	r1, r2
 222 00f0 27D0     		beq	.L4
 223              		.loc 1 1631 7 discriminator 46 view .LVU50
 224 00f2 02F18052 		add	r2, r2, #268435456
 225 00f6 9142     		cmp	r1, r2
 226 00f8 23D0     		beq	.L4
 227              		.loc 1 1631 7 discriminator 48 view .LVU51
 228 00fa 02F17042 		add	r2, r2, #-268435456
 229 00fe 8032     		adds	r2, r2, #128
 230 0100 9142     		cmp	r1, r2
 231 0102 1ED0     		beq	.L4
 232              		.loc 1 1631 7 discriminator 50 view .LVU52
 233 0104 02F18052 		add	r2, r2, #268435456
 234 0108 9142     		cmp	r1, r2
 235 010a 1AD0     		beq	.L4
 236              		.loc 1 1631 7 discriminator 52 view .LVU53
 237 010c 02F17042 		add	r2, r2, #-268435456
 238 0110 8032     		adds	r2, r2, #128
 239 0112 9142     		cmp	r1, r2
 240 0114 15D0     		beq	.L4
 241              		.loc 1 1631 7 discriminator 54 view .LVU54
 242 0116 02F18052 		add	r2, r2, #268435456
 243 011a 9142     		cmp	r1, r2
 244 011c 11D0     		beq	.L4
 245              		.loc 1 1631 7 discriminator 56 view .LVU55
 246 011e 02F17042 		add	r2, r2, #-268435456
 247 0122 8032     		adds	r2, r2, #128
 248 0124 9142     		cmp	r1, r2
 249 0126 0CD0     		beq	.L4
 250              		.loc 1 1631 7 discriminator 58 view .LVU56
 251 0128 02F18052 		add	r2, r2, #268435456
 252 012c 9142     		cmp	r1, r2
 253 012e 08D0     		beq	.L4
ARM GAS  C:\Users\Ya\AppData\Local\Temp\ccY6d54u.s 			page 34


 254              		.loc 1 1631 7 discriminator 60 view .LVU57
 255 0130 02F17042 		add	r2, r2, #-268435456
 256 0134 8032     		adds	r2, r2, #128
 257 0136 9142     		cmp	r1, r2
 258 0138 03D0     		beq	.L4
 259              		.loc 1 1631 7 discriminator 62 view .LVU58
 260 013a 02F18052 		add	r2, r2, #268435456
 261 013e 9142     		cmp	r1, r2
 262 0140 0FD1     		bne	.L5
 263              	.L4:
1632:Drivers/STM32U5xx_HAL_Driver/Src/stm32u5xx_hal_dma.c ****   {
1633:Drivers/STM32U5xx_HAL_Driver/Src/stm32u5xx_hal_dma.c ****     tmpreg |= (hdma->Init.TransferAllocatedPort                                             |
 264              		.loc 1 1633 5 is_stmt 1 view .LVU59
1634:Drivers/STM32U5xx_HAL_Driver/Src/stm32u5xx_hal_dma.c ****                (((hdma->Init.DestBurstLength - 1U) << DMA_CTR1_DBL_1_Pos) & DMA_CTR1_DBL_1) |
 265              		.loc 1 1634 29 is_stmt 0 view .LVU60
 266 0142 826A     		ldr	r2, [r0, #40]
 267              		.loc 1 1634 46 view .LVU61
 268 0144 013A     		subs	r2, r2, #1
 269              		.loc 1 1634 52 view .LVU62
 270 0146 1205     		lsls	r2, r2, #20
 271              		.loc 1 1634 75 view .LVU63
 272 0148 02F07C72 		and	r2, r2, #66060288
1633:Drivers/STM32U5xx_HAL_Driver/Src/stm32u5xx_hal_dma.c ****                (((hdma->Init.DestBurstLength - 1U) << DMA_CTR1_DBL_1_Pos) & DMA_CTR1_DBL_1) |
 273              		.loc 1 1633 93 view .LVU64
 274 014c C46A     		ldr	r4, [r0, #44]
 275 014e 44EA020C 		orr	ip, r4, r2
1635:Drivers/STM32U5xx_HAL_Driver/Src/stm32u5xx_hal_dma.c ****                (((hdma->Init.SrcBurstLength - 1U) << DMA_CTR1_SBL_1_Pos) & DMA_CTR1_SBL_1));
 276              		.loc 1 1635 29 view .LVU65
 277 0152 426A     		ldr	r2, [r0, #36]
 278              		.loc 1 1635 45 view .LVU66
 279 0154 013A     		subs	r2, r2, #1
 280              		.loc 1 1635 51 view .LVU67
 281 0156 1201     		lsls	r2, r2, #4
 282              		.loc 1 1635 74 view .LVU68
 283 0158 02F47C72 		and	r2, r2, #1008
1634:Drivers/STM32U5xx_HAL_Driver/Src/stm32u5xx_hal_dma.c ****                (((hdma->Init.DestBurstLength - 1U) << DMA_CTR1_DBL_1_Pos) & DMA_CTR1_DBL_1) |
 284              		.loc 1 1634 93 view .LVU69
 285 015c 4CEA0202 		orr	r2, ip, r2
1633:Drivers/STM32U5xx_HAL_Driver/Src/stm32u5xx_hal_dma.c ****                (((hdma->Init.DestBurstLength - 1U) << DMA_CTR1_DBL_1_Pos) & DMA_CTR1_DBL_1) |
 286              		.loc 1 1633 12 view .LVU70
 287 0160 1343     		orrs	r3, r3, r2
 288              	.LVL5:
 289              	.L5:
1636:Drivers/STM32U5xx_HAL_Driver/Src/stm32u5xx_hal_dma.c ****   }
1637:Drivers/STM32U5xx_HAL_Driver/Src/stm32u5xx_hal_dma.c **** 
1638:Drivers/STM32U5xx_HAL_Driver/Src/stm32u5xx_hal_dma.c ****   /* Write DMA Channel Transfer Register 1 (CTR1) */
1639:Drivers/STM32U5xx_HAL_Driver/Src/stm32u5xx_hal_dma.c ****   MODIFY_REG(hdma->Instance->CTR1, ~(DMA_CTR1_SSEC | DMA_CTR1_DSEC), tmpreg);
 290              		.loc 1 1639 3 is_stmt 1 view .LVU71
 291 0162 0A6C     		ldr	r2, [r1, #64]
 292 0164 02F08022 		and	r2, r2, #-2147450880
 293 0168 1343     		orrs	r3, r3, r2
 294              	.LVL6:
 295              		.loc 1 1639 3 is_stmt 0 view .LVU72
 296 016a 0B64     		str	r3, [r1, #64]
1640:Drivers/STM32U5xx_HAL_Driver/Src/stm32u5xx_hal_dma.c **** 
1641:Drivers/STM32U5xx_HAL_Driver/Src/stm32u5xx_hal_dma.c ****   /* Prepare DMA Channel Transfer Register 2 (CTR2) value *****************************************
1642:Drivers/STM32U5xx_HAL_Driver/Src/stm32u5xx_hal_dma.c ****   tmpreg = hdma->Init.BlkHWRequest | (hdma->Init.Request & DMA_CTR2_REQSEL) | hdma->Init.TransferEv
ARM GAS  C:\Users\Ya\AppData\Local\Temp\ccY6d54u.s 			page 35


 297              		.loc 1 1642 3 is_stmt 1 view .LVU73
 298              		.loc 1 1642 22 is_stmt 0 view .LVU74
 299 016c 8368     		ldr	r3, [r0, #8]
 300              		.loc 1 1642 49 view .LVU75
 301 016e 4268     		ldr	r2, [r0, #4]
 302              		.loc 1 1642 58 view .LVU76
 303 0170 02F07F02 		and	r2, r2, #127
 304              		.loc 1 1642 36 view .LVU77
 305 0174 1343     		orrs	r3, r3, r2
 306              		.loc 1 1642 89 view .LVU78
 307 0176 026B     		ldr	r2, [r0, #48]
 308              		.loc 1 1642 10 view .LVU79
 309 0178 1343     		orrs	r3, r3, r2
 310              	.LVL7:
1643:Drivers/STM32U5xx_HAL_Driver/Src/stm32u5xx_hal_dma.c **** 
1644:Drivers/STM32U5xx_HAL_Driver/Src/stm32u5xx_hal_dma.c ****   /* Memory to Peripheral Transfer */
1645:Drivers/STM32U5xx_HAL_Driver/Src/stm32u5xx_hal_dma.c ****   if ((hdma->Init.Direction) == DMA_MEMORY_TO_PERIPH)
 311              		.loc 1 1645 3 is_stmt 1 view .LVU80
 312              		.loc 1 1645 18 is_stmt 0 view .LVU81
 313 017a C268     		ldr	r2, [r0, #12]
 314              		.loc 1 1645 6 view .LVU82
 315 017c B2F5806F 		cmp	r2, #1024
 316 0180 44D0     		beq	.L12
1646:Drivers/STM32U5xx_HAL_Driver/Src/stm32u5xx_hal_dma.c ****   {
1647:Drivers/STM32U5xx_HAL_Driver/Src/stm32u5xx_hal_dma.c ****     if (IS_GPDMA_INSTANCE(hdma->Instance) != 0U)
1648:Drivers/STM32U5xx_HAL_Driver/Src/stm32u5xx_hal_dma.c ****     {
1649:Drivers/STM32U5xx_HAL_Driver/Src/stm32u5xx_hal_dma.c ****       tmpreg |= DMA_CTR2_DREQ;
1650:Drivers/STM32U5xx_HAL_Driver/Src/stm32u5xx_hal_dma.c ****     }
1651:Drivers/STM32U5xx_HAL_Driver/Src/stm32u5xx_hal_dma.c ****   }
1652:Drivers/STM32U5xx_HAL_Driver/Src/stm32u5xx_hal_dma.c ****   /* Memory to Memory Transfer */
1653:Drivers/STM32U5xx_HAL_Driver/Src/stm32u5xx_hal_dma.c ****   else if ((hdma->Init.Direction) == DMA_MEMORY_TO_MEMORY)
 317              		.loc 1 1653 8 is_stmt 1 view .LVU83
 318              		.loc 1 1653 11 is_stmt 0 view .LVU84
 319 0182 B2F5007F 		cmp	r2, #512
 320 0186 00F0D780 		beq	.L13
 321              	.L8:
1654:Drivers/STM32U5xx_HAL_Driver/Src/stm32u5xx_hal_dma.c ****   {
1655:Drivers/STM32U5xx_HAL_Driver/Src/stm32u5xx_hal_dma.c ****     tmpreg |= DMA_CTR2_SWREQ;
1656:Drivers/STM32U5xx_HAL_Driver/Src/stm32u5xx_hal_dma.c ****   }
1657:Drivers/STM32U5xx_HAL_Driver/Src/stm32u5xx_hal_dma.c ****   else
1658:Drivers/STM32U5xx_HAL_Driver/Src/stm32u5xx_hal_dma.c ****   {
1659:Drivers/STM32U5xx_HAL_Driver/Src/stm32u5xx_hal_dma.c ****     /* Nothing to do */
1660:Drivers/STM32U5xx_HAL_Driver/Src/stm32u5xx_hal_dma.c ****   }
 322              		.loc 1 1660 3 is_stmt 1 view .LVU85
1661:Drivers/STM32U5xx_HAL_Driver/Src/stm32u5xx_hal_dma.c **** 
1662:Drivers/STM32U5xx_HAL_Driver/Src/stm32u5xx_hal_dma.c ****   /* Write DMA Channel Transfer Register 2 (CTR2) */
1663:Drivers/STM32U5xx_HAL_Driver/Src/stm32u5xx_hal_dma.c ****   MODIFY_REG(hdma->Instance->CTR2, (DMA_CTR2_TCEM  | DMA_CTR2_TRIGPOL | DMA_CTR2_TRIGSEL | DMA_CTR2
 323              		.loc 1 1663 3 view .LVU86
 324 018a 0168     		ldr	r1, [r0]
 325 018c 4A6C     		ldr	r2, [r1, #68]
 326 018e 22F04342 		bic	r2, r2, #-1023410176
 327 0192 22F47F12 		bic	r2, r2, #4177920
 328 0196 22F46762 		bic	r2, r2, #3696
 329 019a 22F00F02 		bic	r2, r2, #15
 330 019e 1343     		orrs	r3, r3, r2
 331              	.LVL8:
 332              		.loc 1 1663 3 is_stmt 0 view .LVU87
ARM GAS  C:\Users\Ya\AppData\Local\Temp\ccY6d54u.s 			page 36


 333 01a0 4B64     		str	r3, [r1, #68]
1664:Drivers/STM32U5xx_HAL_Driver/Src/stm32u5xx_hal_dma.c ****                                     DMA_CTR2_BREQ  | DMA_CTR2_DREQ    | DMA_CTR2_SWREQ   | DMA_CTR2
1665:Drivers/STM32U5xx_HAL_Driver/Src/stm32u5xx_hal_dma.c **** 
1666:Drivers/STM32U5xx_HAL_Driver/Src/stm32u5xx_hal_dma.c **** 
1667:Drivers/STM32U5xx_HAL_Driver/Src/stm32u5xx_hal_dma.c ****   /* Write DMA Channel Block Register 1 (CBR1) ****************************************************
1668:Drivers/STM32U5xx_HAL_Driver/Src/stm32u5xx_hal_dma.c ****   WRITE_REG(hdma->Instance->CBR1, 0U);
 334              		.loc 1 1668 3 is_stmt 1 view .LVU88
 335 01a2 0368     		ldr	r3, [r0]
 336 01a4 0022     		movs	r2, #0
 337 01a6 9A64     		str	r2, [r3, #72]
1669:Drivers/STM32U5xx_HAL_Driver/Src/stm32u5xx_hal_dma.c **** 
1670:Drivers/STM32U5xx_HAL_Driver/Src/stm32u5xx_hal_dma.c **** 
1671:Drivers/STM32U5xx_HAL_Driver/Src/stm32u5xx_hal_dma.c ****   /* If 2D Addressing is supported by current channel */
1672:Drivers/STM32U5xx_HAL_Driver/Src/stm32u5xx_hal_dma.c ****   if (IS_DMA_2D_ADDRESSING_INSTANCE(hdma->Instance) != 0U)
 338              		.loc 1 1672 3 view .LVU89
 339              		.loc 1 1672 7 is_stmt 0 view .LVU90
 340 01a8 0368     		ldr	r3, [r0]
 341 01aa 174A     		ldr	r2, .L14+4
 342 01ac 9342     		cmp	r3, r2
 343 01ae 1ED0     		beq	.L9
 344              		.loc 1 1672 7 discriminator 2 view .LVU91
 345 01b0 02F18052 		add	r2, r2, #268435456
 346 01b4 9342     		cmp	r3, r2
 347 01b6 1AD0     		beq	.L9
 348              		.loc 1 1672 7 discriminator 4 view .LVU92
 349 01b8 02F17042 		add	r2, r2, #-268435456
 350 01bc 8032     		adds	r2, r2, #128
 351 01be 9342     		cmp	r3, r2
 352 01c0 15D0     		beq	.L9
 353              		.loc 1 1672 7 discriminator 6 view .LVU93
 354 01c2 02F18052 		add	r2, r2, #268435456
 355 01c6 9342     		cmp	r3, r2
 356 01c8 11D0     		beq	.L9
 357              		.loc 1 1672 7 discriminator 8 view .LVU94
 358 01ca 02F17042 		add	r2, r2, #-268435456
 359 01ce 8032     		adds	r2, r2, #128
 360 01d0 9342     		cmp	r3, r2
 361 01d2 0CD0     		beq	.L9
 362              		.loc 1 1672 7 discriminator 10 view .LVU95
 363 01d4 02F18052 		add	r2, r2, #268435456
 364 01d8 9342     		cmp	r3, r2
 365 01da 08D0     		beq	.L9
 366              		.loc 1 1672 7 discriminator 12 view .LVU96
 367 01dc 02F17042 		add	r2, r2, #-268435456
 368 01e0 8032     		adds	r2, r2, #128
 369 01e2 9342     		cmp	r3, r2
 370 01e4 03D0     		beq	.L9
 371              		.loc 1 1672 7 discriminator 14 view .LVU97
 372 01e6 02F18052 		add	r2, r2, #268435456
 373 01ea 9342     		cmp	r3, r2
 374 01ec 03D1     		bne	.L10
 375              	.L9:
1673:Drivers/STM32U5xx_HAL_Driver/Src/stm32u5xx_hal_dma.c ****   {
1674:Drivers/STM32U5xx_HAL_Driver/Src/stm32u5xx_hal_dma.c ****     /* Write DMA Channel Transfer Register 3 (CTR3) ***********************************************
1675:Drivers/STM32U5xx_HAL_Driver/Src/stm32u5xx_hal_dma.c ****     WRITE_REG(hdma->Instance->CTR3, 0U);
 376              		.loc 1 1675 5 is_stmt 1 view .LVU98
 377 01ee 0022     		movs	r2, #0
ARM GAS  C:\Users\Ya\AppData\Local\Temp\ccY6d54u.s 			page 37


 378 01f0 5A65     		str	r2, [r3, #84]
1676:Drivers/STM32U5xx_HAL_Driver/Src/stm32u5xx_hal_dma.c **** 
1677:Drivers/STM32U5xx_HAL_Driver/Src/stm32u5xx_hal_dma.c **** 
1678:Drivers/STM32U5xx_HAL_Driver/Src/stm32u5xx_hal_dma.c ****     /* Write DMA Channel Block Register 2 (CBR2) **************************************************
1679:Drivers/STM32U5xx_HAL_Driver/Src/stm32u5xx_hal_dma.c ****     WRITE_REG(hdma->Instance->CBR2, 0U);
 379              		.loc 1 1679 5 view .LVU99
 380 01f2 0368     		ldr	r3, [r0]
 381 01f4 9A65     		str	r2, [r3, #88]
 382              	.L10:
1680:Drivers/STM32U5xx_HAL_Driver/Src/stm32u5xx_hal_dma.c ****   }
1681:Drivers/STM32U5xx_HAL_Driver/Src/stm32u5xx_hal_dma.c **** 
1682:Drivers/STM32U5xx_HAL_Driver/Src/stm32u5xx_hal_dma.c **** 
1683:Drivers/STM32U5xx_HAL_Driver/Src/stm32u5xx_hal_dma.c ****   /* Write DMA Channel linked-list address register (CLLR) ****************************************
1684:Drivers/STM32U5xx_HAL_Driver/Src/stm32u5xx_hal_dma.c ****   WRITE_REG(hdma->Instance->CLLR, 0U);
 383              		.loc 1 1684 3 view .LVU100
 384 01f6 0368     		ldr	r3, [r0]
 385 01f8 0022     		movs	r2, #0
 386 01fa DA67     		str	r2, [r3, #124]
1685:Drivers/STM32U5xx_HAL_Driver/Src/stm32u5xx_hal_dma.c **** }
 387              		.loc 1 1685 1 is_stmt 0 view .LVU101
 388 01fc 5DF8044B 		ldr	r4, [sp], #4
 389              		.cfi_remember_state
 390              		.cfi_restore 4
 391              		.cfi_def_cfa_offset 0
 392 0200 7047     		bx	lr
 393              	.L15:
 394 0202 00BF     		.align	2
 395              	.L14:
 396 0204 50000240 		.word	1073872976
 397 0208 50060240 		.word	1073874512
 398              	.LVL9:
 399              	.L12:
 400              		.cfi_restore_state
1647:Drivers/STM32U5xx_HAL_Driver/Src/stm32u5xx_hal_dma.c ****     {
 401              		.loc 1 1647 5 is_stmt 1 view .LVU102
1647:Drivers/STM32U5xx_HAL_Driver/Src/stm32u5xx_hal_dma.c ****     {
 402              		.loc 1 1647 9 is_stmt 0 view .LVU103
 403 020c 0268     		ldr	r2, [r0]
 404 020e 4C49     		ldr	r1, .L16
 405 0210 8A42     		cmp	r2, r1
 406 0212 00F08E80 		beq	.L7
1647:Drivers/STM32U5xx_HAL_Driver/Src/stm32u5xx_hal_dma.c ****     {
 407              		.loc 1 1647 9 discriminator 2 view .LVU104
 408 0216 01F18051 		add	r1, r1, #268435456
 409 021a 8A42     		cmp	r2, r1
 410 021c 00F08980 		beq	.L7
1647:Drivers/STM32U5xx_HAL_Driver/Src/stm32u5xx_hal_dma.c ****     {
 411              		.loc 1 1647 9 discriminator 4 view .LVU105
 412 0220 01F17041 		add	r1, r1, #-268435456
 413 0224 8031     		adds	r1, r1, #128
 414 0226 8A42     		cmp	r2, r1
 415 0228 00F08380 		beq	.L7
1647:Drivers/STM32U5xx_HAL_Driver/Src/stm32u5xx_hal_dma.c ****     {
 416              		.loc 1 1647 9 discriminator 6 view .LVU106
 417 022c 01F18051 		add	r1, r1, #268435456
 418 0230 8A42     		cmp	r2, r1
 419 0232 7ED0     		beq	.L7
ARM GAS  C:\Users\Ya\AppData\Local\Temp\ccY6d54u.s 			page 38


1647:Drivers/STM32U5xx_HAL_Driver/Src/stm32u5xx_hal_dma.c ****     {
 420              		.loc 1 1647 9 discriminator 8 view .LVU107
 421 0234 01F17041 		add	r1, r1, #-268435456
 422 0238 8031     		adds	r1, r1, #128
 423 023a 8A42     		cmp	r2, r1
 424 023c 79D0     		beq	.L7
1647:Drivers/STM32U5xx_HAL_Driver/Src/stm32u5xx_hal_dma.c ****     {
 425              		.loc 1 1647 9 discriminator 10 view .LVU108
 426 023e 01F18051 		add	r1, r1, #268435456
 427 0242 8A42     		cmp	r2, r1
 428 0244 75D0     		beq	.L7
1647:Drivers/STM32U5xx_HAL_Driver/Src/stm32u5xx_hal_dma.c ****     {
 429              		.loc 1 1647 9 discriminator 12 view .LVU109
 430 0246 01F17041 		add	r1, r1, #-268435456
 431 024a 8031     		adds	r1, r1, #128
 432 024c 8A42     		cmp	r2, r1
 433 024e 70D0     		beq	.L7
1647:Drivers/STM32U5xx_HAL_Driver/Src/stm32u5xx_hal_dma.c ****     {
 434              		.loc 1 1647 9 discriminator 14 view .LVU110
 435 0250 01F18051 		add	r1, r1, #268435456
 436 0254 8A42     		cmp	r2, r1
 437 0256 6CD0     		beq	.L7
1647:Drivers/STM32U5xx_HAL_Driver/Src/stm32u5xx_hal_dma.c ****     {
 438              		.loc 1 1647 9 discriminator 16 view .LVU111
 439 0258 01F17041 		add	r1, r1, #-268435456
 440 025c 8031     		adds	r1, r1, #128
 441 025e 8A42     		cmp	r2, r1
 442 0260 67D0     		beq	.L7
1647:Drivers/STM32U5xx_HAL_Driver/Src/stm32u5xx_hal_dma.c ****     {
 443              		.loc 1 1647 9 discriminator 18 view .LVU112
 444 0262 01F18051 		add	r1, r1, #268435456
 445 0266 8A42     		cmp	r2, r1
 446 0268 63D0     		beq	.L7
1647:Drivers/STM32U5xx_HAL_Driver/Src/stm32u5xx_hal_dma.c ****     {
 447              		.loc 1 1647 9 discriminator 20 view .LVU113
 448 026a 01F17041 		add	r1, r1, #-268435456
 449 026e 8031     		adds	r1, r1, #128
 450 0270 8A42     		cmp	r2, r1
 451 0272 5ED0     		beq	.L7
1647:Drivers/STM32U5xx_HAL_Driver/Src/stm32u5xx_hal_dma.c ****     {
 452              		.loc 1 1647 9 discriminator 22 view .LVU114
 453 0274 01F18051 		add	r1, r1, #268435456
 454 0278 8A42     		cmp	r2, r1
 455 027a 5AD0     		beq	.L7
1647:Drivers/STM32U5xx_HAL_Driver/Src/stm32u5xx_hal_dma.c ****     {
 456              		.loc 1 1647 9 discriminator 24 view .LVU115
 457 027c 01F17041 		add	r1, r1, #-268435456
 458 0280 8031     		adds	r1, r1, #128
 459 0282 8A42     		cmp	r2, r1
 460 0284 55D0     		beq	.L7
1647:Drivers/STM32U5xx_HAL_Driver/Src/stm32u5xx_hal_dma.c ****     {
 461              		.loc 1 1647 9 discriminator 26 view .LVU116
 462 0286 01F18051 		add	r1, r1, #268435456
 463 028a 8A42     		cmp	r2, r1
 464 028c 51D0     		beq	.L7
1647:Drivers/STM32U5xx_HAL_Driver/Src/stm32u5xx_hal_dma.c ****     {
 465              		.loc 1 1647 9 discriminator 28 view .LVU117
ARM GAS  C:\Users\Ya\AppData\Local\Temp\ccY6d54u.s 			page 39


 466 028e 01F17041 		add	r1, r1, #-268435456
 467 0292 8031     		adds	r1, r1, #128
 468 0294 8A42     		cmp	r2, r1
 469 0296 4CD0     		beq	.L7
1647:Drivers/STM32U5xx_HAL_Driver/Src/stm32u5xx_hal_dma.c ****     {
 470              		.loc 1 1647 9 discriminator 30 view .LVU118
 471 0298 01F18051 		add	r1, r1, #268435456
 472 029c 8A42     		cmp	r2, r1
 473 029e 48D0     		beq	.L7
1647:Drivers/STM32U5xx_HAL_Driver/Src/stm32u5xx_hal_dma.c ****     {
 474              		.loc 1 1647 9 discriminator 32 view .LVU119
 475 02a0 01F17041 		add	r1, r1, #-268435456
 476 02a4 8031     		adds	r1, r1, #128
 477 02a6 8A42     		cmp	r2, r1
 478 02a8 43D0     		beq	.L7
1647:Drivers/STM32U5xx_HAL_Driver/Src/stm32u5xx_hal_dma.c ****     {
 479              		.loc 1 1647 9 discriminator 34 view .LVU120
 480 02aa 01F18051 		add	r1, r1, #268435456
 481 02ae 8A42     		cmp	r2, r1
 482 02b0 3FD0     		beq	.L7
1647:Drivers/STM32U5xx_HAL_Driver/Src/stm32u5xx_hal_dma.c ****     {
 483              		.loc 1 1647 9 discriminator 36 view .LVU121
 484 02b2 01F17041 		add	r1, r1, #-268435456
 485 02b6 8031     		adds	r1, r1, #128
 486 02b8 8A42     		cmp	r2, r1
 487 02ba 3AD0     		beq	.L7
1647:Drivers/STM32U5xx_HAL_Driver/Src/stm32u5xx_hal_dma.c ****     {
 488              		.loc 1 1647 9 discriminator 38 view .LVU122
 489 02bc 01F18051 		add	r1, r1, #268435456
 490 02c0 8A42     		cmp	r2, r1
 491 02c2 36D0     		beq	.L7
1647:Drivers/STM32U5xx_HAL_Driver/Src/stm32u5xx_hal_dma.c ****     {
 492              		.loc 1 1647 9 discriminator 40 view .LVU123
 493 02c4 01F17041 		add	r1, r1, #-268435456
 494 02c8 8031     		adds	r1, r1, #128
 495 02ca 8A42     		cmp	r2, r1
 496 02cc 31D0     		beq	.L7
1647:Drivers/STM32U5xx_HAL_Driver/Src/stm32u5xx_hal_dma.c ****     {
 497              		.loc 1 1647 9 discriminator 42 view .LVU124
 498 02ce 01F18051 		add	r1, r1, #268435456
 499 02d2 8A42     		cmp	r2, r1
 500 02d4 2DD0     		beq	.L7
1647:Drivers/STM32U5xx_HAL_Driver/Src/stm32u5xx_hal_dma.c ****     {
 501              		.loc 1 1647 9 discriminator 44 view .LVU125
 502 02d6 01F17041 		add	r1, r1, #-268435456
 503 02da 8031     		adds	r1, r1, #128
 504 02dc 8A42     		cmp	r2, r1
 505 02de 28D0     		beq	.L7
1647:Drivers/STM32U5xx_HAL_Driver/Src/stm32u5xx_hal_dma.c ****     {
 506              		.loc 1 1647 9 discriminator 46 view .LVU126
 507 02e0 01F18051 		add	r1, r1, #268435456
 508 02e4 8A42     		cmp	r2, r1
 509 02e6 24D0     		beq	.L7
1647:Drivers/STM32U5xx_HAL_Driver/Src/stm32u5xx_hal_dma.c ****     {
 510              		.loc 1 1647 9 discriminator 48 view .LVU127
 511 02e8 01F17041 		add	r1, r1, #-268435456
 512 02ec 8031     		adds	r1, r1, #128
ARM GAS  C:\Users\Ya\AppData\Local\Temp\ccY6d54u.s 			page 40


 513 02ee 8A42     		cmp	r2, r1
 514 02f0 1FD0     		beq	.L7
1647:Drivers/STM32U5xx_HAL_Driver/Src/stm32u5xx_hal_dma.c ****     {
 515              		.loc 1 1647 9 discriminator 50 view .LVU128
 516 02f2 01F18051 		add	r1, r1, #268435456
 517 02f6 8A42     		cmp	r2, r1
 518 02f8 1BD0     		beq	.L7
1647:Drivers/STM32U5xx_HAL_Driver/Src/stm32u5xx_hal_dma.c ****     {
 519              		.loc 1 1647 9 discriminator 52 view .LVU129
 520 02fa 01F17041 		add	r1, r1, #-268435456
 521 02fe 8031     		adds	r1, r1, #128
 522 0300 8A42     		cmp	r2, r1
 523 0302 16D0     		beq	.L7
1647:Drivers/STM32U5xx_HAL_Driver/Src/stm32u5xx_hal_dma.c ****     {
 524              		.loc 1 1647 9 discriminator 54 view .LVU130
 525 0304 01F18051 		add	r1, r1, #268435456
 526 0308 8A42     		cmp	r2, r1
 527 030a 12D0     		beq	.L7
1647:Drivers/STM32U5xx_HAL_Driver/Src/stm32u5xx_hal_dma.c ****     {
 528              		.loc 1 1647 9 discriminator 56 view .LVU131
 529 030c 01F17041 		add	r1, r1, #-268435456
 530 0310 8031     		adds	r1, r1, #128
 531 0312 8A42     		cmp	r2, r1
 532 0314 0DD0     		beq	.L7
1647:Drivers/STM32U5xx_HAL_Driver/Src/stm32u5xx_hal_dma.c ****     {
 533              		.loc 1 1647 9 discriminator 58 view .LVU132
 534 0316 01F18051 		add	r1, r1, #268435456
 535 031a 8A42     		cmp	r2, r1
 536 031c 09D0     		beq	.L7
1647:Drivers/STM32U5xx_HAL_Driver/Src/stm32u5xx_hal_dma.c ****     {
 537              		.loc 1 1647 9 discriminator 60 view .LVU133
 538 031e 01F17041 		add	r1, r1, #-268435456
 539 0322 8031     		adds	r1, r1, #128
 540 0324 8A42     		cmp	r2, r1
 541 0326 04D0     		beq	.L7
1647:Drivers/STM32U5xx_HAL_Driver/Src/stm32u5xx_hal_dma.c ****     {
 542              		.loc 1 1647 9 discriminator 62 view .LVU134
 543 0328 01F18051 		add	r1, r1, #268435456
 544 032c 8A42     		cmp	r2, r1
 545 032e 7FF42CAF 		bne	.L8
 546              	.L7:
1649:Drivers/STM32U5xx_HAL_Driver/Src/stm32u5xx_hal_dma.c ****     }
 547              		.loc 1 1649 7 is_stmt 1 view .LVU135
1649:Drivers/STM32U5xx_HAL_Driver/Src/stm32u5xx_hal_dma.c ****     }
 548              		.loc 1 1649 14 is_stmt 0 view .LVU136
 549 0332 43F48063 		orr	r3, r3, #1024
 550              	.LVL10:
1649:Drivers/STM32U5xx_HAL_Driver/Src/stm32u5xx_hal_dma.c ****     }
 551              		.loc 1 1649 14 view .LVU137
 552 0336 28E7     		b	.L8
 553              	.L13:
1655:Drivers/STM32U5xx_HAL_Driver/Src/stm32u5xx_hal_dma.c ****   }
 554              		.loc 1 1655 5 is_stmt 1 view .LVU138
1655:Drivers/STM32U5xx_HAL_Driver/Src/stm32u5xx_hal_dma.c ****   }
 555              		.loc 1 1655 12 is_stmt 0 view .LVU139
 556 0338 43F40073 		orr	r3, r3, #512
 557              	.LVL11:
ARM GAS  C:\Users\Ya\AppData\Local\Temp\ccY6d54u.s 			page 41


1655:Drivers/STM32U5xx_HAL_Driver/Src/stm32u5xx_hal_dma.c ****   }
 558              		.loc 1 1655 12 view .LVU140
 559 033c 25E7     		b	.L8
 560              	.L17:
 561 033e 00BF     		.align	2
 562              	.L16:
 563 0340 50000240 		.word	1073872976
 564              		.cfi_endproc
 565              	.LFE356:
 567              		.section	.text.HAL_DMA_Init,"ax",%progbits
 568              		.align	1
 569              		.global	HAL_DMA_Init
 570              		.syntax unified
 571              		.thumb
 572              		.thumb_func
 574              	HAL_DMA_Init:
 575              	.LVL12:
 576              	.LFB340:
 239:Drivers/STM32U5xx_HAL_Driver/Src/stm32u5xx_hal_dma.c ****   /* Get tick number */
 577              		.loc 1 239 1 is_stmt 1 view -0
 578              		.cfi_startproc
 579              		@ args = 0, pretend = 0, frame = 0
 580              		@ frame_needed = 0, uses_anonymous_args = 0
 239:Drivers/STM32U5xx_HAL_Driver/Src/stm32u5xx_hal_dma.c ****   /* Get tick number */
 581              		.loc 1 239 1 is_stmt 0 view .LVU142
 582 0000 38B5     		push	{r3, r4, r5, lr}
 583              		.cfi_def_cfa_offset 16
 584              		.cfi_offset 3, -16
 585              		.cfi_offset 4, -12
 586              		.cfi_offset 5, -8
 587              		.cfi_offset 14, -4
 588 0002 0446     		mov	r4, r0
 241:Drivers/STM32U5xx_HAL_Driver/Src/stm32u5xx_hal_dma.c **** 
 589              		.loc 1 241 3 is_stmt 1 view .LVU143
 241:Drivers/STM32U5xx_HAL_Driver/Src/stm32u5xx_hal_dma.c **** 
 590              		.loc 1 241 24 is_stmt 0 view .LVU144
 591 0004 FFF7FEFF 		bl	HAL_GetTick
 592              	.LVL13:
 244:Drivers/STM32U5xx_HAL_Driver/Src/stm32u5xx_hal_dma.c ****   {
 593              		.loc 1 244 3 is_stmt 1 view .LVU145
 244:Drivers/STM32U5xx_HAL_Driver/Src/stm32u5xx_hal_dma.c ****   {
 594              		.loc 1 244 6 is_stmt 0 view .LVU146
 595 0008 3CB3     		cbz	r4, .L22
 596 000a 0546     		mov	r5, r0
 250:Drivers/STM32U5xx_HAL_Driver/Src/stm32u5xx_hal_dma.c ****   assert_param(IS_DMA_DIRECTION(hdma->Init.Direction));
 597              		.loc 1 250 3 is_stmt 1 view .LVU147
 251:Drivers/STM32U5xx_HAL_Driver/Src/stm32u5xx_hal_dma.c ****   if ((hdma->Init.Direction == DMA_MEMORY_TO_PERIPH) || (hdma->Init.Direction == DMA_MEMORY_TO_MEMO
 598              		.loc 1 251 3 view .LVU148
 252:Drivers/STM32U5xx_HAL_Driver/Src/stm32u5xx_hal_dma.c ****   {
 599              		.loc 1 252 3 view .LVU149
 254:Drivers/STM32U5xx_HAL_Driver/Src/stm32u5xx_hal_dma.c ****   }
 600              		.loc 1 254 5 view .LVU150
 256:Drivers/STM32U5xx_HAL_Driver/Src/stm32u5xx_hal_dma.c ****   assert_param(IS_DMA_SOURCE_INC(hdma->Init.SrcInc));
 601              		.loc 1 256 3 view .LVU151
 257:Drivers/STM32U5xx_HAL_Driver/Src/stm32u5xx_hal_dma.c ****   assert_param(IS_DMA_DESTINATION_INC(hdma->Init.DestInc));
 602              		.loc 1 257 3 view .LVU152
 258:Drivers/STM32U5xx_HAL_Driver/Src/stm32u5xx_hal_dma.c ****   assert_param(IS_DMA_SOURCE_DATA_WIDTH(hdma->Init.SrcDataWidth));
ARM GAS  C:\Users\Ya\AppData\Local\Temp\ccY6d54u.s 			page 42


 603              		.loc 1 258 3 view .LVU153
 259:Drivers/STM32U5xx_HAL_Driver/Src/stm32u5xx_hal_dma.c ****   assert_param(IS_DMA_DESTINATION_DATA_WIDTH(hdma->Init.DestDataWidth));
 604              		.loc 1 259 3 view .LVU154
 260:Drivers/STM32U5xx_HAL_Driver/Src/stm32u5xx_hal_dma.c ****   assert_param(IS_DMA_PRIORITY(hdma->Init.Priority));
 605              		.loc 1 260 3 view .LVU155
 261:Drivers/STM32U5xx_HAL_Driver/Src/stm32u5xx_hal_dma.c ****   assert_param(IS_DMA_TCEM_EVENT_MODE(hdma->Init.TransferEventMode));
 606              		.loc 1 261 3 view .LVU156
 262:Drivers/STM32U5xx_HAL_Driver/Src/stm32u5xx_hal_dma.c ****   assert_param(IS_DMA_MODE(hdma->Init.Mode));
 607              		.loc 1 262 3 view .LVU157
 263:Drivers/STM32U5xx_HAL_Driver/Src/stm32u5xx_hal_dma.c ****   /* Check DMA channel instance */
 608              		.loc 1 263 3 view .LVU158
 265:Drivers/STM32U5xx_HAL_Driver/Src/stm32u5xx_hal_dma.c ****   {
 609              		.loc 1 265 3 view .LVU159
 265:Drivers/STM32U5xx_HAL_Driver/Src/stm32u5xx_hal_dma.c ****   {
 610              		.loc 1 265 7 is_stmt 0 view .LVU160
 611 000c 2268     		ldr	r2, [r4]
 267:Drivers/STM32U5xx_HAL_Driver/Src/stm32u5xx_hal_dma.c ****     assert_param(IS_DMA_BURST_LENGTH(hdma->Init.DestBurstLength));
 612              		.loc 1 267 5 is_stmt 1 view .LVU161
 268:Drivers/STM32U5xx_HAL_Driver/Src/stm32u5xx_hal_dma.c ****     assert_param(IS_DMA_TRANSFER_ALLOCATED_PORT(hdma->Init.TransferAllocatedPort));
 613              		.loc 1 268 5 view .LVU162
 269:Drivers/STM32U5xx_HAL_Driver/Src/stm32u5xx_hal_dma.c ****   }
 614              		.loc 1 269 5 view .LVU163
 273:Drivers/STM32U5xx_HAL_Driver/Src/stm32u5xx_hal_dma.c **** 
 615              		.loc 1 273 3 view .LVU164
 273:Drivers/STM32U5xx_HAL_Driver/Src/stm32u5xx_hal_dma.c **** 
 616              		.loc 1 273 3 view .LVU165
 617 000e 0023     		movs	r3, #0
 618 0010 84F84C30 		strb	r3, [r4, #76]
 273:Drivers/STM32U5xx_HAL_Driver/Src/stm32u5xx_hal_dma.c **** 
 619              		.loc 1 273 3 view .LVU166
 276:Drivers/STM32U5xx_HAL_Driver/Src/stm32u5xx_hal_dma.c **** 
 620              		.loc 1 276 3 view .LVU167
 276:Drivers/STM32U5xx_HAL_Driver/Src/stm32u5xx_hal_dma.c **** 
 621              		.loc 1 276 15 is_stmt 0 view .LVU168
 622 0014 0223     		movs	r3, #2
 623 0016 84F85430 		strb	r3, [r4, #84]
 279:Drivers/STM32U5xx_HAL_Driver/Src/stm32u5xx_hal_dma.c **** 
 624              		.loc 1 279 3 is_stmt 1 view .LVU169
 625 001a 5369     		ldr	r3, [r2, #20]
 626 001c 43F00603 		orr	r3, r3, #6
 627 0020 5361     		str	r3, [r2, #20]
 282:Drivers/STM32U5xx_HAL_Driver/Src/stm32u5xx_hal_dma.c ****   {
 628              		.loc 1 282 3 view .LVU170
 629              	.LVL14:
 630              	.L20:
 282:Drivers/STM32U5xx_HAL_Driver/Src/stm32u5xx_hal_dma.c ****   {
 631              		.loc 1 282 45 view .LVU171
 282:Drivers/STM32U5xx_HAL_Driver/Src/stm32u5xx_hal_dma.c ****   {
 632              		.loc 1 282 15 is_stmt 0 view .LVU172
 633 0022 2368     		ldr	r3, [r4]
 282:Drivers/STM32U5xx_HAL_Driver/Src/stm32u5xx_hal_dma.c ****   {
 634              		.loc 1 282 25 view .LVU173
 635 0024 5B69     		ldr	r3, [r3, #20]
 282:Drivers/STM32U5xx_HAL_Driver/Src/stm32u5xx_hal_dma.c ****   {
 636              		.loc 1 282 45 view .LVU174
 637 0026 13F0010F 		tst	r3, #1
 638 002a 0BD0     		beq	.L24
ARM GAS  C:\Users\Ya\AppData\Local\Temp\ccY6d54u.s 			page 43


 285:Drivers/STM32U5xx_HAL_Driver/Src/stm32u5xx_hal_dma.c ****     {
 639              		.loc 1 285 5 is_stmt 1 view .LVU175
 285:Drivers/STM32U5xx_HAL_Driver/Src/stm32u5xx_hal_dma.c ****     {
 640              		.loc 1 285 10 is_stmt 0 view .LVU176
 641 002c FFF7FEFF 		bl	HAL_GetTick
 642              	.LVL15:
 285:Drivers/STM32U5xx_HAL_Driver/Src/stm32u5xx_hal_dma.c ****     {
 643              		.loc 1 285 24 view .LVU177
 644 0030 431B     		subs	r3, r0, r5
 285:Drivers/STM32U5xx_HAL_Driver/Src/stm32u5xx_hal_dma.c ****     {
 645              		.loc 1 285 8 view .LVU178
 646 0032 052B     		cmp	r3, #5
 647 0034 F5D9     		bls	.L20
 288:Drivers/STM32U5xx_HAL_Driver/Src/stm32u5xx_hal_dma.c **** 
 648              		.loc 1 288 7 is_stmt 1 view .LVU179
 288:Drivers/STM32U5xx_HAL_Driver/Src/stm32u5xx_hal_dma.c **** 
 649              		.loc 1 288 23 is_stmt 0 view .LVU180
 650 0036 1023     		movs	r3, #16
 651 0038 A365     		str	r3, [r4, #88]
 291:Drivers/STM32U5xx_HAL_Driver/Src/stm32u5xx_hal_dma.c **** 
 652              		.loc 1 291 7 is_stmt 1 view .LVU181
 291:Drivers/STM32U5xx_HAL_Driver/Src/stm32u5xx_hal_dma.c **** 
 653              		.loc 1 291 19 is_stmt 0 view .LVU182
 654 003a 0323     		movs	r3, #3
 655 003c 84F85430 		strb	r3, [r4, #84]
 293:Drivers/STM32U5xx_HAL_Driver/Src/stm32u5xx_hal_dma.c ****     }
 656              		.loc 1 293 7 is_stmt 1 view .LVU183
 293:Drivers/STM32U5xx_HAL_Driver/Src/stm32u5xx_hal_dma.c ****     }
 657              		.loc 1 293 14 is_stmt 0 view .LVU184
 658 0040 0120     		movs	r0, #1
 659 0042 09E0     		b	.L19
 660              	.L24:
 298:Drivers/STM32U5xx_HAL_Driver/Src/stm32u5xx_hal_dma.c **** 
 661              		.loc 1 298 3 is_stmt 1 view .LVU185
 662 0044 2046     		mov	r0, r4
 663 0046 FFF7FEFF 		bl	DMA_Init
 664              	.LVL16:
 301:Drivers/STM32U5xx_HAL_Driver/Src/stm32u5xx_hal_dma.c **** 
 665              		.loc 1 301 3 view .LVU186
 301:Drivers/STM32U5xx_HAL_Driver/Src/stm32u5xx_hal_dma.c **** 
 666              		.loc 1 301 26 is_stmt 0 view .LVU187
 667 004a 636B     		ldr	r3, [r4, #52]
 301:Drivers/STM32U5xx_HAL_Driver/Src/stm32u5xx_hal_dma.c **** 
 668              		.loc 1 301 14 view .LVU188
 669 004c 2365     		str	r3, [r4, #80]
 304:Drivers/STM32U5xx_HAL_Driver/Src/stm32u5xx_hal_dma.c **** 
 670              		.loc 1 304 3 is_stmt 1 view .LVU189
 304:Drivers/STM32U5xx_HAL_Driver/Src/stm32u5xx_hal_dma.c **** 
 671              		.loc 1 304 19 is_stmt 0 view .LVU190
 672 004e 0020     		movs	r0, #0
 673 0050 A065     		str	r0, [r4, #88]
 307:Drivers/STM32U5xx_HAL_Driver/Src/stm32u5xx_hal_dma.c **** 
 674              		.loc 1 307 3 is_stmt 1 view .LVU191
 307:Drivers/STM32U5xx_HAL_Driver/Src/stm32u5xx_hal_dma.c **** 
 675              		.loc 1 307 15 is_stmt 0 view .LVU192
 676 0052 0123     		movs	r3, #1
 677 0054 84F85430 		strb	r3, [r4, #84]
ARM GAS  C:\Users\Ya\AppData\Local\Temp\ccY6d54u.s 			page 44


 309:Drivers/STM32U5xx_HAL_Driver/Src/stm32u5xx_hal_dma.c **** }
 678              		.loc 1 309 3 is_stmt 1 view .LVU193
 679              	.LVL17:
 680              	.L19:
 310:Drivers/STM32U5xx_HAL_Driver/Src/stm32u5xx_hal_dma.c **** 
 681              		.loc 1 310 1 is_stmt 0 view .LVU194
 682 0058 38BD     		pop	{r3, r4, r5, pc}
 683              	.LVL18:
 684              	.L22:
 246:Drivers/STM32U5xx_HAL_Driver/Src/stm32u5xx_hal_dma.c ****   }
 685              		.loc 1 246 12 view .LVU195
 686 005a 0120     		movs	r0, #1
 687              	.LVL19:
 246:Drivers/STM32U5xx_HAL_Driver/Src/stm32u5xx_hal_dma.c ****   }
 688              		.loc 1 246 12 view .LVU196
 689 005c FCE7     		b	.L19
 690              		.cfi_endproc
 691              	.LFE340:
 693              		.section	.text.HAL_DMA_DeInit,"ax",%progbits
 694              		.align	1
 695              		.global	HAL_DMA_DeInit
 696              		.syntax unified
 697              		.thumb
 698              		.thumb_func
 700              	HAL_DMA_DeInit:
 701              	.LVL20:
 702              	.LFB341:
 319:Drivers/STM32U5xx_HAL_Driver/Src/stm32u5xx_hal_dma.c ****   DMA_TypeDef *p_dma_instance;
 703              		.loc 1 319 1 is_stmt 1 view -0
 704              		.cfi_startproc
 705              		@ args = 0, pretend = 0, frame = 0
 706              		@ frame_needed = 0, uses_anonymous_args = 0
 319:Drivers/STM32U5xx_HAL_Driver/Src/stm32u5xx_hal_dma.c ****   DMA_TypeDef *p_dma_instance;
 707              		.loc 1 319 1 is_stmt 0 view .LVU198
 708 0000 70B5     		push	{r4, r5, r6, lr}
 709              		.cfi_def_cfa_offset 16
 710              		.cfi_offset 4, -16
 711              		.cfi_offset 5, -12
 712              		.cfi_offset 6, -8
 713              		.cfi_offset 14, -4
 714 0002 0446     		mov	r4, r0
 320:Drivers/STM32U5xx_HAL_Driver/Src/stm32u5xx_hal_dma.c ****   uint32_t tickstart = HAL_GetTick();
 715              		.loc 1 320 3 is_stmt 1 view .LVU199
 321:Drivers/STM32U5xx_HAL_Driver/Src/stm32u5xx_hal_dma.c **** 
 716              		.loc 1 321 3 view .LVU200
 321:Drivers/STM32U5xx_HAL_Driver/Src/stm32u5xx_hal_dma.c **** 
 717              		.loc 1 321 24 is_stmt 0 view .LVU201
 718 0004 FFF7FEFF 		bl	HAL_GetTick
 719              	.LVL21:
 324:Drivers/STM32U5xx_HAL_Driver/Src/stm32u5xx_hal_dma.c ****   {
 720              		.loc 1 324 3 is_stmt 1 view .LVU202
 324:Drivers/STM32U5xx_HAL_Driver/Src/stm32u5xx_hal_dma.c ****   {
 721              		.loc 1 324 6 is_stmt 0 view .LVU203
 722 0008 002C     		cmp	r4, #0
 723 000a 75D0     		beq	.L32
 724 000c 0546     		mov	r5, r0
 330:Drivers/STM32U5xx_HAL_Driver/Src/stm32u5xx_hal_dma.c **** 
ARM GAS  C:\Users\Ya\AppData\Local\Temp\ccY6d54u.s 			page 45


 725              		.loc 1 330 3 is_stmt 1 view .LVU204
 333:Drivers/STM32U5xx_HAL_Driver/Src/stm32u5xx_hal_dma.c **** 
 726              		.loc 1 333 3 view .LVU205
 333:Drivers/STM32U5xx_HAL_Driver/Src/stm32u5xx_hal_dma.c **** 
 727              		.loc 1 333 20 is_stmt 0 view .LVU206
 728 000e 2368     		ldr	r3, [r4]
 729 0010 23F47F66 		bic	r6, r3, #4080
 730 0014 26F00F06 		bic	r6, r6, #15
 731              	.LVL22:
 336:Drivers/STM32U5xx_HAL_Driver/Src/stm32u5xx_hal_dma.c **** 
 732              		.loc 1 336 3 is_stmt 1 view .LVU207
 733 0018 5A69     		ldr	r2, [r3, #20]
 734 001a 42F00602 		orr	r2, r2, #6
 735 001e 5A61     		str	r2, [r3, #20]
 339:Drivers/STM32U5xx_HAL_Driver/Src/stm32u5xx_hal_dma.c ****   {
 736              		.loc 1 339 3 view .LVU208
 737              	.LVL23:
 738              	.L27:
 339:Drivers/STM32U5xx_HAL_Driver/Src/stm32u5xx_hal_dma.c ****   {
 739              		.loc 1 339 45 view .LVU209
 339:Drivers/STM32U5xx_HAL_Driver/Src/stm32u5xx_hal_dma.c ****   {
 740              		.loc 1 339 15 is_stmt 0 view .LVU210
 741 0020 2368     		ldr	r3, [r4]
 339:Drivers/STM32U5xx_HAL_Driver/Src/stm32u5xx_hal_dma.c ****   {
 742              		.loc 1 339 25 view .LVU211
 743 0022 5A69     		ldr	r2, [r3, #20]
 339:Drivers/STM32U5xx_HAL_Driver/Src/stm32u5xx_hal_dma.c ****   {
 744              		.loc 1 339 45 view .LVU212
 745 0024 12F0010F 		tst	r2, #1
 746 0028 0BD0     		beq	.L34
 342:Drivers/STM32U5xx_HAL_Driver/Src/stm32u5xx_hal_dma.c ****     {
 747              		.loc 1 342 5 is_stmt 1 view .LVU213
 342:Drivers/STM32U5xx_HAL_Driver/Src/stm32u5xx_hal_dma.c ****     {
 748              		.loc 1 342 10 is_stmt 0 view .LVU214
 749 002a FFF7FEFF 		bl	HAL_GetTick
 750              	.LVL24:
 342:Drivers/STM32U5xx_HAL_Driver/Src/stm32u5xx_hal_dma.c ****     {
 751              		.loc 1 342 24 view .LVU215
 752 002e 431B     		subs	r3, r0, r5
 342:Drivers/STM32U5xx_HAL_Driver/Src/stm32u5xx_hal_dma.c ****     {
 753              		.loc 1 342 8 view .LVU216
 754 0030 052B     		cmp	r3, #5
 755 0032 F5D9     		bls	.L27
 345:Drivers/STM32U5xx_HAL_Driver/Src/stm32u5xx_hal_dma.c **** 
 756              		.loc 1 345 7 is_stmt 1 view .LVU217
 345:Drivers/STM32U5xx_HAL_Driver/Src/stm32u5xx_hal_dma.c **** 
 757              		.loc 1 345 23 is_stmt 0 view .LVU218
 758 0034 1023     		movs	r3, #16
 759 0036 A365     		str	r3, [r4, #88]
 348:Drivers/STM32U5xx_HAL_Driver/Src/stm32u5xx_hal_dma.c **** 
 760              		.loc 1 348 7 is_stmt 1 view .LVU219
 348:Drivers/STM32U5xx_HAL_Driver/Src/stm32u5xx_hal_dma.c **** 
 761              		.loc 1 348 19 is_stmt 0 view .LVU220
 762 0038 0323     		movs	r3, #3
 763 003a 84F85430 		strb	r3, [r4, #84]
 350:Drivers/STM32U5xx_HAL_Driver/Src/stm32u5xx_hal_dma.c ****     }
 764              		.loc 1 350 7 is_stmt 1 view .LVU221
ARM GAS  C:\Users\Ya\AppData\Local\Temp\ccY6d54u.s 			page 46


 350:Drivers/STM32U5xx_HAL_Driver/Src/stm32u5xx_hal_dma.c ****     }
 765              		.loc 1 350 14 is_stmt 0 view .LVU222
 766 003e 0120     		movs	r0, #1
 767 0040 59E0     		b	.L26
 768              	.L34:
 355:Drivers/STM32U5xx_HAL_Driver/Src/stm32u5xx_hal_dma.c ****   hdma->Instance->CCR   = 0U;
 769              		.loc 1 355 3 is_stmt 1 view .LVU223
 355:Drivers/STM32U5xx_HAL_Driver/Src/stm32u5xx_hal_dma.c ****   hdma->Instance->CCR   = 0U;
 770              		.loc 1 355 25 is_stmt 0 view .LVU224
 771 0042 0022     		movs	r2, #0
 772 0044 1A60     		str	r2, [r3]
 356:Drivers/STM32U5xx_HAL_Driver/Src/stm32u5xx_hal_dma.c ****   hdma->Instance->CTR1  = 0U;
 773              		.loc 1 356 3 is_stmt 1 view .LVU225
 356:Drivers/STM32U5xx_HAL_Driver/Src/stm32u5xx_hal_dma.c ****   hdma->Instance->CTR1  = 0U;
 774              		.loc 1 356 7 is_stmt 0 view .LVU226
 775 0046 2368     		ldr	r3, [r4]
 356:Drivers/STM32U5xx_HAL_Driver/Src/stm32u5xx_hal_dma.c ****   hdma->Instance->CTR1  = 0U;
 776              		.loc 1 356 25 view .LVU227
 777 0048 5A61     		str	r2, [r3, #20]
 357:Drivers/STM32U5xx_HAL_Driver/Src/stm32u5xx_hal_dma.c ****   hdma->Instance->CTR2  = 0U;
 778              		.loc 1 357 3 is_stmt 1 view .LVU228
 357:Drivers/STM32U5xx_HAL_Driver/Src/stm32u5xx_hal_dma.c ****   hdma->Instance->CTR2  = 0U;
 779              		.loc 1 357 7 is_stmt 0 view .LVU229
 780 004a 2368     		ldr	r3, [r4]
 357:Drivers/STM32U5xx_HAL_Driver/Src/stm32u5xx_hal_dma.c ****   hdma->Instance->CTR2  = 0U;
 781              		.loc 1 357 25 view .LVU230
 782 004c 1A64     		str	r2, [r3, #64]
 358:Drivers/STM32U5xx_HAL_Driver/Src/stm32u5xx_hal_dma.c ****   hdma->Instance->CBR1  = 0U;
 783              		.loc 1 358 3 is_stmt 1 view .LVU231
 358:Drivers/STM32U5xx_HAL_Driver/Src/stm32u5xx_hal_dma.c ****   hdma->Instance->CBR1  = 0U;
 784              		.loc 1 358 7 is_stmt 0 view .LVU232
 785 004e 2368     		ldr	r3, [r4]
 358:Drivers/STM32U5xx_HAL_Driver/Src/stm32u5xx_hal_dma.c ****   hdma->Instance->CBR1  = 0U;
 786              		.loc 1 358 25 view .LVU233
 787 0050 5A64     		str	r2, [r3, #68]
 359:Drivers/STM32U5xx_HAL_Driver/Src/stm32u5xx_hal_dma.c ****   hdma->Instance->CSAR  = 0U;
 788              		.loc 1 359 3 is_stmt 1 view .LVU234
 359:Drivers/STM32U5xx_HAL_Driver/Src/stm32u5xx_hal_dma.c ****   hdma->Instance->CSAR  = 0U;
 789              		.loc 1 359 7 is_stmt 0 view .LVU235
 790 0052 2368     		ldr	r3, [r4]
 359:Drivers/STM32U5xx_HAL_Driver/Src/stm32u5xx_hal_dma.c ****   hdma->Instance->CSAR  = 0U;
 791              		.loc 1 359 25 view .LVU236
 792 0054 9A64     		str	r2, [r3, #72]
 360:Drivers/STM32U5xx_HAL_Driver/Src/stm32u5xx_hal_dma.c ****   hdma->Instance->CDAR  = 0U;
 793              		.loc 1 360 3 is_stmt 1 view .LVU237
 360:Drivers/STM32U5xx_HAL_Driver/Src/stm32u5xx_hal_dma.c ****   hdma->Instance->CDAR  = 0U;
 794              		.loc 1 360 7 is_stmt 0 view .LVU238
 795 0056 2368     		ldr	r3, [r4]
 360:Drivers/STM32U5xx_HAL_Driver/Src/stm32u5xx_hal_dma.c ****   hdma->Instance->CDAR  = 0U;
 796              		.loc 1 360 25 view .LVU239
 797 0058 DA64     		str	r2, [r3, #76]
 361:Drivers/STM32U5xx_HAL_Driver/Src/stm32u5xx_hal_dma.c ****   hdma->Instance->CLLR  = 0U;
 798              		.loc 1 361 3 is_stmt 1 view .LVU240
 361:Drivers/STM32U5xx_HAL_Driver/Src/stm32u5xx_hal_dma.c ****   hdma->Instance->CLLR  = 0U;
 799              		.loc 1 361 7 is_stmt 0 view .LVU241
 800 005a 2368     		ldr	r3, [r4]
 361:Drivers/STM32U5xx_HAL_Driver/Src/stm32u5xx_hal_dma.c ****   hdma->Instance->CLLR  = 0U;
ARM GAS  C:\Users\Ya\AppData\Local\Temp\ccY6d54u.s 			page 47


 801              		.loc 1 361 25 view .LVU242
 802 005c 1A65     		str	r2, [r3, #80]
 362:Drivers/STM32U5xx_HAL_Driver/Src/stm32u5xx_hal_dma.c **** 
 803              		.loc 1 362 3 is_stmt 1 view .LVU243
 362:Drivers/STM32U5xx_HAL_Driver/Src/stm32u5xx_hal_dma.c **** 
 804              		.loc 1 362 7 is_stmt 0 view .LVU244
 805 005e 2368     		ldr	r3, [r4]
 362:Drivers/STM32U5xx_HAL_Driver/Src/stm32u5xx_hal_dma.c **** 
 806              		.loc 1 362 25 view .LVU245
 807 0060 DA67     		str	r2, [r3, #124]
 365:Drivers/STM32U5xx_HAL_Driver/Src/stm32u5xx_hal_dma.c ****   {
 808              		.loc 1 365 3 is_stmt 1 view .LVU246
 365:Drivers/STM32U5xx_HAL_Driver/Src/stm32u5xx_hal_dma.c ****   {
 809              		.loc 1 365 7 is_stmt 0 view .LVU247
 810 0062 2368     		ldr	r3, [r4]
 811 0064 254A     		ldr	r2, .L35
 812 0066 9342     		cmp	r3, r2
 813 0068 1ED0     		beq	.L29
 365:Drivers/STM32U5xx_HAL_Driver/Src/stm32u5xx_hal_dma.c ****   {
 814              		.loc 1 365 7 discriminator 2 view .LVU248
 815 006a 02F18052 		add	r2, r2, #268435456
 816 006e 9342     		cmp	r3, r2
 817 0070 1AD0     		beq	.L29
 365:Drivers/STM32U5xx_HAL_Driver/Src/stm32u5xx_hal_dma.c ****   {
 818              		.loc 1 365 7 discriminator 4 view .LVU249
 819 0072 02F17042 		add	r2, r2, #-268435456
 820 0076 8032     		adds	r2, r2, #128
 821 0078 9342     		cmp	r3, r2
 822 007a 15D0     		beq	.L29
 365:Drivers/STM32U5xx_HAL_Driver/Src/stm32u5xx_hal_dma.c ****   {
 823              		.loc 1 365 7 discriminator 6 view .LVU250
 824 007c 02F18052 		add	r2, r2, #268435456
 825 0080 9342     		cmp	r3, r2
 826 0082 11D0     		beq	.L29
 365:Drivers/STM32U5xx_HAL_Driver/Src/stm32u5xx_hal_dma.c ****   {
 827              		.loc 1 365 7 discriminator 8 view .LVU251
 828 0084 02F17042 		add	r2, r2, #-268435456
 829 0088 8032     		adds	r2, r2, #128
 830 008a 9342     		cmp	r3, r2
 831 008c 0CD0     		beq	.L29
 365:Drivers/STM32U5xx_HAL_Driver/Src/stm32u5xx_hal_dma.c ****   {
 832              		.loc 1 365 7 discriminator 10 view .LVU252
 833 008e 02F18052 		add	r2, r2, #268435456
 834 0092 9342     		cmp	r3, r2
 835 0094 08D0     		beq	.L29
 365:Drivers/STM32U5xx_HAL_Driver/Src/stm32u5xx_hal_dma.c ****   {
 836              		.loc 1 365 7 discriminator 12 view .LVU253
 837 0096 02F17042 		add	r2, r2, #-268435456
 838 009a 8032     		adds	r2, r2, #128
 839 009c 9342     		cmp	r3, r2
 840 009e 03D0     		beq	.L29
 365:Drivers/STM32U5xx_HAL_Driver/Src/stm32u5xx_hal_dma.c ****   {
 841              		.loc 1 365 7 discriminator 14 view .LVU254
 842 00a0 02F18052 		add	r2, r2, #268435456
 843 00a4 9342     		cmp	r3, r2
 844 00a6 03D1     		bne	.L30
 845              	.L29:
ARM GAS  C:\Users\Ya\AppData\Local\Temp\ccY6d54u.s 			page 48


 367:Drivers/STM32U5xx_HAL_Driver/Src/stm32u5xx_hal_dma.c ****     hdma->Instance->CBR2 = 0U;
 846              		.loc 1 367 5 is_stmt 1 view .LVU255
 367:Drivers/STM32U5xx_HAL_Driver/Src/stm32u5xx_hal_dma.c ****     hdma->Instance->CBR2 = 0U;
 847              		.loc 1 367 26 is_stmt 0 view .LVU256
 848 00a8 0022     		movs	r2, #0
 849 00aa 5A65     		str	r2, [r3, #84]
 368:Drivers/STM32U5xx_HAL_Driver/Src/stm32u5xx_hal_dma.c ****   }
 850              		.loc 1 368 5 is_stmt 1 view .LVU257
 368:Drivers/STM32U5xx_HAL_Driver/Src/stm32u5xx_hal_dma.c ****   }
 851              		.loc 1 368 9 is_stmt 0 view .LVU258
 852 00ac 2368     		ldr	r3, [r4]
 368:Drivers/STM32U5xx_HAL_Driver/Src/stm32u5xx_hal_dma.c ****   }
 853              		.loc 1 368 26 view .LVU259
 854 00ae 9A65     		str	r2, [r3, #88]
 855              	.L30:
 372:Drivers/STM32U5xx_HAL_Driver/Src/stm32u5xx_hal_dma.c **** 
 856              		.loc 1 372 3 is_stmt 1 view .LVU260
 857 00b0 7268     		ldr	r2, [r6, #4]
 858 00b2 2368     		ldr	r3, [r4]
 859 00b4 C3F30B03 		ubfx	r3, r3, #0, #12
 860 00b8 503B     		subs	r3, r3, #80
 861 00ba C3F3C413 		ubfx	r3, r3, #7, #5
 862 00be 0121     		movs	r1, #1
 863 00c0 01FA03F3 		lsl	r3, r1, r3
 864 00c4 22EA0303 		bic	r3, r2, r3
 865 00c8 7360     		str	r3, [r6, #4]
 380:Drivers/STM32U5xx_HAL_Driver/Src/stm32u5xx_hal_dma.c ****                               DMA_FLAG_TO));
 866              		.loc 1 380 3 view .LVU261
 867 00ca 2368     		ldr	r3, [r4]
 868 00cc 4FF4FE42 		mov	r2, #32512
 869 00d0 DA60     		str	r2, [r3, #12]
 384:Drivers/STM32U5xx_HAL_Driver/Src/stm32u5xx_hal_dma.c ****   hdma->XferHalfCpltCallback = NULL;
 870              		.loc 1 384 3 view .LVU262
 384:Drivers/STM32U5xx_HAL_Driver/Src/stm32u5xx_hal_dma.c ****   hdma->XferHalfCpltCallback = NULL;
 871              		.loc 1 384 30 is_stmt 0 view .LVU263
 872 00d2 0023     		movs	r3, #0
 873 00d4 2366     		str	r3, [r4, #96]
 385:Drivers/STM32U5xx_HAL_Driver/Src/stm32u5xx_hal_dma.c ****   hdma->XferErrorCallback    = NULL;
 874              		.loc 1 385 3 is_stmt 1 view .LVU264
 385:Drivers/STM32U5xx_HAL_Driver/Src/stm32u5xx_hal_dma.c ****   hdma->XferErrorCallback    = NULL;
 875              		.loc 1 385 30 is_stmt 0 view .LVU265
 876 00d6 6366     		str	r3, [r4, #100]
 386:Drivers/STM32U5xx_HAL_Driver/Src/stm32u5xx_hal_dma.c ****   hdma->XferAbortCallback    = NULL;
 877              		.loc 1 386 3 is_stmt 1 view .LVU266
 386:Drivers/STM32U5xx_HAL_Driver/Src/stm32u5xx_hal_dma.c ****   hdma->XferAbortCallback    = NULL;
 878              		.loc 1 386 30 is_stmt 0 view .LVU267
 879 00d8 A366     		str	r3, [r4, #104]
 387:Drivers/STM32U5xx_HAL_Driver/Src/stm32u5xx_hal_dma.c ****   hdma->XferSuspendCallback  = NULL;
 880              		.loc 1 387 3 is_stmt 1 view .LVU268
 387:Drivers/STM32U5xx_HAL_Driver/Src/stm32u5xx_hal_dma.c ****   hdma->XferSuspendCallback  = NULL;
 881              		.loc 1 387 30 is_stmt 0 view .LVU269
 882 00da E366     		str	r3, [r4, #108]
 388:Drivers/STM32U5xx_HAL_Driver/Src/stm32u5xx_hal_dma.c **** 
 883              		.loc 1 388 3 is_stmt 1 view .LVU270
 388:Drivers/STM32U5xx_HAL_Driver/Src/stm32u5xx_hal_dma.c **** 
 884              		.loc 1 388 30 is_stmt 0 view .LVU271
 885 00dc 2367     		str	r3, [r4, #112]
ARM GAS  C:\Users\Ya\AppData\Local\Temp\ccY6d54u.s 			page 49


 391:Drivers/STM32U5xx_HAL_Driver/Src/stm32u5xx_hal_dma.c **** 
 886              		.loc 1 391 3 is_stmt 1 view .LVU272
 391:Drivers/STM32U5xx_HAL_Driver/Src/stm32u5xx_hal_dma.c **** 
 887              		.loc 1 391 25 is_stmt 0 view .LVU273
 888 00de 6367     		str	r3, [r4, #116]
 394:Drivers/STM32U5xx_HAL_Driver/Src/stm32u5xx_hal_dma.c ****   {
 889              		.loc 1 394 3 is_stmt 1 view .LVU274
 394:Drivers/STM32U5xx_HAL_Driver/Src/stm32u5xx_hal_dma.c ****   {
 890              		.loc 1 394 11 is_stmt 0 view .LVU275
 891 00e0 E36D     		ldr	r3, [r4, #92]
 394:Drivers/STM32U5xx_HAL_Driver/Src/stm32u5xx_hal_dma.c ****   {
 892              		.loc 1 394 6 view .LVU276
 893 00e2 0BB1     		cbz	r3, .L31
 396:Drivers/STM32U5xx_HAL_Driver/Src/stm32u5xx_hal_dma.c ****   }
 894              		.loc 1 396 5 is_stmt 1 view .LVU277
 396:Drivers/STM32U5xx_HAL_Driver/Src/stm32u5xx_hal_dma.c ****   }
 895              		.loc 1 396 18 is_stmt 0 view .LVU278
 896 00e4 0023     		movs	r3, #0
 897 00e6 E365     		str	r3, [r4, #92]
 898              	.L31:
 400:Drivers/STM32U5xx_HAL_Driver/Src/stm32u5xx_hal_dma.c **** 
 899              		.loc 1 400 3 is_stmt 1 view .LVU279
 400:Drivers/STM32U5xx_HAL_Driver/Src/stm32u5xx_hal_dma.c **** 
 900              		.loc 1 400 14 is_stmt 0 view .LVU280
 901 00e8 0020     		movs	r0, #0
 902 00ea 2065     		str	r0, [r4, #80]
 403:Drivers/STM32U5xx_HAL_Driver/Src/stm32u5xx_hal_dma.c **** 
 903              		.loc 1 403 3 is_stmt 1 view .LVU281
 403:Drivers/STM32U5xx_HAL_Driver/Src/stm32u5xx_hal_dma.c **** 
 904              		.loc 1 403 19 is_stmt 0 view .LVU282
 905 00ec A065     		str	r0, [r4, #88]
 406:Drivers/STM32U5xx_HAL_Driver/Src/stm32u5xx_hal_dma.c **** 
 906              		.loc 1 406 3 is_stmt 1 view .LVU283
 406:Drivers/STM32U5xx_HAL_Driver/Src/stm32u5xx_hal_dma.c **** 
 907              		.loc 1 406 15 is_stmt 0 view .LVU284
 908 00ee 84F85400 		strb	r0, [r4, #84]
 409:Drivers/STM32U5xx_HAL_Driver/Src/stm32u5xx_hal_dma.c **** 
 909              		.loc 1 409 3 is_stmt 1 view .LVU285
 409:Drivers/STM32U5xx_HAL_Driver/Src/stm32u5xx_hal_dma.c **** 
 910              		.loc 1 409 3 view .LVU286
 911 00f2 84F84C00 		strb	r0, [r4, #76]
 409:Drivers/STM32U5xx_HAL_Driver/Src/stm32u5xx_hal_dma.c **** 
 912              		.loc 1 409 3 view .LVU287
 411:Drivers/STM32U5xx_HAL_Driver/Src/stm32u5xx_hal_dma.c **** }
 913              		.loc 1 411 3 view .LVU288
 914              	.LVL25:
 915              	.L26:
 412:Drivers/STM32U5xx_HAL_Driver/Src/stm32u5xx_hal_dma.c **** /**
 916              		.loc 1 412 1 is_stmt 0 view .LVU289
 917 00f6 70BD     		pop	{r4, r5, r6, pc}
 918              	.LVL26:
 919              	.L32:
 326:Drivers/STM32U5xx_HAL_Driver/Src/stm32u5xx_hal_dma.c ****   }
 920              		.loc 1 326 12 view .LVU290
 921 00f8 0120     		movs	r0, #1
 922              	.LVL27:
 326:Drivers/STM32U5xx_HAL_Driver/Src/stm32u5xx_hal_dma.c ****   }
ARM GAS  C:\Users\Ya\AppData\Local\Temp\ccY6d54u.s 			page 50


 923              		.loc 1 326 12 view .LVU291
 924 00fa FCE7     		b	.L26
 925              	.L36:
 926              		.align	2
 927              	.L35:
 928 00fc 50060240 		.word	1073874512
 929              		.cfi_endproc
 930              	.LFE341:
 932              		.section	.text.HAL_DMA_Start,"ax",%progbits
 933              		.align	1
 934              		.global	HAL_DMA_Start
 935              		.syntax unified
 936              		.thumb
 937              		.thumb_func
 939              	HAL_DMA_Start:
 940              	.LVL28:
 941              	.LFB342:
 460:Drivers/STM32U5xx_HAL_Driver/Src/stm32u5xx_hal_dma.c ****   /* Check the DMA peripheral handle parameter */
 942              		.loc 1 460 1 is_stmt 1 view -0
 943              		.cfi_startproc
 944              		@ args = 0, pretend = 0, frame = 0
 945              		@ frame_needed = 0, uses_anonymous_args = 0
 462:Drivers/STM32U5xx_HAL_Driver/Src/stm32u5xx_hal_dma.c ****   {
 946              		.loc 1 462 3 view .LVU293
 462:Drivers/STM32U5xx_HAL_Driver/Src/stm32u5xx_hal_dma.c ****   {
 947              		.loc 1 462 6 is_stmt 0 view .LVU294
 948 0000 18B3     		cbz	r0, .L40
 460:Drivers/STM32U5xx_HAL_Driver/Src/stm32u5xx_hal_dma.c ****   /* Check the DMA peripheral handle parameter */
 949              		.loc 1 460 1 view .LVU295
 950 0002 38B5     		push	{r3, r4, r5, lr}
 951              		.cfi_def_cfa_offset 16
 952              		.cfi_offset 3, -16
 953              		.cfi_offset 4, -12
 954              		.cfi_offset 5, -8
 955              		.cfi_offset 14, -4
 956 0004 0446     		mov	r4, r0
 468:Drivers/STM32U5xx_HAL_Driver/Src/stm32u5xx_hal_dma.c **** 
 957              		.loc 1 468 3 is_stmt 1 view .LVU296
 471:Drivers/STM32U5xx_HAL_Driver/Src/stm32u5xx_hal_dma.c **** 
 958              		.loc 1 471 3 view .LVU297
 471:Drivers/STM32U5xx_HAL_Driver/Src/stm32u5xx_hal_dma.c **** 
 959              		.loc 1 471 3 view .LVU298
 960 0006 90F84C00 		ldrb	r0, [r0, #76]	@ zero_extendqisi2
 961              	.LVL29:
 471:Drivers/STM32U5xx_HAL_Driver/Src/stm32u5xx_hal_dma.c **** 
 962              		.loc 1 471 3 is_stmt 0 view .LVU299
 963 000a 0128     		cmp	r0, #1
 964 000c 1FD0     		beq	.L41
 471:Drivers/STM32U5xx_HAL_Driver/Src/stm32u5xx_hal_dma.c **** 
 965              		.loc 1 471 3 is_stmt 1 discriminator 2 view .LVU300
 966 000e 0120     		movs	r0, #1
 967 0010 84F84C00 		strb	r0, [r4, #76]
 471:Drivers/STM32U5xx_HAL_Driver/Src/stm32u5xx_hal_dma.c **** 
 968              		.loc 1 471 3 discriminator 2 view .LVU301
 474:Drivers/STM32U5xx_HAL_Driver/Src/stm32u5xx_hal_dma.c ****   {
 969              		.loc 1 474 3 discriminator 2 view .LVU302
 474:Drivers/STM32U5xx_HAL_Driver/Src/stm32u5xx_hal_dma.c ****   {
ARM GAS  C:\Users\Ya\AppData\Local\Temp\ccY6d54u.s 			page 51


 970              		.loc 1 474 11 is_stmt 0 discriminator 2 view .LVU303
 971 0014 94F85400 		ldrb	r0, [r4, #84]	@ zero_extendqisi2
 972 0018 C0B2     		uxtb	r0, r0
 474:Drivers/STM32U5xx_HAL_Driver/Src/stm32u5xx_hal_dma.c ****   {
 973              		.loc 1 474 6 discriminator 2 view .LVU304
 974 001a 0128     		cmp	r0, #1
 975 001c 06D0     		beq	.L46
 491:Drivers/STM32U5xx_HAL_Driver/Src/stm32u5xx_hal_dma.c **** 
 976              		.loc 1 491 5 is_stmt 1 view .LVU305
 491:Drivers/STM32U5xx_HAL_Driver/Src/stm32u5xx_hal_dma.c **** 
 977              		.loc 1 491 21 is_stmt 0 view .LVU306
 978 001e 4023     		movs	r3, #64
 979              	.LVL30:
 491:Drivers/STM32U5xx_HAL_Driver/Src/stm32u5xx_hal_dma.c **** 
 980              		.loc 1 491 21 view .LVU307
 981 0020 A365     		str	r3, [r4, #88]
 494:Drivers/STM32U5xx_HAL_Driver/Src/stm32u5xx_hal_dma.c **** 
 982              		.loc 1 494 5 is_stmt 1 view .LVU308
 494:Drivers/STM32U5xx_HAL_Driver/Src/stm32u5xx_hal_dma.c **** 
 983              		.loc 1 494 5 view .LVU309
 984 0022 0023     		movs	r3, #0
 985 0024 84F84C30 		strb	r3, [r4, #76]
 494:Drivers/STM32U5xx_HAL_Driver/Src/stm32u5xx_hal_dma.c **** 
 986              		.loc 1 494 5 view .LVU310
 496:Drivers/STM32U5xx_HAL_Driver/Src/stm32u5xx_hal_dma.c ****   }
 987              		.loc 1 496 5 view .LVU311
 496:Drivers/STM32U5xx_HAL_Driver/Src/stm32u5xx_hal_dma.c ****   }
 988              		.loc 1 496 12 is_stmt 0 view .LVU312
 989 0028 0120     		movs	r0, #1
 990              	.LVL31:
 991              	.L38:
 500:Drivers/STM32U5xx_HAL_Driver/Src/stm32u5xx_hal_dma.c **** 
 992              		.loc 1 500 1 view .LVU313
 993 002a 38BD     		pop	{r3, r4, r5, pc}
 994              	.LVL32:
 995              	.L46:
 477:Drivers/STM32U5xx_HAL_Driver/Src/stm32u5xx_hal_dma.c **** 
 996              		.loc 1 477 5 is_stmt 1 view .LVU314
 477:Drivers/STM32U5xx_HAL_Driver/Src/stm32u5xx_hal_dma.c **** 
 997              		.loc 1 477 17 is_stmt 0 view .LVU315
 998 002c 0220     		movs	r0, #2
 999 002e 84F85400 		strb	r0, [r4, #84]
 480:Drivers/STM32U5xx_HAL_Driver/Src/stm32u5xx_hal_dma.c **** 
 1000              		.loc 1 480 5 is_stmt 1 view .LVU316
 480:Drivers/STM32U5xx_HAL_Driver/Src/stm32u5xx_hal_dma.c **** 
 1001              		.loc 1 480 21 is_stmt 0 view .LVU317
 1002 0032 0025     		movs	r5, #0
 1003 0034 A565     		str	r5, [r4, #88]
 483:Drivers/STM32U5xx_HAL_Driver/Src/stm32u5xx_hal_dma.c **** 
 1004              		.loc 1 483 5 is_stmt 1 view .LVU318
 1005 0036 2046     		mov	r0, r4
 1006 0038 FFF7FEFF 		bl	DMA_SetConfig
 1007              	.LVL33:
 486:Drivers/STM32U5xx_HAL_Driver/Src/stm32u5xx_hal_dma.c ****   }
 1008              		.loc 1 486 5 view .LVU319
 1009 003c 2268     		ldr	r2, [r4]
 1010 003e 5369     		ldr	r3, [r2, #20]
ARM GAS  C:\Users\Ya\AppData\Local\Temp\ccY6d54u.s 			page 52


 1011 0040 43F00103 		orr	r3, r3, #1
 1012 0044 5361     		str	r3, [r2, #20]
 499:Drivers/STM32U5xx_HAL_Driver/Src/stm32u5xx_hal_dma.c **** }
 1013              		.loc 1 499 3 view .LVU320
 499:Drivers/STM32U5xx_HAL_Driver/Src/stm32u5xx_hal_dma.c **** }
 1014              		.loc 1 499 10 is_stmt 0 view .LVU321
 1015 0046 2846     		mov	r0, r5
 1016 0048 EFE7     		b	.L38
 1017              	.LVL34:
 1018              	.L40:
 1019              		.cfi_def_cfa_offset 0
 1020              		.cfi_restore 3
 1021              		.cfi_restore 4
 1022              		.cfi_restore 5
 1023              		.cfi_restore 14
 464:Drivers/STM32U5xx_HAL_Driver/Src/stm32u5xx_hal_dma.c ****   }
 1024              		.loc 1 464 12 view .LVU322
 1025 004a 0120     		movs	r0, #1
 1026              	.LVL35:
 500:Drivers/STM32U5xx_HAL_Driver/Src/stm32u5xx_hal_dma.c **** 
 1027              		.loc 1 500 1 view .LVU323
 1028 004c 7047     		bx	lr
 1029              	.LVL36:
 1030              	.L41:
 1031              		.cfi_def_cfa_offset 16
 1032              		.cfi_offset 3, -16
 1033              		.cfi_offset 4, -12
 1034              		.cfi_offset 5, -8
 1035              		.cfi_offset 14, -4
 471:Drivers/STM32U5xx_HAL_Driver/Src/stm32u5xx_hal_dma.c **** 
 1036              		.loc 1 471 3 view .LVU324
 1037 004e 0220     		movs	r0, #2
 1038 0050 EBE7     		b	.L38
 1039              		.cfi_endproc
 1040              	.LFE342:
 1042              		.section	.text.HAL_DMA_Start_IT,"ax",%progbits
 1043              		.align	1
 1044              		.global	HAL_DMA_Start_IT
 1045              		.syntax unified
 1046              		.thumb
 1047              		.thumb_func
 1049              	HAL_DMA_Start_IT:
 1050              	.LVL37:
 1051              	.LFB343:
 515:Drivers/STM32U5xx_HAL_Driver/Src/stm32u5xx_hal_dma.c ****   /* Check the DMA peripheral handle parameter */
 1052              		.loc 1 515 1 is_stmt 1 view -0
 1053              		.cfi_startproc
 1054              		@ args = 0, pretend = 0, frame = 0
 1055              		@ frame_needed = 0, uses_anonymous_args = 0
 517:Drivers/STM32U5xx_HAL_Driver/Src/stm32u5xx_hal_dma.c ****   {
 1056              		.loc 1 517 3 view .LVU326
 517:Drivers/STM32U5xx_HAL_Driver/Src/stm32u5xx_hal_dma.c ****   {
 1057              		.loc 1 517 6 is_stmt 0 view .LVU327
 1058 0000 0028     		cmp	r0, #0
 1059 0002 36D0     		beq	.L52
 515:Drivers/STM32U5xx_HAL_Driver/Src/stm32u5xx_hal_dma.c ****   /* Check the DMA peripheral handle parameter */
 1060              		.loc 1 515 1 view .LVU328
ARM GAS  C:\Users\Ya\AppData\Local\Temp\ccY6d54u.s 			page 53


 1061 0004 10B5     		push	{r4, lr}
 1062              		.cfi_def_cfa_offset 8
 1063              		.cfi_offset 4, -8
 1064              		.cfi_offset 14, -4
 1065 0006 0446     		mov	r4, r0
 523:Drivers/STM32U5xx_HAL_Driver/Src/stm32u5xx_hal_dma.c **** 
 1066              		.loc 1 523 3 is_stmt 1 view .LVU329
 526:Drivers/STM32U5xx_HAL_Driver/Src/stm32u5xx_hal_dma.c **** 
 1067              		.loc 1 526 3 view .LVU330
 526:Drivers/STM32U5xx_HAL_Driver/Src/stm32u5xx_hal_dma.c **** 
 1068              		.loc 1 526 3 view .LVU331
 1069 0008 90F84C00 		ldrb	r0, [r0, #76]	@ zero_extendqisi2
 1070              	.LVL38:
 526:Drivers/STM32U5xx_HAL_Driver/Src/stm32u5xx_hal_dma.c **** 
 1071              		.loc 1 526 3 is_stmt 0 view .LVU332
 1072 000c 0128     		cmp	r0, #1
 1073 000e 32D0     		beq	.L53
 526:Drivers/STM32U5xx_HAL_Driver/Src/stm32u5xx_hal_dma.c **** 
 1074              		.loc 1 526 3 is_stmt 1 discriminator 2 view .LVU333
 1075 0010 0120     		movs	r0, #1
 1076 0012 84F84C00 		strb	r0, [r4, #76]
 526:Drivers/STM32U5xx_HAL_Driver/Src/stm32u5xx_hal_dma.c **** 
 1077              		.loc 1 526 3 discriminator 2 view .LVU334
 529:Drivers/STM32U5xx_HAL_Driver/Src/stm32u5xx_hal_dma.c ****   {
 1078              		.loc 1 529 3 discriminator 2 view .LVU335
 529:Drivers/STM32U5xx_HAL_Driver/Src/stm32u5xx_hal_dma.c ****   {
 1079              		.loc 1 529 11 is_stmt 0 discriminator 2 view .LVU336
 1080 0016 94F85400 		ldrb	r0, [r4, #84]	@ zero_extendqisi2
 1081 001a C0B2     		uxtb	r0, r0
 529:Drivers/STM32U5xx_HAL_Driver/Src/stm32u5xx_hal_dma.c ****   {
 1082              		.loc 1 529 6 discriminator 2 view .LVU337
 1083 001c 0128     		cmp	r0, #1
 1084 001e 06D0     		beq	.L58
 563:Drivers/STM32U5xx_HAL_Driver/Src/stm32u5xx_hal_dma.c **** 
 1085              		.loc 1 563 5 is_stmt 1 view .LVU338
 563:Drivers/STM32U5xx_HAL_Driver/Src/stm32u5xx_hal_dma.c **** 
 1086              		.loc 1 563 21 is_stmt 0 view .LVU339
 1087 0020 4023     		movs	r3, #64
 1088              	.LVL39:
 563:Drivers/STM32U5xx_HAL_Driver/Src/stm32u5xx_hal_dma.c **** 
 1089              		.loc 1 563 21 view .LVU340
 1090 0022 A365     		str	r3, [r4, #88]
 566:Drivers/STM32U5xx_HAL_Driver/Src/stm32u5xx_hal_dma.c **** 
 1091              		.loc 1 566 5 is_stmt 1 view .LVU341
 566:Drivers/STM32U5xx_HAL_Driver/Src/stm32u5xx_hal_dma.c **** 
 1092              		.loc 1 566 5 view .LVU342
 1093 0024 0023     		movs	r3, #0
 1094 0026 84F84C30 		strb	r3, [r4, #76]
 566:Drivers/STM32U5xx_HAL_Driver/Src/stm32u5xx_hal_dma.c **** 
 1095              		.loc 1 566 5 view .LVU343
 568:Drivers/STM32U5xx_HAL_Driver/Src/stm32u5xx_hal_dma.c ****   }
 1096              		.loc 1 568 5 view .LVU344
 568:Drivers/STM32U5xx_HAL_Driver/Src/stm32u5xx_hal_dma.c ****   }
 1097              		.loc 1 568 12 is_stmt 0 view .LVU345
 1098 002a 0120     		movs	r0, #1
 1099              	.LVL40:
 1100              	.L48:
ARM GAS  C:\Users\Ya\AppData\Local\Temp\ccY6d54u.s 			page 54


 572:Drivers/STM32U5xx_HAL_Driver/Src/stm32u5xx_hal_dma.c **** 
 1101              		.loc 1 572 1 view .LVU346
 1102 002c 10BD     		pop	{r4, pc}
 1103              	.LVL41:
 1104              	.L58:
 532:Drivers/STM32U5xx_HAL_Driver/Src/stm32u5xx_hal_dma.c **** 
 1105              		.loc 1 532 5 is_stmt 1 view .LVU347
 532:Drivers/STM32U5xx_HAL_Driver/Src/stm32u5xx_hal_dma.c **** 
 1106              		.loc 1 532 17 is_stmt 0 view .LVU348
 1107 002e 0220     		movs	r0, #2
 1108 0030 84F85400 		strb	r0, [r4, #84]
 535:Drivers/STM32U5xx_HAL_Driver/Src/stm32u5xx_hal_dma.c **** 
 1109              		.loc 1 535 5 is_stmt 1 view .LVU349
 535:Drivers/STM32U5xx_HAL_Driver/Src/stm32u5xx_hal_dma.c **** 
 1110              		.loc 1 535 21 is_stmt 0 view .LVU350
 1111 0034 0020     		movs	r0, #0
 1112 0036 A065     		str	r0, [r4, #88]
 538:Drivers/STM32U5xx_HAL_Driver/Src/stm32u5xx_hal_dma.c **** 
 1113              		.loc 1 538 5 is_stmt 1 view .LVU351
 1114 0038 2046     		mov	r0, r4
 1115 003a FFF7FEFF 		bl	DMA_SetConfig
 1116              	.LVL42:
 541:Drivers/STM32U5xx_HAL_Driver/Src/stm32u5xx_hal_dma.c **** 
 1117              		.loc 1 541 5 view .LVU352
 1118 003e 2268     		ldr	r2, [r4]
 1119 0040 5369     		ldr	r3, [r2, #20]
 1120 0042 43F4BA43 		orr	r3, r3, #23808
 1121 0046 5361     		str	r3, [r2, #20]
 544:Drivers/STM32U5xx_HAL_Driver/Src/stm32u5xx_hal_dma.c ****     {
 1122              		.loc 1 544 5 view .LVU353
 544:Drivers/STM32U5xx_HAL_Driver/Src/stm32u5xx_hal_dma.c ****     {
 1123              		.loc 1 544 13 is_stmt 0 view .LVU354
 1124 0048 636E     		ldr	r3, [r4, #100]
 544:Drivers/STM32U5xx_HAL_Driver/Src/stm32u5xx_hal_dma.c ****     {
 1125              		.loc 1 544 8 view .LVU355
 1126 004a 23B1     		cbz	r3, .L50
 547:Drivers/STM32U5xx_HAL_Driver/Src/stm32u5xx_hal_dma.c ****     }
 1127              		.loc 1 547 7 is_stmt 1 view .LVU356
 1128 004c 2268     		ldr	r2, [r4]
 1129 004e 5369     		ldr	r3, [r2, #20]
 1130 0050 43F40073 		orr	r3, r3, #512
 1131 0054 5361     		str	r3, [r2, #20]
 1132              	.L50:
 551:Drivers/STM32U5xx_HAL_Driver/Src/stm32u5xx_hal_dma.c ****     {
 1133              		.loc 1 551 5 view .LVU357
 551:Drivers/STM32U5xx_HAL_Driver/Src/stm32u5xx_hal_dma.c ****     {
 1134              		.loc 1 551 13 is_stmt 0 view .LVU358
 1135 0056 236F     		ldr	r3, [r4, #112]
 551:Drivers/STM32U5xx_HAL_Driver/Src/stm32u5xx_hal_dma.c ****     {
 1136              		.loc 1 551 8 view .LVU359
 1137 0058 23B1     		cbz	r3, .L51
 554:Drivers/STM32U5xx_HAL_Driver/Src/stm32u5xx_hal_dma.c ****     }
 1138              		.loc 1 554 7 is_stmt 1 view .LVU360
 1139 005a 2268     		ldr	r2, [r4]
 1140 005c 5369     		ldr	r3, [r2, #20]
 1141 005e 43F40053 		orr	r3, r3, #8192
 1142 0062 5361     		str	r3, [r2, #20]
ARM GAS  C:\Users\Ya\AppData\Local\Temp\ccY6d54u.s 			page 55


 1143              	.L51:
 558:Drivers/STM32U5xx_HAL_Driver/Src/stm32u5xx_hal_dma.c ****   }
 1144              		.loc 1 558 5 view .LVU361
 1145 0064 2268     		ldr	r2, [r4]
 1146 0066 5369     		ldr	r3, [r2, #20]
 1147 0068 43F00103 		orr	r3, r3, #1
 1148 006c 5361     		str	r3, [r2, #20]
 571:Drivers/STM32U5xx_HAL_Driver/Src/stm32u5xx_hal_dma.c **** }
 1149              		.loc 1 571 3 view .LVU362
 571:Drivers/STM32U5xx_HAL_Driver/Src/stm32u5xx_hal_dma.c **** }
 1150              		.loc 1 571 10 is_stmt 0 view .LVU363
 1151 006e 0020     		movs	r0, #0
 1152 0070 DCE7     		b	.L48
 1153              	.LVL43:
 1154              	.L52:
 1155              		.cfi_def_cfa_offset 0
 1156              		.cfi_restore 4
 1157              		.cfi_restore 14
 519:Drivers/STM32U5xx_HAL_Driver/Src/stm32u5xx_hal_dma.c ****   }
 1158              		.loc 1 519 12 view .LVU364
 1159 0072 0120     		movs	r0, #1
 1160              	.LVL44:
 572:Drivers/STM32U5xx_HAL_Driver/Src/stm32u5xx_hal_dma.c **** 
 1161              		.loc 1 572 1 view .LVU365
 1162 0074 7047     		bx	lr
 1163              	.LVL45:
 1164              	.L53:
 1165              		.cfi_def_cfa_offset 8
 1166              		.cfi_offset 4, -8
 1167              		.cfi_offset 14, -4
 526:Drivers/STM32U5xx_HAL_Driver/Src/stm32u5xx_hal_dma.c **** 
 1168              		.loc 1 526 3 view .LVU366
 1169 0076 0220     		movs	r0, #2
 1170 0078 D8E7     		b	.L48
 1171              		.cfi_endproc
 1172              	.LFE343:
 1174              		.section	.text.HAL_DMA_Abort,"ax",%progbits
 1175              		.align	1
 1176              		.global	HAL_DMA_Abort
 1177              		.syntax unified
 1178              		.thumb
 1179              		.thumb_func
 1181              	HAL_DMA_Abort:
 1182              	.LVL46:
 1183              	.LFB344:
 584:Drivers/STM32U5xx_HAL_Driver/Src/stm32u5xx_hal_dma.c ****   /* Get tick number */
 1184              		.loc 1 584 1 is_stmt 1 view -0
 1185              		.cfi_startproc
 1186              		@ args = 0, pretend = 0, frame = 0
 1187              		@ frame_needed = 0, uses_anonymous_args = 0
 584:Drivers/STM32U5xx_HAL_Driver/Src/stm32u5xx_hal_dma.c ****   /* Get tick number */
 1188              		.loc 1 584 1 is_stmt 0 view .LVU368
 1189 0000 38B5     		push	{r3, r4, r5, lr}
 1190              		.cfi_def_cfa_offset 16
 1191              		.cfi_offset 3, -16
 1192              		.cfi_offset 4, -12
 1193              		.cfi_offset 5, -8
ARM GAS  C:\Users\Ya\AppData\Local\Temp\ccY6d54u.s 			page 56


 1194              		.cfi_offset 14, -4
 1195 0002 0446     		mov	r4, r0
 586:Drivers/STM32U5xx_HAL_Driver/Src/stm32u5xx_hal_dma.c **** 
 1196              		.loc 1 586 3 is_stmt 1 view .LVU369
 586:Drivers/STM32U5xx_HAL_Driver/Src/stm32u5xx_hal_dma.c **** 
 1197              		.loc 1 586 25 is_stmt 0 view .LVU370
 1198 0004 FFF7FEFF 		bl	HAL_GetTick
 1199              	.LVL47:
 589:Drivers/STM32U5xx_HAL_Driver/Src/stm32u5xx_hal_dma.c ****   {
 1200              		.loc 1 589 3 is_stmt 1 view .LVU371
 589:Drivers/STM32U5xx_HAL_Driver/Src/stm32u5xx_hal_dma.c ****   {
 1201              		.loc 1 589 6 is_stmt 0 view .LVU372
 1202 0008 002C     		cmp	r4, #0
 1203 000a 4DD0     		beq	.L66
 1204 000c 0546     		mov	r5, r0
 595:Drivers/STM32U5xx_HAL_Driver/Src/stm32u5xx_hal_dma.c ****   {
 1205              		.loc 1 595 3 is_stmt 1 view .LVU373
 595:Drivers/STM32U5xx_HAL_Driver/Src/stm32u5xx_hal_dma.c ****   {
 1206              		.loc 1 595 11 is_stmt 0 view .LVU374
 1207 000e 94F85430 		ldrb	r3, [r4, #84]	@ zero_extendqisi2
 1208 0012 DBB2     		uxtb	r3, r3
 595:Drivers/STM32U5xx_HAL_Driver/Src/stm32u5xx_hal_dma.c ****   {
 1209              		.loc 1 595 6 view .LVU375
 1210 0014 022B     		cmp	r3, #2
 1211 0016 06D0     		beq	.L61
 598:Drivers/STM32U5xx_HAL_Driver/Src/stm32u5xx_hal_dma.c **** 
 1212              		.loc 1 598 5 is_stmt 1 view .LVU376
 598:Drivers/STM32U5xx_HAL_Driver/Src/stm32u5xx_hal_dma.c **** 
 1213              		.loc 1 598 21 is_stmt 0 view .LVU377
 1214 0018 2023     		movs	r3, #32
 1215 001a A365     		str	r3, [r4, #88]
 601:Drivers/STM32U5xx_HAL_Driver/Src/stm32u5xx_hal_dma.c **** 
 1216              		.loc 1 601 5 is_stmt 1 view .LVU378
 601:Drivers/STM32U5xx_HAL_Driver/Src/stm32u5xx_hal_dma.c **** 
 1217              		.loc 1 601 5 view .LVU379
 1218 001c 0023     		movs	r3, #0
 1219 001e 84F84C30 		strb	r3, [r4, #76]
 601:Drivers/STM32U5xx_HAL_Driver/Src/stm32u5xx_hal_dma.c **** 
 1220              		.loc 1 601 5 view .LVU380
 603:Drivers/STM32U5xx_HAL_Driver/Src/stm32u5xx_hal_dma.c ****   }
 1221              		.loc 1 603 5 view .LVU381
 603:Drivers/STM32U5xx_HAL_Driver/Src/stm32u5xx_hal_dma.c ****   }
 1222              		.loc 1 603 12 is_stmt 0 view .LVU382
 1223 0022 0120     		movs	r0, #1
 1224              	.LVL48:
 1225              	.L60:
 667:Drivers/STM32U5xx_HAL_Driver/Src/stm32u5xx_hal_dma.c **** 
 1226              		.loc 1 667 1 view .LVU383
 1227 0024 38BD     		pop	{r3, r4, r5, pc}
 1228              	.LVL49:
 1229              	.L61:
 608:Drivers/STM32U5xx_HAL_Driver/Src/stm32u5xx_hal_dma.c **** 
 1230              		.loc 1 608 5 is_stmt 1 view .LVU384
 608:Drivers/STM32U5xx_HAL_Driver/Src/stm32u5xx_hal_dma.c **** 
 1231              		.loc 1 608 9 is_stmt 0 view .LVU385
 1232 0026 2268     		ldr	r2, [r4]
 608:Drivers/STM32U5xx_HAL_Driver/Src/stm32u5xx_hal_dma.c **** 
ARM GAS  C:\Users\Ya\AppData\Local\Temp\ccY6d54u.s 			page 57


 1233              		.loc 1 608 19 view .LVU386
 1234 0028 5369     		ldr	r3, [r2, #20]
 608:Drivers/STM32U5xx_HAL_Driver/Src/stm32u5xx_hal_dma.c **** 
 1235              		.loc 1 608 25 view .LVU387
 1236 002a 43F00403 		orr	r3, r3, #4
 1237 002e 5361     		str	r3, [r2, #20]
 611:Drivers/STM32U5xx_HAL_Driver/Src/stm32u5xx_hal_dma.c **** 
 1238              		.loc 1 611 5 is_stmt 1 view .LVU388
 611:Drivers/STM32U5xx_HAL_Driver/Src/stm32u5xx_hal_dma.c **** 
 1239              		.loc 1 611 17 is_stmt 0 view .LVU389
 1240 0030 0523     		movs	r3, #5
 1241 0032 84F85430 		strb	r3, [r4, #84]
 614:Drivers/STM32U5xx_HAL_Driver/Src/stm32u5xx_hal_dma.c ****     {
 1242              		.loc 1 614 5 is_stmt 1 view .LVU390
 1243              	.LVL50:
 1244              	.L62:
 614:Drivers/STM32U5xx_HAL_Driver/Src/stm32u5xx_hal_dma.c ****     {
 1245              		.loc 1 614 50 view .LVU391
 614:Drivers/STM32U5xx_HAL_Driver/Src/stm32u5xx_hal_dma.c ****     {
 1246              		.loc 1 614 17 is_stmt 0 view .LVU392
 1247 0036 2368     		ldr	r3, [r4]
 614:Drivers/STM32U5xx_HAL_Driver/Src/stm32u5xx_hal_dma.c ****     {
 1248              		.loc 1 614 27 view .LVU393
 1249 0038 1A69     		ldr	r2, [r3, #16]
 614:Drivers/STM32U5xx_HAL_Driver/Src/stm32u5xx_hal_dma.c ****     {
 1250              		.loc 1 614 50 view .LVU394
 1251 003a 12F4005F 		tst	r2, #8192
 1252 003e 17D1     		bne	.L68
 617:Drivers/STM32U5xx_HAL_Driver/Src/stm32u5xx_hal_dma.c ****       {
 1253              		.loc 1 617 7 is_stmt 1 view .LVU395
 617:Drivers/STM32U5xx_HAL_Driver/Src/stm32u5xx_hal_dma.c ****       {
 1254              		.loc 1 617 12 is_stmt 0 view .LVU396
 1255 0040 FFF7FEFF 		bl	HAL_GetTick
 1256              	.LVL51:
 617:Drivers/STM32U5xx_HAL_Driver/Src/stm32u5xx_hal_dma.c ****       {
 1257              		.loc 1 617 26 view .LVU397
 1258 0044 431B     		subs	r3, r0, r5
 617:Drivers/STM32U5xx_HAL_Driver/Src/stm32u5xx_hal_dma.c ****       {
 1259              		.loc 1 617 10 view .LVU398
 1260 0046 052B     		cmp	r3, #5
 1261 0048 F5D9     		bls	.L62
 620:Drivers/STM32U5xx_HAL_Driver/Src/stm32u5xx_hal_dma.c **** 
 1262              		.loc 1 620 9 is_stmt 1 view .LVU399
 620:Drivers/STM32U5xx_HAL_Driver/Src/stm32u5xx_hal_dma.c **** 
 1263              		.loc 1 620 13 is_stmt 0 view .LVU400
 1264 004a A36D     		ldr	r3, [r4, #88]
 620:Drivers/STM32U5xx_HAL_Driver/Src/stm32u5xx_hal_dma.c **** 
 1265              		.loc 1 620 25 view .LVU401
 1266 004c 43F01003 		orr	r3, r3, #16
 1267 0050 A365     		str	r3, [r4, #88]
 623:Drivers/STM32U5xx_HAL_Driver/Src/stm32u5xx_hal_dma.c **** 
 1268              		.loc 1 623 9 is_stmt 1 view .LVU402
 623:Drivers/STM32U5xx_HAL_Driver/Src/stm32u5xx_hal_dma.c **** 
 1269              		.loc 1 623 21 is_stmt 0 view .LVU403
 1270 0052 0323     		movs	r3, #3
 1271 0054 84F85430 		strb	r3, [r4, #84]
 626:Drivers/STM32U5xx_HAL_Driver/Src/stm32u5xx_hal_dma.c ****         {
ARM GAS  C:\Users\Ya\AppData\Local\Temp\ccY6d54u.s 			page 58


 1272              		.loc 1 626 9 is_stmt 1 view .LVU404
 626:Drivers/STM32U5xx_HAL_Driver/Src/stm32u5xx_hal_dma.c ****         {
 1273              		.loc 1 626 18 is_stmt 0 view .LVU405
 1274 0058 236D     		ldr	r3, [r4, #80]
 626:Drivers/STM32U5xx_HAL_Driver/Src/stm32u5xx_hal_dma.c ****         {
 1275              		.loc 1 626 12 view .LVU406
 1276 005a 13F0800F 		tst	r3, #128
 1277 005e 02D0     		beq	.L63
 629:Drivers/STM32U5xx_HAL_Driver/Src/stm32u5xx_hal_dma.c ****         }
 1278              		.loc 1 629 11 is_stmt 1 view .LVU407
 629:Drivers/STM32U5xx_HAL_Driver/Src/stm32u5xx_hal_dma.c ****         }
 1279              		.loc 1 629 15 is_stmt 0 view .LVU408
 1280 0060 636F     		ldr	r3, [r4, #116]
 629:Drivers/STM32U5xx_HAL_Driver/Src/stm32u5xx_hal_dma.c ****         }
 1281              		.loc 1 629 40 view .LVU409
 1282 0062 0122     		movs	r2, #1
 1283 0064 1A73     		strb	r2, [r3, #12]
 1284              	.L63:
 633:Drivers/STM32U5xx_HAL_Driver/Src/stm32u5xx_hal_dma.c **** 
 1285              		.loc 1 633 9 is_stmt 1 view .LVU410
 633:Drivers/STM32U5xx_HAL_Driver/Src/stm32u5xx_hal_dma.c **** 
 1286              		.loc 1 633 9 view .LVU411
 1287 0066 0023     		movs	r3, #0
 1288 0068 84F84C30 		strb	r3, [r4, #76]
 633:Drivers/STM32U5xx_HAL_Driver/Src/stm32u5xx_hal_dma.c **** 
 1289              		.loc 1 633 9 view .LVU412
 635:Drivers/STM32U5xx_HAL_Driver/Src/stm32u5xx_hal_dma.c ****       }
 1290              		.loc 1 635 9 view .LVU413
 635:Drivers/STM32U5xx_HAL_Driver/Src/stm32u5xx_hal_dma.c ****       }
 1291              		.loc 1 635 16 is_stmt 0 view .LVU414
 1292 006c 0120     		movs	r0, #1
 1293 006e D9E7     		b	.L60
 1294              	.L68:
 640:Drivers/STM32U5xx_HAL_Driver/Src/stm32u5xx_hal_dma.c **** 
 1295              		.loc 1 640 5 is_stmt 1 view .LVU415
 640:Drivers/STM32U5xx_HAL_Driver/Src/stm32u5xx_hal_dma.c **** 
 1296              		.loc 1 640 19 is_stmt 0 view .LVU416
 1297 0070 5A69     		ldr	r2, [r3, #20]
 640:Drivers/STM32U5xx_HAL_Driver/Src/stm32u5xx_hal_dma.c **** 
 1298              		.loc 1 640 25 view .LVU417
 1299 0072 42F00202 		orr	r2, r2, #2
 1300 0076 5A61     		str	r2, [r3, #20]
 643:Drivers/STM32U5xx_HAL_Driver/Src/stm32u5xx_hal_dma.c **** 
 1301              		.loc 1 643 5 is_stmt 1 view .LVU418
 643:Drivers/STM32U5xx_HAL_Driver/Src/stm32u5xx_hal_dma.c **** 
 1302              		.loc 1 643 17 is_stmt 0 view .LVU419
 1303 0078 0423     		movs	r3, #4
 1304 007a 84F85430 		strb	r3, [r4, #84]
 646:Drivers/STM32U5xx_HAL_Driver/Src/stm32u5xx_hal_dma.c ****                                 DMA_FLAG_TO));
 1305              		.loc 1 646 5 is_stmt 1 view .LVU420
 1306 007e 2368     		ldr	r3, [r4]
 1307 0080 4FF4FE42 		mov	r2, #32512
 1308 0084 DA60     		str	r2, [r3, #12]
 650:Drivers/STM32U5xx_HAL_Driver/Src/stm32u5xx_hal_dma.c **** 
 1309              		.loc 1 650 5 view .LVU421
 650:Drivers/STM32U5xx_HAL_Driver/Src/stm32u5xx_hal_dma.c **** 
 1310              		.loc 1 650 17 is_stmt 0 view .LVU422
ARM GAS  C:\Users\Ya\AppData\Local\Temp\ccY6d54u.s 			page 59


 1311 0086 0123     		movs	r3, #1
 1312 0088 84F85430 		strb	r3, [r4, #84]
 653:Drivers/STM32U5xx_HAL_Driver/Src/stm32u5xx_hal_dma.c ****     {
 1313              		.loc 1 653 5 is_stmt 1 view .LVU423
 653:Drivers/STM32U5xx_HAL_Driver/Src/stm32u5xx_hal_dma.c ****     {
 1314              		.loc 1 653 14 is_stmt 0 view .LVU424
 1315 008c 236D     		ldr	r3, [r4, #80]
 653:Drivers/STM32U5xx_HAL_Driver/Src/stm32u5xx_hal_dma.c ****     {
 1316              		.loc 1 653 8 view .LVU425
 1317 008e 13F0800F 		tst	r3, #128
 1318 0092 05D0     		beq	.L65
 656:Drivers/STM32U5xx_HAL_Driver/Src/stm32u5xx_hal_dma.c **** 
 1319              		.loc 1 656 7 is_stmt 1 view .LVU426
 656:Drivers/STM32U5xx_HAL_Driver/Src/stm32u5xx_hal_dma.c **** 
 1320              		.loc 1 656 11 is_stmt 0 view .LVU427
 1321 0094 636F     		ldr	r3, [r4, #116]
 656:Drivers/STM32U5xx_HAL_Driver/Src/stm32u5xx_hal_dma.c **** 
 1322              		.loc 1 656 36 view .LVU428
 1323 0096 0122     		movs	r2, #1
 1324 0098 1A73     		strb	r2, [r3, #12]
 659:Drivers/STM32U5xx_HAL_Driver/Src/stm32u5xx_hal_dma.c ****     }
 1325              		.loc 1 659 7 is_stmt 1 view .LVU429
 659:Drivers/STM32U5xx_HAL_Driver/Src/stm32u5xx_hal_dma.c ****     }
 1326              		.loc 1 659 11 is_stmt 0 view .LVU430
 1327 009a 2368     		ldr	r3, [r4]
 659:Drivers/STM32U5xx_HAL_Driver/Src/stm32u5xx_hal_dma.c ****     }
 1328              		.loc 1 659 28 view .LVU431
 1329 009c 0022     		movs	r2, #0
 1330 009e 9A64     		str	r2, [r3, #72]
 1331              	.L65:
 663:Drivers/STM32U5xx_HAL_Driver/Src/stm32u5xx_hal_dma.c ****   }
 1332              		.loc 1 663 5 is_stmt 1 view .LVU432
 663:Drivers/STM32U5xx_HAL_Driver/Src/stm32u5xx_hal_dma.c ****   }
 1333              		.loc 1 663 5 view .LVU433
 1334 00a0 0020     		movs	r0, #0
 1335 00a2 84F84C00 		strb	r0, [r4, #76]
 663:Drivers/STM32U5xx_HAL_Driver/Src/stm32u5xx_hal_dma.c ****   }
 1336              		.loc 1 663 5 view .LVU434
 666:Drivers/STM32U5xx_HAL_Driver/Src/stm32u5xx_hal_dma.c **** }
 1337              		.loc 1 666 3 view .LVU435
 666:Drivers/STM32U5xx_HAL_Driver/Src/stm32u5xx_hal_dma.c **** }
 1338              		.loc 1 666 10 is_stmt 0 view .LVU436
 1339 00a6 BDE7     		b	.L60
 1340              	.LVL52:
 1341              	.L66:
 591:Drivers/STM32U5xx_HAL_Driver/Src/stm32u5xx_hal_dma.c ****   }
 1342              		.loc 1 591 12 view .LVU437
 1343 00a8 0120     		movs	r0, #1
 1344              	.LVL53:
 591:Drivers/STM32U5xx_HAL_Driver/Src/stm32u5xx_hal_dma.c ****   }
 1345              		.loc 1 591 12 view .LVU438
 1346 00aa BBE7     		b	.L60
 1347              		.cfi_endproc
 1348              	.LFE344:
 1350              		.section	.text.HAL_DMA_Abort_IT,"ax",%progbits
 1351              		.align	1
 1352              		.global	HAL_DMA_Abort_IT
ARM GAS  C:\Users\Ya\AppData\Local\Temp\ccY6d54u.s 			page 60


 1353              		.syntax unified
 1354              		.thumb
 1355              		.thumb_func
 1357              	HAL_DMA_Abort_IT:
 1358              	.LVL54:
 1359              	.LFB345:
 676:Drivers/STM32U5xx_HAL_Driver/Src/stm32u5xx_hal_dma.c ****   /* Check the DMA peripheral handle parameter */
 1360              		.loc 1 676 1 is_stmt 1 view -0
 1361              		.cfi_startproc
 1362              		@ args = 0, pretend = 0, frame = 0
 1363              		@ frame_needed = 0, uses_anonymous_args = 0
 1364              		@ link register save eliminated.
 678:Drivers/STM32U5xx_HAL_Driver/Src/stm32u5xx_hal_dma.c ****   {
 1365              		.loc 1 678 3 view .LVU440
 678:Drivers/STM32U5xx_HAL_Driver/Src/stm32u5xx_hal_dma.c ****   {
 1366              		.loc 1 678 6 is_stmt 0 view .LVU441
 1367 0000 A0B1     		cbz	r0, .L72
 684:Drivers/STM32U5xx_HAL_Driver/Src/stm32u5xx_hal_dma.c ****   {
 1368              		.loc 1 684 3 is_stmt 1 view .LVU442
 684:Drivers/STM32U5xx_HAL_Driver/Src/stm32u5xx_hal_dma.c ****   {
 1369              		.loc 1 684 11 is_stmt 0 view .LVU443
 1370 0002 90F85430 		ldrb	r3, [r0, #84]	@ zero_extendqisi2
 1371 0006 DBB2     		uxtb	r3, r3
 684:Drivers/STM32U5xx_HAL_Driver/Src/stm32u5xx_hal_dma.c ****   {
 1372              		.loc 1 684 6 view .LVU444
 1373 0008 022B     		cmp	r3, #2
 1374 000a 03D0     		beq	.L71
 687:Drivers/STM32U5xx_HAL_Driver/Src/stm32u5xx_hal_dma.c **** 
 1375              		.loc 1 687 5 is_stmt 1 view .LVU445
 687:Drivers/STM32U5xx_HAL_Driver/Src/stm32u5xx_hal_dma.c **** 
 1376              		.loc 1 687 21 is_stmt 0 view .LVU446
 1377 000c 2023     		movs	r3, #32
 1378 000e 8365     		str	r3, [r0, #88]
 689:Drivers/STM32U5xx_HAL_Driver/Src/stm32u5xx_hal_dma.c ****   }
 1379              		.loc 1 689 5 is_stmt 1 view .LVU447
 689:Drivers/STM32U5xx_HAL_Driver/Src/stm32u5xx_hal_dma.c ****   }
 1380              		.loc 1 689 12 is_stmt 0 view .LVU448
 1381 0010 0120     		movs	r0, #1
 1382              	.LVL55:
 689:Drivers/STM32U5xx_HAL_Driver/Src/stm32u5xx_hal_dma.c ****   }
 1383              		.loc 1 689 12 view .LVU449
 1384 0012 7047     		bx	lr
 1385              	.LVL56:
 1386              	.L71:
 694:Drivers/STM32U5xx_HAL_Driver/Src/stm32u5xx_hal_dma.c **** 
 1387              		.loc 1 694 5 is_stmt 1 view .LVU450
 694:Drivers/STM32U5xx_HAL_Driver/Src/stm32u5xx_hal_dma.c **** 
 1388              		.loc 1 694 17 is_stmt 0 view .LVU451
 1389 0014 0423     		movs	r3, #4
 1390 0016 80F85430 		strb	r3, [r0, #84]
 697:Drivers/STM32U5xx_HAL_Driver/Src/stm32u5xx_hal_dma.c ****   }
 1391              		.loc 1 697 5 is_stmt 1 view .LVU452
 697:Drivers/STM32U5xx_HAL_Driver/Src/stm32u5xx_hal_dma.c ****   }
 1392              		.loc 1 697 9 is_stmt 0 view .LVU453
 1393 001a 0268     		ldr	r2, [r0]
 697:Drivers/STM32U5xx_HAL_Driver/Src/stm32u5xx_hal_dma.c ****   }
 1394              		.loc 1 697 19 view .LVU454
ARM GAS  C:\Users\Ya\AppData\Local\Temp\ccY6d54u.s 			page 61


 1395 001c 5369     		ldr	r3, [r2, #20]
 697:Drivers/STM32U5xx_HAL_Driver/Src/stm32u5xx_hal_dma.c ****   }
 1396              		.loc 1 697 25 view .LVU455
 1397 001e 43F40053 		orr	r3, r3, #8192
 1398 0022 43F00403 		orr	r3, r3, #4
 1399 0026 5361     		str	r3, [r2, #20]
 700:Drivers/STM32U5xx_HAL_Driver/Src/stm32u5xx_hal_dma.c **** }
 1400              		.loc 1 700 3 is_stmt 1 view .LVU456
 700:Drivers/STM32U5xx_HAL_Driver/Src/stm32u5xx_hal_dma.c **** }
 1401              		.loc 1 700 10 is_stmt 0 view .LVU457
 1402 0028 0020     		movs	r0, #0
 1403              	.LVL57:
 700:Drivers/STM32U5xx_HAL_Driver/Src/stm32u5xx_hal_dma.c **** }
 1404              		.loc 1 700 10 view .LVU458
 1405 002a 7047     		bx	lr
 1406              	.LVL58:
 1407              	.L72:
 680:Drivers/STM32U5xx_HAL_Driver/Src/stm32u5xx_hal_dma.c ****   }
 1408              		.loc 1 680 12 view .LVU459
 1409 002c 0120     		movs	r0, #1
 1410              	.LVL59:
 701:Drivers/STM32U5xx_HAL_Driver/Src/stm32u5xx_hal_dma.c **** 
 1411              		.loc 1 701 1 view .LVU460
 1412 002e 7047     		bx	lr
 1413              		.cfi_endproc
 1414              	.LFE345:
 1416              		.section	.text.HAL_DMA_PollForTransfer,"ax",%progbits
 1417              		.align	1
 1418              		.global	HAL_DMA_PollForTransfer
 1419              		.syntax unified
 1420              		.thumb
 1421              		.thumb_func
 1423              	HAL_DMA_PollForTransfer:
 1424              	.LVL60:
 1425              	.LFB346:
 714:Drivers/STM32U5xx_HAL_Driver/Src/stm32u5xx_hal_dma.c ****   /* Get tick number */
 1426              		.loc 1 714 1 is_stmt 1 view -0
 1427              		.cfi_startproc
 1428              		@ args = 0, pretend = 0, frame = 0
 1429              		@ frame_needed = 0, uses_anonymous_args = 0
 714:Drivers/STM32U5xx_HAL_Driver/Src/stm32u5xx_hal_dma.c ****   /* Get tick number */
 1430              		.loc 1 714 1 is_stmt 0 view .LVU462
 1431 0000 2DE9F041 		push	{r4, r5, r6, r7, r8, lr}
 1432              		.cfi_def_cfa_offset 24
 1433              		.cfi_offset 4, -24
 1434              		.cfi_offset 5, -20
 1435              		.cfi_offset 6, -16
 1436              		.cfi_offset 7, -12
 1437              		.cfi_offset 8, -8
 1438              		.cfi_offset 14, -4
 1439 0004 0446     		mov	r4, r0
 1440 0006 0E46     		mov	r6, r1
 1441 0008 1546     		mov	r5, r2
 716:Drivers/STM32U5xx_HAL_Driver/Src/stm32u5xx_hal_dma.c ****   uint32_t level_flag;
 1442              		.loc 1 716 3 is_stmt 1 view .LVU463
 716:Drivers/STM32U5xx_HAL_Driver/Src/stm32u5xx_hal_dma.c ****   uint32_t level_flag;
 1443              		.loc 1 716 24 is_stmt 0 view .LVU464
ARM GAS  C:\Users\Ya\AppData\Local\Temp\ccY6d54u.s 			page 62


 1444 000a FFF7FEFF 		bl	HAL_GetTick
 1445              	.LVL61:
 717:Drivers/STM32U5xx_HAL_Driver/Src/stm32u5xx_hal_dma.c ****   uint32_t tmp_csr;
 1446              		.loc 1 717 3 is_stmt 1 view .LVU465
 718:Drivers/STM32U5xx_HAL_Driver/Src/stm32u5xx_hal_dma.c **** 
 1447              		.loc 1 718 3 view .LVU466
 721:Drivers/STM32U5xx_HAL_Driver/Src/stm32u5xx_hal_dma.c ****   {
 1448              		.loc 1 721 3 view .LVU467
 721:Drivers/STM32U5xx_HAL_Driver/Src/stm32u5xx_hal_dma.c ****   {
 1449              		.loc 1 721 6 is_stmt 0 view .LVU468
 1450 000e 002C     		cmp	r4, #0
 1451 0010 00F09980 		beq	.L90
 1452 0014 0746     		mov	r7, r0
 727:Drivers/STM32U5xx_HAL_Driver/Src/stm32u5xx_hal_dma.c **** 
 1453              		.loc 1 727 3 is_stmt 1 view .LVU469
 730:Drivers/STM32U5xx_HAL_Driver/Src/stm32u5xx_hal_dma.c ****   {
 1454              		.loc 1 730 3 view .LVU470
 730:Drivers/STM32U5xx_HAL_Driver/Src/stm32u5xx_hal_dma.c ****   {
 1455              		.loc 1 730 11 is_stmt 0 view .LVU471
 1456 0016 94F85430 		ldrb	r3, [r4, #84]	@ zero_extendqisi2
 1457 001a DBB2     		uxtb	r3, r3
 730:Drivers/STM32U5xx_HAL_Driver/Src/stm32u5xx_hal_dma.c ****   {
 1458              		.loc 1 730 6 view .LVU472
 1459 001c 022B     		cmp	r3, #2
 1460 001e 07D0     		beq	.L75
 733:Drivers/STM32U5xx_HAL_Driver/Src/stm32u5xx_hal_dma.c **** 
 1461              		.loc 1 733 5 is_stmt 1 view .LVU473
 733:Drivers/STM32U5xx_HAL_Driver/Src/stm32u5xx_hal_dma.c **** 
 1462              		.loc 1 733 21 is_stmt 0 view .LVU474
 1463 0020 2023     		movs	r3, #32
 1464 0022 A365     		str	r3, [r4, #88]
 736:Drivers/STM32U5xx_HAL_Driver/Src/stm32u5xx_hal_dma.c **** 
 1465              		.loc 1 736 5 is_stmt 1 view .LVU475
 736:Drivers/STM32U5xx_HAL_Driver/Src/stm32u5xx_hal_dma.c **** 
 1466              		.loc 1 736 5 view .LVU476
 1467 0024 0023     		movs	r3, #0
 1468 0026 84F84C30 		strb	r3, [r4, #76]
 736:Drivers/STM32U5xx_HAL_Driver/Src/stm32u5xx_hal_dma.c **** 
 1469              		.loc 1 736 5 view .LVU477
 738:Drivers/STM32U5xx_HAL_Driver/Src/stm32u5xx_hal_dma.c ****   }
 1470              		.loc 1 738 5 view .LVU478
 738:Drivers/STM32U5xx_HAL_Driver/Src/stm32u5xx_hal_dma.c ****   }
 1471              		.loc 1 738 12 is_stmt 0 view .LVU479
 1472 002a 0120     		movs	r0, #1
 1473              	.LVL62:
 1474              	.L74:
 875:Drivers/STM32U5xx_HAL_Driver/Src/stm32u5xx_hal_dma.c **** 
 1475              		.loc 1 875 1 view .LVU480
 1476 002c BDE8F081 		pop	{r4, r5, r6, r7, r8, pc}
 1477              	.LVL63:
 1478              	.L75:
 742:Drivers/STM32U5xx_HAL_Driver/Src/stm32u5xx_hal_dma.c ****   {
 1479              		.loc 1 742 3 is_stmt 1 view .LVU481
 742:Drivers/STM32U5xx_HAL_Driver/Src/stm32u5xx_hal_dma.c ****   {
 1480              		.loc 1 742 12 is_stmt 0 view .LVU482
 1481 0030 236D     		ldr	r3, [r4, #80]
 742:Drivers/STM32U5xx_HAL_Driver/Src/stm32u5xx_hal_dma.c ****   {
ARM GAS  C:\Users\Ya\AppData\Local\Temp\ccY6d54u.s 			page 63


 1482              		.loc 1 742 19 view .LVU483
 1483 0032 03F08103 		and	r3, r3, #129
 742:Drivers/STM32U5xx_HAL_Driver/Src/stm32u5xx_hal_dma.c ****   {
 1484              		.loc 1 742 6 view .LVU484
 1485 0036 812B     		cmp	r3, #129
 1486 0038 05D0     		beq	.L94
 751:Drivers/STM32U5xx_HAL_Driver/Src/stm32u5xx_hal_dma.c **** 
 1487              		.loc 1 751 3 is_stmt 1 view .LVU485
 751:Drivers/STM32U5xx_HAL_Driver/Src/stm32u5xx_hal_dma.c **** 
 1488              		.loc 1 751 74 is_stmt 0 view .LVU486
 1489 003a 4EB9     		cbnz	r6, .L91
 1490 003c 4FF00108 		mov	r8, #1
 1491              	.L77:
 1492              	.LVL64:
 754:Drivers/STM32U5xx_HAL_Driver/Src/stm32u5xx_hal_dma.c **** 
 1493              		.loc 1 754 3 is_stmt 1 discriminator 4 view .LVU487
 754:Drivers/STM32U5xx_HAL_Driver/Src/stm32u5xx_hal_dma.c **** 
 1494              		.loc 1 754 17 is_stmt 0 discriminator 4 view .LVU488
 1495 0040 2368     		ldr	r3, [r4]
 754:Drivers/STM32U5xx_HAL_Driver/Src/stm32u5xx_hal_dma.c **** 
 1496              		.loc 1 754 11 discriminator 4 view .LVU489
 1497 0042 1B69     		ldr	r3, [r3, #16]
 1498              	.LVL65:
 756:Drivers/STM32U5xx_HAL_Driver/Src/stm32u5xx_hal_dma.c ****   {
 1499              		.loc 1 756 3 is_stmt 1 discriminator 4 view .LVU490
 756:Drivers/STM32U5xx_HAL_Driver/Src/stm32u5xx_hal_dma.c ****   {
 1500              		.loc 1 756 9 is_stmt 0 discriminator 4 view .LVU491
 1501 0044 09E0     		b	.L78
 1502              	.LVL66:
 1503              	.L94:
 745:Drivers/STM32U5xx_HAL_Driver/Src/stm32u5xx_hal_dma.c **** 
 1504              		.loc 1 745 5 is_stmt 1 view .LVU492
 745:Drivers/STM32U5xx_HAL_Driver/Src/stm32u5xx_hal_dma.c **** 
 1505              		.loc 1 745 21 is_stmt 0 view .LVU493
 1506 0046 4FF48073 		mov	r3, #256
 1507 004a A365     		str	r3, [r4, #88]
 747:Drivers/STM32U5xx_HAL_Driver/Src/stm32u5xx_hal_dma.c ****   }
 1508              		.loc 1 747 5 is_stmt 1 view .LVU494
 747:Drivers/STM32U5xx_HAL_Driver/Src/stm32u5xx_hal_dma.c ****   }
 1509              		.loc 1 747 12 is_stmt 0 view .LVU495
 1510 004c 0120     		movs	r0, #1
 1511              	.LVL67:
 747:Drivers/STM32U5xx_HAL_Driver/Src/stm32u5xx_hal_dma.c ****   }
 1512              		.loc 1 747 12 view .LVU496
 1513 004e EDE7     		b	.L74
 1514              	.LVL68:
 1515              	.L91:
 751:Drivers/STM32U5xx_HAL_Driver/Src/stm32u5xx_hal_dma.c **** 
 1516              		.loc 1 751 74 view .LVU497
 1517 0050 4FF40078 		mov	r8, #512
 1518 0054 F4E7     		b	.L77
 1519              	.LVL69:
 1520              	.L79:
 780:Drivers/STM32U5xx_HAL_Driver/Src/stm32u5xx_hal_dma.c ****   }
 1521              		.loc 1 780 5 is_stmt 1 view .LVU498
 780:Drivers/STM32U5xx_HAL_Driver/Src/stm32u5xx_hal_dma.c ****   }
 1522              		.loc 1 780 19 is_stmt 0 view .LVU499
ARM GAS  C:\Users\Ya\AppData\Local\Temp\ccY6d54u.s 			page 64


 1523 0056 2368     		ldr	r3, [r4]
 780:Drivers/STM32U5xx_HAL_Driver/Src/stm32u5xx_hal_dma.c ****   }
 1524              		.loc 1 780 13 view .LVU500
 1525 0058 1B69     		ldr	r3, [r3, #16]
 1526              	.LVL70:
 1527              	.L78:
 756:Drivers/STM32U5xx_HAL_Driver/Src/stm32u5xx_hal_dma.c ****   {
 1528              		.loc 1 756 33 is_stmt 1 view .LVU501
 1529 005a 13EA080F 		tst	r3, r8
 1530 005e 12D1     		bne	.L95
 759:Drivers/STM32U5xx_HAL_Driver/Src/stm32u5xx_hal_dma.c ****     {
 1531              		.loc 1 759 5 view .LVU502
 759:Drivers/STM32U5xx_HAL_Driver/Src/stm32u5xx_hal_dma.c ****     {
 1532              		.loc 1 759 8 is_stmt 0 view .LVU503
 1533 0060 B5F1FF3F 		cmp	r5, #-1
 1534 0064 F7D0     		beq	.L79
 761:Drivers/STM32U5xx_HAL_Driver/Src/stm32u5xx_hal_dma.c ****       {
 1535              		.loc 1 761 7 is_stmt 1 view .LVU504
 761:Drivers/STM32U5xx_HAL_Driver/Src/stm32u5xx_hal_dma.c ****       {
 1536              		.loc 1 761 13 is_stmt 0 view .LVU505
 1537 0066 FFF7FEFF 		bl	HAL_GetTick
 1538              	.LVL71:
 761:Drivers/STM32U5xx_HAL_Driver/Src/stm32u5xx_hal_dma.c ****       {
 1539              		.loc 1 761 27 view .LVU506
 1540 006a C31B     		subs	r3, r0, r7
 761:Drivers/STM32U5xx_HAL_Driver/Src/stm32u5xx_hal_dma.c ****       {
 1541              		.loc 1 761 10 view .LVU507
 1542 006c AB42     		cmp	r3, r5
 1543 006e 01D8     		bhi	.L80
 761:Drivers/STM32U5xx_HAL_Driver/Src/stm32u5xx_hal_dma.c ****       {
 1544              		.loc 1 761 51 discriminator 1 view .LVU508
 1545 0070 002D     		cmp	r5, #0
 1546 0072 F0D1     		bne	.L79
 1547              	.L80:
 764:Drivers/STM32U5xx_HAL_Driver/Src/stm32u5xx_hal_dma.c **** 
 1548              		.loc 1 764 9 is_stmt 1 view .LVU509
 764:Drivers/STM32U5xx_HAL_Driver/Src/stm32u5xx_hal_dma.c **** 
 1549              		.loc 1 764 13 is_stmt 0 view .LVU510
 1550 0074 A36D     		ldr	r3, [r4, #88]
 764:Drivers/STM32U5xx_HAL_Driver/Src/stm32u5xx_hal_dma.c **** 
 1551              		.loc 1 764 25 view .LVU511
 1552 0076 43F01003 		orr	r3, r3, #16
 1553 007a A365     		str	r3, [r4, #88]
 773:Drivers/STM32U5xx_HAL_Driver/Src/stm32u5xx_hal_dma.c **** 
 1554              		.loc 1 773 9 is_stmt 1 view .LVU512
 773:Drivers/STM32U5xx_HAL_Driver/Src/stm32u5xx_hal_dma.c **** 
 1555              		.loc 1 773 15 is_stmt 0 view .LVU513
 1556 007c 2046     		mov	r0, r4
 1557 007e FFF7FEFF 		bl	HAL_DMA_Abort
 1558              	.LVL72:
 775:Drivers/STM32U5xx_HAL_Driver/Src/stm32u5xx_hal_dma.c ****       }
 1559              		.loc 1 775 9 is_stmt 1 view .LVU514
 775:Drivers/STM32U5xx_HAL_Driver/Src/stm32u5xx_hal_dma.c ****       }
 1560              		.loc 1 775 16 is_stmt 0 view .LVU515
 1561 0082 0120     		movs	r0, #1
 1562 0084 D2E7     		b	.L74
 1563              	.LVL73:
ARM GAS  C:\Users\Ya\AppData\Local\Temp\ccY6d54u.s 			page 65


 1564              	.L95:
 784:Drivers/STM32U5xx_HAL_Driver/Src/stm32u5xx_hal_dma.c ****   {
 1565              		.loc 1 784 3 is_stmt 1 view .LVU516
 784:Drivers/STM32U5xx_HAL_Driver/Src/stm32u5xx_hal_dma.c ****   {
 1566              		.loc 1 784 6 is_stmt 0 view .LVU517
 1567 0086 13F4804F 		tst	r3, #16384
 1568 008a 07D0     		beq	.L82
 787:Drivers/STM32U5xx_HAL_Driver/Src/stm32u5xx_hal_dma.c **** 
 1569              		.loc 1 787 5 is_stmt 1 view .LVU518
 787:Drivers/STM32U5xx_HAL_Driver/Src/stm32u5xx_hal_dma.c **** 
 1570              		.loc 1 787 9 is_stmt 0 view .LVU519
 1571 008c A26D     		ldr	r2, [r4, #88]
 787:Drivers/STM32U5xx_HAL_Driver/Src/stm32u5xx_hal_dma.c **** 
 1572              		.loc 1 787 21 view .LVU520
 1573 008e 42F00802 		orr	r2, r2, #8
 1574 0092 A265     		str	r2, [r4, #88]
 790:Drivers/STM32U5xx_HAL_Driver/Src/stm32u5xx_hal_dma.c ****   }
 1575              		.loc 1 790 5 is_stmt 1 view .LVU521
 1576 0094 2268     		ldr	r2, [r4]
 1577 0096 4FF48041 		mov	r1, #16384
 1578 009a D160     		str	r1, [r2, #12]
 1579              	.L82:
 794:Drivers/STM32U5xx_HAL_Driver/Src/stm32u5xx_hal_dma.c ****   {
 1580              		.loc 1 794 3 view .LVU522
 794:Drivers/STM32U5xx_HAL_Driver/Src/stm32u5xx_hal_dma.c ****   {
 1581              		.loc 1 794 6 is_stmt 0 view .LVU523
 1582 009c 13F4E05F 		tst	r3, #7168
 1583 00a0 16D1     		bne	.L96
 846:Drivers/STM32U5xx_HAL_Driver/Src/stm32u5xx_hal_dma.c ****   {
 1584              		.loc 1 846 3 is_stmt 1 view .LVU524
 846:Drivers/STM32U5xx_HAL_Driver/Src/stm32u5xx_hal_dma.c ****   {
 1585              		.loc 1 846 6 is_stmt 0 view .LVU525
 1586 00a2 012E     		cmp	r6, #1
 1587 00a4 49D0     		beq	.L97
 851:Drivers/STM32U5xx_HAL_Driver/Src/stm32u5xx_hal_dma.c ****   {
 1588              		.loc 1 851 8 is_stmt 1 view .LVU526
 851:Drivers/STM32U5xx_HAL_Driver/Src/stm32u5xx_hal_dma.c ****   {
 1589              		.loc 1 851 11 is_stmt 0 view .LVU527
 1590 00a6 002E     		cmp	r6, #0
 1591 00a8 4FD1     		bne	.L92
 854:Drivers/STM32U5xx_HAL_Driver/Src/stm32u5xx_hal_dma.c **** 
 1592              		.loc 1 854 5 is_stmt 1 view .LVU528
 1593 00aa 2368     		ldr	r3, [r4]
 1594              	.LVL74:
 854:Drivers/STM32U5xx_HAL_Driver/Src/stm32u5xx_hal_dma.c **** 
 1595              		.loc 1 854 5 is_stmt 0 view .LVU529
 1596 00ac 4FF44072 		mov	r2, #768
 1597 00b0 DA60     		str	r2, [r3, #12]
 857:Drivers/STM32U5xx_HAL_Driver/Src/stm32u5xx_hal_dma.c **** 
 1598              		.loc 1 857 5 is_stmt 1 view .LVU530
 857:Drivers/STM32U5xx_HAL_Driver/Src/stm32u5xx_hal_dma.c **** 
 1599              		.loc 1 857 17 is_stmt 0 view .LVU531
 1600 00b2 0123     		movs	r3, #1
 1601 00b4 84F85430 		strb	r3, [r4, #84]
 860:Drivers/STM32U5xx_HAL_Driver/Src/stm32u5xx_hal_dma.c ****     {
 1602              		.loc 1 860 5 is_stmt 1 view .LVU532
 860:Drivers/STM32U5xx_HAL_Driver/Src/stm32u5xx_hal_dma.c ****     {
ARM GAS  C:\Users\Ya\AppData\Local\Temp\ccY6d54u.s 			page 66


 1603              		.loc 1 860 14 is_stmt 0 view .LVU533
 1604 00b8 236D     		ldr	r3, [r4, #80]
 860:Drivers/STM32U5xx_HAL_Driver/Src/stm32u5xx_hal_dma.c ****     {
 1605              		.loc 1 860 8 view .LVU534
 1606 00ba 13F0800F 		tst	r3, #128
 1607 00be 02D0     		beq	.L89
 863:Drivers/STM32U5xx_HAL_Driver/Src/stm32u5xx_hal_dma.c ****     }
 1608              		.loc 1 863 7 is_stmt 1 view .LVU535
 863:Drivers/STM32U5xx_HAL_Driver/Src/stm32u5xx_hal_dma.c ****     }
 1609              		.loc 1 863 11 is_stmt 0 view .LVU536
 1610 00c0 636F     		ldr	r3, [r4, #116]
 863:Drivers/STM32U5xx_HAL_Driver/Src/stm32u5xx_hal_dma.c ****     }
 1611              		.loc 1 863 36 view .LVU537
 1612 00c2 0122     		movs	r2, #1
 1613 00c4 1A73     		strb	r2, [r3, #12]
 1614              	.L89:
 867:Drivers/STM32U5xx_HAL_Driver/Src/stm32u5xx_hal_dma.c ****   }
 1615              		.loc 1 867 5 is_stmt 1 view .LVU538
 867:Drivers/STM32U5xx_HAL_Driver/Src/stm32u5xx_hal_dma.c ****   }
 1616              		.loc 1 867 5 view .LVU539
 1617 00c6 0023     		movs	r3, #0
 1618 00c8 84F84C30 		strb	r3, [r4, #76]
 867:Drivers/STM32U5xx_HAL_Driver/Src/stm32u5xx_hal_dma.c ****   }
 1619              		.loc 1 867 5 view .LVU540
 874:Drivers/STM32U5xx_HAL_Driver/Src/stm32u5xx_hal_dma.c **** }
 1620              		.loc 1 874 10 is_stmt 0 view .LVU541
 1621 00cc 3046     		mov	r0, r6
 1622 00ce ADE7     		b	.L74
 1623              	.LVL75:
 1624              	.L96:
 797:Drivers/STM32U5xx_HAL_Driver/Src/stm32u5xx_hal_dma.c ****     {
 1625              		.loc 1 797 5 is_stmt 1 view .LVU542
 797:Drivers/STM32U5xx_HAL_Driver/Src/stm32u5xx_hal_dma.c ****     {
 1626              		.loc 1 797 8 is_stmt 0 view .LVU543
 1627 00d0 13F4806F 		tst	r3, #1024
 1628 00d4 07D0     		beq	.L84
 800:Drivers/STM32U5xx_HAL_Driver/Src/stm32u5xx_hal_dma.c **** 
 1629              		.loc 1 800 7 is_stmt 1 view .LVU544
 800:Drivers/STM32U5xx_HAL_Driver/Src/stm32u5xx_hal_dma.c **** 
 1630              		.loc 1 800 11 is_stmt 0 view .LVU545
 1631 00d6 A26D     		ldr	r2, [r4, #88]
 800:Drivers/STM32U5xx_HAL_Driver/Src/stm32u5xx_hal_dma.c **** 
 1632              		.loc 1 800 23 view .LVU546
 1633 00d8 42F00102 		orr	r2, r2, #1
 1634 00dc A265     		str	r2, [r4, #88]
 803:Drivers/STM32U5xx_HAL_Driver/Src/stm32u5xx_hal_dma.c ****     }
 1635              		.loc 1 803 7 is_stmt 1 view .LVU547
 1636 00de 2268     		ldr	r2, [r4]
 1637 00e0 4FF48061 		mov	r1, #1024
 1638 00e4 D160     		str	r1, [r2, #12]
 1639              	.L84:
 807:Drivers/STM32U5xx_HAL_Driver/Src/stm32u5xx_hal_dma.c ****     {
 1640              		.loc 1 807 5 view .LVU548
 807:Drivers/STM32U5xx_HAL_Driver/Src/stm32u5xx_hal_dma.c ****     {
 1641              		.loc 1 807 8 is_stmt 0 view .LVU549
 1642 00e6 13F4006F 		tst	r3, #2048
 1643 00ea 07D0     		beq	.L85
ARM GAS  C:\Users\Ya\AppData\Local\Temp\ccY6d54u.s 			page 67


 810:Drivers/STM32U5xx_HAL_Driver/Src/stm32u5xx_hal_dma.c **** 
 1644              		.loc 1 810 7 is_stmt 1 view .LVU550
 810:Drivers/STM32U5xx_HAL_Driver/Src/stm32u5xx_hal_dma.c **** 
 1645              		.loc 1 810 11 is_stmt 0 view .LVU551
 1646 00ec A26D     		ldr	r2, [r4, #88]
 810:Drivers/STM32U5xx_HAL_Driver/Src/stm32u5xx_hal_dma.c **** 
 1647              		.loc 1 810 23 view .LVU552
 1648 00ee 42F00202 		orr	r2, r2, #2
 1649 00f2 A265     		str	r2, [r4, #88]
 813:Drivers/STM32U5xx_HAL_Driver/Src/stm32u5xx_hal_dma.c ****     }
 1650              		.loc 1 813 7 is_stmt 1 view .LVU553
 1651 00f4 2268     		ldr	r2, [r4]
 1652 00f6 4FF40061 		mov	r1, #2048
 1653 00fa D160     		str	r1, [r2, #12]
 1654              	.L85:
 817:Drivers/STM32U5xx_HAL_Driver/Src/stm32u5xx_hal_dma.c ****     {
 1655              		.loc 1 817 5 view .LVU554
 817:Drivers/STM32U5xx_HAL_Driver/Src/stm32u5xx_hal_dma.c ****     {
 1656              		.loc 1 817 8 is_stmt 0 view .LVU555
 1657 00fc 13F4805F 		tst	r3, #4096
 1658 0100 07D0     		beq	.L86
 820:Drivers/STM32U5xx_HAL_Driver/Src/stm32u5xx_hal_dma.c **** 
 1659              		.loc 1 820 7 is_stmt 1 view .LVU556
 820:Drivers/STM32U5xx_HAL_Driver/Src/stm32u5xx_hal_dma.c **** 
 1660              		.loc 1 820 11 is_stmt 0 view .LVU557
 1661 0102 A36D     		ldr	r3, [r4, #88]
 1662              	.LVL76:
 820:Drivers/STM32U5xx_HAL_Driver/Src/stm32u5xx_hal_dma.c **** 
 1663              		.loc 1 820 23 view .LVU558
 1664 0104 43F00403 		orr	r3, r3, #4
 1665 0108 A365     		str	r3, [r4, #88]
 823:Drivers/STM32U5xx_HAL_Driver/Src/stm32u5xx_hal_dma.c ****     }
 1666              		.loc 1 823 7 is_stmt 1 view .LVU559
 1667 010a 2368     		ldr	r3, [r4]
 1668 010c 4FF48052 		mov	r2, #4096
 1669 0110 DA60     		str	r2, [r3, #12]
 1670              	.L86:
 827:Drivers/STM32U5xx_HAL_Driver/Src/stm32u5xx_hal_dma.c **** 
 1671              		.loc 1 827 5 view .LVU560
 827:Drivers/STM32U5xx_HAL_Driver/Src/stm32u5xx_hal_dma.c **** 
 1672              		.loc 1 827 9 is_stmt 0 view .LVU561
 1673 0112 2268     		ldr	r2, [r4]
 827:Drivers/STM32U5xx_HAL_Driver/Src/stm32u5xx_hal_dma.c **** 
 1674              		.loc 1 827 19 view .LVU562
 1675 0114 5369     		ldr	r3, [r2, #20]
 827:Drivers/STM32U5xx_HAL_Driver/Src/stm32u5xx_hal_dma.c **** 
 1676              		.loc 1 827 25 view .LVU563
 1677 0116 43F00203 		orr	r3, r3, #2
 1678 011a 5361     		str	r3, [r2, #20]
 830:Drivers/STM32U5xx_HAL_Driver/Src/stm32u5xx_hal_dma.c **** 
 1679              		.loc 1 830 5 is_stmt 1 view .LVU564
 830:Drivers/STM32U5xx_HAL_Driver/Src/stm32u5xx_hal_dma.c **** 
 1680              		.loc 1 830 17 is_stmt 0 view .LVU565
 1681 011c 0123     		movs	r3, #1
 1682 011e 84F85430 		strb	r3, [r4, #84]
 833:Drivers/STM32U5xx_HAL_Driver/Src/stm32u5xx_hal_dma.c ****     {
 1683              		.loc 1 833 5 is_stmt 1 view .LVU566
ARM GAS  C:\Users\Ya\AppData\Local\Temp\ccY6d54u.s 			page 68


 833:Drivers/STM32U5xx_HAL_Driver/Src/stm32u5xx_hal_dma.c ****     {
 1684              		.loc 1 833 14 is_stmt 0 view .LVU567
 1685 0122 236D     		ldr	r3, [r4, #80]
 833:Drivers/STM32U5xx_HAL_Driver/Src/stm32u5xx_hal_dma.c ****     {
 1686              		.loc 1 833 8 view .LVU568
 1687 0124 13F0800F 		tst	r3, #128
 1688 0128 02D0     		beq	.L87
 836:Drivers/STM32U5xx_HAL_Driver/Src/stm32u5xx_hal_dma.c ****     }
 1689              		.loc 1 836 7 is_stmt 1 view .LVU569
 836:Drivers/STM32U5xx_HAL_Driver/Src/stm32u5xx_hal_dma.c ****     }
 1690              		.loc 1 836 11 is_stmt 0 view .LVU570
 1691 012a 636F     		ldr	r3, [r4, #116]
 836:Drivers/STM32U5xx_HAL_Driver/Src/stm32u5xx_hal_dma.c ****     }
 1692              		.loc 1 836 36 view .LVU571
 1693 012c 0122     		movs	r2, #1
 1694 012e 1A73     		strb	r2, [r3, #12]
 1695              	.L87:
 840:Drivers/STM32U5xx_HAL_Driver/Src/stm32u5xx_hal_dma.c **** 
 1696              		.loc 1 840 5 is_stmt 1 view .LVU572
 840:Drivers/STM32U5xx_HAL_Driver/Src/stm32u5xx_hal_dma.c **** 
 1697              		.loc 1 840 5 view .LVU573
 1698 0130 0023     		movs	r3, #0
 1699 0132 84F84C30 		strb	r3, [r4, #76]
 840:Drivers/STM32U5xx_HAL_Driver/Src/stm32u5xx_hal_dma.c **** 
 1700              		.loc 1 840 5 view .LVU574
 842:Drivers/STM32U5xx_HAL_Driver/Src/stm32u5xx_hal_dma.c ****   }
 1701              		.loc 1 842 5 view .LVU575
 842:Drivers/STM32U5xx_HAL_Driver/Src/stm32u5xx_hal_dma.c ****   }
 1702              		.loc 1 842 12 is_stmt 0 view .LVU576
 1703 0136 0120     		movs	r0, #1
 1704 0138 78E7     		b	.L74
 1705              	.LVL77:
 1706              	.L97:
 849:Drivers/STM32U5xx_HAL_Driver/Src/stm32u5xx_hal_dma.c ****   }
 1707              		.loc 1 849 5 is_stmt 1 view .LVU577
 1708 013a 2368     		ldr	r3, [r4]
 1709              	.LVL78:
 849:Drivers/STM32U5xx_HAL_Driver/Src/stm32u5xx_hal_dma.c ****   }
 1710              		.loc 1 849 5 is_stmt 0 view .LVU578
 1711 013c 4FF40072 		mov	r2, #512
 1712 0140 DA60     		str	r2, [r3, #12]
 874:Drivers/STM32U5xx_HAL_Driver/Src/stm32u5xx_hal_dma.c **** }
 1713              		.loc 1 874 10 view .LVU579
 1714 0142 0020     		movs	r0, #0
 1715 0144 72E7     		b	.L74
 1716              	.LVL79:
 1717              	.L90:
 723:Drivers/STM32U5xx_HAL_Driver/Src/stm32u5xx_hal_dma.c ****   }
 1718              		.loc 1 723 12 view .LVU580
 1719 0146 0120     		movs	r0, #1
 1720              	.LVL80:
 723:Drivers/STM32U5xx_HAL_Driver/Src/stm32u5xx_hal_dma.c ****   }
 1721              		.loc 1 723 12 view .LVU581
 1722 0148 70E7     		b	.L74
 1723              	.LVL81:
 1724              	.L92:
 871:Drivers/STM32U5xx_HAL_Driver/Src/stm32u5xx_hal_dma.c ****   }
ARM GAS  C:\Users\Ya\AppData\Local\Temp\ccY6d54u.s 			page 69


 1725              		.loc 1 871 12 view .LVU582
 1726 014a 0120     		movs	r0, #1
 1727 014c 6EE7     		b	.L74
 1728              		.cfi_endproc
 1729              	.LFE346:
 1731              		.section	.text.HAL_DMA_IRQHandler,"ax",%progbits
 1732              		.align	1
 1733              		.global	HAL_DMA_IRQHandler
 1734              		.syntax unified
 1735              		.thumb
 1736              		.thumb_func
 1738              	HAL_DMA_IRQHandler:
 1739              	.LVL82:
 1740              	.LFB347:
 884:Drivers/STM32U5xx_HAL_Driver/Src/stm32u5xx_hal_dma.c ****   DMA_TypeDef *p_dma_instance = GET_DMA_INSTANCE(hdma);
 1741              		.loc 1 884 1 is_stmt 1 view -0
 1742              		.cfi_startproc
 1743              		@ args = 0, pretend = 0, frame = 0
 1744              		@ frame_needed = 0, uses_anonymous_args = 0
 884:Drivers/STM32U5xx_HAL_Driver/Src/stm32u5xx_hal_dma.c ****   DMA_TypeDef *p_dma_instance = GET_DMA_INSTANCE(hdma);
 1745              		.loc 1 884 1 is_stmt 0 view .LVU584
 1746 0000 10B5     		push	{r4, lr}
 1747              		.cfi_def_cfa_offset 8
 1748              		.cfi_offset 4, -8
 1749              		.cfi_offset 14, -4
 1750 0002 0446     		mov	r4, r0
 885:Drivers/STM32U5xx_HAL_Driver/Src/stm32u5xx_hal_dma.c ****   uint32_t global_it_flag =  1UL << (GET_DMA_CHANNEL(hdma) & 0x1FU);
 1751              		.loc 1 885 3 is_stmt 1 view .LVU585
 885:Drivers/STM32U5xx_HAL_Driver/Src/stm32u5xx_hal_dma.c ****   uint32_t global_it_flag =  1UL << (GET_DMA_CHANNEL(hdma) & 0x1FU);
 1752              		.loc 1 885 33 is_stmt 0 view .LVU586
 1753 0004 0268     		ldr	r2, [r0]
 1754 0006 22F47F60 		bic	r0, r2, #4080
 1755              	.LVL83:
 885:Drivers/STM32U5xx_HAL_Driver/Src/stm32u5xx_hal_dma.c ****   uint32_t global_it_flag =  1UL << (GET_DMA_CHANNEL(hdma) & 0x1FU);
 1756              		.loc 1 885 33 view .LVU587
 1757 000a 20F00F00 		bic	r0, r0, #15
 1758              	.LVL84:
 886:Drivers/STM32U5xx_HAL_Driver/Src/stm32u5xx_hal_dma.c ****   uint32_t global_active_flag_ns = IS_DMA_GLOBAL_ACTIVE_FLAG_NS(p_dma_instance, global_it_flag);
 1759              		.loc 1 886 3 is_stmt 1 view .LVU588
 886:Drivers/STM32U5xx_HAL_Driver/Src/stm32u5xx_hal_dma.c ****   uint32_t global_active_flag_ns = IS_DMA_GLOBAL_ACTIVE_FLAG_NS(p_dma_instance, global_it_flag);
 1760              		.loc 1 886 38 is_stmt 0 view .LVU589
 1761 000e C2F30B03 		ubfx	r3, r2, #0, #12
 1762 0012 503B     		subs	r3, r3, #80
 886:Drivers/STM32U5xx_HAL_Driver/Src/stm32u5xx_hal_dma.c ****   uint32_t global_active_flag_ns = IS_DMA_GLOBAL_ACTIVE_FLAG_NS(p_dma_instance, global_it_flag);
 1763              		.loc 1 886 60 view .LVU590
 1764 0014 C3F3C413 		ubfx	r3, r3, #7, #5
 886:Drivers/STM32U5xx_HAL_Driver/Src/stm32u5xx_hal_dma.c ****   uint32_t global_active_flag_ns = IS_DMA_GLOBAL_ACTIVE_FLAG_NS(p_dma_instance, global_it_flag);
 1765              		.loc 1 886 12 view .LVU591
 1766 0018 0121     		movs	r1, #1
 1767 001a 01FA03F3 		lsl	r3, r1, r3
 1768              	.LVL85:
 887:Drivers/STM32U5xx_HAL_Driver/Src/stm32u5xx_hal_dma.c **** #if defined (__ARM_FEATURE_CMSE) && (__ARM_FEATURE_CMSE == 3U)
 1769              		.loc 1 887 3 is_stmt 1 view .LVU592
 887:Drivers/STM32U5xx_HAL_Driver/Src/stm32u5xx_hal_dma.c **** #if defined (__ARM_FEATURE_CMSE) && (__ARM_FEATURE_CMSE == 3U)
 1770              		.loc 1 887 36 is_stmt 0 view .LVU593
 1771 001e C168     		ldr	r1, [r0, #12]
 1772              	.LVL86:
ARM GAS  C:\Users\Ya\AppData\Local\Temp\ccY6d54u.s 			page 70


 896:Drivers/STM32U5xx_HAL_Driver/Src/stm32u5xx_hal_dma.c **** #endif /* defined (__ARM_FEATURE_CMSE) && (__ARM_FEATURE_CMSE == 3U) */
 1773              		.loc 1 896 3 is_stmt 1 view .LVU594
 896:Drivers/STM32U5xx_HAL_Driver/Src/stm32u5xx_hal_dma.c **** #endif /* defined (__ARM_FEATURE_CMSE) && (__ARM_FEATURE_CMSE == 3U) */
 1774              		.loc 1 896 6 is_stmt 0 view .LVU595
 1775 0020 1942     		tst	r1, r3
 1776 0022 00F0D680 		beq	.L98
 903:Drivers/STM32U5xx_HAL_Driver/Src/stm32u5xx_hal_dma.c ****   {
 1777              		.loc 1 903 3 is_stmt 1 view .LVU596
 903:Drivers/STM32U5xx_HAL_Driver/Src/stm32u5xx_hal_dma.c ****   {
 1778              		.loc 1 903 8 is_stmt 0 view .LVU597
 1779 0026 1369     		ldr	r3, [r2, #16]
 1780              	.LVL87:
 903:Drivers/STM32U5xx_HAL_Driver/Src/stm32u5xx_hal_dma.c ****   {
 1781              		.loc 1 903 6 view .LVU598
 1782 0028 13F4806F 		tst	r3, #1024
 1783 002c 0AD0     		beq	.L100
 906:Drivers/STM32U5xx_HAL_Driver/Src/stm32u5xx_hal_dma.c ****     {
 1784              		.loc 1 906 5 is_stmt 1 view .LVU599
 906:Drivers/STM32U5xx_HAL_Driver/Src/stm32u5xx_hal_dma.c ****     {
 1785              		.loc 1 906 9 is_stmt 0 view .LVU600
 1786 002e 5369     		ldr	r3, [r2, #20]
 906:Drivers/STM32U5xx_HAL_Driver/Src/stm32u5xx_hal_dma.c ****     {
 1787              		.loc 1 906 8 view .LVU601
 1788 0030 13F4806F 		tst	r3, #1024
 1789 0034 06D0     		beq	.L100
 909:Drivers/STM32U5xx_HAL_Driver/Src/stm32u5xx_hal_dma.c **** 
 1790              		.loc 1 909 7 is_stmt 1 view .LVU602
 1791 0036 4FF48063 		mov	r3, #1024
 1792 003a D360     		str	r3, [r2, #12]
 912:Drivers/STM32U5xx_HAL_Driver/Src/stm32u5xx_hal_dma.c ****     }
 1793              		.loc 1 912 7 view .LVU603
 912:Drivers/STM32U5xx_HAL_Driver/Src/stm32u5xx_hal_dma.c ****     }
 1794              		.loc 1 912 11 is_stmt 0 view .LVU604
 1795 003c A36D     		ldr	r3, [r4, #88]
 912:Drivers/STM32U5xx_HAL_Driver/Src/stm32u5xx_hal_dma.c ****     }
 1796              		.loc 1 912 23 view .LVU605
 1797 003e 43F00103 		orr	r3, r3, #1
 1798 0042 A365     		str	r3, [r4, #88]
 1799              	.L100:
 917:Drivers/STM32U5xx_HAL_Driver/Src/stm32u5xx_hal_dma.c ****   {
 1800              		.loc 1 917 3 is_stmt 1 view .LVU606
 917:Drivers/STM32U5xx_HAL_Driver/Src/stm32u5xx_hal_dma.c ****   {
 1801              		.loc 1 917 8 is_stmt 0 view .LVU607
 1802 0044 2368     		ldr	r3, [r4]
 1803 0046 1A69     		ldr	r2, [r3, #16]
 1804              	.LVL88:
 917:Drivers/STM32U5xx_HAL_Driver/Src/stm32u5xx_hal_dma.c ****   {
 1805              		.loc 1 917 6 view .LVU608
 1806 0048 12F4006F 		tst	r2, #2048
 1807 004c 0AD0     		beq	.L101
 920:Drivers/STM32U5xx_HAL_Driver/Src/stm32u5xx_hal_dma.c ****     {
 1808              		.loc 1 920 5 is_stmt 1 view .LVU609
 920:Drivers/STM32U5xx_HAL_Driver/Src/stm32u5xx_hal_dma.c ****     {
 1809              		.loc 1 920 9 is_stmt 0 view .LVU610
 1810 004e 5A69     		ldr	r2, [r3, #20]
 920:Drivers/STM32U5xx_HAL_Driver/Src/stm32u5xx_hal_dma.c ****     {
 1811              		.loc 1 920 8 view .LVU611
ARM GAS  C:\Users\Ya\AppData\Local\Temp\ccY6d54u.s 			page 71


 1812 0050 12F4006F 		tst	r2, #2048
 1813 0054 06D0     		beq	.L101
 923:Drivers/STM32U5xx_HAL_Driver/Src/stm32u5xx_hal_dma.c **** 
 1814              		.loc 1 923 7 is_stmt 1 view .LVU612
 1815 0056 4FF40062 		mov	r2, #2048
 1816 005a DA60     		str	r2, [r3, #12]
 926:Drivers/STM32U5xx_HAL_Driver/Src/stm32u5xx_hal_dma.c ****     }
 1817              		.loc 1 926 7 view .LVU613
 926:Drivers/STM32U5xx_HAL_Driver/Src/stm32u5xx_hal_dma.c ****     }
 1818              		.loc 1 926 11 is_stmt 0 view .LVU614
 1819 005c A36D     		ldr	r3, [r4, #88]
 926:Drivers/STM32U5xx_HAL_Driver/Src/stm32u5xx_hal_dma.c ****     }
 1820              		.loc 1 926 23 view .LVU615
 1821 005e 43F00203 		orr	r3, r3, #2
 1822 0062 A365     		str	r3, [r4, #88]
 1823              	.L101:
 931:Drivers/STM32U5xx_HAL_Driver/Src/stm32u5xx_hal_dma.c ****   {
 1824              		.loc 1 931 3 is_stmt 1 view .LVU616
 931:Drivers/STM32U5xx_HAL_Driver/Src/stm32u5xx_hal_dma.c ****   {
 1825              		.loc 1 931 8 is_stmt 0 view .LVU617
 1826 0064 2368     		ldr	r3, [r4]
 1827 0066 1A69     		ldr	r2, [r3, #16]
 931:Drivers/STM32U5xx_HAL_Driver/Src/stm32u5xx_hal_dma.c ****   {
 1828              		.loc 1 931 6 view .LVU618
 1829 0068 12F4805F 		tst	r2, #4096
 1830 006c 0AD0     		beq	.L102
 934:Drivers/STM32U5xx_HAL_Driver/Src/stm32u5xx_hal_dma.c ****     {
 1831              		.loc 1 934 5 is_stmt 1 view .LVU619
 934:Drivers/STM32U5xx_HAL_Driver/Src/stm32u5xx_hal_dma.c ****     {
 1832              		.loc 1 934 9 is_stmt 0 view .LVU620
 1833 006e 5A69     		ldr	r2, [r3, #20]
 934:Drivers/STM32U5xx_HAL_Driver/Src/stm32u5xx_hal_dma.c ****     {
 1834              		.loc 1 934 8 view .LVU621
 1835 0070 12F4805F 		tst	r2, #4096
 1836 0074 06D0     		beq	.L102
 937:Drivers/STM32U5xx_HAL_Driver/Src/stm32u5xx_hal_dma.c **** 
 1837              		.loc 1 937 7 is_stmt 1 view .LVU622
 1838 0076 4FF48052 		mov	r2, #4096
 1839 007a DA60     		str	r2, [r3, #12]
 940:Drivers/STM32U5xx_HAL_Driver/Src/stm32u5xx_hal_dma.c ****     }
 1840              		.loc 1 940 7 view .LVU623
 940:Drivers/STM32U5xx_HAL_Driver/Src/stm32u5xx_hal_dma.c ****     }
 1841              		.loc 1 940 11 is_stmt 0 view .LVU624
 1842 007c A36D     		ldr	r3, [r4, #88]
 940:Drivers/STM32U5xx_HAL_Driver/Src/stm32u5xx_hal_dma.c ****     }
 1843              		.loc 1 940 23 view .LVU625
 1844 007e 43F00403 		orr	r3, r3, #4
 1845 0082 A365     		str	r3, [r4, #88]
 1846              	.L102:
 945:Drivers/STM32U5xx_HAL_Driver/Src/stm32u5xx_hal_dma.c ****   {
 1847              		.loc 1 945 3 is_stmt 1 view .LVU626
 945:Drivers/STM32U5xx_HAL_Driver/Src/stm32u5xx_hal_dma.c ****   {
 1848              		.loc 1 945 8 is_stmt 0 view .LVU627
 1849 0084 2368     		ldr	r3, [r4]
 1850 0086 1A69     		ldr	r2, [r3, #16]
 945:Drivers/STM32U5xx_HAL_Driver/Src/stm32u5xx_hal_dma.c ****   {
 1851              		.loc 1 945 6 view .LVU628
ARM GAS  C:\Users\Ya\AppData\Local\Temp\ccY6d54u.s 			page 72


 1852 0088 12F4804F 		tst	r2, #16384
 1853 008c 0AD0     		beq	.L103
 948:Drivers/STM32U5xx_HAL_Driver/Src/stm32u5xx_hal_dma.c ****     {
 1854              		.loc 1 948 5 is_stmt 1 view .LVU629
 948:Drivers/STM32U5xx_HAL_Driver/Src/stm32u5xx_hal_dma.c ****     {
 1855              		.loc 1 948 9 is_stmt 0 view .LVU630
 1856 008e 5A69     		ldr	r2, [r3, #20]
 948:Drivers/STM32U5xx_HAL_Driver/Src/stm32u5xx_hal_dma.c ****     {
 1857              		.loc 1 948 8 view .LVU631
 1858 0090 12F4804F 		tst	r2, #16384
 1859 0094 06D0     		beq	.L103
 951:Drivers/STM32U5xx_HAL_Driver/Src/stm32u5xx_hal_dma.c **** 
 1860              		.loc 1 951 7 is_stmt 1 view .LVU632
 1861 0096 4FF48042 		mov	r2, #16384
 1862 009a DA60     		str	r2, [r3, #12]
 954:Drivers/STM32U5xx_HAL_Driver/Src/stm32u5xx_hal_dma.c ****     }
 1863              		.loc 1 954 7 view .LVU633
 954:Drivers/STM32U5xx_HAL_Driver/Src/stm32u5xx_hal_dma.c ****     }
 1864              		.loc 1 954 11 is_stmt 0 view .LVU634
 1865 009c A36D     		ldr	r3, [r4, #88]
 954:Drivers/STM32U5xx_HAL_Driver/Src/stm32u5xx_hal_dma.c ****     }
 1866              		.loc 1 954 23 view .LVU635
 1867 009e 43F00803 		orr	r3, r3, #8
 1868 00a2 A365     		str	r3, [r4, #88]
 1869              	.L103:
 959:Drivers/STM32U5xx_HAL_Driver/Src/stm32u5xx_hal_dma.c ****   {
 1870              		.loc 1 959 3 is_stmt 1 view .LVU636
 959:Drivers/STM32U5xx_HAL_Driver/Src/stm32u5xx_hal_dma.c ****   {
 1871              		.loc 1 959 8 is_stmt 0 view .LVU637
 1872 00a4 2368     		ldr	r3, [r4]
 1873 00a6 1A69     		ldr	r2, [r3, #16]
 959:Drivers/STM32U5xx_HAL_Driver/Src/stm32u5xx_hal_dma.c ****   {
 1874              		.loc 1 959 6 view .LVU638
 1875 00a8 12F4007F 		tst	r2, #512
 1876 00ac 0AD0     		beq	.L104
 962:Drivers/STM32U5xx_HAL_Driver/Src/stm32u5xx_hal_dma.c ****     {
 1877              		.loc 1 962 5 is_stmt 1 view .LVU639
 962:Drivers/STM32U5xx_HAL_Driver/Src/stm32u5xx_hal_dma.c ****     {
 1878              		.loc 1 962 9 is_stmt 0 view .LVU640
 1879 00ae 5A69     		ldr	r2, [r3, #20]
 962:Drivers/STM32U5xx_HAL_Driver/Src/stm32u5xx_hal_dma.c ****     {
 1880              		.loc 1 962 8 view .LVU641
 1881 00b0 12F4007F 		tst	r2, #512
 1882 00b4 06D0     		beq	.L104
 965:Drivers/STM32U5xx_HAL_Driver/Src/stm32u5xx_hal_dma.c **** 
 1883              		.loc 1 965 7 is_stmt 1 view .LVU642
 1884 00b6 4FF40072 		mov	r2, #512
 1885 00ba DA60     		str	r2, [r3, #12]
 968:Drivers/STM32U5xx_HAL_Driver/Src/stm32u5xx_hal_dma.c ****       {
 1886              		.loc 1 968 7 view .LVU643
 968:Drivers/STM32U5xx_HAL_Driver/Src/stm32u5xx_hal_dma.c ****       {
 1887              		.loc 1 968 15 is_stmt 0 view .LVU644
 1888 00bc 636E     		ldr	r3, [r4, #100]
 968:Drivers/STM32U5xx_HAL_Driver/Src/stm32u5xx_hal_dma.c ****       {
 1889              		.loc 1 968 10 view .LVU645
 1890 00be 0BB1     		cbz	r3, .L104
 971:Drivers/STM32U5xx_HAL_Driver/Src/stm32u5xx_hal_dma.c ****       }
ARM GAS  C:\Users\Ya\AppData\Local\Temp\ccY6d54u.s 			page 73


 1891              		.loc 1 971 9 is_stmt 1 view .LVU646
 1892 00c0 2046     		mov	r0, r4
 1893              	.LVL89:
 971:Drivers/STM32U5xx_HAL_Driver/Src/stm32u5xx_hal_dma.c ****       }
 1894              		.loc 1 971 9 is_stmt 0 view .LVU647
 1895 00c2 9847     		blx	r3
 1896              	.LVL90:
 1897              	.L104:
 977:Drivers/STM32U5xx_HAL_Driver/Src/stm32u5xx_hal_dma.c ****   {
 1898              		.loc 1 977 3 is_stmt 1 view .LVU648
 977:Drivers/STM32U5xx_HAL_Driver/Src/stm32u5xx_hal_dma.c ****   {
 1899              		.loc 1 977 8 is_stmt 0 view .LVU649
 1900 00c4 2368     		ldr	r3, [r4]
 1901 00c6 1A69     		ldr	r2, [r3, #16]
 977:Drivers/STM32U5xx_HAL_Driver/Src/stm32u5xx_hal_dma.c ****   {
 1902              		.loc 1 977 6 view .LVU650
 1903 00c8 12F4005F 		tst	r2, #8192
 1904 00cc 12D0     		beq	.L105
 980:Drivers/STM32U5xx_HAL_Driver/Src/stm32u5xx_hal_dma.c ****     {
 1905              		.loc 1 980 5 is_stmt 1 view .LVU651
 980:Drivers/STM32U5xx_HAL_Driver/Src/stm32u5xx_hal_dma.c ****     {
 1906              		.loc 1 980 9 is_stmt 0 view .LVU652
 1907 00ce 5A69     		ldr	r2, [r3, #20]
 980:Drivers/STM32U5xx_HAL_Driver/Src/stm32u5xx_hal_dma.c ****     {
 1908              		.loc 1 980 8 view .LVU653
 1909 00d0 12F4005F 		tst	r2, #8192
 1910 00d4 0ED0     		beq	.L105
 983:Drivers/STM32U5xx_HAL_Driver/Src/stm32u5xx_hal_dma.c **** 
 1911              		.loc 1 983 7 is_stmt 1 view .LVU654
 1912 00d6 4FF40052 		mov	r2, #8192
 1913 00da DA60     		str	r2, [r3, #12]
 986:Drivers/STM32U5xx_HAL_Driver/Src/stm32u5xx_hal_dma.c ****       {
 1914              		.loc 1 986 7 view .LVU655
 986:Drivers/STM32U5xx_HAL_Driver/Src/stm32u5xx_hal_dma.c ****       {
 1915              		.loc 1 986 15 is_stmt 0 view .LVU656
 1916 00dc 94F85430 		ldrb	r3, [r4, #84]	@ zero_extendqisi2
 1917 00e0 DBB2     		uxtb	r3, r3
 986:Drivers/STM32U5xx_HAL_Driver/Src/stm32u5xx_hal_dma.c ****       {
 1918              		.loc 1 986 10 view .LVU657
 1919 00e2 042B     		cmp	r3, #4
 1920 00e4 1FD0     		beq	.L118
1030:Drivers/STM32U5xx_HAL_Driver/Src/stm32u5xx_hal_dma.c **** 
 1921              		.loc 1 1030 9 is_stmt 1 view .LVU658
1030:Drivers/STM32U5xx_HAL_Driver/Src/stm32u5xx_hal_dma.c **** 
 1922              		.loc 1 1030 21 is_stmt 0 view .LVU659
 1923 00e6 0523     		movs	r3, #5
 1924 00e8 84F85430 		strb	r3, [r4, #84]
1033:Drivers/STM32U5xx_HAL_Driver/Src/stm32u5xx_hal_dma.c ****         {
 1925              		.loc 1 1033 9 is_stmt 1 view .LVU660
1033:Drivers/STM32U5xx_HAL_Driver/Src/stm32u5xx_hal_dma.c ****         {
 1926              		.loc 1 1033 17 is_stmt 0 view .LVU661
 1927 00ec 236F     		ldr	r3, [r4, #112]
1033:Drivers/STM32U5xx_HAL_Driver/Src/stm32u5xx_hal_dma.c ****         {
 1928              		.loc 1 1033 12 view .LVU662
 1929 00ee 0BB1     		cbz	r3, .L105
1036:Drivers/STM32U5xx_HAL_Driver/Src/stm32u5xx_hal_dma.c ****         }
 1930              		.loc 1 1036 11 is_stmt 1 view .LVU663
ARM GAS  C:\Users\Ya\AppData\Local\Temp\ccY6d54u.s 			page 74


 1931 00f0 2046     		mov	r0, r4
 1932 00f2 9847     		blx	r3
 1933              	.LVL91:
 1934              	.L105:
1043:Drivers/STM32U5xx_HAL_Driver/Src/stm32u5xx_hal_dma.c ****   {
 1935              		.loc 1 1043 3 view .LVU664
1043:Drivers/STM32U5xx_HAL_Driver/Src/stm32u5xx_hal_dma.c ****   {
 1936              		.loc 1 1043 8 is_stmt 0 view .LVU665
 1937 00f4 2368     		ldr	r3, [r4]
 1938 00f6 1A69     		ldr	r2, [r3, #16]
1043:Drivers/STM32U5xx_HAL_Driver/Src/stm32u5xx_hal_dma.c ****   {
 1939              		.loc 1 1043 6 view .LVU666
 1940 00f8 12F4807F 		tst	r2, #256
 1941 00fc 4CD0     		beq	.L111
1046:Drivers/STM32U5xx_HAL_Driver/Src/stm32u5xx_hal_dma.c ****     {
 1942              		.loc 1 1046 5 is_stmt 1 view .LVU667
1046:Drivers/STM32U5xx_HAL_Driver/Src/stm32u5xx_hal_dma.c ****     {
 1943              		.loc 1 1046 9 is_stmt 0 view .LVU668
 1944 00fe 5A69     		ldr	r2, [r3, #20]
1046:Drivers/STM32U5xx_HAL_Driver/Src/stm32u5xx_hal_dma.c ****     {
 1945              		.loc 1 1046 8 view .LVU669
 1946 0100 12F4807F 		tst	r2, #256
 1947 0104 48D0     		beq	.L111
1049:Drivers/STM32U5xx_HAL_Driver/Src/stm32u5xx_hal_dma.c ****       {
 1948              		.loc 1 1049 7 is_stmt 1 view .LVU670
1049:Drivers/STM32U5xx_HAL_Driver/Src/stm32u5xx_hal_dma.c ****       {
 1949              		.loc 1 1049 16 is_stmt 0 view .LVU671
 1950 0106 226D     		ldr	r2, [r4, #80]
1049:Drivers/STM32U5xx_HAL_Driver/Src/stm32u5xx_hal_dma.c ****       {
 1951              		.loc 1 1049 10 view .LVU672
 1952 0108 12F0800F 		tst	r2, #128
 1953 010c 34D0     		beq	.L112
1052:Drivers/STM32U5xx_HAL_Driver/Src/stm32u5xx_hal_dma.c ****         {
 1954              		.loc 1 1052 9 is_stmt 1 view .LVU673
1052:Drivers/STM32U5xx_HAL_Driver/Src/stm32u5xx_hal_dma.c ****         {
 1955              		.loc 1 1052 27 is_stmt 0 view .LVU674
 1956 010e DA6F     		ldr	r2, [r3, #124]
1052:Drivers/STM32U5xx_HAL_Driver/Src/stm32u5xx_hal_dma.c ****         {
 1957              		.loc 1 1052 12 view .LVU675
 1958 0110 002A     		cmp	r2, #0
 1959 0112 36D1     		bne	.L113
1054:Drivers/STM32U5xx_HAL_Driver/Src/stm32u5xx_hal_dma.c ****           {
 1960              		.loc 1 1054 11 is_stmt 1 view .LVU676
1054:Drivers/STM32U5xx_HAL_Driver/Src/stm32u5xx_hal_dma.c ****           {
 1961              		.loc 1 1054 29 is_stmt 0 view .LVU677
 1962 0114 9B6C     		ldr	r3, [r3, #72]
1054:Drivers/STM32U5xx_HAL_Driver/Src/stm32u5xx_hal_dma.c ****           {
 1963              		.loc 1 1054 14 view .LVU678
 1964 0116 002B     		cmp	r3, #0
 1965 0118 33D1     		bne	.L113
1057:Drivers/STM32U5xx_HAL_Driver/Src/stm32u5xx_hal_dma.c **** 
 1966              		.loc 1 1057 13 is_stmt 1 view .LVU679
1057:Drivers/STM32U5xx_HAL_Driver/Src/stm32u5xx_hal_dma.c **** 
 1967              		.loc 1 1057 25 is_stmt 0 view .LVU680
 1968 011a 0123     		movs	r3, #1
1057:Drivers/STM32U5xx_HAL_Driver/Src/stm32u5xx_hal_dma.c **** 
 1969              		.loc 1 1057 25 view .LVU681
ARM GAS  C:\Users\Ya\AppData\Local\Temp\ccY6d54u.s 			page 75


 1970 011c 84F85430 		strb	r3, [r4, #84]
1060:Drivers/STM32U5xx_HAL_Driver/Src/stm32u5xx_hal_dma.c ****           }
 1971              		.loc 1 1060 13 is_stmt 1 view .LVU682
1060:Drivers/STM32U5xx_HAL_Driver/Src/stm32u5xx_hal_dma.c ****           }
 1972              		.loc 1 1060 17 is_stmt 0 view .LVU683
 1973 0120 626F     		ldr	r2, [r4, #116]
1060:Drivers/STM32U5xx_HAL_Driver/Src/stm32u5xx_hal_dma.c ****           }
 1974              		.loc 1 1060 42 view .LVU684
 1975 0122 1373     		strb	r3, [r2, #12]
 1976 0124 2DE0     		b	.L113
 1977              	.L118:
 989:Drivers/STM32U5xx_HAL_Driver/Src/stm32u5xx_hal_dma.c **** 
 1978              		.loc 1 989 9 is_stmt 1 view .LVU685
 1979 0126 2268     		ldr	r2, [r4]
 1980 0128 5369     		ldr	r3, [r2, #20]
 1981 012a 23F40053 		bic	r3, r3, #8192
 1982 012e 5361     		str	r3, [r2, #20]
 992:Drivers/STM32U5xx_HAL_Driver/Src/stm32u5xx_hal_dma.c **** 
 1983              		.loc 1 992 9 view .LVU686
 992:Drivers/STM32U5xx_HAL_Driver/Src/stm32u5xx_hal_dma.c **** 
 1984              		.loc 1 992 13 is_stmt 0 view .LVU687
 1985 0130 2268     		ldr	r2, [r4]
 992:Drivers/STM32U5xx_HAL_Driver/Src/stm32u5xx_hal_dma.c **** 
 1986              		.loc 1 992 23 view .LVU688
 1987 0132 5369     		ldr	r3, [r2, #20]
 992:Drivers/STM32U5xx_HAL_Driver/Src/stm32u5xx_hal_dma.c **** 
 1988              		.loc 1 992 29 view .LVU689
 1989 0134 43F00203 		orr	r3, r3, #2
 1990 0138 5361     		str	r3, [r2, #20]
 994:Drivers/STM32U5xx_HAL_Driver/Src/stm32u5xx_hal_dma.c ****         {
 1991              		.loc 1 994 9 is_stmt 1 view .LVU690
 994:Drivers/STM32U5xx_HAL_Driver/Src/stm32u5xx_hal_dma.c ****         {
 1992              		.loc 1 994 18 is_stmt 0 view .LVU691
 1993 013a 2368     		ldr	r3, [r4]
 994:Drivers/STM32U5xx_HAL_Driver/Src/stm32u5xx_hal_dma.c ****         {
 1994              		.loc 1 994 28 view .LVU692
 1995 013c 5B69     		ldr	r3, [r3, #20]
 994:Drivers/STM32U5xx_HAL_Driver/Src/stm32u5xx_hal_dma.c ****         {
 1996              		.loc 1 994 12 view .LVU693
 1997 013e 13F0010F 		tst	r3, #1
 1998 0142 15D0     		beq	.L107
 997:Drivers/STM32U5xx_HAL_Driver/Src/stm32u5xx_hal_dma.c ****         }
 1999              		.loc 1 997 11 is_stmt 1 view .LVU694
 997:Drivers/STM32U5xx_HAL_Driver/Src/stm32u5xx_hal_dma.c ****         }
 2000              		.loc 1 997 23 is_stmt 0 view .LVU695
 2001 0144 0323     		movs	r3, #3
 2002 0146 84F85430 		strb	r3, [r4, #84]
 2003              	.L108:
1006:Drivers/STM32U5xx_HAL_Driver/Src/stm32u5xx_hal_dma.c ****         {
 2004              		.loc 1 1006 9 is_stmt 1 view .LVU696
1006:Drivers/STM32U5xx_HAL_Driver/Src/stm32u5xx_hal_dma.c ****         {
 2005              		.loc 1 1006 18 is_stmt 0 view .LVU697
 2006 014a 236D     		ldr	r3, [r4, #80]
1006:Drivers/STM32U5xx_HAL_Driver/Src/stm32u5xx_hal_dma.c ****         {
 2007              		.loc 1 1006 12 view .LVU698
 2008 014c 13F0800F 		tst	r3, #128
 2009 0150 05D0     		beq	.L109
ARM GAS  C:\Users\Ya\AppData\Local\Temp\ccY6d54u.s 			page 76


1009:Drivers/STM32U5xx_HAL_Driver/Src/stm32u5xx_hal_dma.c **** 
 2010              		.loc 1 1009 11 is_stmt 1 view .LVU699
1009:Drivers/STM32U5xx_HAL_Driver/Src/stm32u5xx_hal_dma.c **** 
 2011              		.loc 1 1009 15 is_stmt 0 view .LVU700
 2012 0152 636F     		ldr	r3, [r4, #116]
1009:Drivers/STM32U5xx_HAL_Driver/Src/stm32u5xx_hal_dma.c **** 
 2013              		.loc 1 1009 40 view .LVU701
 2014 0154 0122     		movs	r2, #1
1009:Drivers/STM32U5xx_HAL_Driver/Src/stm32u5xx_hal_dma.c **** 
 2015              		.loc 1 1009 40 view .LVU702
 2016 0156 1A73     		strb	r2, [r3, #12]
1012:Drivers/STM32U5xx_HAL_Driver/Src/stm32u5xx_hal_dma.c ****         }
 2017              		.loc 1 1012 11 is_stmt 1 view .LVU703
1012:Drivers/STM32U5xx_HAL_Driver/Src/stm32u5xx_hal_dma.c ****         }
 2018              		.loc 1 1012 15 is_stmt 0 view .LVU704
 2019 0158 2368     		ldr	r3, [r4]
1012:Drivers/STM32U5xx_HAL_Driver/Src/stm32u5xx_hal_dma.c ****         }
 2020              		.loc 1 1012 32 view .LVU705
 2021 015a 0022     		movs	r2, #0
1012:Drivers/STM32U5xx_HAL_Driver/Src/stm32u5xx_hal_dma.c ****         }
 2022              		.loc 1 1012 32 view .LVU706
 2023 015c 9A64     		str	r2, [r3, #72]
 2024              	.L109:
1016:Drivers/STM32U5xx_HAL_Driver/Src/stm32u5xx_hal_dma.c **** 
 2025              		.loc 1 1016 9 is_stmt 1 view .LVU707
1016:Drivers/STM32U5xx_HAL_Driver/Src/stm32u5xx_hal_dma.c **** 
 2026              		.loc 1 1016 9 view .LVU708
 2027 015e 0023     		movs	r3, #0
 2028 0160 84F84C30 		strb	r3, [r4, #76]
1016:Drivers/STM32U5xx_HAL_Driver/Src/stm32u5xx_hal_dma.c **** 
 2029              		.loc 1 1016 9 view .LVU709
1019:Drivers/STM32U5xx_HAL_Driver/Src/stm32u5xx_hal_dma.c ****         {
 2030              		.loc 1 1019 9 view .LVU710
1019:Drivers/STM32U5xx_HAL_Driver/Src/stm32u5xx_hal_dma.c ****         {
 2031              		.loc 1 1019 17 is_stmt 0 view .LVU711
 2032 0164 E36E     		ldr	r3, [r4, #108]
1019:Drivers/STM32U5xx_HAL_Driver/Src/stm32u5xx_hal_dma.c ****         {
 2033              		.loc 1 1019 12 view .LVU712
 2034 0166 002B     		cmp	r3, #0
 2035 0168 33D0     		beq	.L98
1022:Drivers/STM32U5xx_HAL_Driver/Src/stm32u5xx_hal_dma.c ****         }
 2036              		.loc 1 1022 11 is_stmt 1 view .LVU713
 2037 016a 2046     		mov	r0, r4
 2038 016c 9847     		blx	r3
 2039              	.LVL92:
1025:Drivers/STM32U5xx_HAL_Driver/Src/stm32u5xx_hal_dma.c ****       }
 2040              		.loc 1 1025 9 view .LVU714
 2041 016e 30E0     		b	.L98
 2042              	.L107:
1002:Drivers/STM32U5xx_HAL_Driver/Src/stm32u5xx_hal_dma.c ****         }
 2043              		.loc 1 1002 11 view .LVU715
1002:Drivers/STM32U5xx_HAL_Driver/Src/stm32u5xx_hal_dma.c ****         }
 2044              		.loc 1 1002 23 is_stmt 0 view .LVU716
 2045 0170 0123     		movs	r3, #1
1002:Drivers/STM32U5xx_HAL_Driver/Src/stm32u5xx_hal_dma.c ****         }
 2046              		.loc 1 1002 23 view .LVU717
 2047 0172 84F85430 		strb	r3, [r4, #84]
ARM GAS  C:\Users\Ya\AppData\Local\Temp\ccY6d54u.s 			page 77


 2048 0176 E8E7     		b	.L108
 2049              	.L112:
1067:Drivers/STM32U5xx_HAL_Driver/Src/stm32u5xx_hal_dma.c ****         {
 2050              		.loc 1 1067 9 is_stmt 1 view .LVU718
1067:Drivers/STM32U5xx_HAL_Driver/Src/stm32u5xx_hal_dma.c ****         {
 2051              		.loc 1 1067 27 is_stmt 0 view .LVU719
 2052 0178 9B6C     		ldr	r3, [r3, #72]
1067:Drivers/STM32U5xx_HAL_Driver/Src/stm32u5xx_hal_dma.c ****         {
 2053              		.loc 1 1067 12 view .LVU720
 2054 017a 13B9     		cbnz	r3, .L113
1070:Drivers/STM32U5xx_HAL_Driver/Src/stm32u5xx_hal_dma.c ****         }
 2055              		.loc 1 1070 11 is_stmt 1 view .LVU721
1070:Drivers/STM32U5xx_HAL_Driver/Src/stm32u5xx_hal_dma.c ****         }
 2056              		.loc 1 1070 23 is_stmt 0 view .LVU722
 2057 017c 0123     		movs	r3, #1
1070:Drivers/STM32U5xx_HAL_Driver/Src/stm32u5xx_hal_dma.c ****         }
 2058              		.loc 1 1070 23 view .LVU723
 2059 017e 84F85430 		strb	r3, [r4, #84]
 2060              	.L113:
1075:Drivers/STM32U5xx_HAL_Driver/Src/stm32u5xx_hal_dma.c **** 
 2061              		.loc 1 1075 7 is_stmt 1 view .LVU724
 2062 0182 2368     		ldr	r3, [r4]
 2063 0184 4FF44072 		mov	r2, #768
 2064 0188 DA60     		str	r2, [r3, #12]
1078:Drivers/STM32U5xx_HAL_Driver/Src/stm32u5xx_hal_dma.c **** 
 2065              		.loc 1 1078 7 view .LVU725
1078:Drivers/STM32U5xx_HAL_Driver/Src/stm32u5xx_hal_dma.c **** 
 2066              		.loc 1 1078 7 view .LVU726
 2067 018a 0023     		movs	r3, #0
 2068 018c 84F84C30 		strb	r3, [r4, #76]
1078:Drivers/STM32U5xx_HAL_Driver/Src/stm32u5xx_hal_dma.c **** 
 2069              		.loc 1 1078 7 view .LVU727
1081:Drivers/STM32U5xx_HAL_Driver/Src/stm32u5xx_hal_dma.c ****       {
 2070              		.loc 1 1081 7 view .LVU728
1081:Drivers/STM32U5xx_HAL_Driver/Src/stm32u5xx_hal_dma.c ****       {
 2071              		.loc 1 1081 15 is_stmt 0 view .LVU729
 2072 0190 236E     		ldr	r3, [r4, #96]
1081:Drivers/STM32U5xx_HAL_Driver/Src/stm32u5xx_hal_dma.c ****       {
 2073              		.loc 1 1081 10 view .LVU730
 2074 0192 0BB1     		cbz	r3, .L111
1084:Drivers/STM32U5xx_HAL_Driver/Src/stm32u5xx_hal_dma.c ****       }
 2075              		.loc 1 1084 9 is_stmt 1 view .LVU731
 2076 0194 2046     		mov	r0, r4
 2077 0196 9847     		blx	r3
 2078              	.LVL93:
 2079              	.L111:
1090:Drivers/STM32U5xx_HAL_Driver/Src/stm32u5xx_hal_dma.c ****   {
 2080              		.loc 1 1090 3 view .LVU732
1090:Drivers/STM32U5xx_HAL_Driver/Src/stm32u5xx_hal_dma.c ****   {
 2081              		.loc 1 1090 11 is_stmt 0 view .LVU733
 2082 0198 A36D     		ldr	r3, [r4, #88]
1090:Drivers/STM32U5xx_HAL_Driver/Src/stm32u5xx_hal_dma.c ****   {
 2083              		.loc 1 1090 6 view .LVU734
 2084 019a D3B1     		cbz	r3, .L98
1093:Drivers/STM32U5xx_HAL_Driver/Src/stm32u5xx_hal_dma.c **** 
 2085              		.loc 1 1093 5 is_stmt 1 view .LVU735
1093:Drivers/STM32U5xx_HAL_Driver/Src/stm32u5xx_hal_dma.c **** 
ARM GAS  C:\Users\Ya\AppData\Local\Temp\ccY6d54u.s 			page 78


 2086              		.loc 1 1093 9 is_stmt 0 view .LVU736
 2087 019c 2268     		ldr	r2, [r4]
1093:Drivers/STM32U5xx_HAL_Driver/Src/stm32u5xx_hal_dma.c **** 
 2088              		.loc 1 1093 19 view .LVU737
 2089 019e 5369     		ldr	r3, [r2, #20]
1093:Drivers/STM32U5xx_HAL_Driver/Src/stm32u5xx_hal_dma.c **** 
 2090              		.loc 1 1093 25 view .LVU738
 2091 01a0 43F00203 		orr	r3, r3, #2
 2092 01a4 5361     		str	r3, [r2, #20]
1095:Drivers/STM32U5xx_HAL_Driver/Src/stm32u5xx_hal_dma.c ****     {
 2093              		.loc 1 1095 5 is_stmt 1 view .LVU739
1095:Drivers/STM32U5xx_HAL_Driver/Src/stm32u5xx_hal_dma.c ****     {
 2094              		.loc 1 1095 14 is_stmt 0 view .LVU740
 2095 01a6 2368     		ldr	r3, [r4]
1095:Drivers/STM32U5xx_HAL_Driver/Src/stm32u5xx_hal_dma.c ****     {
 2096              		.loc 1 1095 24 view .LVU741
 2097 01a8 5B69     		ldr	r3, [r3, #20]
1095:Drivers/STM32U5xx_HAL_Driver/Src/stm32u5xx_hal_dma.c ****     {
 2098              		.loc 1 1095 8 view .LVU742
 2099 01aa 13F0010F 		tst	r3, #1
 2100 01ae 11D0     		beq	.L114
1098:Drivers/STM32U5xx_HAL_Driver/Src/stm32u5xx_hal_dma.c ****     }
 2101              		.loc 1 1098 7 is_stmt 1 view .LVU743
1098:Drivers/STM32U5xx_HAL_Driver/Src/stm32u5xx_hal_dma.c ****     }
 2102              		.loc 1 1098 19 is_stmt 0 view .LVU744
 2103 01b0 0323     		movs	r3, #3
 2104 01b2 84F85430 		strb	r3, [r4, #84]
 2105              	.L115:
1107:Drivers/STM32U5xx_HAL_Driver/Src/stm32u5xx_hal_dma.c ****     {
 2106              		.loc 1 1107 5 is_stmt 1 view .LVU745
1107:Drivers/STM32U5xx_HAL_Driver/Src/stm32u5xx_hal_dma.c ****     {
 2107              		.loc 1 1107 14 is_stmt 0 view .LVU746
 2108 01b6 236D     		ldr	r3, [r4, #80]
1107:Drivers/STM32U5xx_HAL_Driver/Src/stm32u5xx_hal_dma.c ****     {
 2109              		.loc 1 1107 8 view .LVU747
 2110 01b8 13F0800F 		tst	r3, #128
 2111 01bc 02D0     		beq	.L116
1110:Drivers/STM32U5xx_HAL_Driver/Src/stm32u5xx_hal_dma.c ****     }
 2112              		.loc 1 1110 7 is_stmt 1 view .LVU748
1110:Drivers/STM32U5xx_HAL_Driver/Src/stm32u5xx_hal_dma.c ****     }
 2113              		.loc 1 1110 11 is_stmt 0 view .LVU749
 2114 01be 636F     		ldr	r3, [r4, #116]
1110:Drivers/STM32U5xx_HAL_Driver/Src/stm32u5xx_hal_dma.c ****     }
 2115              		.loc 1 1110 36 view .LVU750
 2116 01c0 0122     		movs	r2, #1
1110:Drivers/STM32U5xx_HAL_Driver/Src/stm32u5xx_hal_dma.c ****     }
 2117              		.loc 1 1110 36 view .LVU751
 2118 01c2 1A73     		strb	r2, [r3, #12]
 2119              	.L116:
1114:Drivers/STM32U5xx_HAL_Driver/Src/stm32u5xx_hal_dma.c **** 
 2120              		.loc 1 1114 5 is_stmt 1 view .LVU752
1114:Drivers/STM32U5xx_HAL_Driver/Src/stm32u5xx_hal_dma.c **** 
 2121              		.loc 1 1114 5 view .LVU753
 2122 01c4 0023     		movs	r3, #0
 2123 01c6 84F84C30 		strb	r3, [r4, #76]
1114:Drivers/STM32U5xx_HAL_Driver/Src/stm32u5xx_hal_dma.c **** 
 2124              		.loc 1 1114 5 view .LVU754
ARM GAS  C:\Users\Ya\AppData\Local\Temp\ccY6d54u.s 			page 79


1117:Drivers/STM32U5xx_HAL_Driver/Src/stm32u5xx_hal_dma.c ****     {
 2125              		.loc 1 1117 5 view .LVU755
1117:Drivers/STM32U5xx_HAL_Driver/Src/stm32u5xx_hal_dma.c ****     {
 2126              		.loc 1 1117 13 is_stmt 0 view .LVU756
 2127 01ca A36E     		ldr	r3, [r4, #104]
1117:Drivers/STM32U5xx_HAL_Driver/Src/stm32u5xx_hal_dma.c ****     {
 2128              		.loc 1 1117 8 view .LVU757
 2129 01cc 0BB1     		cbz	r3, .L98
1120:Drivers/STM32U5xx_HAL_Driver/Src/stm32u5xx_hal_dma.c ****     }
 2130              		.loc 1 1120 7 is_stmt 1 view .LVU758
 2131 01ce 2046     		mov	r0, r4
 2132 01d0 9847     		blx	r3
 2133              	.LVL94:
 2134              	.L98:
1123:Drivers/STM32U5xx_HAL_Driver/Src/stm32u5xx_hal_dma.c **** 
 2135              		.loc 1 1123 1 is_stmt 0 view .LVU759
 2136 01d2 10BD     		pop	{r4, pc}
 2137              	.LVL95:
 2138              	.L114:
1103:Drivers/STM32U5xx_HAL_Driver/Src/stm32u5xx_hal_dma.c ****     }
 2139              		.loc 1 1103 7 is_stmt 1 view .LVU760
1103:Drivers/STM32U5xx_HAL_Driver/Src/stm32u5xx_hal_dma.c ****     }
 2140              		.loc 1 1103 19 is_stmt 0 view .LVU761
 2141 01d4 0123     		movs	r3, #1
1103:Drivers/STM32U5xx_HAL_Driver/Src/stm32u5xx_hal_dma.c ****     }
 2142              		.loc 1 1103 19 view .LVU762
 2143 01d6 84F85430 		strb	r3, [r4, #84]
 2144 01da ECE7     		b	.L115
 2145              		.cfi_endproc
 2146              	.LFE347:
 2148              		.section	.text.HAL_DMA_RegisterCallback,"ax",%progbits
 2149              		.align	1
 2150              		.global	HAL_DMA_RegisterCallback
 2151              		.syntax unified
 2152              		.thumb
 2153              		.thumb_func
 2155              	HAL_DMA_RegisterCallback:
 2156              	.LVL96:
 2157              	.LFB348:
1138:Drivers/STM32U5xx_HAL_Driver/Src/stm32u5xx_hal_dma.c ****   HAL_StatusTypeDef status = HAL_OK;
 2158              		.loc 1 1138 1 is_stmt 1 view -0
 2159              		.cfi_startproc
 2160              		@ args = 0, pretend = 0, frame = 0
 2161              		@ frame_needed = 0, uses_anonymous_args = 0
 2162              		@ link register save eliminated.
1139:Drivers/STM32U5xx_HAL_Driver/Src/stm32u5xx_hal_dma.c **** 
 2163              		.loc 1 1139 3 view .LVU764
1142:Drivers/STM32U5xx_HAL_Driver/Src/stm32u5xx_hal_dma.c ****   {
 2164              		.loc 1 1142 3 view .LVU765
1142:Drivers/STM32U5xx_HAL_Driver/Src/stm32u5xx_hal_dma.c ****   {
 2165              		.loc 1 1142 6 is_stmt 0 view .LVU766
 2166 0000 0346     		mov	r3, r0
 2167 0002 E0B1     		cbz	r0, .L127
1148:Drivers/STM32U5xx_HAL_Driver/Src/stm32u5xx_hal_dma.c ****   {
 2168              		.loc 1 1148 3 is_stmt 1 view .LVU767
1148:Drivers/STM32U5xx_HAL_Driver/Src/stm32u5xx_hal_dma.c ****   {
 2169              		.loc 1 1148 11 is_stmt 0 view .LVU768
ARM GAS  C:\Users\Ya\AppData\Local\Temp\ccY6d54u.s 			page 80


 2170 0004 90F85400 		ldrb	r0, [r0, #84]	@ zero_extendqisi2
 2171              	.LVL97:
1148:Drivers/STM32U5xx_HAL_Driver/Src/stm32u5xx_hal_dma.c ****   {
 2172              		.loc 1 1148 11 view .LVU769
 2173 0008 C0B2     		uxtb	r0, r0
1148:Drivers/STM32U5xx_HAL_Driver/Src/stm32u5xx_hal_dma.c ****   {
 2174              		.loc 1 1148 6 view .LVU770
 2175 000a 0128     		cmp	r0, #1
 2176 000c 01D0     		beq	.L130
1199:Drivers/STM32U5xx_HAL_Driver/Src/stm32u5xx_hal_dma.c ****   }
 2177              		.loc 1 1199 12 view .LVU771
 2178 000e 0120     		movs	r0, #1
 2179              	.L120:
 2180              	.LVL98:
1203:Drivers/STM32U5xx_HAL_Driver/Src/stm32u5xx_hal_dma.c **** 
 2181              		.loc 1 1203 1 view .LVU772
 2182 0010 7047     		bx	lr
 2183              	.LVL99:
 2184              	.L130:
1151:Drivers/STM32U5xx_HAL_Driver/Src/stm32u5xx_hal_dma.c ****     {
 2185              		.loc 1 1151 5 is_stmt 1 view .LVU773
 2186 0012 0429     		cmp	r1, #4
 2187 0014 FCD8     		bhi	.L120
 2188 0016 DFE801F0 		tbb	[pc, r1]
 2189              	.L122:
 2190 001a 03       		.byte	(.L126-.L122)/2
 2191 001b 06       		.byte	(.L125-.L122)/2
 2192 001c 09       		.byte	(.L124-.L122)/2
 2193 001d 0C       		.byte	(.L123-.L122)/2
 2194 001e 0F       		.byte	(.L121-.L122)/2
 2195 001f 00       		.p2align 1
 2196              	.L126:
1156:Drivers/STM32U5xx_HAL_Driver/Src/stm32u5xx_hal_dma.c ****         break;
 2197              		.loc 1 1156 9 view .LVU774
1156:Drivers/STM32U5xx_HAL_Driver/Src/stm32u5xx_hal_dma.c ****         break;
 2198              		.loc 1 1156 32 is_stmt 0 view .LVU775
 2199 0020 1A66     		str	r2, [r3, #96]
1157:Drivers/STM32U5xx_HAL_Driver/Src/stm32u5xx_hal_dma.c ****       }
 2200              		.loc 1 1157 9 is_stmt 1 view .LVU776
1139:Drivers/STM32U5xx_HAL_Driver/Src/stm32u5xx_hal_dma.c **** 
 2201              		.loc 1 1139 21 is_stmt 0 view .LVU777
 2202 0022 0846     		mov	r0, r1
1157:Drivers/STM32U5xx_HAL_Driver/Src/stm32u5xx_hal_dma.c ****       }
 2203              		.loc 1 1157 9 view .LVU778
 2204 0024 7047     		bx	lr
 2205              	.L125:
1163:Drivers/STM32U5xx_HAL_Driver/Src/stm32u5xx_hal_dma.c ****         break;
 2206              		.loc 1 1163 9 is_stmt 1 view .LVU779
1163:Drivers/STM32U5xx_HAL_Driver/Src/stm32u5xx_hal_dma.c ****         break;
 2207              		.loc 1 1163 36 is_stmt 0 view .LVU780
 2208 0026 5A66     		str	r2, [r3, #100]
1164:Drivers/STM32U5xx_HAL_Driver/Src/stm32u5xx_hal_dma.c ****       }
 2209              		.loc 1 1164 9 is_stmt 1 view .LVU781
1139:Drivers/STM32U5xx_HAL_Driver/Src/stm32u5xx_hal_dma.c **** 
 2210              		.loc 1 1139 21 is_stmt 0 view .LVU782
 2211 0028 0020     		movs	r0, #0
1164:Drivers/STM32U5xx_HAL_Driver/Src/stm32u5xx_hal_dma.c ****       }
ARM GAS  C:\Users\Ya\AppData\Local\Temp\ccY6d54u.s 			page 81


 2212              		.loc 1 1164 9 view .LVU783
 2213 002a 7047     		bx	lr
 2214              	.L124:
1170:Drivers/STM32U5xx_HAL_Driver/Src/stm32u5xx_hal_dma.c ****         break;
 2215              		.loc 1 1170 9 is_stmt 1 view .LVU784
1170:Drivers/STM32U5xx_HAL_Driver/Src/stm32u5xx_hal_dma.c ****         break;
 2216              		.loc 1 1170 33 is_stmt 0 view .LVU785
 2217 002c 9A66     		str	r2, [r3, #104]
1171:Drivers/STM32U5xx_HAL_Driver/Src/stm32u5xx_hal_dma.c ****       }
 2218              		.loc 1 1171 9 is_stmt 1 view .LVU786
1139:Drivers/STM32U5xx_HAL_Driver/Src/stm32u5xx_hal_dma.c **** 
 2219              		.loc 1 1139 21 is_stmt 0 view .LVU787
 2220 002e 0020     		movs	r0, #0
1171:Drivers/STM32U5xx_HAL_Driver/Src/stm32u5xx_hal_dma.c ****       }
 2221              		.loc 1 1171 9 view .LVU788
 2222 0030 7047     		bx	lr
 2223              	.L123:
1177:Drivers/STM32U5xx_HAL_Driver/Src/stm32u5xx_hal_dma.c ****         break;
 2224              		.loc 1 1177 9 is_stmt 1 view .LVU789
1177:Drivers/STM32U5xx_HAL_Driver/Src/stm32u5xx_hal_dma.c ****         break;
 2225              		.loc 1 1177 33 is_stmt 0 view .LVU790
 2226 0032 DA66     		str	r2, [r3, #108]
1178:Drivers/STM32U5xx_HAL_Driver/Src/stm32u5xx_hal_dma.c ****       }
 2227              		.loc 1 1178 9 is_stmt 1 view .LVU791
1139:Drivers/STM32U5xx_HAL_Driver/Src/stm32u5xx_hal_dma.c **** 
 2228              		.loc 1 1139 21 is_stmt 0 view .LVU792
 2229 0034 0020     		movs	r0, #0
1178:Drivers/STM32U5xx_HAL_Driver/Src/stm32u5xx_hal_dma.c ****       }
 2230              		.loc 1 1178 9 view .LVU793
 2231 0036 7047     		bx	lr
 2232              	.L121:
1184:Drivers/STM32U5xx_HAL_Driver/Src/stm32u5xx_hal_dma.c ****         break;
 2233              		.loc 1 1184 9 is_stmt 1 view .LVU794
1184:Drivers/STM32U5xx_HAL_Driver/Src/stm32u5xx_hal_dma.c ****         break;
 2234              		.loc 1 1184 35 is_stmt 0 view .LVU795
 2235 0038 1A67     		str	r2, [r3, #112]
1185:Drivers/STM32U5xx_HAL_Driver/Src/stm32u5xx_hal_dma.c ****       }
 2236              		.loc 1 1185 9 is_stmt 1 view .LVU796
1139:Drivers/STM32U5xx_HAL_Driver/Src/stm32u5xx_hal_dma.c **** 
 2237              		.loc 1 1139 21 is_stmt 0 view .LVU797
 2238 003a 0020     		movs	r0, #0
1185:Drivers/STM32U5xx_HAL_Driver/Src/stm32u5xx_hal_dma.c ****       }
 2239              		.loc 1 1185 9 view .LVU798
 2240 003c 7047     		bx	lr
 2241              	.LVL100:
 2242              	.L127:
1144:Drivers/STM32U5xx_HAL_Driver/Src/stm32u5xx_hal_dma.c ****   }
 2243              		.loc 1 1144 12 view .LVU799
 2244 003e 0120     		movs	r0, #1
 2245              	.LVL101:
1144:Drivers/STM32U5xx_HAL_Driver/Src/stm32u5xx_hal_dma.c ****   }
 2246              		.loc 1 1144 12 view .LVU800
 2247 0040 7047     		bx	lr
 2248              		.cfi_endproc
 2249              	.LFE348:
 2251              		.section	.text.HAL_DMA_UnRegisterCallback,"ax",%progbits
 2252              		.align	1
ARM GAS  C:\Users\Ya\AppData\Local\Temp\ccY6d54u.s 			page 82


 2253              		.global	HAL_DMA_UnRegisterCallback
 2254              		.syntax unified
 2255              		.thumb
 2256              		.thumb_func
 2258              	HAL_DMA_UnRegisterCallback:
 2259              	.LVL102:
 2260              	.LFB349:
1216:Drivers/STM32U5xx_HAL_Driver/Src/stm32u5xx_hal_dma.c ****   HAL_StatusTypeDef status = HAL_OK;
 2261              		.loc 1 1216 1 is_stmt 1 view -0
 2262              		.cfi_startproc
 2263              		@ args = 0, pretend = 0, frame = 0
 2264              		@ frame_needed = 0, uses_anonymous_args = 0
 2265              		@ link register save eliminated.
1217:Drivers/STM32U5xx_HAL_Driver/Src/stm32u5xx_hal_dma.c **** 
 2266              		.loc 1 1217 3 view .LVU802
1220:Drivers/STM32U5xx_HAL_Driver/Src/stm32u5xx_hal_dma.c ****   {
 2267              		.loc 1 1220 3 view .LVU803
1220:Drivers/STM32U5xx_HAL_Driver/Src/stm32u5xx_hal_dma.c ****   {
 2268              		.loc 1 1220 6 is_stmt 0 view .LVU804
 2269 0000 0346     		mov	r3, r0
 2270 0002 20B3     		cbz	r0, .L140
1226:Drivers/STM32U5xx_HAL_Driver/Src/stm32u5xx_hal_dma.c ****   {
 2271              		.loc 1 1226 3 is_stmt 1 view .LVU805
1226:Drivers/STM32U5xx_HAL_Driver/Src/stm32u5xx_hal_dma.c ****   {
 2272              		.loc 1 1226 11 is_stmt 0 view .LVU806
 2273 0004 90F85400 		ldrb	r0, [r0, #84]	@ zero_extendqisi2
 2274              	.LVL103:
1226:Drivers/STM32U5xx_HAL_Driver/Src/stm32u5xx_hal_dma.c ****   {
 2275              		.loc 1 1226 11 view .LVU807
 2276 0008 C0B2     		uxtb	r0, r0
1226:Drivers/STM32U5xx_HAL_Driver/Src/stm32u5xx_hal_dma.c ****   {
 2277              		.loc 1 1226 6 view .LVU808
 2278 000a 0128     		cmp	r0, #1
 2279 000c 01D0     		beq	.L143
1288:Drivers/STM32U5xx_HAL_Driver/Src/stm32u5xx_hal_dma.c ****   }
 2280              		.loc 1 1288 12 view .LVU809
 2281 000e 0120     		movs	r0, #1
 2282              	.L132:
 2283              	.LVL104:
1292:Drivers/STM32U5xx_HAL_Driver/Src/stm32u5xx_hal_dma.c **** /**
 2284              		.loc 1 1292 1 view .LVU810
 2285 0010 7047     		bx	lr
 2286              	.LVL105:
 2287              	.L143:
1229:Drivers/STM32U5xx_HAL_Driver/Src/stm32u5xx_hal_dma.c ****     {
 2288              		.loc 1 1229 5 is_stmt 1 view .LVU811
 2289 0012 0529     		cmp	r1, #5
 2290 0014 FCD8     		bhi	.L132
 2291 0016 DFE801F0 		tbb	[pc, r1]
 2292              	.L134:
 2293 001a 03       		.byte	(.L139-.L134)/2
 2294 001b 07       		.byte	(.L138-.L134)/2
 2295 001c 0A       		.byte	(.L137-.L134)/2
 2296 001d 0D       		.byte	(.L136-.L134)/2
 2297 001e 10       		.byte	(.L135-.L134)/2
 2298 001f 13       		.byte	(.L133-.L134)/2
 2299              		.p2align 1
ARM GAS  C:\Users\Ya\AppData\Local\Temp\ccY6d54u.s 			page 83


 2300              	.L139:
1234:Drivers/STM32U5xx_HAL_Driver/Src/stm32u5xx_hal_dma.c ****         break;
 2301              		.loc 1 1234 9 view .LVU812
1234:Drivers/STM32U5xx_HAL_Driver/Src/stm32u5xx_hal_dma.c ****         break;
 2302              		.loc 1 1234 32 is_stmt 0 view .LVU813
 2303 0020 0022     		movs	r2, #0
 2304 0022 1A66     		str	r2, [r3, #96]
1235:Drivers/STM32U5xx_HAL_Driver/Src/stm32u5xx_hal_dma.c ****       }
 2305              		.loc 1 1235 9 is_stmt 1 view .LVU814
1217:Drivers/STM32U5xx_HAL_Driver/Src/stm32u5xx_hal_dma.c **** 
 2306              		.loc 1 1217 21 is_stmt 0 view .LVU815
 2307 0024 0846     		mov	r0, r1
1235:Drivers/STM32U5xx_HAL_Driver/Src/stm32u5xx_hal_dma.c ****       }
 2308              		.loc 1 1235 9 view .LVU816
 2309 0026 7047     		bx	lr
 2310              	.L138:
1241:Drivers/STM32U5xx_HAL_Driver/Src/stm32u5xx_hal_dma.c ****         break;
 2311              		.loc 1 1241 9 is_stmt 1 view .LVU817
1241:Drivers/STM32U5xx_HAL_Driver/Src/stm32u5xx_hal_dma.c ****         break;
 2312              		.loc 1 1241 36 is_stmt 0 view .LVU818
 2313 0028 0020     		movs	r0, #0
 2314 002a 5866     		str	r0, [r3, #100]
1242:Drivers/STM32U5xx_HAL_Driver/Src/stm32u5xx_hal_dma.c ****       }
 2315              		.loc 1 1242 9 is_stmt 1 view .LVU819
 2316 002c 7047     		bx	lr
 2317              	.L137:
1248:Drivers/STM32U5xx_HAL_Driver/Src/stm32u5xx_hal_dma.c ****         break;
 2318              		.loc 1 1248 9 view .LVU820
1248:Drivers/STM32U5xx_HAL_Driver/Src/stm32u5xx_hal_dma.c ****         break;
 2319              		.loc 1 1248 33 is_stmt 0 view .LVU821
 2320 002e 0020     		movs	r0, #0
 2321 0030 9866     		str	r0, [r3, #104]
1249:Drivers/STM32U5xx_HAL_Driver/Src/stm32u5xx_hal_dma.c ****       }
 2322              		.loc 1 1249 9 is_stmt 1 view .LVU822
 2323 0032 7047     		bx	lr
 2324              	.L136:
1255:Drivers/STM32U5xx_HAL_Driver/Src/stm32u5xx_hal_dma.c ****         break;
 2325              		.loc 1 1255 9 view .LVU823
1255:Drivers/STM32U5xx_HAL_Driver/Src/stm32u5xx_hal_dma.c ****         break;
 2326              		.loc 1 1255 33 is_stmt 0 view .LVU824
 2327 0034 0020     		movs	r0, #0
 2328 0036 D866     		str	r0, [r3, #108]
1256:Drivers/STM32U5xx_HAL_Driver/Src/stm32u5xx_hal_dma.c ****       }
 2329              		.loc 1 1256 9 is_stmt 1 view .LVU825
 2330 0038 7047     		bx	lr
 2331              	.L135:
1262:Drivers/STM32U5xx_HAL_Driver/Src/stm32u5xx_hal_dma.c ****         break;
 2332              		.loc 1 1262 9 view .LVU826
1262:Drivers/STM32U5xx_HAL_Driver/Src/stm32u5xx_hal_dma.c ****         break;
 2333              		.loc 1 1262 35 is_stmt 0 view .LVU827
 2334 003a 0020     		movs	r0, #0
 2335 003c 1867     		str	r0, [r3, #112]
1263:Drivers/STM32U5xx_HAL_Driver/Src/stm32u5xx_hal_dma.c ****       }
 2336              		.loc 1 1263 9 is_stmt 1 view .LVU828
 2337 003e 7047     		bx	lr
 2338              	.L133:
1269:Drivers/STM32U5xx_HAL_Driver/Src/stm32u5xx_hal_dma.c ****         hdma->XferHalfCpltCallback = NULL;
ARM GAS  C:\Users\Ya\AppData\Local\Temp\ccY6d54u.s 			page 84


 2339              		.loc 1 1269 9 view .LVU829
1269:Drivers/STM32U5xx_HAL_Driver/Src/stm32u5xx_hal_dma.c ****         hdma->XferHalfCpltCallback = NULL;
 2340              		.loc 1 1269 36 is_stmt 0 view .LVU830
 2341 0040 0020     		movs	r0, #0
 2342 0042 1866     		str	r0, [r3, #96]
1270:Drivers/STM32U5xx_HAL_Driver/Src/stm32u5xx_hal_dma.c ****         hdma->XferErrorCallback    = NULL;
 2343              		.loc 1 1270 9 is_stmt 1 view .LVU831
1270:Drivers/STM32U5xx_HAL_Driver/Src/stm32u5xx_hal_dma.c ****         hdma->XferErrorCallback    = NULL;
 2344              		.loc 1 1270 36 is_stmt 0 view .LVU832
 2345 0044 5866     		str	r0, [r3, #100]
1271:Drivers/STM32U5xx_HAL_Driver/Src/stm32u5xx_hal_dma.c ****         hdma->XferAbortCallback    = NULL;
 2346              		.loc 1 1271 9 is_stmt 1 view .LVU833
1271:Drivers/STM32U5xx_HAL_Driver/Src/stm32u5xx_hal_dma.c ****         hdma->XferAbortCallback    = NULL;
 2347              		.loc 1 1271 36 is_stmt 0 view .LVU834
 2348 0046 9866     		str	r0, [r3, #104]
1272:Drivers/STM32U5xx_HAL_Driver/Src/stm32u5xx_hal_dma.c ****         hdma->XferSuspendCallback  = NULL;
 2349              		.loc 1 1272 9 is_stmt 1 view .LVU835
1272:Drivers/STM32U5xx_HAL_Driver/Src/stm32u5xx_hal_dma.c ****         hdma->XferSuspendCallback  = NULL;
 2350              		.loc 1 1272 36 is_stmt 0 view .LVU836
 2351 0048 D866     		str	r0, [r3, #108]
1273:Drivers/STM32U5xx_HAL_Driver/Src/stm32u5xx_hal_dma.c ****         break;
 2352              		.loc 1 1273 9 is_stmt 1 view .LVU837
1273:Drivers/STM32U5xx_HAL_Driver/Src/stm32u5xx_hal_dma.c ****         break;
 2353              		.loc 1 1273 36 is_stmt 0 view .LVU838
 2354 004a 1867     		str	r0, [r3, #112]
1274:Drivers/STM32U5xx_HAL_Driver/Src/stm32u5xx_hal_dma.c ****       }
 2355              		.loc 1 1274 9 is_stmt 1 view .LVU839
 2356 004c 7047     		bx	lr
 2357              	.LVL106:
 2358              	.L140:
1222:Drivers/STM32U5xx_HAL_Driver/Src/stm32u5xx_hal_dma.c ****   }
 2359              		.loc 1 1222 12 is_stmt 0 view .LVU840
 2360 004e 0120     		movs	r0, #1
 2361              	.LVL107:
1222:Drivers/STM32U5xx_HAL_Driver/Src/stm32u5xx_hal_dma.c ****   }
 2362              		.loc 1 1222 12 view .LVU841
 2363 0050 7047     		bx	lr
 2364              		.cfi_endproc
 2365              	.LFE349:
 2367              		.section	.text.HAL_DMA_GetState,"ax",%progbits
 2368              		.align	1
 2369              		.global	HAL_DMA_GetState
 2370              		.syntax unified
 2371              		.thumb
 2372              		.thumb_func
 2374              	HAL_DMA_GetState:
 2375              	.LVL108:
 2376              	.LFB350:
1323:Drivers/STM32U5xx_HAL_Driver/Src/stm32u5xx_hal_dma.c ****   /* Return the DMA channel state */
 2377              		.loc 1 1323 1 is_stmt 1 view -0
 2378              		.cfi_startproc
 2379              		@ args = 0, pretend = 0, frame = 0
 2380              		@ frame_needed = 0, uses_anonymous_args = 0
 2381              		@ link register save eliminated.
1325:Drivers/STM32U5xx_HAL_Driver/Src/stm32u5xx_hal_dma.c **** }
 2382              		.loc 1 1325 3 view .LVU843
1325:Drivers/STM32U5xx_HAL_Driver/Src/stm32u5xx_hal_dma.c **** }
ARM GAS  C:\Users\Ya\AppData\Local\Temp\ccY6d54u.s 			page 85


 2383              		.loc 1 1325 14 is_stmt 0 view .LVU844
 2384 0000 90F85400 		ldrb	r0, [r0, #84]	@ zero_extendqisi2
 2385              	.LVL109:
1326:Drivers/STM32U5xx_HAL_Driver/Src/stm32u5xx_hal_dma.c **** 
 2386              		.loc 1 1326 1 view .LVU845
 2387 0004 7047     		bx	lr
 2388              		.cfi_endproc
 2389              	.LFE350:
 2391              		.section	.text.HAL_DMA_GetError,"ax",%progbits
 2392              		.align	1
 2393              		.global	HAL_DMA_GetError
 2394              		.syntax unified
 2395              		.thumb
 2396              		.thumb_func
 2398              	HAL_DMA_GetError:
 2399              	.LVL110:
 2400              	.LFB351:
1335:Drivers/STM32U5xx_HAL_Driver/Src/stm32u5xx_hal_dma.c ****   /* Return the DMA channel error code */
 2401              		.loc 1 1335 1 is_stmt 1 view -0
 2402              		.cfi_startproc
 2403              		@ args = 0, pretend = 0, frame = 0
 2404              		@ frame_needed = 0, uses_anonymous_args = 0
 2405              		@ link register save eliminated.
1337:Drivers/STM32U5xx_HAL_Driver/Src/stm32u5xx_hal_dma.c **** }
 2406              		.loc 1 1337 3 view .LVU847
1337:Drivers/STM32U5xx_HAL_Driver/Src/stm32u5xx_hal_dma.c **** }
 2407              		.loc 1 1337 14 is_stmt 0 view .LVU848
 2408 0000 806D     		ldr	r0, [r0, #88]
 2409              	.LVL111:
1338:Drivers/STM32U5xx_HAL_Driver/Src/stm32u5xx_hal_dma.c **** /**
 2410              		.loc 1 1338 1 view .LVU849
 2411 0002 7047     		bx	lr
 2412              		.cfi_endproc
 2413              	.LFE351:
 2415              		.section	.text.HAL_DMA_ConfigChannelAttributes,"ax",%progbits
 2416              		.align	1
 2417              		.global	HAL_DMA_ConfigChannelAttributes
 2418              		.syntax unified
 2419              		.thumb
 2420              		.thumb_func
 2422              	HAL_DMA_ConfigChannelAttributes:
 2423              	.LVL112:
 2424              	.LFB352:
1379:Drivers/STM32U5xx_HAL_Driver/Src/stm32u5xx_hal_dma.c ****   DMA_TypeDef *p_dma_instance;
 2425              		.loc 1 1379 1 is_stmt 1 view -0
 2426              		.cfi_startproc
 2427              		@ args = 0, pretend = 0, frame = 0
 2428              		@ frame_needed = 0, uses_anonymous_args = 0
 2429              		@ link register save eliminated.
1380:Drivers/STM32U5xx_HAL_Driver/Src/stm32u5xx_hal_dma.c ****   uint32_t channel_idx;
 2430              		.loc 1 1380 3 view .LVU851
1381:Drivers/STM32U5xx_HAL_Driver/Src/stm32u5xx_hal_dma.c **** 
 2431              		.loc 1 1381 3 view .LVU852
1384:Drivers/STM32U5xx_HAL_Driver/Src/stm32u5xx_hal_dma.c ****   {
 2432              		.loc 1 1384 3 view .LVU853
1384:Drivers/STM32U5xx_HAL_Driver/Src/stm32u5xx_hal_dma.c ****   {
 2433              		.loc 1 1384 6 is_stmt 0 view .LVU854
ARM GAS  C:\Users\Ya\AppData\Local\Temp\ccY6d54u.s 			page 86


 2434 0000 E8B1     		cbz	r0, .L149
1390:Drivers/STM32U5xx_HAL_Driver/Src/stm32u5xx_hal_dma.c **** 
 2435              		.loc 1 1390 3 is_stmt 1 view .LVU855
1393:Drivers/STM32U5xx_HAL_Driver/Src/stm32u5xx_hal_dma.c **** 
 2436              		.loc 1 1393 3 view .LVU856
1393:Drivers/STM32U5xx_HAL_Driver/Src/stm32u5xx_hal_dma.c **** 
 2437              		.loc 1 1393 20 is_stmt 0 view .LVU857
 2438 0002 0368     		ldr	r3, [r0]
 2439 0004 23F47F62 		bic	r2, r3, #4080
 2440 0008 22F00F02 		bic	r2, r2, #15
 2441              	.LVL113:
1396:Drivers/STM32U5xx_HAL_Driver/Src/stm32u5xx_hal_dma.c **** 
 2442              		.loc 1 1396 3 is_stmt 1 view .LVU858
1396:Drivers/STM32U5xx_HAL_Driver/Src/stm32u5xx_hal_dma.c **** 
 2443              		.loc 1 1396 25 is_stmt 0 view .LVU859
 2444 000c C3F30B03 		ubfx	r3, r3, #0, #12
 2445 0010 503B     		subs	r3, r3, #80
1396:Drivers/STM32U5xx_HAL_Driver/Src/stm32u5xx_hal_dma.c **** 
 2446              		.loc 1 1396 47 view .LVU860
 2447 0012 C3F3C413 		ubfx	r3, r3, #7, #5
1396:Drivers/STM32U5xx_HAL_Driver/Src/stm32u5xx_hal_dma.c **** 
 2448              		.loc 1 1396 15 view .LVU861
 2449 0016 0120     		movs	r0, #1
 2450              	.LVL114:
1396:Drivers/STM32U5xx_HAL_Driver/Src/stm32u5xx_hal_dma.c **** 
 2451              		.loc 1 1396 15 view .LVU862
 2452 0018 9840     		lsls	r0, r0, r3
 2453              	.LVL115:
1399:Drivers/STM32U5xx_HAL_Driver/Src/stm32u5xx_hal_dma.c ****   {
 2454              		.loc 1 1399 3 is_stmt 1 view .LVU863
1399:Drivers/STM32U5xx_HAL_Driver/Src/stm32u5xx_hal_dma.c ****   {
 2455              		.loc 1 1399 6 is_stmt 0 view .LVU864
 2456 001a 11F0100F 		tst	r1, #16
 2457 001e 10D0     		beq	.L150
1402:Drivers/STM32U5xx_HAL_Driver/Src/stm32u5xx_hal_dma.c ****     {
 2458              		.loc 1 1402 5 is_stmt 1 view .LVU865
1402:Drivers/STM32U5xx_HAL_Driver/Src/stm32u5xx_hal_dma.c ****     {
 2459              		.loc 1 1402 28 is_stmt 0 view .LVU866
 2460 0020 01F01101 		and	r1, r1, #17
 2461              	.LVL116:
1402:Drivers/STM32U5xx_HAL_Driver/Src/stm32u5xx_hal_dma.c ****     {
 2462              		.loc 1 1402 8 view .LVU867
 2463 0024 1129     		cmp	r1, #17
 2464 0026 05D0     		beq	.L151
1408:Drivers/STM32U5xx_HAL_Driver/Src/stm32u5xx_hal_dma.c ****     }
 2465              		.loc 1 1408 7 is_stmt 1 view .LVU868
1408:Drivers/STM32U5xx_HAL_Driver/Src/stm32u5xx_hal_dma.c ****     }
 2466              		.loc 1 1408 21 is_stmt 0 view .LVU869
 2467 0028 5368     		ldr	r3, [r2, #4]
1408:Drivers/STM32U5xx_HAL_Driver/Src/stm32u5xx_hal_dma.c ****     }
 2468              		.loc 1 1408 32 view .LVU870
 2469 002a 23EA0003 		bic	r3, r3, r0
 2470 002e 5360     		str	r3, [r2, #4]
1456:Drivers/STM32U5xx_HAL_Driver/Src/stm32u5xx_hal_dma.c **** }
 2471              		.loc 1 1456 10 view .LVU871
 2472 0030 0020     		movs	r0, #0
 2473              	.LVL117:
ARM GAS  C:\Users\Ya\AppData\Local\Temp\ccY6d54u.s 			page 87


1456:Drivers/STM32U5xx_HAL_Driver/Src/stm32u5xx_hal_dma.c **** }
 2474              		.loc 1 1456 10 view .LVU872
 2475 0032 7047     		bx	lr
 2476              	.LVL118:
 2477              	.L151:
1404:Drivers/STM32U5xx_HAL_Driver/Src/stm32u5xx_hal_dma.c ****     }
 2478              		.loc 1 1404 7 is_stmt 1 view .LVU873
1404:Drivers/STM32U5xx_HAL_Driver/Src/stm32u5xx_hal_dma.c ****     }
 2479              		.loc 1 1404 21 is_stmt 0 view .LVU874
 2480 0034 5368     		ldr	r3, [r2, #4]
1404:Drivers/STM32U5xx_HAL_Driver/Src/stm32u5xx_hal_dma.c ****     }
 2481              		.loc 1 1404 32 view .LVU875
 2482 0036 0343     		orrs	r3, r3, r0
 2483 0038 5360     		str	r3, [r2, #4]
1456:Drivers/STM32U5xx_HAL_Driver/Src/stm32u5xx_hal_dma.c **** }
 2484              		.loc 1 1456 10 view .LVU876
 2485 003a 0020     		movs	r0, #0
 2486              	.LVL119:
1456:Drivers/STM32U5xx_HAL_Driver/Src/stm32u5xx_hal_dma.c **** }
 2487              		.loc 1 1456 10 view .LVU877
 2488 003c 7047     		bx	lr
 2489              	.LVL120:
 2490              	.L149:
1386:Drivers/STM32U5xx_HAL_Driver/Src/stm32u5xx_hal_dma.c ****   }
 2491              		.loc 1 1386 12 view .LVU878
 2492 003e 0120     		movs	r0, #1
 2493              	.LVL121:
1386:Drivers/STM32U5xx_HAL_Driver/Src/stm32u5xx_hal_dma.c ****   }
 2494              		.loc 1 1386 12 view .LVU879
 2495 0040 7047     		bx	lr
 2496              	.LVL122:
 2497              	.L150:
1456:Drivers/STM32U5xx_HAL_Driver/Src/stm32u5xx_hal_dma.c **** }
 2498              		.loc 1 1456 10 view .LVU880
 2499 0042 0020     		movs	r0, #0
 2500              	.LVL123:
1457:Drivers/STM32U5xx_HAL_Driver/Src/stm32u5xx_hal_dma.c **** 
 2501              		.loc 1 1457 1 view .LVU881
 2502 0044 7047     		bx	lr
 2503              		.cfi_endproc
 2504              	.LFE352:
 2506              		.section	.text.HAL_DMA_GetConfigChannelAttributes,"ax",%progbits
 2507              		.align	1
 2508              		.global	HAL_DMA_GetConfigChannelAttributes
 2509              		.syntax unified
 2510              		.thumb
 2511              		.thumb_func
 2513              	HAL_DMA_GetConfigChannelAttributes:
 2514              	.LVL124:
 2515              	.LFB353:
1468:Drivers/STM32U5xx_HAL_Driver/Src/stm32u5xx_hal_dma.c ****   DMA_TypeDef *p_dma_instance;
 2516              		.loc 1 1468 1 is_stmt 1 view -0
 2517              		.cfi_startproc
 2518              		@ args = 0, pretend = 0, frame = 0
 2519              		@ frame_needed = 0, uses_anonymous_args = 0
 2520              		@ link register save eliminated.
1469:Drivers/STM32U5xx_HAL_Driver/Src/stm32u5xx_hal_dma.c ****   uint32_t attributes;
ARM GAS  C:\Users\Ya\AppData\Local\Temp\ccY6d54u.s 			page 88


 2521              		.loc 1 1469 3 view .LVU883
1470:Drivers/STM32U5xx_HAL_Driver/Src/stm32u5xx_hal_dma.c ****   uint32_t channel_idx;
 2522              		.loc 1 1470 3 view .LVU884
1471:Drivers/STM32U5xx_HAL_Driver/Src/stm32u5xx_hal_dma.c **** 
 2523              		.loc 1 1471 3 view .LVU885
1474:Drivers/STM32U5xx_HAL_Driver/Src/stm32u5xx_hal_dma.c ****   {
 2524              		.loc 1 1474 3 view .LVU886
1474:Drivers/STM32U5xx_HAL_Driver/Src/stm32u5xx_hal_dma.c ****   {
 2525              		.loc 1 1474 6 is_stmt 0 view .LVU887
 2526 0000 B0B1     		cbz	r0, .L155
1474:Drivers/STM32U5xx_HAL_Driver/Src/stm32u5xx_hal_dma.c ****   {
 2527              		.loc 1 1474 22 discriminator 1 view .LVU888
 2528 0002 B9B1     		cbz	r1, .L156
1480:Drivers/STM32U5xx_HAL_Driver/Src/stm32u5xx_hal_dma.c **** 
 2529              		.loc 1 1480 3 is_stmt 1 view .LVU889
1480:Drivers/STM32U5xx_HAL_Driver/Src/stm32u5xx_hal_dma.c **** 
 2530              		.loc 1 1480 20 is_stmt 0 view .LVU890
 2531 0004 0368     		ldr	r3, [r0]
 2532 0006 23F47F60 		bic	r0, r3, #4080
 2533              	.LVL125:
1480:Drivers/STM32U5xx_HAL_Driver/Src/stm32u5xx_hal_dma.c **** 
 2534              		.loc 1 1480 20 view .LVU891
 2535 000a 20F00F00 		bic	r0, r0, #15
 2536              	.LVL126:
1483:Drivers/STM32U5xx_HAL_Driver/Src/stm32u5xx_hal_dma.c **** 
 2537              		.loc 1 1483 3 is_stmt 1 view .LVU892
1483:Drivers/STM32U5xx_HAL_Driver/Src/stm32u5xx_hal_dma.c **** 
 2538              		.loc 1 1483 25 is_stmt 0 view .LVU893
 2539 000e C3F30B03 		ubfx	r3, r3, #0, #12
 2540 0012 503B     		subs	r3, r3, #80
1483:Drivers/STM32U5xx_HAL_Driver/Src/stm32u5xx_hal_dma.c **** 
 2541              		.loc 1 1483 47 view .LVU894
 2542 0014 C3F3C413 		ubfx	r3, r3, #7, #5
1483:Drivers/STM32U5xx_HAL_Driver/Src/stm32u5xx_hal_dma.c **** 
 2543              		.loc 1 1483 15 view .LVU895
 2544 0018 0122     		movs	r2, #1
 2545 001a 02FA03F3 		lsl	r3, r2, r3
 2546              	.LVL127:
1486:Drivers/STM32U5xx_HAL_Driver/Src/stm32u5xx_hal_dma.c **** 
 2547              		.loc 1 1486 3 is_stmt 1 view .LVU896
1486:Drivers/STM32U5xx_HAL_Driver/Src/stm32u5xx_hal_dma.c **** 
 2548              		.loc 1 1486 32 is_stmt 0 view .LVU897
 2549 001e 4268     		ldr	r2, [r0, #4]
1486:Drivers/STM32U5xx_HAL_Driver/Src/stm32u5xx_hal_dma.c **** 
 2550              		.loc 1 1486 85 view .LVU898
 2551 0020 1A42     		tst	r2, r3
 2552 0022 03D1     		bne	.L157
 2553 0024 1023     		movs	r3, #16
 2554              	.LVL128:
 2555              	.L154:
1500:Drivers/STM32U5xx_HAL_Driver/Src/stm32u5xx_hal_dma.c **** 
 2556              		.loc 1 1500 3 is_stmt 1 discriminator 4 view .LVU899
1500:Drivers/STM32U5xx_HAL_Driver/Src/stm32u5xx_hal_dma.c **** 
 2557              		.loc 1 1500 23 is_stmt 0 discriminator 4 view .LVU900
 2558 0026 0B60     		str	r3, [r1]
 2559              	.LVL129:
1502:Drivers/STM32U5xx_HAL_Driver/Src/stm32u5xx_hal_dma.c **** }
ARM GAS  C:\Users\Ya\AppData\Local\Temp\ccY6d54u.s 			page 89


 2560              		.loc 1 1502 3 is_stmt 1 discriminator 4 view .LVU901
1502:Drivers/STM32U5xx_HAL_Driver/Src/stm32u5xx_hal_dma.c **** }
 2561              		.loc 1 1502 10 is_stmt 0 discriminator 4 view .LVU902
 2562 0028 0020     		movs	r0, #0
 2563              	.LVL130:
1502:Drivers/STM32U5xx_HAL_Driver/Src/stm32u5xx_hal_dma.c **** }
 2564              		.loc 1 1502 10 discriminator 4 view .LVU903
 2565 002a 7047     		bx	lr
 2566              	.LVL131:
 2567              	.L157:
1486:Drivers/STM32U5xx_HAL_Driver/Src/stm32u5xx_hal_dma.c **** 
 2568              		.loc 1 1486 85 view .LVU904
 2569 002c 1123     		movs	r3, #17
 2570              	.LVL132:
1486:Drivers/STM32U5xx_HAL_Driver/Src/stm32u5xx_hal_dma.c **** 
 2571              		.loc 1 1486 85 view .LVU905
 2572 002e FAE7     		b	.L154
 2573              	.LVL133:
 2574              	.L155:
1476:Drivers/STM32U5xx_HAL_Driver/Src/stm32u5xx_hal_dma.c ****   }
 2575              		.loc 1 1476 12 view .LVU906
 2576 0030 0120     		movs	r0, #1
 2577              	.LVL134:
1476:Drivers/STM32U5xx_HAL_Driver/Src/stm32u5xx_hal_dma.c ****   }
 2578              		.loc 1 1476 12 view .LVU907
 2579 0032 7047     		bx	lr
 2580              	.LVL135:
 2581              	.L156:
1476:Drivers/STM32U5xx_HAL_Driver/Src/stm32u5xx_hal_dma.c ****   }
 2582              		.loc 1 1476 12 view .LVU908
 2583 0034 0120     		movs	r0, #1
 2584              	.LVL136:
1503:Drivers/STM32U5xx_HAL_Driver/Src/stm32u5xx_hal_dma.c **** 
 2585              		.loc 1 1503 1 view .LVU909
 2586 0036 7047     		bx	lr
 2587              		.cfi_endproc
 2588              	.LFE353:
 2590              		.section	.text.HAL_DMA_GetLockChannelAttributes,"ax",%progbits
 2591              		.align	1
 2592              		.global	HAL_DMA_GetLockChannelAttributes
 2593              		.syntax unified
 2594              		.thumb
 2595              		.thumb_func
 2597              	HAL_DMA_GetLockChannelAttributes:
 2598              	.LVL137:
 2599              	.LFB354:
1545:Drivers/STM32U5xx_HAL_Driver/Src/stm32u5xx_hal_dma.c ****   DMA_TypeDef *p_dma_instance;
 2600              		.loc 1 1545 1 is_stmt 1 view -0
 2601              		.cfi_startproc
 2602              		@ args = 0, pretend = 0, frame = 0
 2603              		@ frame_needed = 0, uses_anonymous_args = 0
 2604              		@ link register save eliminated.
1546:Drivers/STM32U5xx_HAL_Driver/Src/stm32u5xx_hal_dma.c ****   uint32_t channel_idx;
 2605              		.loc 1 1546 3 view .LVU911
1547:Drivers/STM32U5xx_HAL_Driver/Src/stm32u5xx_hal_dma.c **** 
 2606              		.loc 1 1547 3 view .LVU912
1550:Drivers/STM32U5xx_HAL_Driver/Src/stm32u5xx_hal_dma.c ****   {
ARM GAS  C:\Users\Ya\AppData\Local\Temp\ccY6d54u.s 			page 90


 2607              		.loc 1 1550 3 view .LVU913
1550:Drivers/STM32U5xx_HAL_Driver/Src/stm32u5xx_hal_dma.c ****   {
 2608              		.loc 1 1550 6 is_stmt 0 view .LVU914
 2609 0000 A8B1     		cbz	r0, .L160
1550:Drivers/STM32U5xx_HAL_Driver/Src/stm32u5xx_hal_dma.c ****   {
 2610              		.loc 1 1550 22 discriminator 1 view .LVU915
 2611 0002 B1B1     		cbz	r1, .L161
1556:Drivers/STM32U5xx_HAL_Driver/Src/stm32u5xx_hal_dma.c **** 
 2612              		.loc 1 1556 3 is_stmt 1 view .LVU916
1556:Drivers/STM32U5xx_HAL_Driver/Src/stm32u5xx_hal_dma.c **** 
 2613              		.loc 1 1556 20 is_stmt 0 view .LVU917
 2614 0004 0368     		ldr	r3, [r0]
 2615 0006 23F47F60 		bic	r0, r3, #4080
 2616              	.LVL138:
1556:Drivers/STM32U5xx_HAL_Driver/Src/stm32u5xx_hal_dma.c **** 
 2617              		.loc 1 1556 20 view .LVU918
 2618 000a 20F00F00 		bic	r0, r0, #15
 2619              	.LVL139:
1559:Drivers/STM32U5xx_HAL_Driver/Src/stm32u5xx_hal_dma.c **** 
 2620              		.loc 1 1559 3 is_stmt 1 view .LVU919
1559:Drivers/STM32U5xx_HAL_Driver/Src/stm32u5xx_hal_dma.c **** 
 2621              		.loc 1 1559 25 is_stmt 0 view .LVU920
 2622 000e C3F30B03 		ubfx	r3, r3, #0, #12
 2623 0012 503B     		subs	r3, r3, #80
1559:Drivers/STM32U5xx_HAL_Driver/Src/stm32u5xx_hal_dma.c **** 
 2624              		.loc 1 1559 47 view .LVU921
 2625 0014 C3F3C413 		ubfx	r3, r3, #7, #5
1559:Drivers/STM32U5xx_HAL_Driver/Src/stm32u5xx_hal_dma.c **** 
 2626              		.loc 1 1559 15 view .LVU922
 2627 0018 0122     		movs	r2, #1
 2628 001a 02FA03F3 		lsl	r3, r2, r3
 2629              	.LVL140:
1562:Drivers/STM32U5xx_HAL_Driver/Src/stm32u5xx_hal_dma.c ****                 DMA_CHANNEL_ATTRIBUTE_LOCKED;
 2630              		.loc 1 1562 3 is_stmt 1 view .LVU923
1562:Drivers/STM32U5xx_HAL_Driver/Src/stm32u5xx_hal_dma.c ****                 DMA_CHANNEL_ATTRIBUTE_LOCKED;
 2631              		.loc 1 1562 33 is_stmt 0 view .LVU924
 2632 001e 8268     		ldr	r2, [r0, #8]
1562:Drivers/STM32U5xx_HAL_Driver/Src/stm32u5xx_hal_dma.c ****                 DMA_CHANNEL_ATTRIBUTE_LOCKED;
 2633              		.loc 1 1562 100 view .LVU925
 2634 0020 1A42     		tst	r2, r3
 2635 0022 14BF     		ite	ne
 2636 0024 0123     		movne	r3, #1
 2637              	.LVL141:
1562:Drivers/STM32U5xx_HAL_Driver/Src/stm32u5xx_hal_dma.c ****                 DMA_CHANNEL_ATTRIBUTE_LOCKED;
 2638              		.loc 1 1562 100 view .LVU926
 2639 0026 0023     		moveq	r3, #0
1562:Drivers/STM32U5xx_HAL_Driver/Src/stm32u5xx_hal_dma.c ****                 DMA_CHANNEL_ATTRIBUTE_LOCKED;
 2640              		.loc 1 1562 15 view .LVU927
 2641 0028 0B60     		str	r3, [r1]
 2642              	.LVL142:
1565:Drivers/STM32U5xx_HAL_Driver/Src/stm32u5xx_hal_dma.c **** }
 2643              		.loc 1 1565 3 is_stmt 1 view .LVU928
1565:Drivers/STM32U5xx_HAL_Driver/Src/stm32u5xx_hal_dma.c **** }
 2644              		.loc 1 1565 10 is_stmt 0 view .LVU929
 2645 002a 0020     		movs	r0, #0
 2646              	.LVL143:
1565:Drivers/STM32U5xx_HAL_Driver/Src/stm32u5xx_hal_dma.c **** }
ARM GAS  C:\Users\Ya\AppData\Local\Temp\ccY6d54u.s 			page 91


 2647              		.loc 1 1565 10 view .LVU930
 2648 002c 7047     		bx	lr
 2649              	.LVL144:
 2650              	.L160:
1552:Drivers/STM32U5xx_HAL_Driver/Src/stm32u5xx_hal_dma.c ****   }
 2651              		.loc 1 1552 12 view .LVU931
 2652 002e 0120     		movs	r0, #1
 2653              	.LVL145:
1552:Drivers/STM32U5xx_HAL_Driver/Src/stm32u5xx_hal_dma.c ****   }
 2654              		.loc 1 1552 12 view .LVU932
 2655 0030 7047     		bx	lr
 2656              	.LVL146:
 2657              	.L161:
1552:Drivers/STM32U5xx_HAL_Driver/Src/stm32u5xx_hal_dma.c ****   }
 2658              		.loc 1 1552 12 view .LVU933
 2659 0032 0120     		movs	r0, #1
 2660              	.LVL147:
1566:Drivers/STM32U5xx_HAL_Driver/Src/stm32u5xx_hal_dma.c **** /**
 2661              		.loc 1 1566 1 view .LVU934
 2662 0034 7047     		bx	lr
 2663              		.cfi_endproc
 2664              	.LFE354:
 2666              		.text
 2667              	.Letext0:
 2668              		.file 2 "c:\\users\\ya\\appdata\\roaming\\code\\user\\globalstorage\\bmd.stm32-for-vscode\\@xpack-
 2669              		.file 3 "c:\\users\\ya\\appdata\\roaming\\code\\user\\globalstorage\\bmd.stm32-for-vscode\\@xpack-
 2670              		.file 4 "Drivers/CMSIS/Device/ST/STM32U5xx/Include/stm32u575xx.h"
 2671              		.file 5 "Drivers/STM32U5xx_HAL_Driver/Inc/stm32u5xx_hal_def.h"
 2672              		.file 6 "Drivers/STM32U5xx_HAL_Driver/Inc/stm32u5xx_hal_dma.h"
 2673              		.file 7 "Drivers/STM32U5xx_HAL_Driver/Inc/stm32u5xx_hal_dma_ex.h"
 2674              		.file 8 "Drivers/STM32U5xx_HAL_Driver/Inc/stm32u5xx_hal.h"
ARM GAS  C:\Users\Ya\AppData\Local\Temp\ccY6d54u.s 			page 92


DEFINED SYMBOLS
                            *ABS*:0000000000000000 stm32u5xx_hal_dma.c
C:\Users\Ya\AppData\Local\Temp\ccY6d54u.s:22     .text.DMA_SetConfig:0000000000000000 $t
C:\Users\Ya\AppData\Local\Temp\ccY6d54u.s:27     .text.DMA_SetConfig:0000000000000000 DMA_SetConfig
C:\Users\Ya\AppData\Local\Temp\ccY6d54u.s:74     .text.DMA_Init:0000000000000000 $t
C:\Users\Ya\AppData\Local\Temp\ccY6d54u.s:79     .text.DMA_Init:0000000000000000 DMA_Init
C:\Users\Ya\AppData\Local\Temp\ccY6d54u.s:396    .text.DMA_Init:0000000000000204 $d
C:\Users\Ya\AppData\Local\Temp\ccY6d54u.s:403    .text.DMA_Init:000000000000020c $t
C:\Users\Ya\AppData\Local\Temp\ccY6d54u.s:563    .text.DMA_Init:0000000000000340 $d
C:\Users\Ya\AppData\Local\Temp\ccY6d54u.s:568    .text.HAL_DMA_Init:0000000000000000 $t
C:\Users\Ya\AppData\Local\Temp\ccY6d54u.s:574    .text.HAL_DMA_Init:0000000000000000 HAL_DMA_Init
C:\Users\Ya\AppData\Local\Temp\ccY6d54u.s:694    .text.HAL_DMA_DeInit:0000000000000000 $t
C:\Users\Ya\AppData\Local\Temp\ccY6d54u.s:700    .text.HAL_DMA_DeInit:0000000000000000 HAL_DMA_DeInit
C:\Users\Ya\AppData\Local\Temp\ccY6d54u.s:928    .text.HAL_DMA_DeInit:00000000000000fc $d
C:\Users\Ya\AppData\Local\Temp\ccY6d54u.s:933    .text.HAL_DMA_Start:0000000000000000 $t
C:\Users\Ya\AppData\Local\Temp\ccY6d54u.s:939    .text.HAL_DMA_Start:0000000000000000 HAL_DMA_Start
C:\Users\Ya\AppData\Local\Temp\ccY6d54u.s:1043   .text.HAL_DMA_Start_IT:0000000000000000 $t
C:\Users\Ya\AppData\Local\Temp\ccY6d54u.s:1049   .text.HAL_DMA_Start_IT:0000000000000000 HAL_DMA_Start_IT
C:\Users\Ya\AppData\Local\Temp\ccY6d54u.s:1175   .text.HAL_DMA_Abort:0000000000000000 $t
C:\Users\Ya\AppData\Local\Temp\ccY6d54u.s:1181   .text.HAL_DMA_Abort:0000000000000000 HAL_DMA_Abort
C:\Users\Ya\AppData\Local\Temp\ccY6d54u.s:1351   .text.HAL_DMA_Abort_IT:0000000000000000 $t
C:\Users\Ya\AppData\Local\Temp\ccY6d54u.s:1357   .text.HAL_DMA_Abort_IT:0000000000000000 HAL_DMA_Abort_IT
C:\Users\Ya\AppData\Local\Temp\ccY6d54u.s:1417   .text.HAL_DMA_PollForTransfer:0000000000000000 $t
C:\Users\Ya\AppData\Local\Temp\ccY6d54u.s:1423   .text.HAL_DMA_PollForTransfer:0000000000000000 HAL_DMA_PollForTransfer
C:\Users\Ya\AppData\Local\Temp\ccY6d54u.s:1732   .text.HAL_DMA_IRQHandler:0000000000000000 $t
C:\Users\Ya\AppData\Local\Temp\ccY6d54u.s:1738   .text.HAL_DMA_IRQHandler:0000000000000000 HAL_DMA_IRQHandler
C:\Users\Ya\AppData\Local\Temp\ccY6d54u.s:2149   .text.HAL_DMA_RegisterCallback:0000000000000000 $t
C:\Users\Ya\AppData\Local\Temp\ccY6d54u.s:2155   .text.HAL_DMA_RegisterCallback:0000000000000000 HAL_DMA_RegisterCallback
C:\Users\Ya\AppData\Local\Temp\ccY6d54u.s:2190   .text.HAL_DMA_RegisterCallback:000000000000001a $d
C:\Users\Ya\AppData\Local\Temp\ccY6d54u.s:2252   .text.HAL_DMA_UnRegisterCallback:0000000000000000 $t
C:\Users\Ya\AppData\Local\Temp\ccY6d54u.s:2258   .text.HAL_DMA_UnRegisterCallback:0000000000000000 HAL_DMA_UnRegisterCallback
C:\Users\Ya\AppData\Local\Temp\ccY6d54u.s:2293   .text.HAL_DMA_UnRegisterCallback:000000000000001a $d
C:\Users\Ya\AppData\Local\Temp\ccY6d54u.s:2299   .text.HAL_DMA_UnRegisterCallback:0000000000000020 $t
C:\Users\Ya\AppData\Local\Temp\ccY6d54u.s:2368   .text.HAL_DMA_GetState:0000000000000000 $t
C:\Users\Ya\AppData\Local\Temp\ccY6d54u.s:2374   .text.HAL_DMA_GetState:0000000000000000 HAL_DMA_GetState
C:\Users\Ya\AppData\Local\Temp\ccY6d54u.s:2392   .text.HAL_DMA_GetError:0000000000000000 $t
C:\Users\Ya\AppData\Local\Temp\ccY6d54u.s:2398   .text.HAL_DMA_GetError:0000000000000000 HAL_DMA_GetError
C:\Users\Ya\AppData\Local\Temp\ccY6d54u.s:2416   .text.HAL_DMA_ConfigChannelAttributes:0000000000000000 $t
C:\Users\Ya\AppData\Local\Temp\ccY6d54u.s:2422   .text.HAL_DMA_ConfigChannelAttributes:0000000000000000 HAL_DMA_ConfigChannelAttributes
C:\Users\Ya\AppData\Local\Temp\ccY6d54u.s:2507   .text.HAL_DMA_GetConfigChannelAttributes:0000000000000000 $t
C:\Users\Ya\AppData\Local\Temp\ccY6d54u.s:2513   .text.HAL_DMA_GetConfigChannelAttributes:0000000000000000 HAL_DMA_GetConfigChannelAttributes
C:\Users\Ya\AppData\Local\Temp\ccY6d54u.s:2591   .text.HAL_DMA_GetLockChannelAttributes:0000000000000000 $t
C:\Users\Ya\AppData\Local\Temp\ccY6d54u.s:2597   .text.HAL_DMA_GetLockChannelAttributes:0000000000000000 HAL_DMA_GetLockChannelAttributes
C:\Users\Ya\AppData\Local\Temp\ccY6d54u.s:2195   .text.HAL_DMA_RegisterCallback:000000000000001f $d
C:\Users\Ya\AppData\Local\Temp\ccY6d54u.s:2195   .text.HAL_DMA_RegisterCallback:0000000000000020 $t

UNDEFINED SYMBOLS
HAL_GetTick
