ARM GAS  C:\Users\Ya\AppData\Local\Temp\ccv9y9EX.s 			page 1


   1              		.cpu cortex-m33
   2              		.arch armv8-m.main
   3              		.fpu fpv5-sp-d16
   4              		.arch_extension dsp
   5              		.eabi_attribute 27, 1
   6              		.eabi_attribute 28, 1
   7              		.eabi_attribute 20, 1
   8              		.eabi_attribute 21, 1
   9              		.eabi_attribute 23, 3
  10              		.eabi_attribute 24, 1
  11              		.eabi_attribute 25, 1
  12              		.eabi_attribute 26, 1
  13              		.eabi_attribute 30, 1
  14              		.eabi_attribute 34, 1
  15              		.eabi_attribute 18, 4
  16              		.file	"stm32u5xx_hal_icache.c"
  17              		.text
  18              	.Ltext0:
  19              		.cfi_sections	.debug_frame
  20              		.file 1 "Drivers/STM32U5xx_HAL_Driver/Src/stm32u5xx_hal_icache.c"
  21              		.section	.text.HAL_ICACHE_ConfigAssociativityMode,"ax",%progbits
  22              		.align	1
  23              		.global	HAL_ICACHE_ConfigAssociativityMode
  24              		.syntax unified
  25              		.thumb
  26              		.thumb_func
  28              	HAL_ICACHE_ConfigAssociativityMode:
  29              	.LVL0:
  30              	.LFB340:
   1:Drivers/STM32U5xx_HAL_Driver/Src/stm32u5xx_hal_icache.c **** /**
   2:Drivers/STM32U5xx_HAL_Driver/Src/stm32u5xx_hal_icache.c ****   ******************************************************************************
   3:Drivers/STM32U5xx_HAL_Driver/Src/stm32u5xx_hal_icache.c ****   * @file    stm32u5xx_hal_icache.c
   4:Drivers/STM32U5xx_HAL_Driver/Src/stm32u5xx_hal_icache.c ****   * @author  MCD Application Team
   5:Drivers/STM32U5xx_HAL_Driver/Src/stm32u5xx_hal_icache.c ****   * @brief   ICACHE HAL module driver.
   6:Drivers/STM32U5xx_HAL_Driver/Src/stm32u5xx_hal_icache.c ****   *          This file provides firmware functions to manage the following
   7:Drivers/STM32U5xx_HAL_Driver/Src/stm32u5xx_hal_icache.c ****   *          functionalities of the Instruction Cache (ICACHE).
   8:Drivers/STM32U5xx_HAL_Driver/Src/stm32u5xx_hal_icache.c ****   *           + Initialization and Configuration
   9:Drivers/STM32U5xx_HAL_Driver/Src/stm32u5xx_hal_icache.c ****   *           + Invalidate functions
  10:Drivers/STM32U5xx_HAL_Driver/Src/stm32u5xx_hal_icache.c ****   *           + Monitoring management
  11:Drivers/STM32U5xx_HAL_Driver/Src/stm32u5xx_hal_icache.c ****   *           + Memory address remap management
  12:Drivers/STM32U5xx_HAL_Driver/Src/stm32u5xx_hal_icache.c ****   ******************************************************************************
  13:Drivers/STM32U5xx_HAL_Driver/Src/stm32u5xx_hal_icache.c ****   * @attention
  14:Drivers/STM32U5xx_HAL_Driver/Src/stm32u5xx_hal_icache.c ****   *
  15:Drivers/STM32U5xx_HAL_Driver/Src/stm32u5xx_hal_icache.c ****   * Copyright (c) 2021 STMicroelectronics.
  16:Drivers/STM32U5xx_HAL_Driver/Src/stm32u5xx_hal_icache.c ****   * All rights reserved.
  17:Drivers/STM32U5xx_HAL_Driver/Src/stm32u5xx_hal_icache.c ****   *
  18:Drivers/STM32U5xx_HAL_Driver/Src/stm32u5xx_hal_icache.c ****   * This software is licensed under terms that can be found in the LICENSE file
  19:Drivers/STM32U5xx_HAL_Driver/Src/stm32u5xx_hal_icache.c ****   * in the root directory of this software component.
  20:Drivers/STM32U5xx_HAL_Driver/Src/stm32u5xx_hal_icache.c ****   * If no LICENSE file comes with this software, it is provided AS-IS.
  21:Drivers/STM32U5xx_HAL_Driver/Src/stm32u5xx_hal_icache.c ****   *
  22:Drivers/STM32U5xx_HAL_Driver/Src/stm32u5xx_hal_icache.c ****   ******************************************************************************
  23:Drivers/STM32U5xx_HAL_Driver/Src/stm32u5xx_hal_icache.c ****   @verbatim
  24:Drivers/STM32U5xx_HAL_Driver/Src/stm32u5xx_hal_icache.c ****   ==============================================================================
  25:Drivers/STM32U5xx_HAL_Driver/Src/stm32u5xx_hal_icache.c ****                         ##### ICACHE main features #####
  26:Drivers/STM32U5xx_HAL_Driver/Src/stm32u5xx_hal_icache.c ****   ==============================================================================
  27:Drivers/STM32U5xx_HAL_Driver/Src/stm32u5xx_hal_icache.c ****   [..]
  28:Drivers/STM32U5xx_HAL_Driver/Src/stm32u5xx_hal_icache.c ****     The Instruction Cache (ICACHE) is introduced on C-AHB code bus of
ARM GAS  C:\Users\Ya\AppData\Local\Temp\ccv9y9EX.s 			page 2


  29:Drivers/STM32U5xx_HAL_Driver/Src/stm32u5xx_hal_icache.c ****     Cortex-M33 processor to improve performance when fetching instruction
  30:Drivers/STM32U5xx_HAL_Driver/Src/stm32u5xx_hal_icache.c ****     and data from both internal and external memories. It allows close to
  31:Drivers/STM32U5xx_HAL_Driver/Src/stm32u5xx_hal_icache.c ****     zero wait states performance.
  32:Drivers/STM32U5xx_HAL_Driver/Src/stm32u5xx_hal_icache.c **** 
  33:Drivers/STM32U5xx_HAL_Driver/Src/stm32u5xx_hal_icache.c ****     (+) The ICACHE provides two performance counters (Hit and Miss),
  34:Drivers/STM32U5xx_HAL_Driver/Src/stm32u5xx_hal_icache.c ****         cache invalidate maintenance operation, error management and TrustZone
  35:Drivers/STM32U5xx_HAL_Driver/Src/stm32u5xx_hal_icache.c ****         security support.
  36:Drivers/STM32U5xx_HAL_Driver/Src/stm32u5xx_hal_icache.c **** 
  37:Drivers/STM32U5xx_HAL_Driver/Src/stm32u5xx_hal_icache.c ****     (+) The ICACHE provides additionally the possibility to remap input address
  38:Drivers/STM32U5xx_HAL_Driver/Src/stm32u5xx_hal_icache.c ****         falling into up to four memory regions (used to remap aliased code in
  39:Drivers/STM32U5xx_HAL_Driver/Src/stm32u5xx_hal_icache.c ****         external memories to the internal Code region, for execution)
  40:Drivers/STM32U5xx_HAL_Driver/Src/stm32u5xx_hal_icache.c **** 
  41:Drivers/STM32U5xx_HAL_Driver/Src/stm32u5xx_hal_icache.c ****   ===============================================================================
  42:Drivers/STM32U5xx_HAL_Driver/Src/stm32u5xx_hal_icache.c ****                         ##### How to use this driver #####
  43:Drivers/STM32U5xx_HAL_Driver/Src/stm32u5xx_hal_icache.c ****   ===============================================================================
  44:Drivers/STM32U5xx_HAL_Driver/Src/stm32u5xx_hal_icache.c ****   [..]
  45:Drivers/STM32U5xx_HAL_Driver/Src/stm32u5xx_hal_icache.c ****      The ICACHE HAL driver can be used as follows:
  46:Drivers/STM32U5xx_HAL_Driver/Src/stm32u5xx_hal_icache.c **** 
  47:Drivers/STM32U5xx_HAL_Driver/Src/stm32u5xx_hal_icache.c ****     (#) Optionally configure the Instruction Cache mode with
  48:Drivers/STM32U5xx_HAL_Driver/Src/stm32u5xx_hal_icache.c ****         @ref HAL_ICACHE_ConfigAssociativityMode() if the default configuration
  49:Drivers/STM32U5xx_HAL_Driver/Src/stm32u5xx_hal_icache.c ****         does not suit the application requirements.
  50:Drivers/STM32U5xx_HAL_Driver/Src/stm32u5xx_hal_icache.c **** 
  51:Drivers/STM32U5xx_HAL_Driver/Src/stm32u5xx_hal_icache.c ****     (#) Enable and disable the Instruction Cache with respectively
  52:Drivers/STM32U5xx_HAL_Driver/Src/stm32u5xx_hal_icache.c ****         @ref HAL_ICACHE_Enable() and @ref HAL_ICACHE_Disable().
  53:Drivers/STM32U5xx_HAL_Driver/Src/stm32u5xx_hal_icache.c ****         Use @ref HAL_ICACHE_IsEnabled() to get the Instruction Cache status.
  54:Drivers/STM32U5xx_HAL_Driver/Src/stm32u5xx_hal_icache.c **** 
  55:Drivers/STM32U5xx_HAL_Driver/Src/stm32u5xx_hal_icache.c ****     (#) Initiate the cache maintenance invalidation procedure with either
  56:Drivers/STM32U5xx_HAL_Driver/Src/stm32u5xx_hal_icache.c ****         @ref HAL_ICACHE_Invalidate() (blocking mode) or @ref HAL_ICACHE_Invalidate_IT()
  57:Drivers/STM32U5xx_HAL_Driver/Src/stm32u5xx_hal_icache.c ****         (interrupt mode). When interrupt mode is used, the callback function
  58:Drivers/STM32U5xx_HAL_Driver/Src/stm32u5xx_hal_icache.c ****         @ref HAL_ICACHE_InvalidateCompleteCallback() is called when the invalidate
  59:Drivers/STM32U5xx_HAL_Driver/Src/stm32u5xx_hal_icache.c ****         procedure is complete. The function @ref HAL_ICACHE_WaitForInvalidateComplete()
  60:Drivers/STM32U5xx_HAL_Driver/Src/stm32u5xx_hal_icache.c ****         may be called to wait for the end of the invalidate procedure automatically
  61:Drivers/STM32U5xx_HAL_Driver/Src/stm32u5xx_hal_icache.c ****         initiated when disabling the Instruction Cache with @ref HAL_ICACHE_Disable().
  62:Drivers/STM32U5xx_HAL_Driver/Src/stm32u5xx_hal_icache.c ****         The cache operation is bypassed during the invalidation procedure.
  63:Drivers/STM32U5xx_HAL_Driver/Src/stm32u5xx_hal_icache.c **** 
  64:Drivers/STM32U5xx_HAL_Driver/Src/stm32u5xx_hal_icache.c ****     (#) Use the performance monitoring counters for Hit and Miss with the following
  65:Drivers/STM32U5xx_HAL_Driver/Src/stm32u5xx_hal_icache.c ****         functions: @ref HAL_ICACHE_Monitor_Start(), @ref HAL_ICACHE_Monitor_Stop(),
  66:Drivers/STM32U5xx_HAL_Driver/Src/stm32u5xx_hal_icache.c ****         @ref HAL_ICACHE_Monitor_Reset(), @ref HAL_ICACHE_Monitor_GetHitValue() and
  67:Drivers/STM32U5xx_HAL_Driver/Src/stm32u5xx_hal_icache.c ****         @ref HAL_ICACHE_Monitor_GetMissValue()
  68:Drivers/STM32U5xx_HAL_Driver/Src/stm32u5xx_hal_icache.c **** 
  69:Drivers/STM32U5xx_HAL_Driver/Src/stm32u5xx_hal_icache.c ****     (#) Enable and disable up to four regions to remap input address from external
  70:Drivers/STM32U5xx_HAL_Driver/Src/stm32u5xx_hal_icache.c ****         memories to the internal Code region for execution with
  71:Drivers/STM32U5xx_HAL_Driver/Src/stm32u5xx_hal_icache.c ****         @ref HAL_ICACHE_EnableRemapRegion() and @ref HAL_ICACHE_DisableRemapRegion()
  72:Drivers/STM32U5xx_HAL_Driver/Src/stm32u5xx_hal_icache.c **** 
  73:Drivers/STM32U5xx_HAL_Driver/Src/stm32u5xx_hal_icache.c ****   @endverbatim
  74:Drivers/STM32U5xx_HAL_Driver/Src/stm32u5xx_hal_icache.c ****   */
  75:Drivers/STM32U5xx_HAL_Driver/Src/stm32u5xx_hal_icache.c **** 
  76:Drivers/STM32U5xx_HAL_Driver/Src/stm32u5xx_hal_icache.c **** /* Includes ------------------------------------------------------------------*/
  77:Drivers/STM32U5xx_HAL_Driver/Src/stm32u5xx_hal_icache.c **** #include "stm32u5xx_hal.h"
  78:Drivers/STM32U5xx_HAL_Driver/Src/stm32u5xx_hal_icache.c **** 
  79:Drivers/STM32U5xx_HAL_Driver/Src/stm32u5xx_hal_icache.c **** /** @addtogroup STM32U5xx_HAL_Driver
  80:Drivers/STM32U5xx_HAL_Driver/Src/stm32u5xx_hal_icache.c ****   * @{
  81:Drivers/STM32U5xx_HAL_Driver/Src/stm32u5xx_hal_icache.c ****   */
  82:Drivers/STM32U5xx_HAL_Driver/Src/stm32u5xx_hal_icache.c **** 
  83:Drivers/STM32U5xx_HAL_Driver/Src/stm32u5xx_hal_icache.c **** /** @defgroup ICACHE ICACHE
  84:Drivers/STM32U5xx_HAL_Driver/Src/stm32u5xx_hal_icache.c ****   * @brief HAL ICACHE module driver
  85:Drivers/STM32U5xx_HAL_Driver/Src/stm32u5xx_hal_icache.c ****   * @{
ARM GAS  C:\Users\Ya\AppData\Local\Temp\ccv9y9EX.s 			page 3


  86:Drivers/STM32U5xx_HAL_Driver/Src/stm32u5xx_hal_icache.c ****   */
  87:Drivers/STM32U5xx_HAL_Driver/Src/stm32u5xx_hal_icache.c **** #ifdef HAL_ICACHE_MODULE_ENABLED
  88:Drivers/STM32U5xx_HAL_Driver/Src/stm32u5xx_hal_icache.c **** 
  89:Drivers/STM32U5xx_HAL_Driver/Src/stm32u5xx_hal_icache.c **** /* Private typedef -----------------------------------------------------------*/
  90:Drivers/STM32U5xx_HAL_Driver/Src/stm32u5xx_hal_icache.c **** /* Private constants ---------------------------------------------------------*/
  91:Drivers/STM32U5xx_HAL_Driver/Src/stm32u5xx_hal_icache.c **** /** @addtogroup ICACHE_Private_Constants ICACHE Private Constants
  92:Drivers/STM32U5xx_HAL_Driver/Src/stm32u5xx_hal_icache.c ****   * @{
  93:Drivers/STM32U5xx_HAL_Driver/Src/stm32u5xx_hal_icache.c ****   */
  94:Drivers/STM32U5xx_HAL_Driver/Src/stm32u5xx_hal_icache.c **** #define ICACHE_INVALIDATE_TIMEOUT_VALUE        1U   /* 1ms */
  95:Drivers/STM32U5xx_HAL_Driver/Src/stm32u5xx_hal_icache.c **** #define ICACHE_DISABLE_TIMEOUT_VALUE           1U   /* 1ms */
  96:Drivers/STM32U5xx_HAL_Driver/Src/stm32u5xx_hal_icache.c **** 
  97:Drivers/STM32U5xx_HAL_Driver/Src/stm32u5xx_hal_icache.c **** /**
  98:Drivers/STM32U5xx_HAL_Driver/Src/stm32u5xx_hal_icache.c ****   * @}
  99:Drivers/STM32U5xx_HAL_Driver/Src/stm32u5xx_hal_icache.c ****   */
 100:Drivers/STM32U5xx_HAL_Driver/Src/stm32u5xx_hal_icache.c **** 
 101:Drivers/STM32U5xx_HAL_Driver/Src/stm32u5xx_hal_icache.c **** /* Private macros ------------------------------------------------------------*/
 102:Drivers/STM32U5xx_HAL_Driver/Src/stm32u5xx_hal_icache.c **** /** @defgroup ICACHE_Private_Macros ICACHE Private Macros
 103:Drivers/STM32U5xx_HAL_Driver/Src/stm32u5xx_hal_icache.c ****   * @{
 104:Drivers/STM32U5xx_HAL_Driver/Src/stm32u5xx_hal_icache.c ****   */
 105:Drivers/STM32U5xx_HAL_Driver/Src/stm32u5xx_hal_icache.c **** 
 106:Drivers/STM32U5xx_HAL_Driver/Src/stm32u5xx_hal_icache.c **** #define IS_ICACHE_ASSOCIATIVITY_MODE(__MODE__) (((__MODE__) == ICACHE_1WAY) || \
 107:Drivers/STM32U5xx_HAL_Driver/Src/stm32u5xx_hal_icache.c ****                                                 ((__MODE__) == ICACHE_2WAYS))
 108:Drivers/STM32U5xx_HAL_Driver/Src/stm32u5xx_hal_icache.c **** 
 109:Drivers/STM32U5xx_HAL_Driver/Src/stm32u5xx_hal_icache.c **** #define IS_ICACHE_MONITOR_TYPE(__TYPE__)    (((__TYPE__) == ICACHE_MONITOR_HIT_MISS) || \
 110:Drivers/STM32U5xx_HAL_Driver/Src/stm32u5xx_hal_icache.c ****                                              ((__TYPE__) == ICACHE_MONITOR_HIT)      || \
 111:Drivers/STM32U5xx_HAL_Driver/Src/stm32u5xx_hal_icache.c ****                                              ((__TYPE__) == ICACHE_MONITOR_MISS))
 112:Drivers/STM32U5xx_HAL_Driver/Src/stm32u5xx_hal_icache.c **** 
 113:Drivers/STM32U5xx_HAL_Driver/Src/stm32u5xx_hal_icache.c **** #define IS_ICACHE_REGION_NUMBER(__NUMBER__) ((__NUMBER__) < 4U)
 114:Drivers/STM32U5xx_HAL_Driver/Src/stm32u5xx_hal_icache.c **** 
 115:Drivers/STM32U5xx_HAL_Driver/Src/stm32u5xx_hal_icache.c **** #define IS_ICACHE_REGION_SIZE(__SIZE__)     (((__SIZE__) == ICACHE_REGIONSIZE_2MB)   || \
 116:Drivers/STM32U5xx_HAL_Driver/Src/stm32u5xx_hal_icache.c ****                                              ((__SIZE__) == ICACHE_REGIONSIZE_4MB)   || \
 117:Drivers/STM32U5xx_HAL_Driver/Src/stm32u5xx_hal_icache.c ****                                              ((__SIZE__) == ICACHE_REGIONSIZE_8MB)   || \
 118:Drivers/STM32U5xx_HAL_Driver/Src/stm32u5xx_hal_icache.c ****                                              ((__SIZE__) == ICACHE_REGIONSIZE_16MB)  || \
 119:Drivers/STM32U5xx_HAL_Driver/Src/stm32u5xx_hal_icache.c ****                                              ((__SIZE__) == ICACHE_REGIONSIZE_32MB)  || \
 120:Drivers/STM32U5xx_HAL_Driver/Src/stm32u5xx_hal_icache.c ****                                              ((__SIZE__) == ICACHE_REGIONSIZE_64MB)  || \
 121:Drivers/STM32U5xx_HAL_Driver/Src/stm32u5xx_hal_icache.c ****                                              ((__SIZE__) == ICACHE_REGIONSIZE_128MB))
 122:Drivers/STM32U5xx_HAL_Driver/Src/stm32u5xx_hal_icache.c **** 
 123:Drivers/STM32U5xx_HAL_Driver/Src/stm32u5xx_hal_icache.c **** #define IS_ICACHE_REGION_TRAFFIC_ROUTE(__TRAFFICROUTE__)  (((__TRAFFICROUTE__) == ICACHE_MASTER1_PO
 124:Drivers/STM32U5xx_HAL_Driver/Src/stm32u5xx_hal_icache.c ****                                                            ((__TRAFFICROUTE__) == ICACHE_MASTER2_PO
 125:Drivers/STM32U5xx_HAL_Driver/Src/stm32u5xx_hal_icache.c **** 
 126:Drivers/STM32U5xx_HAL_Driver/Src/stm32u5xx_hal_icache.c **** #define IS_ICACHE_REGION_OUTPUT_BURST_TYPE(__OUTPUTBURSTTYPE_) (((__OUTPUTBURSTTYPE_) == ICACHE_OUT
 127:Drivers/STM32U5xx_HAL_Driver/Src/stm32u5xx_hal_icache.c ****                                                                 ((__OUTPUTBURSTTYPE_) == ICACHE_OUT
 128:Drivers/STM32U5xx_HAL_Driver/Src/stm32u5xx_hal_icache.c **** 
 129:Drivers/STM32U5xx_HAL_Driver/Src/stm32u5xx_hal_icache.c **** /**
 130:Drivers/STM32U5xx_HAL_Driver/Src/stm32u5xx_hal_icache.c ****   * @}
 131:Drivers/STM32U5xx_HAL_Driver/Src/stm32u5xx_hal_icache.c ****   */
 132:Drivers/STM32U5xx_HAL_Driver/Src/stm32u5xx_hal_icache.c **** 
 133:Drivers/STM32U5xx_HAL_Driver/Src/stm32u5xx_hal_icache.c **** /* Private variables ---------------------------------------------------------*/
 134:Drivers/STM32U5xx_HAL_Driver/Src/stm32u5xx_hal_icache.c **** /* Private function prototypes -----------------------------------------------*/
 135:Drivers/STM32U5xx_HAL_Driver/Src/stm32u5xx_hal_icache.c **** 
 136:Drivers/STM32U5xx_HAL_Driver/Src/stm32u5xx_hal_icache.c **** /* Exported functions --------------------------------------------------------*/
 137:Drivers/STM32U5xx_HAL_Driver/Src/stm32u5xx_hal_icache.c **** 
 138:Drivers/STM32U5xx_HAL_Driver/Src/stm32u5xx_hal_icache.c **** /** @defgroup ICACHE_Exported_Functions ICACHE Exported Functions
 139:Drivers/STM32U5xx_HAL_Driver/Src/stm32u5xx_hal_icache.c ****   * @{
 140:Drivers/STM32U5xx_HAL_Driver/Src/stm32u5xx_hal_icache.c ****   */
 141:Drivers/STM32U5xx_HAL_Driver/Src/stm32u5xx_hal_icache.c **** 
 142:Drivers/STM32U5xx_HAL_Driver/Src/stm32u5xx_hal_icache.c **** /** @defgroup ICACHE_Exported_Functions_Group1 Initialization and control functions
ARM GAS  C:\Users\Ya\AppData\Local\Temp\ccv9y9EX.s 			page 4


 143:Drivers/STM32U5xx_HAL_Driver/Src/stm32u5xx_hal_icache.c ****   * @brief    Initialization and control functions
 144:Drivers/STM32U5xx_HAL_Driver/Src/stm32u5xx_hal_icache.c ****   *
 145:Drivers/STM32U5xx_HAL_Driver/Src/stm32u5xx_hal_icache.c ****   @verbatim
 146:Drivers/STM32U5xx_HAL_Driver/Src/stm32u5xx_hal_icache.c ****   ==============================================================================
 147:Drivers/STM32U5xx_HAL_Driver/Src/stm32u5xx_hal_icache.c ****             ##### Initialization and control functions #####
 148:Drivers/STM32U5xx_HAL_Driver/Src/stm32u5xx_hal_icache.c ****   ==============================================================================
 149:Drivers/STM32U5xx_HAL_Driver/Src/stm32u5xx_hal_icache.c ****   [..]
 150:Drivers/STM32U5xx_HAL_Driver/Src/stm32u5xx_hal_icache.c ****     This section provides functions allowing to initialize and control the
 151:Drivers/STM32U5xx_HAL_Driver/Src/stm32u5xx_hal_icache.c ****     Instruction Cache (mode, invalidate procedure, performance counters).
 152:Drivers/STM32U5xx_HAL_Driver/Src/stm32u5xx_hal_icache.c ****   @endverbatim
 153:Drivers/STM32U5xx_HAL_Driver/Src/stm32u5xx_hal_icache.c ****   * @{
 154:Drivers/STM32U5xx_HAL_Driver/Src/stm32u5xx_hal_icache.c ****   */
 155:Drivers/STM32U5xx_HAL_Driver/Src/stm32u5xx_hal_icache.c **** 
 156:Drivers/STM32U5xx_HAL_Driver/Src/stm32u5xx_hal_icache.c **** /**
 157:Drivers/STM32U5xx_HAL_Driver/Src/stm32u5xx_hal_icache.c ****   * @brief  Configure the Instruction Cache cache associativity mode selection.
 158:Drivers/STM32U5xx_HAL_Driver/Src/stm32u5xx_hal_icache.c ****   * @param  AssociativityMode  Associativity mode selection
 159:Drivers/STM32U5xx_HAL_Driver/Src/stm32u5xx_hal_icache.c ****   *         This parameter can be one of the following values:
 160:Drivers/STM32U5xx_HAL_Driver/Src/stm32u5xx_hal_icache.c ****   *            @arg ICACHE_1WAY   1-way cache (direct mapped cache)
 161:Drivers/STM32U5xx_HAL_Driver/Src/stm32u5xx_hal_icache.c ****   *            @arg ICACHE_2WAYS  2-ways set associative cache (default)
 162:Drivers/STM32U5xx_HAL_Driver/Src/stm32u5xx_hal_icache.c ****   * @retval HAL status (HAL_OK/HAL_ERROR)
 163:Drivers/STM32U5xx_HAL_Driver/Src/stm32u5xx_hal_icache.c ****   */
 164:Drivers/STM32U5xx_HAL_Driver/Src/stm32u5xx_hal_icache.c **** HAL_StatusTypeDef HAL_ICACHE_ConfigAssociativityMode(uint32_t AssociativityMode)
 165:Drivers/STM32U5xx_HAL_Driver/Src/stm32u5xx_hal_icache.c **** {
  31              		.loc 1 165 1 view -0
  32              		.cfi_startproc
  33              		@ args = 0, pretend = 0, frame = 0
  34              		@ frame_needed = 0, uses_anonymous_args = 0
  35              		@ link register save eliminated.
 166:Drivers/STM32U5xx_HAL_Driver/Src/stm32u5xx_hal_icache.c ****   HAL_StatusTypeDef status = HAL_OK;
  36              		.loc 1 166 3 view .LVU1
 167:Drivers/STM32U5xx_HAL_Driver/Src/stm32u5xx_hal_icache.c **** 
 168:Drivers/STM32U5xx_HAL_Driver/Src/stm32u5xx_hal_icache.c ****   /* Check the parameters */
 169:Drivers/STM32U5xx_HAL_Driver/Src/stm32u5xx_hal_icache.c ****   assert_param(IS_ICACHE_ASSOCIATIVITY_MODE(AssociativityMode));
  37              		.loc 1 169 3 view .LVU2
 170:Drivers/STM32U5xx_HAL_Driver/Src/stm32u5xx_hal_icache.c **** 
 171:Drivers/STM32U5xx_HAL_Driver/Src/stm32u5xx_hal_icache.c ****   /* Check cache is not enabled */
 172:Drivers/STM32U5xx_HAL_Driver/Src/stm32u5xx_hal_icache.c ****   if (READ_BIT(ICACHE->CR, ICACHE_CR_EN) != 0U)
  38              		.loc 1 172 3 view .LVU3
  39              		.loc 1 172 7 is_stmt 0 view .LVU4
  40 0000 074B     		ldr	r3, .L4
  41 0002 1B68     		ldr	r3, [r3]
  42              		.loc 1 172 6 view .LVU5
  43 0004 13F0010F 		tst	r3, #1
  44 0008 07D1     		bne	.L3
 173:Drivers/STM32U5xx_HAL_Driver/Src/stm32u5xx_hal_icache.c ****   {
 174:Drivers/STM32U5xx_HAL_Driver/Src/stm32u5xx_hal_icache.c ****     status = HAL_ERROR;
 175:Drivers/STM32U5xx_HAL_Driver/Src/stm32u5xx_hal_icache.c ****   }
 176:Drivers/STM32U5xx_HAL_Driver/Src/stm32u5xx_hal_icache.c ****   else
 177:Drivers/STM32U5xx_HAL_Driver/Src/stm32u5xx_hal_icache.c ****   {
 178:Drivers/STM32U5xx_HAL_Driver/Src/stm32u5xx_hal_icache.c ****     MODIFY_REG(ICACHE->CR, ICACHE_CR_WAYSEL, AssociativityMode);
  45              		.loc 1 178 5 is_stmt 1 view .LVU6
  46 000a 054A     		ldr	r2, .L4
  47 000c 1368     		ldr	r3, [r2]
  48 000e 23F00403 		bic	r3, r3, #4
  49 0012 0343     		orrs	r3, r3, r0
  50 0014 1360     		str	r3, [r2]
 166:Drivers/STM32U5xx_HAL_Driver/Src/stm32u5xx_hal_icache.c **** 
ARM GAS  C:\Users\Ya\AppData\Local\Temp\ccv9y9EX.s 			page 5


  51              		.loc 1 166 21 is_stmt 0 view .LVU7
  52 0016 0020     		movs	r0, #0
  53              	.LVL1:
 166:Drivers/STM32U5xx_HAL_Driver/Src/stm32u5xx_hal_icache.c **** 
  54              		.loc 1 166 21 view .LVU8
  55 0018 7047     		bx	lr
  56              	.LVL2:
  57              	.L3:
 174:Drivers/STM32U5xx_HAL_Driver/Src/stm32u5xx_hal_icache.c ****   }
  58              		.loc 1 174 12 view .LVU9
  59 001a 0120     		movs	r0, #1
  60              	.LVL3:
 179:Drivers/STM32U5xx_HAL_Driver/Src/stm32u5xx_hal_icache.c ****   }
 180:Drivers/STM32U5xx_HAL_Driver/Src/stm32u5xx_hal_icache.c **** 
 181:Drivers/STM32U5xx_HAL_Driver/Src/stm32u5xx_hal_icache.c ****   return status;
  61              		.loc 1 181 3 is_stmt 1 view .LVU10
 182:Drivers/STM32U5xx_HAL_Driver/Src/stm32u5xx_hal_icache.c **** }
  62              		.loc 1 182 1 is_stmt 0 view .LVU11
  63 001c 7047     		bx	lr
  64              	.L5:
  65 001e 00BF     		.align	2
  66              	.L4:
  67 0020 00040340 		.word	1073939456
  68              		.cfi_endproc
  69              	.LFE340:
  71              		.section	.text.HAL_ICACHE_Enable,"ax",%progbits
  72              		.align	1
  73              		.global	HAL_ICACHE_Enable
  74              		.syntax unified
  75              		.thumb
  76              		.thumb_func
  78              	HAL_ICACHE_Enable:
  79              	.LFB342:
 183:Drivers/STM32U5xx_HAL_Driver/Src/stm32u5xx_hal_icache.c **** 
 184:Drivers/STM32U5xx_HAL_Driver/Src/stm32u5xx_hal_icache.c **** /**
 185:Drivers/STM32U5xx_HAL_Driver/Src/stm32u5xx_hal_icache.c ****   * @brief  DeInitialize the Instruction Cache.
 186:Drivers/STM32U5xx_HAL_Driver/Src/stm32u5xx_hal_icache.c ****   * @retval HAL status (HAL_OK/HAL_TIMEOUT)
 187:Drivers/STM32U5xx_HAL_Driver/Src/stm32u5xx_hal_icache.c ****   */
 188:Drivers/STM32U5xx_HAL_Driver/Src/stm32u5xx_hal_icache.c **** HAL_StatusTypeDef HAL_ICACHE_DeInit(void)
 189:Drivers/STM32U5xx_HAL_Driver/Src/stm32u5xx_hal_icache.c **** {
 190:Drivers/STM32U5xx_HAL_Driver/Src/stm32u5xx_hal_icache.c ****   HAL_StatusTypeDef status;
 191:Drivers/STM32U5xx_HAL_Driver/Src/stm32u5xx_hal_icache.c **** 
 192:Drivers/STM32U5xx_HAL_Driver/Src/stm32u5xx_hal_icache.c ****   /* Disable cache with reset value for 2-ways set associative mode */
 193:Drivers/STM32U5xx_HAL_Driver/Src/stm32u5xx_hal_icache.c ****   WRITE_REG(ICACHE->CR, ICACHE_CR_WAYSEL);
 194:Drivers/STM32U5xx_HAL_Driver/Src/stm32u5xx_hal_icache.c **** 
 195:Drivers/STM32U5xx_HAL_Driver/Src/stm32u5xx_hal_icache.c ****   /* Stop monitor and reset monitor values */
 196:Drivers/STM32U5xx_HAL_Driver/Src/stm32u5xx_hal_icache.c ****   (void)HAL_ICACHE_Monitor_Stop(ICACHE_MONITOR_HIT_MISS);
 197:Drivers/STM32U5xx_HAL_Driver/Src/stm32u5xx_hal_icache.c ****   (void)HAL_ICACHE_Monitor_Reset(ICACHE_MONITOR_HIT_MISS);
 198:Drivers/STM32U5xx_HAL_Driver/Src/stm32u5xx_hal_icache.c **** 
 199:Drivers/STM32U5xx_HAL_Driver/Src/stm32u5xx_hal_icache.c ****   /* No remapped regions */
 200:Drivers/STM32U5xx_HAL_Driver/Src/stm32u5xx_hal_icache.c ****   (void)HAL_ICACHE_DisableRemapRegion(ICACHE_REGION_0);
 201:Drivers/STM32U5xx_HAL_Driver/Src/stm32u5xx_hal_icache.c ****   (void)HAL_ICACHE_DisableRemapRegion(ICACHE_REGION_1);
 202:Drivers/STM32U5xx_HAL_Driver/Src/stm32u5xx_hal_icache.c ****   (void)HAL_ICACHE_DisableRemapRegion(ICACHE_REGION_2);
 203:Drivers/STM32U5xx_HAL_Driver/Src/stm32u5xx_hal_icache.c ****   (void)HAL_ICACHE_DisableRemapRegion(ICACHE_REGION_3);
 204:Drivers/STM32U5xx_HAL_Driver/Src/stm32u5xx_hal_icache.c **** 
 205:Drivers/STM32U5xx_HAL_Driver/Src/stm32u5xx_hal_icache.c ****   /* Wait for end of invalidate cache procedure */
 206:Drivers/STM32U5xx_HAL_Driver/Src/stm32u5xx_hal_icache.c ****   status = HAL_ICACHE_WaitForInvalidateComplete();
ARM GAS  C:\Users\Ya\AppData\Local\Temp\ccv9y9EX.s 			page 6


 207:Drivers/STM32U5xx_HAL_Driver/Src/stm32u5xx_hal_icache.c **** 
 208:Drivers/STM32U5xx_HAL_Driver/Src/stm32u5xx_hal_icache.c ****   /* Clear any pending flags */
 209:Drivers/STM32U5xx_HAL_Driver/Src/stm32u5xx_hal_icache.c ****   WRITE_REG(ICACHE->FCR, ICACHE_FCR_CBSYENDF | ICACHE_FCR_CERRF);
 210:Drivers/STM32U5xx_HAL_Driver/Src/stm32u5xx_hal_icache.c **** 
 211:Drivers/STM32U5xx_HAL_Driver/Src/stm32u5xx_hal_icache.c ****   return status;
 212:Drivers/STM32U5xx_HAL_Driver/Src/stm32u5xx_hal_icache.c **** }
 213:Drivers/STM32U5xx_HAL_Driver/Src/stm32u5xx_hal_icache.c **** 
 214:Drivers/STM32U5xx_HAL_Driver/Src/stm32u5xx_hal_icache.c **** /**
 215:Drivers/STM32U5xx_HAL_Driver/Src/stm32u5xx_hal_icache.c ****   * @brief  Enable the Instruction Cache.
 216:Drivers/STM32U5xx_HAL_Driver/Src/stm32u5xx_hal_icache.c ****   * @note   This function always returns HAL_OK even if there is any ongoing
 217:Drivers/STM32U5xx_HAL_Driver/Src/stm32u5xx_hal_icache.c ****   *         cache operation. The Instruction Cache is bypassed until the
 218:Drivers/STM32U5xx_HAL_Driver/Src/stm32u5xx_hal_icache.c ****   *         cache operation completes.
 219:Drivers/STM32U5xx_HAL_Driver/Src/stm32u5xx_hal_icache.c ****   * @retval HAL status (HAL_OK)
 220:Drivers/STM32U5xx_HAL_Driver/Src/stm32u5xx_hal_icache.c ****   */
 221:Drivers/STM32U5xx_HAL_Driver/Src/stm32u5xx_hal_icache.c **** HAL_StatusTypeDef HAL_ICACHE_Enable(void)
 222:Drivers/STM32U5xx_HAL_Driver/Src/stm32u5xx_hal_icache.c **** {
  80              		.loc 1 222 1 is_stmt 1 view -0
  81              		.cfi_startproc
  82              		@ args = 0, pretend = 0, frame = 0
  83              		@ frame_needed = 0, uses_anonymous_args = 0
  84              		@ link register save eliminated.
 223:Drivers/STM32U5xx_HAL_Driver/Src/stm32u5xx_hal_icache.c ****   SET_BIT(ICACHE->CR, ICACHE_CR_EN);
  85              		.loc 1 223 3 view .LVU13
  86 0000 034A     		ldr	r2, .L7
  87 0002 1368     		ldr	r3, [r2]
  88 0004 43F00103 		orr	r3, r3, #1
  89 0008 1360     		str	r3, [r2]
 224:Drivers/STM32U5xx_HAL_Driver/Src/stm32u5xx_hal_icache.c **** 
 225:Drivers/STM32U5xx_HAL_Driver/Src/stm32u5xx_hal_icache.c ****   return HAL_OK;
  90              		.loc 1 225 3 view .LVU14
 226:Drivers/STM32U5xx_HAL_Driver/Src/stm32u5xx_hal_icache.c **** }
  91              		.loc 1 226 1 is_stmt 0 view .LVU15
  92 000a 0020     		movs	r0, #0
  93 000c 7047     		bx	lr
  94              	.L8:
  95 000e 00BF     		.align	2
  96              	.L7:
  97 0010 00040340 		.word	1073939456
  98              		.cfi_endproc
  99              	.LFE342:
 101              		.section	.text.HAL_ICACHE_Disable,"ax",%progbits
 102              		.align	1
 103              		.global	HAL_ICACHE_Disable
 104              		.syntax unified
 105              		.thumb
 106              		.thumb_func
 108              	HAL_ICACHE_Disable:
 109              	.LFB343:
 227:Drivers/STM32U5xx_HAL_Driver/Src/stm32u5xx_hal_icache.c **** 
 228:Drivers/STM32U5xx_HAL_Driver/Src/stm32u5xx_hal_icache.c **** /**
 229:Drivers/STM32U5xx_HAL_Driver/Src/stm32u5xx_hal_icache.c ****   * @brief  Disable the Instruction Cache.
 230:Drivers/STM32U5xx_HAL_Driver/Src/stm32u5xx_hal_icache.c ****   * @note   This function waits for the cache being disabled but
 231:Drivers/STM32U5xx_HAL_Driver/Src/stm32u5xx_hal_icache.c ****   *         not for the end of the automatic cache invalidation procedure.
 232:Drivers/STM32U5xx_HAL_Driver/Src/stm32u5xx_hal_icache.c ****   * @retval HAL status (HAL_OK/HAL_TIMEOUT)
 233:Drivers/STM32U5xx_HAL_Driver/Src/stm32u5xx_hal_icache.c ****   */
 234:Drivers/STM32U5xx_HAL_Driver/Src/stm32u5xx_hal_icache.c **** HAL_StatusTypeDef HAL_ICACHE_Disable(void)
 235:Drivers/STM32U5xx_HAL_Driver/Src/stm32u5xx_hal_icache.c **** {
ARM GAS  C:\Users\Ya\AppData\Local\Temp\ccv9y9EX.s 			page 7


 110              		.loc 1 235 1 is_stmt 1 view -0
 111              		.cfi_startproc
 112              		@ args = 0, pretend = 0, frame = 0
 113              		@ frame_needed = 0, uses_anonymous_args = 0
 114 0000 10B5     		push	{r4, lr}
 115              		.cfi_def_cfa_offset 8
 116              		.cfi_offset 4, -8
 117              		.cfi_offset 14, -4
 236:Drivers/STM32U5xx_HAL_Driver/Src/stm32u5xx_hal_icache.c ****   HAL_StatusTypeDef status = HAL_OK;
 118              		.loc 1 236 3 view .LVU17
 119              	.LVL4:
 237:Drivers/STM32U5xx_HAL_Driver/Src/stm32u5xx_hal_icache.c ****   uint32_t tickstart;
 120              		.loc 1 237 3 view .LVU18
 238:Drivers/STM32U5xx_HAL_Driver/Src/stm32u5xx_hal_icache.c **** 
 239:Drivers/STM32U5xx_HAL_Driver/Src/stm32u5xx_hal_icache.c ****   /* Make sure BSYENDF is reset before to disable the instruction cache */
 240:Drivers/STM32U5xx_HAL_Driver/Src/stm32u5xx_hal_icache.c ****   /* as it automatically starts a cache invalidation procedure */
 241:Drivers/STM32U5xx_HAL_Driver/Src/stm32u5xx_hal_icache.c ****   WRITE_REG(ICACHE->FCR, ICACHE_FCR_CBSYENDF);
 121              		.loc 1 241 3 view .LVU19
 122 0002 0E4B     		ldr	r3, .L16
 123 0004 0222     		movs	r2, #2
 124 0006 DA60     		str	r2, [r3, #12]
 242:Drivers/STM32U5xx_HAL_Driver/Src/stm32u5xx_hal_icache.c **** 
 243:Drivers/STM32U5xx_HAL_Driver/Src/stm32u5xx_hal_icache.c ****   CLEAR_BIT(ICACHE->CR, ICACHE_CR_EN);
 125              		.loc 1 243 3 view .LVU20
 126 0008 1A68     		ldr	r2, [r3]
 127 000a 22F00102 		bic	r2, r2, #1
 128 000e 1A60     		str	r2, [r3]
 244:Drivers/STM32U5xx_HAL_Driver/Src/stm32u5xx_hal_icache.c **** 
 245:Drivers/STM32U5xx_HAL_Driver/Src/stm32u5xx_hal_icache.c ****   /* Get tick */
 246:Drivers/STM32U5xx_HAL_Driver/Src/stm32u5xx_hal_icache.c ****   tickstart = HAL_GetTick();
 129              		.loc 1 246 3 view .LVU21
 130              		.loc 1 246 15 is_stmt 0 view .LVU22
 131 0010 FFF7FEFF 		bl	HAL_GetTick
 132              	.LVL5:
 133 0014 0446     		mov	r4, r0
 134              	.LVL6:
 247:Drivers/STM32U5xx_HAL_Driver/Src/stm32u5xx_hal_icache.c **** 
 248:Drivers/STM32U5xx_HAL_Driver/Src/stm32u5xx_hal_icache.c ****   /* Wait for instruction cache being disabled */
 249:Drivers/STM32U5xx_HAL_Driver/Src/stm32u5xx_hal_icache.c ****   while (READ_BIT(ICACHE->CR, ICACHE_CR_EN) != 0U)
 135              		.loc 1 249 3 is_stmt 1 view .LVU23
 136              	.L10:
 137              		.loc 1 249 45 view .LVU24
 138              		.loc 1 249 10 is_stmt 0 view .LVU25
 139 0016 094B     		ldr	r3, .L16
 140 0018 1B68     		ldr	r3, [r3]
 141              		.loc 1 249 45 view .LVU26
 142 001a 13F0010F 		tst	r3, #1
 143 001e 0BD0     		beq	.L15
 250:Drivers/STM32U5xx_HAL_Driver/Src/stm32u5xx_hal_icache.c ****   {
 251:Drivers/STM32U5xx_HAL_Driver/Src/stm32u5xx_hal_icache.c ****     if ((HAL_GetTick() - tickstart) > ICACHE_DISABLE_TIMEOUT_VALUE)
 144              		.loc 1 251 5 is_stmt 1 view .LVU27
 145              		.loc 1 251 10 is_stmt 0 view .LVU28
 146 0020 FFF7FEFF 		bl	HAL_GetTick
 147              	.LVL7:
 148              		.loc 1 251 24 view .LVU29
 149 0024 001B     		subs	r0, r0, r4
 150              		.loc 1 251 8 view .LVU30
ARM GAS  C:\Users\Ya\AppData\Local\Temp\ccv9y9EX.s 			page 8


 151 0026 0128     		cmp	r0, #1
 152 0028 F5D9     		bls	.L10
 252:Drivers/STM32U5xx_HAL_Driver/Src/stm32u5xx_hal_icache.c ****     {
 253:Drivers/STM32U5xx_HAL_Driver/Src/stm32u5xx_hal_icache.c ****       /* New check to avoid false timeout detection in case of preemption */
 254:Drivers/STM32U5xx_HAL_Driver/Src/stm32u5xx_hal_icache.c ****       if (READ_BIT(ICACHE->CR, ICACHE_CR_EN) != 0U)
 153              		.loc 1 254 7 is_stmt 1 view .LVU31
 154              		.loc 1 254 11 is_stmt 0 view .LVU32
 155 002a 044B     		ldr	r3, .L16
 156 002c 1B68     		ldr	r3, [r3]
 157              		.loc 1 254 10 view .LVU33
 158 002e 13F0010F 		tst	r3, #1
 159 0032 F0D0     		beq	.L10
 255:Drivers/STM32U5xx_HAL_Driver/Src/stm32u5xx_hal_icache.c ****       {
 256:Drivers/STM32U5xx_HAL_Driver/Src/stm32u5xx_hal_icache.c ****         status = HAL_TIMEOUT;
 160              		.loc 1 256 16 view .LVU34
 161 0034 0320     		movs	r0, #3
 162 0036 00E0     		b	.L11
 163              	.L15:
 236:Drivers/STM32U5xx_HAL_Driver/Src/stm32u5xx_hal_icache.c ****   uint32_t tickstart;
 164              		.loc 1 236 21 view .LVU35
 165 0038 0020     		movs	r0, #0
 166              	.L11:
 167              	.LVL8:
 257:Drivers/STM32U5xx_HAL_Driver/Src/stm32u5xx_hal_icache.c ****         break;
 258:Drivers/STM32U5xx_HAL_Driver/Src/stm32u5xx_hal_icache.c ****       }
 259:Drivers/STM32U5xx_HAL_Driver/Src/stm32u5xx_hal_icache.c ****     }
 260:Drivers/STM32U5xx_HAL_Driver/Src/stm32u5xx_hal_icache.c ****   }
 261:Drivers/STM32U5xx_HAL_Driver/Src/stm32u5xx_hal_icache.c **** 
 262:Drivers/STM32U5xx_HAL_Driver/Src/stm32u5xx_hal_icache.c ****   return status;
 168              		.loc 1 262 3 is_stmt 1 view .LVU36
 263:Drivers/STM32U5xx_HAL_Driver/Src/stm32u5xx_hal_icache.c **** }
 169              		.loc 1 263 1 is_stmt 0 view .LVU37
 170 003a 10BD     		pop	{r4, pc}
 171              	.LVL9:
 172              	.L17:
 173              		.loc 1 263 1 view .LVU38
 174              		.align	2
 175              	.L16:
 176 003c 00040340 		.word	1073939456
 177              		.cfi_endproc
 178              	.LFE343:
 180              		.section	.text.HAL_ICACHE_IsEnabled,"ax",%progbits
 181              		.align	1
 182              		.global	HAL_ICACHE_IsEnabled
 183              		.syntax unified
 184              		.thumb
 185              		.thumb_func
 187              	HAL_ICACHE_IsEnabled:
 188              	.LFB344:
 264:Drivers/STM32U5xx_HAL_Driver/Src/stm32u5xx_hal_icache.c **** 
 265:Drivers/STM32U5xx_HAL_Driver/Src/stm32u5xx_hal_icache.c **** /**
 266:Drivers/STM32U5xx_HAL_Driver/Src/stm32u5xx_hal_icache.c ****   * @brief  Check whether the Instruction Cache is enabled or not.
 267:Drivers/STM32U5xx_HAL_Driver/Src/stm32u5xx_hal_icache.c ****   * @retval Status (0: disabled, 1: enabled)
 268:Drivers/STM32U5xx_HAL_Driver/Src/stm32u5xx_hal_icache.c ****   */
 269:Drivers/STM32U5xx_HAL_Driver/Src/stm32u5xx_hal_icache.c **** uint32_t HAL_ICACHE_IsEnabled(void)
 270:Drivers/STM32U5xx_HAL_Driver/Src/stm32u5xx_hal_icache.c **** {
 189              		.loc 1 270 1 is_stmt 1 view -0
ARM GAS  C:\Users\Ya\AppData\Local\Temp\ccv9y9EX.s 			page 9


 190              		.cfi_startproc
 191              		@ args = 0, pretend = 0, frame = 0
 192              		@ frame_needed = 0, uses_anonymous_args = 0
 193              		@ link register save eliminated.
 271:Drivers/STM32U5xx_HAL_Driver/Src/stm32u5xx_hal_icache.c ****   return ((READ_BIT(ICACHE->CR, ICACHE_CR_EN) != 0U) ? 1UL : 0UL);
 194              		.loc 1 271 3 view .LVU40
 195              		.loc 1 271 12 is_stmt 0 view .LVU41
 196 0000 024B     		ldr	r3, .L19
 197 0002 1868     		ldr	r0, [r3]
 272:Drivers/STM32U5xx_HAL_Driver/Src/stm32u5xx_hal_icache.c **** }
 198              		.loc 1 272 1 view .LVU42
 199 0004 00F00100 		and	r0, r0, #1
 200 0008 7047     		bx	lr
 201              	.L20:
 202 000a 00BF     		.align	2
 203              	.L19:
 204 000c 00040340 		.word	1073939456
 205              		.cfi_endproc
 206              	.LFE344:
 208              		.section	.text.HAL_ICACHE_Invalidate_IT,"ax",%progbits
 209              		.align	1
 210              		.global	HAL_ICACHE_Invalidate_IT
 211              		.syntax unified
 212              		.thumb
 213              		.thumb_func
 215              	HAL_ICACHE_Invalidate_IT:
 216              	.LFB346:
 273:Drivers/STM32U5xx_HAL_Driver/Src/stm32u5xx_hal_icache.c **** 
 274:Drivers/STM32U5xx_HAL_Driver/Src/stm32u5xx_hal_icache.c **** /**
 275:Drivers/STM32U5xx_HAL_Driver/Src/stm32u5xx_hal_icache.c ****   * @brief  Invalidate the Instruction Cache.
 276:Drivers/STM32U5xx_HAL_Driver/Src/stm32u5xx_hal_icache.c ****   * @note   This function waits for the end of cache invalidation procedure
 277:Drivers/STM32U5xx_HAL_Driver/Src/stm32u5xx_hal_icache.c ****   *         and clears the associated BSYENDF flag.
 278:Drivers/STM32U5xx_HAL_Driver/Src/stm32u5xx_hal_icache.c ****   * @retval HAL status (HAL_OK/HAL_ERROR/HAL_TIMEOUT)
 279:Drivers/STM32U5xx_HAL_Driver/Src/stm32u5xx_hal_icache.c ****   */
 280:Drivers/STM32U5xx_HAL_Driver/Src/stm32u5xx_hal_icache.c **** HAL_StatusTypeDef HAL_ICACHE_Invalidate(void)
 281:Drivers/STM32U5xx_HAL_Driver/Src/stm32u5xx_hal_icache.c **** {
 282:Drivers/STM32U5xx_HAL_Driver/Src/stm32u5xx_hal_icache.c ****   HAL_StatusTypeDef status;
 283:Drivers/STM32U5xx_HAL_Driver/Src/stm32u5xx_hal_icache.c **** 
 284:Drivers/STM32U5xx_HAL_Driver/Src/stm32u5xx_hal_icache.c ****   /* Check no ongoing operation */
 285:Drivers/STM32U5xx_HAL_Driver/Src/stm32u5xx_hal_icache.c ****   if (READ_BIT(ICACHE->SR, ICACHE_SR_BUSYF) != 0U)
 286:Drivers/STM32U5xx_HAL_Driver/Src/stm32u5xx_hal_icache.c ****   {
 287:Drivers/STM32U5xx_HAL_Driver/Src/stm32u5xx_hal_icache.c ****     status = HAL_ERROR;
 288:Drivers/STM32U5xx_HAL_Driver/Src/stm32u5xx_hal_icache.c ****   }
 289:Drivers/STM32U5xx_HAL_Driver/Src/stm32u5xx_hal_icache.c ****   else
 290:Drivers/STM32U5xx_HAL_Driver/Src/stm32u5xx_hal_icache.c ****   {
 291:Drivers/STM32U5xx_HAL_Driver/Src/stm32u5xx_hal_icache.c ****     /* Make sure BSYENDF is reset before to start cache invalidation */
 292:Drivers/STM32U5xx_HAL_Driver/Src/stm32u5xx_hal_icache.c ****     WRITE_REG(ICACHE->FCR, ICACHE_FCR_CBSYENDF);
 293:Drivers/STM32U5xx_HAL_Driver/Src/stm32u5xx_hal_icache.c **** 
 294:Drivers/STM32U5xx_HAL_Driver/Src/stm32u5xx_hal_icache.c ****     /* Launch cache invalidation */
 295:Drivers/STM32U5xx_HAL_Driver/Src/stm32u5xx_hal_icache.c ****     SET_BIT(ICACHE->CR, ICACHE_CR_CACHEINV);
 296:Drivers/STM32U5xx_HAL_Driver/Src/stm32u5xx_hal_icache.c **** 
 297:Drivers/STM32U5xx_HAL_Driver/Src/stm32u5xx_hal_icache.c ****     status = HAL_ICACHE_WaitForInvalidateComplete();
 298:Drivers/STM32U5xx_HAL_Driver/Src/stm32u5xx_hal_icache.c ****   }
 299:Drivers/STM32U5xx_HAL_Driver/Src/stm32u5xx_hal_icache.c **** 
 300:Drivers/STM32U5xx_HAL_Driver/Src/stm32u5xx_hal_icache.c ****   return status;
 301:Drivers/STM32U5xx_HAL_Driver/Src/stm32u5xx_hal_icache.c **** }
 302:Drivers/STM32U5xx_HAL_Driver/Src/stm32u5xx_hal_icache.c **** 
ARM GAS  C:\Users\Ya\AppData\Local\Temp\ccv9y9EX.s 			page 10


 303:Drivers/STM32U5xx_HAL_Driver/Src/stm32u5xx_hal_icache.c **** /**
 304:Drivers/STM32U5xx_HAL_Driver/Src/stm32u5xx_hal_icache.c ****   * @brief  Invalidate the Instruction Cache with interrupt.
 305:Drivers/STM32U5xx_HAL_Driver/Src/stm32u5xx_hal_icache.c ****   * @note   This function launches cache invalidation and returns.
 306:Drivers/STM32U5xx_HAL_Driver/Src/stm32u5xx_hal_icache.c ****   *         User application shall resort to interrupt generation to check
 307:Drivers/STM32U5xx_HAL_Driver/Src/stm32u5xx_hal_icache.c ****   *         the end of the cache invalidation with the BSYENDF flag and the
 308:Drivers/STM32U5xx_HAL_Driver/Src/stm32u5xx_hal_icache.c ****   *         HAL_ICACHE_InvalidateCompleteCallback() callback.
 309:Drivers/STM32U5xx_HAL_Driver/Src/stm32u5xx_hal_icache.c ****   * @retval HAL status (HAL_OK/HAL_ERROR)
 310:Drivers/STM32U5xx_HAL_Driver/Src/stm32u5xx_hal_icache.c ****   */
 311:Drivers/STM32U5xx_HAL_Driver/Src/stm32u5xx_hal_icache.c **** HAL_StatusTypeDef HAL_ICACHE_Invalidate_IT(void)
 312:Drivers/STM32U5xx_HAL_Driver/Src/stm32u5xx_hal_icache.c **** {
 217              		.loc 1 312 1 is_stmt 1 view -0
 218              		.cfi_startproc
 219              		@ args = 0, pretend = 0, frame = 0
 220              		@ frame_needed = 0, uses_anonymous_args = 0
 221              		@ link register save eliminated.
 313:Drivers/STM32U5xx_HAL_Driver/Src/stm32u5xx_hal_icache.c ****   HAL_StatusTypeDef status = HAL_OK;
 222              		.loc 1 313 3 view .LVU44
 223              	.LVL10:
 314:Drivers/STM32U5xx_HAL_Driver/Src/stm32u5xx_hal_icache.c **** 
 315:Drivers/STM32U5xx_HAL_Driver/Src/stm32u5xx_hal_icache.c ****   /* Check no ongoing operation */
 316:Drivers/STM32U5xx_HAL_Driver/Src/stm32u5xx_hal_icache.c ****   if (READ_BIT(ICACHE->SR, ICACHE_SR_BUSYF) != 0U)
 224              		.loc 1 316 3 view .LVU45
 225              		.loc 1 316 7 is_stmt 0 view .LVU46
 226 0000 094B     		ldr	r3, .L24
 227 0002 5B68     		ldr	r3, [r3, #4]
 228              		.loc 1 316 6 view .LVU47
 229 0004 13F0010F 		tst	r3, #1
 230 0008 0CD1     		bne	.L23
 317:Drivers/STM32U5xx_HAL_Driver/Src/stm32u5xx_hal_icache.c ****   {
 318:Drivers/STM32U5xx_HAL_Driver/Src/stm32u5xx_hal_icache.c ****     status = HAL_ERROR;
 319:Drivers/STM32U5xx_HAL_Driver/Src/stm32u5xx_hal_icache.c ****   }
 320:Drivers/STM32U5xx_HAL_Driver/Src/stm32u5xx_hal_icache.c ****   else
 321:Drivers/STM32U5xx_HAL_Driver/Src/stm32u5xx_hal_icache.c ****   {
 322:Drivers/STM32U5xx_HAL_Driver/Src/stm32u5xx_hal_icache.c ****     /* Make sure BSYENDF is reset before to start cache invalidation */
 323:Drivers/STM32U5xx_HAL_Driver/Src/stm32u5xx_hal_icache.c ****     WRITE_REG(ICACHE->FCR, ICACHE_FCR_CBSYENDF);
 231              		.loc 1 323 5 is_stmt 1 view .LVU48
 232 000a 074B     		ldr	r3, .L24
 233 000c 0222     		movs	r2, #2
 234 000e DA60     		str	r2, [r3, #12]
 324:Drivers/STM32U5xx_HAL_Driver/Src/stm32u5xx_hal_icache.c **** 
 325:Drivers/STM32U5xx_HAL_Driver/Src/stm32u5xx_hal_icache.c ****     /* Enable end of cache invalidation interrupt */
 326:Drivers/STM32U5xx_HAL_Driver/Src/stm32u5xx_hal_icache.c ****     SET_BIT(ICACHE->IER, ICACHE_IER_BSYENDIE);
 235              		.loc 1 326 5 view .LVU49
 236 0010 9A68     		ldr	r2, [r3, #8]
 237 0012 42F00202 		orr	r2, r2, #2
 238 0016 9A60     		str	r2, [r3, #8]
 327:Drivers/STM32U5xx_HAL_Driver/Src/stm32u5xx_hal_icache.c **** 
 328:Drivers/STM32U5xx_HAL_Driver/Src/stm32u5xx_hal_icache.c ****     /* Launch cache invalidation */
 329:Drivers/STM32U5xx_HAL_Driver/Src/stm32u5xx_hal_icache.c ****     SET_BIT(ICACHE->CR, ICACHE_CR_CACHEINV);
 239              		.loc 1 329 5 view .LVU50
 240 0018 1A68     		ldr	r2, [r3]
 241 001a 42F00202 		orr	r2, r2, #2
 242 001e 1A60     		str	r2, [r3]
 313:Drivers/STM32U5xx_HAL_Driver/Src/stm32u5xx_hal_icache.c **** 
 243              		.loc 1 313 21 is_stmt 0 view .LVU51
 244 0020 0020     		movs	r0, #0
 245 0022 7047     		bx	lr
ARM GAS  C:\Users\Ya\AppData\Local\Temp\ccv9y9EX.s 			page 11


 246              	.L23:
 318:Drivers/STM32U5xx_HAL_Driver/Src/stm32u5xx_hal_icache.c ****   }
 247              		.loc 1 318 12 view .LVU52
 248 0024 0120     		movs	r0, #1
 249              	.LVL11:
 330:Drivers/STM32U5xx_HAL_Driver/Src/stm32u5xx_hal_icache.c ****   }
 331:Drivers/STM32U5xx_HAL_Driver/Src/stm32u5xx_hal_icache.c **** 
 332:Drivers/STM32U5xx_HAL_Driver/Src/stm32u5xx_hal_icache.c ****   return status;
 250              		.loc 1 332 3 is_stmt 1 view .LVU53
 333:Drivers/STM32U5xx_HAL_Driver/Src/stm32u5xx_hal_icache.c **** }
 251              		.loc 1 333 1 is_stmt 0 view .LVU54
 252 0026 7047     		bx	lr
 253              	.L25:
 254              		.align	2
 255              	.L24:
 256 0028 00040340 		.word	1073939456
 257              		.cfi_endproc
 258              	.LFE346:
 260              		.section	.text.HAL_ICACHE_WaitForInvalidateComplete,"ax",%progbits
 261              		.align	1
 262              		.global	HAL_ICACHE_WaitForInvalidateComplete
 263              		.syntax unified
 264              		.thumb
 265              		.thumb_func
 267              	HAL_ICACHE_WaitForInvalidateComplete:
 268              	.LFB347:
 334:Drivers/STM32U5xx_HAL_Driver/Src/stm32u5xx_hal_icache.c **** 
 335:Drivers/STM32U5xx_HAL_Driver/Src/stm32u5xx_hal_icache.c **** /**
 336:Drivers/STM32U5xx_HAL_Driver/Src/stm32u5xx_hal_icache.c ****   * @brief Wait for the end of the Instruction Cache invalidate procedure.
 337:Drivers/STM32U5xx_HAL_Driver/Src/stm32u5xx_hal_icache.c ****   * @note This function checks and clears the BSYENDF flag when set.
 338:Drivers/STM32U5xx_HAL_Driver/Src/stm32u5xx_hal_icache.c ****   * @retval HAL status (HAL_OK/HAL_TIMEOUT)
 339:Drivers/STM32U5xx_HAL_Driver/Src/stm32u5xx_hal_icache.c ****   */
 340:Drivers/STM32U5xx_HAL_Driver/Src/stm32u5xx_hal_icache.c **** HAL_StatusTypeDef HAL_ICACHE_WaitForInvalidateComplete(void)
 341:Drivers/STM32U5xx_HAL_Driver/Src/stm32u5xx_hal_icache.c **** {
 269              		.loc 1 341 1 is_stmt 1 view -0
 270              		.cfi_startproc
 271              		@ args = 0, pretend = 0, frame = 0
 272              		@ frame_needed = 0, uses_anonymous_args = 0
 342:Drivers/STM32U5xx_HAL_Driver/Src/stm32u5xx_hal_icache.c ****   HAL_StatusTypeDef status = HAL_OK;
 273              		.loc 1 342 3 view .LVU56
 274              	.LVL12:
 343:Drivers/STM32U5xx_HAL_Driver/Src/stm32u5xx_hal_icache.c ****   uint32_t tickstart;
 275              		.loc 1 343 3 view .LVU57
 344:Drivers/STM32U5xx_HAL_Driver/Src/stm32u5xx_hal_icache.c **** 
 345:Drivers/STM32U5xx_HAL_Driver/Src/stm32u5xx_hal_icache.c ****   /* Check if ongoing invalidation operation */
 346:Drivers/STM32U5xx_HAL_Driver/Src/stm32u5xx_hal_icache.c ****   if (READ_BIT(ICACHE->SR, ICACHE_SR_BUSYF) != 0U)
 276              		.loc 1 346 3 view .LVU58
 277              		.loc 1 346 7 is_stmt 0 view .LVU59
 278 0000 114B     		ldr	r3, .L38
 279 0002 5B68     		ldr	r3, [r3, #4]
 280              		.loc 1 346 6 view .LVU60
 281 0004 13F0010F 		tst	r3, #1
 282 0008 04D1     		bne	.L36
 342:Drivers/STM32U5xx_HAL_Driver/Src/stm32u5xx_hal_icache.c ****   uint32_t tickstart;
 283              		.loc 1 342 21 view .LVU61
 284 000a 0020     		movs	r0, #0
 285              	.LVL13:
ARM GAS  C:\Users\Ya\AppData\Local\Temp\ccv9y9EX.s 			page 12


 347:Drivers/STM32U5xx_HAL_Driver/Src/stm32u5xx_hal_icache.c ****   {
 348:Drivers/STM32U5xx_HAL_Driver/Src/stm32u5xx_hal_icache.c ****     /* Get tick */
 349:Drivers/STM32U5xx_HAL_Driver/Src/stm32u5xx_hal_icache.c ****     tickstart = HAL_GetTick();
 350:Drivers/STM32U5xx_HAL_Driver/Src/stm32u5xx_hal_icache.c **** 
 351:Drivers/STM32U5xx_HAL_Driver/Src/stm32u5xx_hal_icache.c ****     /* Wait for end of cache invalidation */
 352:Drivers/STM32U5xx_HAL_Driver/Src/stm32u5xx_hal_icache.c ****     while (READ_BIT(ICACHE->SR, ICACHE_SR_BSYENDF) == 0U)
 353:Drivers/STM32U5xx_HAL_Driver/Src/stm32u5xx_hal_icache.c ****     {
 354:Drivers/STM32U5xx_HAL_Driver/Src/stm32u5xx_hal_icache.c ****       if ((HAL_GetTick() - tickstart) > ICACHE_INVALIDATE_TIMEOUT_VALUE)
 355:Drivers/STM32U5xx_HAL_Driver/Src/stm32u5xx_hal_icache.c ****       {
 356:Drivers/STM32U5xx_HAL_Driver/Src/stm32u5xx_hal_icache.c ****         /* New check to avoid false timeout detection in case of preemption */
 357:Drivers/STM32U5xx_HAL_Driver/Src/stm32u5xx_hal_icache.c ****         if (READ_BIT(ICACHE->SR, ICACHE_SR_BSYENDF) == 0U)
 358:Drivers/STM32U5xx_HAL_Driver/Src/stm32u5xx_hal_icache.c ****         {
 359:Drivers/STM32U5xx_HAL_Driver/Src/stm32u5xx_hal_icache.c ****           status = HAL_TIMEOUT;
 360:Drivers/STM32U5xx_HAL_Driver/Src/stm32u5xx_hal_icache.c ****           break;
 361:Drivers/STM32U5xx_HAL_Driver/Src/stm32u5xx_hal_icache.c ****         }
 362:Drivers/STM32U5xx_HAL_Driver/Src/stm32u5xx_hal_icache.c ****       }
 363:Drivers/STM32U5xx_HAL_Driver/Src/stm32u5xx_hal_icache.c ****     }
 364:Drivers/STM32U5xx_HAL_Driver/Src/stm32u5xx_hal_icache.c ****   }
 365:Drivers/STM32U5xx_HAL_Driver/Src/stm32u5xx_hal_icache.c **** 
 366:Drivers/STM32U5xx_HAL_Driver/Src/stm32u5xx_hal_icache.c ****   /* Clear BSYENDF */
 367:Drivers/STM32U5xx_HAL_Driver/Src/stm32u5xx_hal_icache.c ****   WRITE_REG(ICACHE->FCR, ICACHE_FCR_CBSYENDF);
 286              		.loc 1 367 3 is_stmt 1 view .LVU62
 287 000c 0E4B     		ldr	r3, .L38
 288 000e 0222     		movs	r2, #2
 289 0010 DA60     		str	r2, [r3, #12]
 368:Drivers/STM32U5xx_HAL_Driver/Src/stm32u5xx_hal_icache.c **** 
 369:Drivers/STM32U5xx_HAL_Driver/Src/stm32u5xx_hal_icache.c ****   return status;
 290              		.loc 1 369 3 view .LVU63
 370:Drivers/STM32U5xx_HAL_Driver/Src/stm32u5xx_hal_icache.c **** }
 291              		.loc 1 370 1 is_stmt 0 view .LVU64
 292 0012 7047     		bx	lr
 293              	.LVL14:
 294              	.L36:
 341:Drivers/STM32U5xx_HAL_Driver/Src/stm32u5xx_hal_icache.c ****   HAL_StatusTypeDef status = HAL_OK;
 295              		.loc 1 341 1 view .LVU65
 296 0014 10B5     		push	{r4, lr}
 297              		.cfi_def_cfa_offset 8
 298              		.cfi_offset 4, -8
 299              		.cfi_offset 14, -4
 349:Drivers/STM32U5xx_HAL_Driver/Src/stm32u5xx_hal_icache.c **** 
 300              		.loc 1 349 5 is_stmt 1 view .LVU66
 349:Drivers/STM32U5xx_HAL_Driver/Src/stm32u5xx_hal_icache.c **** 
 301              		.loc 1 349 17 is_stmt 0 view .LVU67
 302 0016 FFF7FEFF 		bl	HAL_GetTick
 303              	.LVL15:
 304 001a 0446     		mov	r4, r0
 305              	.LVL16:
 352:Drivers/STM32U5xx_HAL_Driver/Src/stm32u5xx_hal_icache.c ****     {
 306              		.loc 1 352 5 is_stmt 1 view .LVU68
 307              	.L28:
 352:Drivers/STM32U5xx_HAL_Driver/Src/stm32u5xx_hal_icache.c ****     {
 308              		.loc 1 352 52 view .LVU69
 352:Drivers/STM32U5xx_HAL_Driver/Src/stm32u5xx_hal_icache.c ****     {
 309              		.loc 1 352 12 is_stmt 0 view .LVU70
 310 001c 0A4B     		ldr	r3, .L38
 311 001e 5B68     		ldr	r3, [r3, #4]
 352:Drivers/STM32U5xx_HAL_Driver/Src/stm32u5xx_hal_icache.c ****     {
ARM GAS  C:\Users\Ya\AppData\Local\Temp\ccv9y9EX.s 			page 13


 312              		.loc 1 352 52 view .LVU71
 313 0020 13F0020F 		tst	r3, #2
 314 0024 0BD1     		bne	.L37
 354:Drivers/STM32U5xx_HAL_Driver/Src/stm32u5xx_hal_icache.c ****       {
 315              		.loc 1 354 7 is_stmt 1 view .LVU72
 354:Drivers/STM32U5xx_HAL_Driver/Src/stm32u5xx_hal_icache.c ****       {
 316              		.loc 1 354 12 is_stmt 0 view .LVU73
 317 0026 FFF7FEFF 		bl	HAL_GetTick
 318              	.LVL17:
 354:Drivers/STM32U5xx_HAL_Driver/Src/stm32u5xx_hal_icache.c ****       {
 319              		.loc 1 354 26 view .LVU74
 320 002a 001B     		subs	r0, r0, r4
 354:Drivers/STM32U5xx_HAL_Driver/Src/stm32u5xx_hal_icache.c ****       {
 321              		.loc 1 354 10 view .LVU75
 322 002c 0128     		cmp	r0, #1
 323 002e F5D9     		bls	.L28
 357:Drivers/STM32U5xx_HAL_Driver/Src/stm32u5xx_hal_icache.c ****         {
 324              		.loc 1 357 9 is_stmt 1 view .LVU76
 357:Drivers/STM32U5xx_HAL_Driver/Src/stm32u5xx_hal_icache.c ****         {
 325              		.loc 1 357 13 is_stmt 0 view .LVU77
 326 0030 054B     		ldr	r3, .L38
 327 0032 5B68     		ldr	r3, [r3, #4]
 357:Drivers/STM32U5xx_HAL_Driver/Src/stm32u5xx_hal_icache.c ****         {
 328              		.loc 1 357 12 view .LVU78
 329 0034 13F0020F 		tst	r3, #2
 330 0038 F0D1     		bne	.L28
 359:Drivers/STM32U5xx_HAL_Driver/Src/stm32u5xx_hal_icache.c ****           break;
 331              		.loc 1 359 18 view .LVU79
 332 003a 0320     		movs	r0, #3
 333 003c 00E0     		b	.L27
 334              	.L37:
 342:Drivers/STM32U5xx_HAL_Driver/Src/stm32u5xx_hal_icache.c ****   uint32_t tickstart;
 335              		.loc 1 342 21 view .LVU80
 336 003e 0020     		movs	r0, #0
 337              	.L27:
 338              	.LVL18:
 367:Drivers/STM32U5xx_HAL_Driver/Src/stm32u5xx_hal_icache.c **** 
 339              		.loc 1 367 3 is_stmt 1 view .LVU81
 340 0040 014B     		ldr	r3, .L38
 341 0042 0222     		movs	r2, #2
 342 0044 DA60     		str	r2, [r3, #12]
 369:Drivers/STM32U5xx_HAL_Driver/Src/stm32u5xx_hal_icache.c **** }
 343              		.loc 1 369 3 view .LVU82
 344              		.loc 1 370 1 is_stmt 0 view .LVU83
 345 0046 10BD     		pop	{r4, pc}
 346              	.LVL19:
 347              	.L39:
 348              		.loc 1 370 1 view .LVU84
 349              		.align	2
 350              	.L38:
 351 0048 00040340 		.word	1073939456
 352              		.cfi_endproc
 353              	.LFE347:
 355              		.section	.text.HAL_ICACHE_Invalidate,"ax",%progbits
 356              		.align	1
 357              		.global	HAL_ICACHE_Invalidate
 358              		.syntax unified
ARM GAS  C:\Users\Ya\AppData\Local\Temp\ccv9y9EX.s 			page 14


 359              		.thumb
 360              		.thumb_func
 362              	HAL_ICACHE_Invalidate:
 363              	.LFB345:
 281:Drivers/STM32U5xx_HAL_Driver/Src/stm32u5xx_hal_icache.c ****   HAL_StatusTypeDef status;
 364              		.loc 1 281 1 is_stmt 1 view -0
 365              		.cfi_startproc
 366              		@ args = 0, pretend = 0, frame = 0
 367              		@ frame_needed = 0, uses_anonymous_args = 0
 368 0000 08B5     		push	{r3, lr}
 369              		.cfi_def_cfa_offset 8
 370              		.cfi_offset 3, -8
 371              		.cfi_offset 14, -4
 282:Drivers/STM32U5xx_HAL_Driver/Src/stm32u5xx_hal_icache.c **** 
 372              		.loc 1 282 3 view .LVU86
 285:Drivers/STM32U5xx_HAL_Driver/Src/stm32u5xx_hal_icache.c ****   {
 373              		.loc 1 285 3 view .LVU87
 285:Drivers/STM32U5xx_HAL_Driver/Src/stm32u5xx_hal_icache.c ****   {
 374              		.loc 1 285 7 is_stmt 0 view .LVU88
 375 0002 084B     		ldr	r3, .L45
 376 0004 5B68     		ldr	r3, [r3, #4]
 285:Drivers/STM32U5xx_HAL_Driver/Src/stm32u5xx_hal_icache.c ****   {
 377              		.loc 1 285 6 view .LVU89
 378 0006 13F0010F 		tst	r3, #1
 379 000a 01D0     		beq	.L44
 287:Drivers/STM32U5xx_HAL_Driver/Src/stm32u5xx_hal_icache.c ****   }
 380              		.loc 1 287 12 view .LVU90
 381 000c 0120     		movs	r0, #1
 382              	.L41:
 383              	.LVL20:
 300:Drivers/STM32U5xx_HAL_Driver/Src/stm32u5xx_hal_icache.c **** }
 384              		.loc 1 300 3 is_stmt 1 view .LVU91
 301:Drivers/STM32U5xx_HAL_Driver/Src/stm32u5xx_hal_icache.c **** 
 385              		.loc 1 301 1 is_stmt 0 view .LVU92
 386 000e 08BD     		pop	{r3, pc}
 387              	.LVL21:
 388              	.L44:
 292:Drivers/STM32U5xx_HAL_Driver/Src/stm32u5xx_hal_icache.c **** 
 389              		.loc 1 292 5 is_stmt 1 view .LVU93
 390 0010 044B     		ldr	r3, .L45
 391 0012 0222     		movs	r2, #2
 392 0014 DA60     		str	r2, [r3, #12]
 295:Drivers/STM32U5xx_HAL_Driver/Src/stm32u5xx_hal_icache.c **** 
 393              		.loc 1 295 5 view .LVU94
 394 0016 1A68     		ldr	r2, [r3]
 395 0018 42F00202 		orr	r2, r2, #2
 396 001c 1A60     		str	r2, [r3]
 297:Drivers/STM32U5xx_HAL_Driver/Src/stm32u5xx_hal_icache.c ****   }
 397              		.loc 1 297 5 view .LVU95
 297:Drivers/STM32U5xx_HAL_Driver/Src/stm32u5xx_hal_icache.c ****   }
 398              		.loc 1 297 14 is_stmt 0 view .LVU96
 399 001e FFF7FEFF 		bl	HAL_ICACHE_WaitForInvalidateComplete
 400              	.LVL22:
 297:Drivers/STM32U5xx_HAL_Driver/Src/stm32u5xx_hal_icache.c ****   }
 401              		.loc 1 297 14 view .LVU97
 402 0022 F4E7     		b	.L41
 403              	.L46:
ARM GAS  C:\Users\Ya\AppData\Local\Temp\ccv9y9EX.s 			page 15


 404              		.align	2
 405              	.L45:
 406 0024 00040340 		.word	1073939456
 407              		.cfi_endproc
 408              	.LFE345:
 410              		.section	.text.HAL_ICACHE_Monitor_Start,"ax",%progbits
 411              		.align	1
 412              		.global	HAL_ICACHE_Monitor_Start
 413              		.syntax unified
 414              		.thumb
 415              		.thumb_func
 417              	HAL_ICACHE_Monitor_Start:
 418              	.LVL23:
 419              	.LFB348:
 371:Drivers/STM32U5xx_HAL_Driver/Src/stm32u5xx_hal_icache.c **** 
 372:Drivers/STM32U5xx_HAL_Driver/Src/stm32u5xx_hal_icache.c **** 
 373:Drivers/STM32U5xx_HAL_Driver/Src/stm32u5xx_hal_icache.c **** /**
 374:Drivers/STM32U5xx_HAL_Driver/Src/stm32u5xx_hal_icache.c ****   * @brief  Start the Instruction Cache performance monitoring.
 375:Drivers/STM32U5xx_HAL_Driver/Src/stm32u5xx_hal_icache.c ****   * @param  MonitorType  Monitoring type
 376:Drivers/STM32U5xx_HAL_Driver/Src/stm32u5xx_hal_icache.c ****   *         This parameter can be one of the following values:
 377:Drivers/STM32U5xx_HAL_Driver/Src/stm32u5xx_hal_icache.c ****   *            @arg ICACHE_MONITOR_HIT_MISS   Hit & Miss monitoring
 378:Drivers/STM32U5xx_HAL_Driver/Src/stm32u5xx_hal_icache.c ****   *            @arg ICACHE_MONITOR_HIT        Hit monitoring
 379:Drivers/STM32U5xx_HAL_Driver/Src/stm32u5xx_hal_icache.c ****   *            @arg ICACHE_MONITOR_MISS       Miss monitoring
 380:Drivers/STM32U5xx_HAL_Driver/Src/stm32u5xx_hal_icache.c ****   * @retval HAL status (HAL_OK)
 381:Drivers/STM32U5xx_HAL_Driver/Src/stm32u5xx_hal_icache.c ****   */
 382:Drivers/STM32U5xx_HAL_Driver/Src/stm32u5xx_hal_icache.c **** HAL_StatusTypeDef HAL_ICACHE_Monitor_Start(uint32_t MonitorType)
 383:Drivers/STM32U5xx_HAL_Driver/Src/stm32u5xx_hal_icache.c **** {
 420              		.loc 1 383 1 is_stmt 1 view -0
 421              		.cfi_startproc
 422              		@ args = 0, pretend = 0, frame = 0
 423              		@ frame_needed = 0, uses_anonymous_args = 0
 424              		@ link register save eliminated.
 384:Drivers/STM32U5xx_HAL_Driver/Src/stm32u5xx_hal_icache.c ****   /* Check the parameters */
 385:Drivers/STM32U5xx_HAL_Driver/Src/stm32u5xx_hal_icache.c ****   assert_param(IS_ICACHE_MONITOR_TYPE(MonitorType));
 425              		.loc 1 385 3 view .LVU99
 386:Drivers/STM32U5xx_HAL_Driver/Src/stm32u5xx_hal_icache.c **** 
 387:Drivers/STM32U5xx_HAL_Driver/Src/stm32u5xx_hal_icache.c ****   SET_BIT(ICACHE->CR, MonitorType);
 426              		.loc 1 387 3 view .LVU100
 427 0000 024A     		ldr	r2, .L48
 428 0002 1368     		ldr	r3, [r2]
 429 0004 0343     		orrs	r3, r3, r0
 430 0006 1360     		str	r3, [r2]
 388:Drivers/STM32U5xx_HAL_Driver/Src/stm32u5xx_hal_icache.c **** 
 389:Drivers/STM32U5xx_HAL_Driver/Src/stm32u5xx_hal_icache.c ****   return HAL_OK;
 431              		.loc 1 389 3 view .LVU101
 390:Drivers/STM32U5xx_HAL_Driver/Src/stm32u5xx_hal_icache.c **** }
 432              		.loc 1 390 1 is_stmt 0 view .LVU102
 433 0008 0020     		movs	r0, #0
 434              	.LVL24:
 435              		.loc 1 390 1 view .LVU103
 436 000a 7047     		bx	lr
 437              	.L49:
 438              		.align	2
 439              	.L48:
 440 000c 00040340 		.word	1073939456
 441              		.cfi_endproc
 442              	.LFE348:
ARM GAS  C:\Users\Ya\AppData\Local\Temp\ccv9y9EX.s 			page 16


 444              		.section	.text.HAL_ICACHE_Monitor_Stop,"ax",%progbits
 445              		.align	1
 446              		.global	HAL_ICACHE_Monitor_Stop
 447              		.syntax unified
 448              		.thumb
 449              		.thumb_func
 451              	HAL_ICACHE_Monitor_Stop:
 452              	.LVL25:
 453              	.LFB349:
 391:Drivers/STM32U5xx_HAL_Driver/Src/stm32u5xx_hal_icache.c **** 
 392:Drivers/STM32U5xx_HAL_Driver/Src/stm32u5xx_hal_icache.c **** /**
 393:Drivers/STM32U5xx_HAL_Driver/Src/stm32u5xx_hal_icache.c ****   * @brief  Stop the Instruction Cache performance monitoring.
 394:Drivers/STM32U5xx_HAL_Driver/Src/stm32u5xx_hal_icache.c ****   * @note   Stopping the monitoring does not reset the values.
 395:Drivers/STM32U5xx_HAL_Driver/Src/stm32u5xx_hal_icache.c ****   * @param  MonitorType  Monitoring type
 396:Drivers/STM32U5xx_HAL_Driver/Src/stm32u5xx_hal_icache.c ****   *         This parameter can be one of the following values:
 397:Drivers/STM32U5xx_HAL_Driver/Src/stm32u5xx_hal_icache.c ****   *            @arg ICACHE_MONITOR_HIT_MISS   Hit & Miss monitoring
 398:Drivers/STM32U5xx_HAL_Driver/Src/stm32u5xx_hal_icache.c ****   *            @arg ICACHE_MONITOR_HIT        Hit monitoring
 399:Drivers/STM32U5xx_HAL_Driver/Src/stm32u5xx_hal_icache.c ****   *            @arg ICACHE_MONITOR_MISS       Miss monitoring
 400:Drivers/STM32U5xx_HAL_Driver/Src/stm32u5xx_hal_icache.c ****   * @retval HAL status (HAL_OK)
 401:Drivers/STM32U5xx_HAL_Driver/Src/stm32u5xx_hal_icache.c ****   */
 402:Drivers/STM32U5xx_HAL_Driver/Src/stm32u5xx_hal_icache.c **** HAL_StatusTypeDef HAL_ICACHE_Monitor_Stop(uint32_t MonitorType)
 403:Drivers/STM32U5xx_HAL_Driver/Src/stm32u5xx_hal_icache.c **** {
 454              		.loc 1 403 1 is_stmt 1 view -0
 455              		.cfi_startproc
 456              		@ args = 0, pretend = 0, frame = 0
 457              		@ frame_needed = 0, uses_anonymous_args = 0
 458              		@ link register save eliminated.
 404:Drivers/STM32U5xx_HAL_Driver/Src/stm32u5xx_hal_icache.c ****   /* Check the parameters */
 405:Drivers/STM32U5xx_HAL_Driver/Src/stm32u5xx_hal_icache.c ****   assert_param(IS_ICACHE_MONITOR_TYPE(MonitorType));
 459              		.loc 1 405 3 view .LVU105
 406:Drivers/STM32U5xx_HAL_Driver/Src/stm32u5xx_hal_icache.c **** 
 407:Drivers/STM32U5xx_HAL_Driver/Src/stm32u5xx_hal_icache.c ****   CLEAR_BIT(ICACHE->CR, MonitorType);
 460              		.loc 1 407 3 view .LVU106
 461 0000 034A     		ldr	r2, .L51
 462 0002 1368     		ldr	r3, [r2]
 463 0004 23EA0003 		bic	r3, r3, r0
 464 0008 1360     		str	r3, [r2]
 408:Drivers/STM32U5xx_HAL_Driver/Src/stm32u5xx_hal_icache.c **** 
 409:Drivers/STM32U5xx_HAL_Driver/Src/stm32u5xx_hal_icache.c ****   return HAL_OK;
 465              		.loc 1 409 3 view .LVU107
 410:Drivers/STM32U5xx_HAL_Driver/Src/stm32u5xx_hal_icache.c **** }
 466              		.loc 1 410 1 is_stmt 0 view .LVU108
 467 000a 0020     		movs	r0, #0
 468              	.LVL26:
 469              		.loc 1 410 1 view .LVU109
 470 000c 7047     		bx	lr
 471              	.L52:
 472 000e 00BF     		.align	2
 473              	.L51:
 474 0010 00040340 		.word	1073939456
 475              		.cfi_endproc
 476              	.LFE349:
 478              		.section	.text.HAL_ICACHE_Monitor_Reset,"ax",%progbits
 479              		.align	1
 480              		.global	HAL_ICACHE_Monitor_Reset
 481              		.syntax unified
 482              		.thumb
ARM GAS  C:\Users\Ya\AppData\Local\Temp\ccv9y9EX.s 			page 17


 483              		.thumb_func
 485              	HAL_ICACHE_Monitor_Reset:
 486              	.LVL27:
 487              	.LFB350:
 411:Drivers/STM32U5xx_HAL_Driver/Src/stm32u5xx_hal_icache.c **** 
 412:Drivers/STM32U5xx_HAL_Driver/Src/stm32u5xx_hal_icache.c **** /**
 413:Drivers/STM32U5xx_HAL_Driver/Src/stm32u5xx_hal_icache.c ****   * @brief  Reset the Instruction Cache performance monitoring values.
 414:Drivers/STM32U5xx_HAL_Driver/Src/stm32u5xx_hal_icache.c ****   * @param  MonitorType  Monitoring type
 415:Drivers/STM32U5xx_HAL_Driver/Src/stm32u5xx_hal_icache.c ****   *         This parameter can be one of the following values:
 416:Drivers/STM32U5xx_HAL_Driver/Src/stm32u5xx_hal_icache.c ****   *            @arg ICACHE_MONITOR_HIT_MISS   Hit & Miss monitoring
 417:Drivers/STM32U5xx_HAL_Driver/Src/stm32u5xx_hal_icache.c ****   *            @arg ICACHE_MONITOR_HIT        Hit monitoring
 418:Drivers/STM32U5xx_HAL_Driver/Src/stm32u5xx_hal_icache.c ****   *            @arg ICACHE_MONITOR_MISS       Miss monitoring
 419:Drivers/STM32U5xx_HAL_Driver/Src/stm32u5xx_hal_icache.c ****   * @retval HAL status (HAL_OK)
 420:Drivers/STM32U5xx_HAL_Driver/Src/stm32u5xx_hal_icache.c ****   */
 421:Drivers/STM32U5xx_HAL_Driver/Src/stm32u5xx_hal_icache.c **** HAL_StatusTypeDef HAL_ICACHE_Monitor_Reset(uint32_t MonitorType)
 422:Drivers/STM32U5xx_HAL_Driver/Src/stm32u5xx_hal_icache.c **** {
 488              		.loc 1 422 1 is_stmt 1 view -0
 489              		.cfi_startproc
 490              		@ args = 0, pretend = 0, frame = 0
 491              		@ frame_needed = 0, uses_anonymous_args = 0
 492              		@ link register save eliminated.
 423:Drivers/STM32U5xx_HAL_Driver/Src/stm32u5xx_hal_icache.c ****   /* Check the parameters */
 424:Drivers/STM32U5xx_HAL_Driver/Src/stm32u5xx_hal_icache.c ****   assert_param(IS_ICACHE_MONITOR_TYPE(MonitorType));
 493              		.loc 1 424 3 view .LVU111
 425:Drivers/STM32U5xx_HAL_Driver/Src/stm32u5xx_hal_icache.c **** 
 426:Drivers/STM32U5xx_HAL_Driver/Src/stm32u5xx_hal_icache.c ****   /* Force/Release reset */
 427:Drivers/STM32U5xx_HAL_Driver/Src/stm32u5xx_hal_icache.c ****   SET_BIT(ICACHE->CR, (MonitorType << 2U));
 494              		.loc 1 427 3 view .LVU112
 495 0000 054B     		ldr	r3, .L54
 496 0002 1A68     		ldr	r2, [r3]
 497 0004 42EA8002 		orr	r2, r2, r0, lsl #2
 498 0008 1A60     		str	r2, [r3]
 428:Drivers/STM32U5xx_HAL_Driver/Src/stm32u5xx_hal_icache.c ****   CLEAR_BIT(ICACHE->CR, (MonitorType << 2U));
 499              		.loc 1 428 3 view .LVU113
 500 000a 1A68     		ldr	r2, [r3]
 501 000c 22EA8002 		bic	r2, r2, r0, lsl #2
 502 0010 1A60     		str	r2, [r3]
 429:Drivers/STM32U5xx_HAL_Driver/Src/stm32u5xx_hal_icache.c **** 
 430:Drivers/STM32U5xx_HAL_Driver/Src/stm32u5xx_hal_icache.c ****   return HAL_OK;
 503              		.loc 1 430 3 view .LVU114
 431:Drivers/STM32U5xx_HAL_Driver/Src/stm32u5xx_hal_icache.c **** }
 504              		.loc 1 431 1 is_stmt 0 view .LVU115
 505 0012 0020     		movs	r0, #0
 506              	.LVL28:
 507              		.loc 1 431 1 view .LVU116
 508 0014 7047     		bx	lr
 509              	.L55:
 510 0016 00BF     		.align	2
 511              	.L54:
 512 0018 00040340 		.word	1073939456
 513              		.cfi_endproc
 514              	.LFE350:
 516              		.section	.text.HAL_ICACHE_Monitor_GetHitValue,"ax",%progbits
 517              		.align	1
 518              		.global	HAL_ICACHE_Monitor_GetHitValue
 519              		.syntax unified
 520              		.thumb
ARM GAS  C:\Users\Ya\AppData\Local\Temp\ccv9y9EX.s 			page 18


 521              		.thumb_func
 523              	HAL_ICACHE_Monitor_GetHitValue:
 524              	.LFB351:
 432:Drivers/STM32U5xx_HAL_Driver/Src/stm32u5xx_hal_icache.c **** 
 433:Drivers/STM32U5xx_HAL_Driver/Src/stm32u5xx_hal_icache.c **** /**
 434:Drivers/STM32U5xx_HAL_Driver/Src/stm32u5xx_hal_icache.c ****   * @brief  Get the Instruction Cache performance Hit monitoring value.
 435:Drivers/STM32U5xx_HAL_Driver/Src/stm32u5xx_hal_icache.c ****   * @note   Upon reaching the 32-bit maximum value, monitor does not wrap.
 436:Drivers/STM32U5xx_HAL_Driver/Src/stm32u5xx_hal_icache.c ****   * @retval Hit monitoring value
 437:Drivers/STM32U5xx_HAL_Driver/Src/stm32u5xx_hal_icache.c ****   */
 438:Drivers/STM32U5xx_HAL_Driver/Src/stm32u5xx_hal_icache.c **** uint32_t HAL_ICACHE_Monitor_GetHitValue(void)
 439:Drivers/STM32U5xx_HAL_Driver/Src/stm32u5xx_hal_icache.c **** {
 525              		.loc 1 439 1 is_stmt 1 view -0
 526              		.cfi_startproc
 527              		@ args = 0, pretend = 0, frame = 0
 528              		@ frame_needed = 0, uses_anonymous_args = 0
 529              		@ link register save eliminated.
 440:Drivers/STM32U5xx_HAL_Driver/Src/stm32u5xx_hal_icache.c ****   return (ICACHE->HMONR);
 530              		.loc 1 440 3 view .LVU118
 531              		.loc 1 440 17 is_stmt 0 view .LVU119
 532 0000 014B     		ldr	r3, .L57
 533 0002 1869     		ldr	r0, [r3, #16]
 441:Drivers/STM32U5xx_HAL_Driver/Src/stm32u5xx_hal_icache.c **** }
 534              		.loc 1 441 1 view .LVU120
 535 0004 7047     		bx	lr
 536              	.L58:
 537 0006 00BF     		.align	2
 538              	.L57:
 539 0008 00040340 		.word	1073939456
 540              		.cfi_endproc
 541              	.LFE351:
 543              		.section	.text.HAL_ICACHE_Monitor_GetMissValue,"ax",%progbits
 544              		.align	1
 545              		.global	HAL_ICACHE_Monitor_GetMissValue
 546              		.syntax unified
 547              		.thumb
 548              		.thumb_func
 550              	HAL_ICACHE_Monitor_GetMissValue:
 551              	.LFB352:
 442:Drivers/STM32U5xx_HAL_Driver/Src/stm32u5xx_hal_icache.c **** 
 443:Drivers/STM32U5xx_HAL_Driver/Src/stm32u5xx_hal_icache.c **** /**
 444:Drivers/STM32U5xx_HAL_Driver/Src/stm32u5xx_hal_icache.c ****   * @brief  Get the Instruction Cache performance Miss monitoring value.
 445:Drivers/STM32U5xx_HAL_Driver/Src/stm32u5xx_hal_icache.c ****   * @note   Upon reaching the 32-bit maximum value, monitor does not wrap.
 446:Drivers/STM32U5xx_HAL_Driver/Src/stm32u5xx_hal_icache.c ****   * @retval Miss monitoring value
 447:Drivers/STM32U5xx_HAL_Driver/Src/stm32u5xx_hal_icache.c ****   */
 448:Drivers/STM32U5xx_HAL_Driver/Src/stm32u5xx_hal_icache.c **** uint32_t HAL_ICACHE_Monitor_GetMissValue(void)
 449:Drivers/STM32U5xx_HAL_Driver/Src/stm32u5xx_hal_icache.c **** {
 552              		.loc 1 449 1 is_stmt 1 view -0
 553              		.cfi_startproc
 554              		@ args = 0, pretend = 0, frame = 0
 555              		@ frame_needed = 0, uses_anonymous_args = 0
 556              		@ link register save eliminated.
 450:Drivers/STM32U5xx_HAL_Driver/Src/stm32u5xx_hal_icache.c ****   return (ICACHE->MMONR);
 557              		.loc 1 450 3 view .LVU122
 558              		.loc 1 450 17 is_stmt 0 view .LVU123
 559 0000 014B     		ldr	r3, .L60
 560 0002 5869     		ldr	r0, [r3, #20]
 451:Drivers/STM32U5xx_HAL_Driver/Src/stm32u5xx_hal_icache.c **** }
ARM GAS  C:\Users\Ya\AppData\Local\Temp\ccv9y9EX.s 			page 19


 561              		.loc 1 451 1 view .LVU124
 562 0004 7047     		bx	lr
 563              	.L61:
 564 0006 00BF     		.align	2
 565              	.L60:
 566 0008 00040340 		.word	1073939456
 567              		.cfi_endproc
 568              	.LFE352:
 570              		.section	.text.HAL_ICACHE_InvalidateCompleteCallback,"ax",%progbits
 571              		.align	1
 572              		.weak	HAL_ICACHE_InvalidateCompleteCallback
 573              		.syntax unified
 574              		.thumb
 575              		.thumb_func
 577              	HAL_ICACHE_InvalidateCompleteCallback:
 578              	.LFB354:
 452:Drivers/STM32U5xx_HAL_Driver/Src/stm32u5xx_hal_icache.c **** 
 453:Drivers/STM32U5xx_HAL_Driver/Src/stm32u5xx_hal_icache.c **** /**
 454:Drivers/STM32U5xx_HAL_Driver/Src/stm32u5xx_hal_icache.c ****   * @}
 455:Drivers/STM32U5xx_HAL_Driver/Src/stm32u5xx_hal_icache.c ****   */
 456:Drivers/STM32U5xx_HAL_Driver/Src/stm32u5xx_hal_icache.c **** 
 457:Drivers/STM32U5xx_HAL_Driver/Src/stm32u5xx_hal_icache.c **** /** @defgroup ICACHE_Exported_Functions_Group2 IRQ and callback functions
 458:Drivers/STM32U5xx_HAL_Driver/Src/stm32u5xx_hal_icache.c ****   * @brief    IRQ and callback functions
 459:Drivers/STM32U5xx_HAL_Driver/Src/stm32u5xx_hal_icache.c ****   *
 460:Drivers/STM32U5xx_HAL_Driver/Src/stm32u5xx_hal_icache.c ****   @verbatim
 461:Drivers/STM32U5xx_HAL_Driver/Src/stm32u5xx_hal_icache.c ****   ==============================================================================
 462:Drivers/STM32U5xx_HAL_Driver/Src/stm32u5xx_hal_icache.c ****             ##### IRQ and callback functions #####
 463:Drivers/STM32U5xx_HAL_Driver/Src/stm32u5xx_hal_icache.c ****   ==============================================================================
 464:Drivers/STM32U5xx_HAL_Driver/Src/stm32u5xx_hal_icache.c ****   [..]
 465:Drivers/STM32U5xx_HAL_Driver/Src/stm32u5xx_hal_icache.c ****     This section provides functions allowing to handle ICACHE global interrupt
 466:Drivers/STM32U5xx_HAL_Driver/Src/stm32u5xx_hal_icache.c ****     and the associated callback functions.
 467:Drivers/STM32U5xx_HAL_Driver/Src/stm32u5xx_hal_icache.c ****   @endverbatim
 468:Drivers/STM32U5xx_HAL_Driver/Src/stm32u5xx_hal_icache.c ****   * @{
 469:Drivers/STM32U5xx_HAL_Driver/Src/stm32u5xx_hal_icache.c ****   */
 470:Drivers/STM32U5xx_HAL_Driver/Src/stm32u5xx_hal_icache.c **** 
 471:Drivers/STM32U5xx_HAL_Driver/Src/stm32u5xx_hal_icache.c **** /**
 472:Drivers/STM32U5xx_HAL_Driver/Src/stm32u5xx_hal_icache.c ****   * @brief Handle the Instruction Cache interrupt request.
 473:Drivers/STM32U5xx_HAL_Driver/Src/stm32u5xx_hal_icache.c ****   * @note This function should be called under the ICACHE_IRQHandler().
 474:Drivers/STM32U5xx_HAL_Driver/Src/stm32u5xx_hal_icache.c ****   * @note This function respectively disables the interrupt and clears the
 475:Drivers/STM32U5xx_HAL_Driver/Src/stm32u5xx_hal_icache.c ****   *       flag of any pending flag before calling the associated user callback.
 476:Drivers/STM32U5xx_HAL_Driver/Src/stm32u5xx_hal_icache.c ****   * @retval None
 477:Drivers/STM32U5xx_HAL_Driver/Src/stm32u5xx_hal_icache.c ****   */
 478:Drivers/STM32U5xx_HAL_Driver/Src/stm32u5xx_hal_icache.c **** void HAL_ICACHE_IRQHandler(void)
 479:Drivers/STM32U5xx_HAL_Driver/Src/stm32u5xx_hal_icache.c **** {
 480:Drivers/STM32U5xx_HAL_Driver/Src/stm32u5xx_hal_icache.c ****   /* Get current interrupt flags and interrupt sources value */
 481:Drivers/STM32U5xx_HAL_Driver/Src/stm32u5xx_hal_icache.c ****   uint32_t itflags   = READ_REG(ICACHE->SR);
 482:Drivers/STM32U5xx_HAL_Driver/Src/stm32u5xx_hal_icache.c ****   uint32_t itsources = READ_REG(ICACHE->IER);
 483:Drivers/STM32U5xx_HAL_Driver/Src/stm32u5xx_hal_icache.c **** 
 484:Drivers/STM32U5xx_HAL_Driver/Src/stm32u5xx_hal_icache.c ****   /* Check Instruction cache Error interrupt flag */
 485:Drivers/STM32U5xx_HAL_Driver/Src/stm32u5xx_hal_icache.c ****   if (((itflags & itsources) & ICACHE_FLAG_ERROR) != 0U)
 486:Drivers/STM32U5xx_HAL_Driver/Src/stm32u5xx_hal_icache.c ****   {
 487:Drivers/STM32U5xx_HAL_Driver/Src/stm32u5xx_hal_icache.c ****     /* Disable error interrupt */
 488:Drivers/STM32U5xx_HAL_Driver/Src/stm32u5xx_hal_icache.c ****     CLEAR_BIT(ICACHE->IER, ICACHE_IER_ERRIE);
 489:Drivers/STM32U5xx_HAL_Driver/Src/stm32u5xx_hal_icache.c **** 
 490:Drivers/STM32U5xx_HAL_Driver/Src/stm32u5xx_hal_icache.c ****     /* Clear ERR pending flag */
 491:Drivers/STM32U5xx_HAL_Driver/Src/stm32u5xx_hal_icache.c ****     WRITE_REG(ICACHE->FCR, ICACHE_FCR_CERRF);
 492:Drivers/STM32U5xx_HAL_Driver/Src/stm32u5xx_hal_icache.c **** 
ARM GAS  C:\Users\Ya\AppData\Local\Temp\ccv9y9EX.s 			page 20


 493:Drivers/STM32U5xx_HAL_Driver/Src/stm32u5xx_hal_icache.c ****     /* Instruction cache error interrupt user callback */
 494:Drivers/STM32U5xx_HAL_Driver/Src/stm32u5xx_hal_icache.c ****     HAL_ICACHE_ErrorCallback();
 495:Drivers/STM32U5xx_HAL_Driver/Src/stm32u5xx_hal_icache.c ****   }
 496:Drivers/STM32U5xx_HAL_Driver/Src/stm32u5xx_hal_icache.c **** 
 497:Drivers/STM32U5xx_HAL_Driver/Src/stm32u5xx_hal_icache.c ****   /* Check Instruction cache BusyEnd interrupt flag */
 498:Drivers/STM32U5xx_HAL_Driver/Src/stm32u5xx_hal_icache.c ****   if (((itflags & itsources) & ICACHE_FLAG_BUSYEND) != 0U)
 499:Drivers/STM32U5xx_HAL_Driver/Src/stm32u5xx_hal_icache.c ****   {
 500:Drivers/STM32U5xx_HAL_Driver/Src/stm32u5xx_hal_icache.c ****     /* Disable end of cache invalidation interrupt */
 501:Drivers/STM32U5xx_HAL_Driver/Src/stm32u5xx_hal_icache.c ****     CLEAR_BIT(ICACHE->IER, ICACHE_IER_BSYENDIE);
 502:Drivers/STM32U5xx_HAL_Driver/Src/stm32u5xx_hal_icache.c **** 
 503:Drivers/STM32U5xx_HAL_Driver/Src/stm32u5xx_hal_icache.c ****     /* Clear BSYENDF pending flag */
 504:Drivers/STM32U5xx_HAL_Driver/Src/stm32u5xx_hal_icache.c ****     WRITE_REG(ICACHE->FCR, ICACHE_FCR_CBSYENDF);
 505:Drivers/STM32U5xx_HAL_Driver/Src/stm32u5xx_hal_icache.c **** 
 506:Drivers/STM32U5xx_HAL_Driver/Src/stm32u5xx_hal_icache.c ****     /* Instruction cache busyend interrupt user callback */
 507:Drivers/STM32U5xx_HAL_Driver/Src/stm32u5xx_hal_icache.c ****     HAL_ICACHE_InvalidateCompleteCallback();
 508:Drivers/STM32U5xx_HAL_Driver/Src/stm32u5xx_hal_icache.c ****   }
 509:Drivers/STM32U5xx_HAL_Driver/Src/stm32u5xx_hal_icache.c **** }
 510:Drivers/STM32U5xx_HAL_Driver/Src/stm32u5xx_hal_icache.c **** 
 511:Drivers/STM32U5xx_HAL_Driver/Src/stm32u5xx_hal_icache.c **** /**
 512:Drivers/STM32U5xx_HAL_Driver/Src/stm32u5xx_hal_icache.c ****   * @brief  Cache invalidation complete callback.
 513:Drivers/STM32U5xx_HAL_Driver/Src/stm32u5xx_hal_icache.c ****   */
 514:Drivers/STM32U5xx_HAL_Driver/Src/stm32u5xx_hal_icache.c **** __weak void HAL_ICACHE_InvalidateCompleteCallback(void)
 515:Drivers/STM32U5xx_HAL_Driver/Src/stm32u5xx_hal_icache.c **** {
 579              		.loc 1 515 1 is_stmt 1 view -0
 580              		.cfi_startproc
 581              		@ args = 0, pretend = 0, frame = 0
 582              		@ frame_needed = 0, uses_anonymous_args = 0
 583              		@ link register save eliminated.
 516:Drivers/STM32U5xx_HAL_Driver/Src/stm32u5xx_hal_icache.c ****   /* NOTE : This function should not be modified, when the callback is needed,
 517:Drivers/STM32U5xx_HAL_Driver/Src/stm32u5xx_hal_icache.c ****             the HAL_ICACHE_InvalidateCompleteCallback() should be implemented in the user file
 518:Drivers/STM32U5xx_HAL_Driver/Src/stm32u5xx_hal_icache.c ****    */
 519:Drivers/STM32U5xx_HAL_Driver/Src/stm32u5xx_hal_icache.c **** }
 584              		.loc 1 519 1 view .LVU126
 585 0000 7047     		bx	lr
 586              		.cfi_endproc
 587              	.LFE354:
 589              		.section	.text.HAL_ICACHE_ErrorCallback,"ax",%progbits
 590              		.align	1
 591              		.weak	HAL_ICACHE_ErrorCallback
 592              		.syntax unified
 593              		.thumb
 594              		.thumb_func
 596              	HAL_ICACHE_ErrorCallback:
 597              	.LFB355:
 520:Drivers/STM32U5xx_HAL_Driver/Src/stm32u5xx_hal_icache.c **** 
 521:Drivers/STM32U5xx_HAL_Driver/Src/stm32u5xx_hal_icache.c **** /**
 522:Drivers/STM32U5xx_HAL_Driver/Src/stm32u5xx_hal_icache.c ****   * @brief  Error callback.
 523:Drivers/STM32U5xx_HAL_Driver/Src/stm32u5xx_hal_icache.c ****   */
 524:Drivers/STM32U5xx_HAL_Driver/Src/stm32u5xx_hal_icache.c **** __weak void HAL_ICACHE_ErrorCallback(void)
 525:Drivers/STM32U5xx_HAL_Driver/Src/stm32u5xx_hal_icache.c **** {
 598              		.loc 1 525 1 view -0
 599              		.cfi_startproc
 600              		@ args = 0, pretend = 0, frame = 0
 601              		@ frame_needed = 0, uses_anonymous_args = 0
 602              		@ link register save eliminated.
 526:Drivers/STM32U5xx_HAL_Driver/Src/stm32u5xx_hal_icache.c ****   /* NOTE : This function should not be modified, when the callback is needed,
 527:Drivers/STM32U5xx_HAL_Driver/Src/stm32u5xx_hal_icache.c ****             the HAL_ICACHE_ErrorCallback() should be implemented in the user file
ARM GAS  C:\Users\Ya\AppData\Local\Temp\ccv9y9EX.s 			page 21


 528:Drivers/STM32U5xx_HAL_Driver/Src/stm32u5xx_hal_icache.c ****    */
 529:Drivers/STM32U5xx_HAL_Driver/Src/stm32u5xx_hal_icache.c **** }
 603              		.loc 1 529 1 view .LVU128
 604 0000 7047     		bx	lr
 605              		.cfi_endproc
 606              	.LFE355:
 608              		.section	.text.HAL_ICACHE_IRQHandler,"ax",%progbits
 609              		.align	1
 610              		.global	HAL_ICACHE_IRQHandler
 611              		.syntax unified
 612              		.thumb
 613              		.thumb_func
 615              	HAL_ICACHE_IRQHandler:
 616              	.LFB353:
 479:Drivers/STM32U5xx_HAL_Driver/Src/stm32u5xx_hal_icache.c ****   /* Get current interrupt flags and interrupt sources value */
 617              		.loc 1 479 1 view -0
 618              		.cfi_startproc
 619              		@ args = 0, pretend = 0, frame = 0
 620              		@ frame_needed = 0, uses_anonymous_args = 0
 621 0000 10B5     		push	{r4, lr}
 622              		.cfi_def_cfa_offset 8
 623              		.cfi_offset 4, -8
 624              		.cfi_offset 14, -4
 481:Drivers/STM32U5xx_HAL_Driver/Src/stm32u5xx_hal_icache.c ****   uint32_t itsources = READ_REG(ICACHE->IER);
 625              		.loc 1 481 3 view .LVU130
 481:Drivers/STM32U5xx_HAL_Driver/Src/stm32u5xx_hal_icache.c ****   uint32_t itsources = READ_REG(ICACHE->IER);
 626              		.loc 1 481 12 is_stmt 0 view .LVU131
 627 0002 0F4B     		ldr	r3, .L70
 628 0004 5C68     		ldr	r4, [r3, #4]
 629              	.LVL29:
 482:Drivers/STM32U5xx_HAL_Driver/Src/stm32u5xx_hal_icache.c **** 
 630              		.loc 1 482 3 is_stmt 1 view .LVU132
 482:Drivers/STM32U5xx_HAL_Driver/Src/stm32u5xx_hal_icache.c **** 
 631              		.loc 1 482 12 is_stmt 0 view .LVU133
 632 0006 9B68     		ldr	r3, [r3, #8]
 633              	.LVL30:
 485:Drivers/STM32U5xx_HAL_Driver/Src/stm32u5xx_hal_icache.c ****   {
 634              		.loc 1 485 3 is_stmt 1 view .LVU134
 485:Drivers/STM32U5xx_HAL_Driver/Src/stm32u5xx_hal_icache.c ****   {
 635              		.loc 1 485 17 is_stmt 0 view .LVU135
 636 0008 1C40     		ands	r4, r4, r3
 637              	.LVL31:
 485:Drivers/STM32U5xx_HAL_Driver/Src/stm32u5xx_hal_icache.c ****   {
 638              		.loc 1 485 6 view .LVU136
 639 000a 14F0040F 		tst	r4, #4
 640 000e 03D1     		bne	.L68
 641              	.LVL32:
 642              	.L65:
 498:Drivers/STM32U5xx_HAL_Driver/Src/stm32u5xx_hal_icache.c ****   {
 643              		.loc 1 498 3 is_stmt 1 view .LVU137
 498:Drivers/STM32U5xx_HAL_Driver/Src/stm32u5xx_hal_icache.c ****   {
 644              		.loc 1 498 6 is_stmt 0 view .LVU138
 645 0010 14F0020F 		tst	r4, #2
 646 0014 0AD1     		bne	.L69
 647              	.L64:
 509:Drivers/STM32U5xx_HAL_Driver/Src/stm32u5xx_hal_icache.c **** 
 648              		.loc 1 509 1 view .LVU139
ARM GAS  C:\Users\Ya\AppData\Local\Temp\ccv9y9EX.s 			page 22


 649 0016 10BD     		pop	{r4, pc}
 650              	.LVL33:
 651              	.L68:
 488:Drivers/STM32U5xx_HAL_Driver/Src/stm32u5xx_hal_icache.c **** 
 652              		.loc 1 488 5 is_stmt 1 view .LVU140
 653 0018 094B     		ldr	r3, .L70
 654              	.LVL34:
 488:Drivers/STM32U5xx_HAL_Driver/Src/stm32u5xx_hal_icache.c **** 
 655              		.loc 1 488 5 is_stmt 0 view .LVU141
 656 001a 9A68     		ldr	r2, [r3, #8]
 657 001c 22F00402 		bic	r2, r2, #4
 658 0020 9A60     		str	r2, [r3, #8]
 491:Drivers/STM32U5xx_HAL_Driver/Src/stm32u5xx_hal_icache.c **** 
 659              		.loc 1 491 5 is_stmt 1 view .LVU142
 660 0022 0422     		movs	r2, #4
 661 0024 DA60     		str	r2, [r3, #12]
 494:Drivers/STM32U5xx_HAL_Driver/Src/stm32u5xx_hal_icache.c ****   }
 662              		.loc 1 494 5 view .LVU143
 663 0026 FFF7FEFF 		bl	HAL_ICACHE_ErrorCallback
 664              	.LVL35:
 665 002a F1E7     		b	.L65
 666              	.L69:
 501:Drivers/STM32U5xx_HAL_Driver/Src/stm32u5xx_hal_icache.c **** 
 667              		.loc 1 501 5 view .LVU144
 668 002c 044B     		ldr	r3, .L70
 669 002e 9A68     		ldr	r2, [r3, #8]
 670 0030 22F00202 		bic	r2, r2, #2
 671 0034 9A60     		str	r2, [r3, #8]
 504:Drivers/STM32U5xx_HAL_Driver/Src/stm32u5xx_hal_icache.c **** 
 672              		.loc 1 504 5 view .LVU145
 673 0036 0222     		movs	r2, #2
 674 0038 DA60     		str	r2, [r3, #12]
 507:Drivers/STM32U5xx_HAL_Driver/Src/stm32u5xx_hal_icache.c ****   }
 675              		.loc 1 507 5 view .LVU146
 676 003a FFF7FEFF 		bl	HAL_ICACHE_InvalidateCompleteCallback
 677              	.LVL36:
 509:Drivers/STM32U5xx_HAL_Driver/Src/stm32u5xx_hal_icache.c **** 
 678              		.loc 1 509 1 is_stmt 0 view .LVU147
 679 003e EAE7     		b	.L64
 680              	.L71:
 681              		.align	2
 682              	.L70:
 683 0040 00040340 		.word	1073939456
 684              		.cfi_endproc
 685              	.LFE353:
 687              		.section	.text.HAL_ICACHE_EnableRemapRegion,"ax",%progbits
 688              		.align	1
 689              		.global	HAL_ICACHE_EnableRemapRegion
 690              		.syntax unified
 691              		.thumb
 692              		.thumb_func
 694              	HAL_ICACHE_EnableRemapRegion:
 695              	.LVL37:
 696              	.LFB356:
 530:Drivers/STM32U5xx_HAL_Driver/Src/stm32u5xx_hal_icache.c **** 
 531:Drivers/STM32U5xx_HAL_Driver/Src/stm32u5xx_hal_icache.c **** /**
 532:Drivers/STM32U5xx_HAL_Driver/Src/stm32u5xx_hal_icache.c ****   * @}
ARM GAS  C:\Users\Ya\AppData\Local\Temp\ccv9y9EX.s 			page 23


 533:Drivers/STM32U5xx_HAL_Driver/Src/stm32u5xx_hal_icache.c ****   */
 534:Drivers/STM32U5xx_HAL_Driver/Src/stm32u5xx_hal_icache.c **** 
 535:Drivers/STM32U5xx_HAL_Driver/Src/stm32u5xx_hal_icache.c **** /** @defgroup ICACHE_Exported_Functions_Group3 Memory remapped regions functions
 536:Drivers/STM32U5xx_HAL_Driver/Src/stm32u5xx_hal_icache.c ****   * @brief    Memory remapped regions functions
 537:Drivers/STM32U5xx_HAL_Driver/Src/stm32u5xx_hal_icache.c ****   *
 538:Drivers/STM32U5xx_HAL_Driver/Src/stm32u5xx_hal_icache.c ****   @verbatim
 539:Drivers/STM32U5xx_HAL_Driver/Src/stm32u5xx_hal_icache.c ****   ==============================================================================
 540:Drivers/STM32U5xx_HAL_Driver/Src/stm32u5xx_hal_icache.c ****             ##### Memory remapped regions functions #####
 541:Drivers/STM32U5xx_HAL_Driver/Src/stm32u5xx_hal_icache.c ****   ==============================================================================
 542:Drivers/STM32U5xx_HAL_Driver/Src/stm32u5xx_hal_icache.c ****   [..]
 543:Drivers/STM32U5xx_HAL_Driver/Src/stm32u5xx_hal_icache.c ****     This section provides functions allowing to manage the remapping of
 544:Drivers/STM32U5xx_HAL_Driver/Src/stm32u5xx_hal_icache.c ****     external memories to internal Code for execution.
 545:Drivers/STM32U5xx_HAL_Driver/Src/stm32u5xx_hal_icache.c ****   @endverbatim
 546:Drivers/STM32U5xx_HAL_Driver/Src/stm32u5xx_hal_icache.c ****   * @{
 547:Drivers/STM32U5xx_HAL_Driver/Src/stm32u5xx_hal_icache.c ****   */
 548:Drivers/STM32U5xx_HAL_Driver/Src/stm32u5xx_hal_icache.c **** 
 549:Drivers/STM32U5xx_HAL_Driver/Src/stm32u5xx_hal_icache.c **** /**
 550:Drivers/STM32U5xx_HAL_Driver/Src/stm32u5xx_hal_icache.c ****   * @brief  Configure and enable a region for memory remapping.
 551:Drivers/STM32U5xx_HAL_Driver/Src/stm32u5xx_hal_icache.c ****   * @note   The Instruction Cache and the region must be disabled.
 552:Drivers/STM32U5xx_HAL_Driver/Src/stm32u5xx_hal_icache.c ****   * @param  Region   Region number
 553:Drivers/STM32U5xx_HAL_Driver/Src/stm32u5xx_hal_icache.c ****                      This parameter can be a value of @arg @ref ICACHE_Region
 554:Drivers/STM32U5xx_HAL_Driver/Src/stm32u5xx_hal_icache.c ****   * @param  pRegionConfig  Pointer to structure of ICACHE region configuration parameters
 555:Drivers/STM32U5xx_HAL_Driver/Src/stm32u5xx_hal_icache.c ****   * @retval HAL status (HAL_OK/HAL_ERROR)
 556:Drivers/STM32U5xx_HAL_Driver/Src/stm32u5xx_hal_icache.c ****   */
 557:Drivers/STM32U5xx_HAL_Driver/Src/stm32u5xx_hal_icache.c **** HAL_StatusTypeDef  HAL_ICACHE_EnableRemapRegion(uint32_t Region, const ICACHE_RegionConfigTypeDef *
 558:Drivers/STM32U5xx_HAL_Driver/Src/stm32u5xx_hal_icache.c **** {
 697              		.loc 1 558 1 is_stmt 1 view -0
 698              		.cfi_startproc
 699              		@ args = 0, pretend = 0, frame = 0
 700              		@ frame_needed = 0, uses_anonymous_args = 0
 701              		@ link register save eliminated.
 559:Drivers/STM32U5xx_HAL_Driver/Src/stm32u5xx_hal_icache.c ****   HAL_StatusTypeDef status = HAL_OK;
 702              		.loc 1 559 3 view .LVU149
 560:Drivers/STM32U5xx_HAL_Driver/Src/stm32u5xx_hal_icache.c ****   __IO uint32_t *p_reg;
 703              		.loc 1 560 3 view .LVU150
 561:Drivers/STM32U5xx_HAL_Driver/Src/stm32u5xx_hal_icache.c ****   uint32_t value;
 704              		.loc 1 561 3 view .LVU151
 562:Drivers/STM32U5xx_HAL_Driver/Src/stm32u5xx_hal_icache.c **** 
 563:Drivers/STM32U5xx_HAL_Driver/Src/stm32u5xx_hal_icache.c ****   /* Check the parameters */
 564:Drivers/STM32U5xx_HAL_Driver/Src/stm32u5xx_hal_icache.c ****   assert_param(IS_ICACHE_REGION_NUMBER(Region));
 705              		.loc 1 564 3 view .LVU152
 565:Drivers/STM32U5xx_HAL_Driver/Src/stm32u5xx_hal_icache.c ****   assert_param(IS_ICACHE_REGION_SIZE(pRegionConfig->Size));
 706              		.loc 1 565 3 view .LVU153
 566:Drivers/STM32U5xx_HAL_Driver/Src/stm32u5xx_hal_icache.c ****   assert_param(IS_ICACHE_REGION_TRAFFIC_ROUTE(pRegionConfig->TrafficRoute));
 707              		.loc 1 566 3 view .LVU154
 567:Drivers/STM32U5xx_HAL_Driver/Src/stm32u5xx_hal_icache.c ****   assert_param(IS_ICACHE_REGION_OUTPUT_BURST_TYPE(pRegionConfig->OutputBurstType));
 708              		.loc 1 567 3 view .LVU155
 568:Drivers/STM32U5xx_HAL_Driver/Src/stm32u5xx_hal_icache.c **** 
 569:Drivers/STM32U5xx_HAL_Driver/Src/stm32u5xx_hal_icache.c ****   /* Check cache is not enabled */
 570:Drivers/STM32U5xx_HAL_Driver/Src/stm32u5xx_hal_icache.c ****   if (READ_BIT(ICACHE->CR, ICACHE_CR_EN) != 0U)
 709              		.loc 1 570 3 view .LVU156
 710              		.loc 1 570 7 is_stmt 0 view .LVU157
 711 0000 144B     		ldr	r3, .L80
 712 0002 1B68     		ldr	r3, [r3]
 713              		.loc 1 570 6 view .LVU158
 714 0004 13F0010F 		tst	r3, #1
 715 0008 1FD1     		bne	.L74
ARM GAS  C:\Users\Ya\AppData\Local\Temp\ccv9y9EX.s 			page 24


 558:Drivers/STM32U5xx_HAL_Driver/Src/stm32u5xx_hal_icache.c ****   HAL_StatusTypeDef status = HAL_OK;
 716              		.loc 1 558 1 view .LVU159
 717 000a 30B4     		push	{r4, r5}
 718              		.cfi_def_cfa_offset 8
 719              		.cfi_offset 4, -8
 720              		.cfi_offset 5, -4
 571:Drivers/STM32U5xx_HAL_Driver/Src/stm32u5xx_hal_icache.c ****   {
 572:Drivers/STM32U5xx_HAL_Driver/Src/stm32u5xx_hal_icache.c ****     status = HAL_ERROR;
 573:Drivers/STM32U5xx_HAL_Driver/Src/stm32u5xx_hal_icache.c ****   }
 574:Drivers/STM32U5xx_HAL_Driver/Src/stm32u5xx_hal_icache.c ****   else
 575:Drivers/STM32U5xx_HAL_Driver/Src/stm32u5xx_hal_icache.c ****   {
 576:Drivers/STM32U5xx_HAL_Driver/Src/stm32u5xx_hal_icache.c ****     /* Get region control register address */
 577:Drivers/STM32U5xx_HAL_Driver/Src/stm32u5xx_hal_icache.c ****     p_reg = &(ICACHE->CRR0) + (1U * Region);
 721              		.loc 1 577 5 is_stmt 1 view .LVU160
 722              		.loc 1 577 11 is_stmt 0 view .LVU161
 723 000c 124C     		ldr	r4, .L80+4
 724              	.LVL38:
 578:Drivers/STM32U5xx_HAL_Driver/Src/stm32u5xx_hal_icache.c **** 
 579:Drivers/STM32U5xx_HAL_Driver/Src/stm32u5xx_hal_icache.c ****     /* Check region is not already enabled */
 580:Drivers/STM32U5xx_HAL_Driver/Src/stm32u5xx_hal_icache.c ****     if ((*p_reg & ICACHE_CRRx_REN) != 0U)
 725              		.loc 1 580 5 is_stmt 1 view .LVU162
 726              		.loc 1 580 10 is_stmt 0 view .LVU163
 727 000e 54F82030 		ldr	r3, [r4, r0, lsl #2]
 728              		.loc 1 580 8 view .LVU164
 729 0012 13F4004F 		tst	r3, #32768
 730 0016 1AD1     		bne	.L75
 581:Drivers/STM32U5xx_HAL_Driver/Src/stm32u5xx_hal_icache.c ****     {
 582:Drivers/STM32U5xx_HAL_Driver/Src/stm32u5xx_hal_icache.c ****       status = HAL_ERROR;
 583:Drivers/STM32U5xx_HAL_Driver/Src/stm32u5xx_hal_icache.c ****     }
 584:Drivers/STM32U5xx_HAL_Driver/Src/stm32u5xx_hal_icache.c ****     else
 585:Drivers/STM32U5xx_HAL_Driver/Src/stm32u5xx_hal_icache.c ****     {
 586:Drivers/STM32U5xx_HAL_Driver/Src/stm32u5xx_hal_icache.c ****       /* Region 2MB:   BaseAddress size 8 bits, RemapAddress size 11 bits */
 587:Drivers/STM32U5xx_HAL_Driver/Src/stm32u5xx_hal_icache.c ****       /* Region 4MB:   BaseAddress size 7 bits, RemapAddress size 10 bits */
 588:Drivers/STM32U5xx_HAL_Driver/Src/stm32u5xx_hal_icache.c ****       /* Region 8MB:   BaseAddress size 6 bits, RemapAddress size 9 bits  */
 589:Drivers/STM32U5xx_HAL_Driver/Src/stm32u5xx_hal_icache.c ****       /* Region 16MB:  BaseAddress size 5 bits, RemapAddress size 8 bits  */
 590:Drivers/STM32U5xx_HAL_Driver/Src/stm32u5xx_hal_icache.c ****       /* Region 32MB:  BaseAddress size 4 bits, RemapAddress size 7 bits  */
 591:Drivers/STM32U5xx_HAL_Driver/Src/stm32u5xx_hal_icache.c ****       /* Region 64MB:  BaseAddress size 3 bits, RemapAddress size 6 bits  */
 592:Drivers/STM32U5xx_HAL_Driver/Src/stm32u5xx_hal_icache.c ****       /* Region 128MB: BaseAddress size 2 bits, RemapAddress size 5 bits  */
 593:Drivers/STM32U5xx_HAL_Driver/Src/stm32u5xx_hal_icache.c ****       value  = ((pRegionConfig->BaseAddress & 0x1FFFFFFFU) >> 21U) & \
 731              		.loc 1 593 7 is_stmt 1 view .LVU165
 732              		.loc 1 593 31 is_stmt 0 view .LVU166
 733 0018 0A68     		ldr	r2, [r1]
 594:Drivers/STM32U5xx_HAL_Driver/Src/stm32u5xx_hal_icache.c ****                (0xFFU & ~(pRegionConfig->Size - 1U));
 734              		.loc 1 594 40 view .LVU167
 735 001a 8D68     		ldr	r5, [r1, #8]
 736              		.loc 1 594 25 view .LVU168
 737 001c 6B42     		rsbs	r3, r5, #0
 593:Drivers/STM32U5xx_HAL_Driver/Src/stm32u5xx_hal_icache.c ****                (0xFFU & ~(pRegionConfig->Size - 1U));
 738              		.loc 1 593 68 view .LVU169
 739 001e 03EA5252 		and	r2, r3, r2, lsr #21
 593:Drivers/STM32U5xx_HAL_Driver/Src/stm32u5xx_hal_icache.c ****                (0xFFU & ~(pRegionConfig->Size - 1U));
 740              		.loc 1 593 14 view .LVU170
 741 0022 5FFA82FC 		uxtb	ip, r2
 742              	.LVL39:
 595:Drivers/STM32U5xx_HAL_Driver/Src/stm32u5xx_hal_icache.c ****       value |= ((pRegionConfig->RemapAddress >> 5U) & \
 743              		.loc 1 595 7 is_stmt 1 view .LVU171
 596:Drivers/STM32U5xx_HAL_Driver/Src/stm32u5xx_hal_icache.c ****                 ((uint32_t)(0x7FFU & ~(pRegionConfig->Size - 1U)) << ICACHE_CRRx_REMAPADDR_Pos));
ARM GAS  C:\Users\Ya\AppData\Local\Temp\ccv9y9EX.s 			page 25


 744              		.loc 1 596 67 is_stmt 0 view .LVU172
 745 0026 1A04     		lsls	r2, r3, #16
 595:Drivers/STM32U5xx_HAL_Driver/Src/stm32u5xx_hal_icache.c ****       value |= ((pRegionConfig->RemapAddress >> 5U) & \
 746              		.loc 1 595 53 view .LVU173
 747 0028 4B68     		ldr	r3, [r1, #4]
 748 002a 02EA5312 		and	r2, r2, r3, lsr #5
 595:Drivers/STM32U5xx_HAL_Driver/Src/stm32u5xx_hal_icache.c ****       value |= ((pRegionConfig->RemapAddress >> 5U) & \
 749              		.loc 1 595 13 view .LVU174
 750 002e 42EA0C02 		orr	r2, r2, ip
 751              	.LVL40:
 597:Drivers/STM32U5xx_HAL_Driver/Src/stm32u5xx_hal_icache.c ****       value |= (pRegionConfig->Size << ICACHE_CRRx_RSIZE_Pos) | pRegionConfig->TrafficRoute | \
 752              		.loc 1 597 7 is_stmt 1 view .LVU175
 753              		.loc 1 597 78 is_stmt 0 view .LVU176
 754 0032 CB68     		ldr	r3, [r1, #12]
 755              		.loc 1 597 63 view .LVU177
 756 0034 43EA4523 		orr	r3, r3, r5, lsl #9
 598:Drivers/STM32U5xx_HAL_Driver/Src/stm32u5xx_hal_icache.c ****                pRegionConfig->OutputBurstType;
 757              		.loc 1 598 29 view .LVU178
 758 0038 0969     		ldr	r1, [r1, #16]
 759              	.LVL41:
 597:Drivers/STM32U5xx_HAL_Driver/Src/stm32u5xx_hal_icache.c ****       value |= (pRegionConfig->Size << ICACHE_CRRx_RSIZE_Pos) | pRegionConfig->TrafficRoute | \
 760              		.loc 1 597 93 view .LVU179
 761 003a 0B43     		orrs	r3, r3, r1
 597:Drivers/STM32U5xx_HAL_Driver/Src/stm32u5xx_hal_icache.c ****       value |= (pRegionConfig->Size << ICACHE_CRRx_RSIZE_Pos) | pRegionConfig->TrafficRoute | \
 762              		.loc 1 597 13 view .LVU180
 763 003c 1343     		orrs	r3, r3, r2
 764              	.LVL42:
 599:Drivers/STM32U5xx_HAL_Driver/Src/stm32u5xx_hal_icache.c ****       *p_reg = (value | ICACHE_CRRx_REN);
 765              		.loc 1 599 7 is_stmt 1 view .LVU181
 766              		.loc 1 599 23 is_stmt 0 view .LVU182
 767 003e 43F40043 		orr	r3, r3, #32768
 768              	.LVL43:
 769              		.loc 1 599 14 view .LVU183
 770 0042 44F82030 		str	r3, [r4, r0, lsl #2]
 771              	.LVL44:
 559:Drivers/STM32U5xx_HAL_Driver/Src/stm32u5xx_hal_icache.c ****   __IO uint32_t *p_reg;
 772              		.loc 1 559 21 view .LVU184
 773 0046 0020     		movs	r0, #0
 774              	.LVL45:
 559:Drivers/STM32U5xx_HAL_Driver/Src/stm32u5xx_hal_icache.c ****   __IO uint32_t *p_reg;
 775              		.loc 1 559 21 view .LVU185
 776 0048 02E0     		b	.L73
 777              	.LVL46:
 778              	.L74:
 779              		.cfi_def_cfa_offset 0
 780              		.cfi_restore 4
 781              		.cfi_restore 5
 572:Drivers/STM32U5xx_HAL_Driver/Src/stm32u5xx_hal_icache.c ****   }
 782              		.loc 1 572 12 view .LVU186
 783 004a 0120     		movs	r0, #1
 784              	.LVL47:
 600:Drivers/STM32U5xx_HAL_Driver/Src/stm32u5xx_hal_icache.c ****     }
 601:Drivers/STM32U5xx_HAL_Driver/Src/stm32u5xx_hal_icache.c ****   }
 602:Drivers/STM32U5xx_HAL_Driver/Src/stm32u5xx_hal_icache.c **** 
 603:Drivers/STM32U5xx_HAL_Driver/Src/stm32u5xx_hal_icache.c ****   return status;
 785              		.loc 1 603 3 is_stmt 1 view .LVU187
 604:Drivers/STM32U5xx_HAL_Driver/Src/stm32u5xx_hal_icache.c **** }
ARM GAS  C:\Users\Ya\AppData\Local\Temp\ccv9y9EX.s 			page 26


 786              		.loc 1 604 1 is_stmt 0 view .LVU188
 787 004c 7047     		bx	lr
 788              	.LVL48:
 789              	.L75:
 790              		.cfi_def_cfa_offset 8
 791              		.cfi_offset 4, -8
 792              		.cfi_offset 5, -4
 582:Drivers/STM32U5xx_HAL_Driver/Src/stm32u5xx_hal_icache.c ****     }
 793              		.loc 1 582 14 view .LVU189
 794 004e 0120     		movs	r0, #1
 795              	.LVL49:
 796              	.L73:
 603:Drivers/STM32U5xx_HAL_Driver/Src/stm32u5xx_hal_icache.c **** }
 797              		.loc 1 603 3 is_stmt 1 view .LVU190
 798              		.loc 1 604 1 is_stmt 0 view .LVU191
 799 0050 30BC     		pop	{r4, r5}
 800              		.cfi_restore 5
 801              		.cfi_restore 4
 802              		.cfi_def_cfa_offset 0
 803              	.LVL50:
 804              		.loc 1 604 1 view .LVU192
 805 0052 7047     		bx	lr
 806              	.L81:
 807              		.align	2
 808              	.L80:
 809 0054 00040340 		.word	1073939456
 810 0058 20040340 		.word	1073939488
 811              		.cfi_endproc
 812              	.LFE356:
 814              		.section	.text.HAL_ICACHE_DisableRemapRegion,"ax",%progbits
 815              		.align	1
 816              		.global	HAL_ICACHE_DisableRemapRegion
 817              		.syntax unified
 818              		.thumb
 819              		.thumb_func
 821              	HAL_ICACHE_DisableRemapRegion:
 822              	.LVL51:
 823              	.LFB357:
 605:Drivers/STM32U5xx_HAL_Driver/Src/stm32u5xx_hal_icache.c **** 
 606:Drivers/STM32U5xx_HAL_Driver/Src/stm32u5xx_hal_icache.c **** /**
 607:Drivers/STM32U5xx_HAL_Driver/Src/stm32u5xx_hal_icache.c ****   * @brief  Disable the memory remapping for a predefined region.
 608:Drivers/STM32U5xx_HAL_Driver/Src/stm32u5xx_hal_icache.c ****   * @param  Region   Region number
 609:Drivers/STM32U5xx_HAL_Driver/Src/stm32u5xx_hal_icache.c ****                      This parameter can be a value of @arg @ref ICACHE_Region
 610:Drivers/STM32U5xx_HAL_Driver/Src/stm32u5xx_hal_icache.c ****   * @retval HAL status (HAL_OK/HAL_ERROR)
 611:Drivers/STM32U5xx_HAL_Driver/Src/stm32u5xx_hal_icache.c ****   */
 612:Drivers/STM32U5xx_HAL_Driver/Src/stm32u5xx_hal_icache.c **** HAL_StatusTypeDef  HAL_ICACHE_DisableRemapRegion(uint32_t Region)
 613:Drivers/STM32U5xx_HAL_Driver/Src/stm32u5xx_hal_icache.c **** {
 824              		.loc 1 613 1 is_stmt 1 view -0
 825              		.cfi_startproc
 826              		@ args = 0, pretend = 0, frame = 0
 827              		@ frame_needed = 0, uses_anonymous_args = 0
 828              		@ link register save eliminated.
 614:Drivers/STM32U5xx_HAL_Driver/Src/stm32u5xx_hal_icache.c ****   HAL_StatusTypeDef status = HAL_OK;
 829              		.loc 1 614 3 view .LVU194
 615:Drivers/STM32U5xx_HAL_Driver/Src/stm32u5xx_hal_icache.c ****   __IO uint32_t *p_reg;
 830              		.loc 1 615 3 view .LVU195
 616:Drivers/STM32U5xx_HAL_Driver/Src/stm32u5xx_hal_icache.c **** 
ARM GAS  C:\Users\Ya\AppData\Local\Temp\ccv9y9EX.s 			page 27


 617:Drivers/STM32U5xx_HAL_Driver/Src/stm32u5xx_hal_icache.c ****   /* Check the parameters */
 618:Drivers/STM32U5xx_HAL_Driver/Src/stm32u5xx_hal_icache.c ****   assert_param(IS_ICACHE_REGION_NUMBER(Region));
 831              		.loc 1 618 3 view .LVU196
 619:Drivers/STM32U5xx_HAL_Driver/Src/stm32u5xx_hal_icache.c **** 
 620:Drivers/STM32U5xx_HAL_Driver/Src/stm32u5xx_hal_icache.c ****   /* Check cache is not enabled */
 621:Drivers/STM32U5xx_HAL_Driver/Src/stm32u5xx_hal_icache.c ****   if (READ_BIT(ICACHE->CR, ICACHE_CR_EN) != 0U)
 832              		.loc 1 621 3 view .LVU197
 833              		.loc 1 621 7 is_stmt 0 view .LVU198
 834 0000 074B     		ldr	r3, .L85
 835 0002 1B68     		ldr	r3, [r3]
 836              		.loc 1 621 6 view .LVU199
 837 0004 13F0010F 		tst	r3, #1
 838 0008 08D1     		bne	.L84
 622:Drivers/STM32U5xx_HAL_Driver/Src/stm32u5xx_hal_icache.c ****   {
 623:Drivers/STM32U5xx_HAL_Driver/Src/stm32u5xx_hal_icache.c ****     status = HAL_ERROR;
 624:Drivers/STM32U5xx_HAL_Driver/Src/stm32u5xx_hal_icache.c ****   }
 625:Drivers/STM32U5xx_HAL_Driver/Src/stm32u5xx_hal_icache.c ****   else
 626:Drivers/STM32U5xx_HAL_Driver/Src/stm32u5xx_hal_icache.c ****   {
 627:Drivers/STM32U5xx_HAL_Driver/Src/stm32u5xx_hal_icache.c ****     /* Get region control register address */
 628:Drivers/STM32U5xx_HAL_Driver/Src/stm32u5xx_hal_icache.c ****     p_reg = &(ICACHE->CRR0) + (1U * Region);
 839              		.loc 1 628 5 is_stmt 1 view .LVU200
 840              		.loc 1 628 11 is_stmt 0 view .LVU201
 841 000a 064A     		ldr	r2, .L85+4
 842              	.LVL52:
 629:Drivers/STM32U5xx_HAL_Driver/Src/stm32u5xx_hal_icache.c **** 
 630:Drivers/STM32U5xx_HAL_Driver/Src/stm32u5xx_hal_icache.c ****     *p_reg &= ~ICACHE_CRRx_REN;
 843              		.loc 1 630 5 is_stmt 1 view .LVU202
 844 000c 52F82030 		ldr	r3, [r2, r0, lsl #2]
 845              		.loc 1 630 12 is_stmt 0 view .LVU203
 846 0010 23F40043 		bic	r3, r3, #32768
 847 0014 42F82030 		str	r3, [r2, r0, lsl #2]
 614:Drivers/STM32U5xx_HAL_Driver/Src/stm32u5xx_hal_icache.c ****   __IO uint32_t *p_reg;
 848              		.loc 1 614 21 view .LVU204
 849 0018 0020     		movs	r0, #0
 850              	.LVL53:
 614:Drivers/STM32U5xx_HAL_Driver/Src/stm32u5xx_hal_icache.c ****   __IO uint32_t *p_reg;
 851              		.loc 1 614 21 view .LVU205
 852 001a 7047     		bx	lr
 853              	.LVL54:
 854              	.L84:
 623:Drivers/STM32U5xx_HAL_Driver/Src/stm32u5xx_hal_icache.c ****   }
 855              		.loc 1 623 12 view .LVU206
 856 001c 0120     		movs	r0, #1
 857              	.LVL55:
 631:Drivers/STM32U5xx_HAL_Driver/Src/stm32u5xx_hal_icache.c ****   }
 632:Drivers/STM32U5xx_HAL_Driver/Src/stm32u5xx_hal_icache.c **** 
 633:Drivers/STM32U5xx_HAL_Driver/Src/stm32u5xx_hal_icache.c ****   return status;
 858              		.loc 1 633 3 is_stmt 1 view .LVU207
 634:Drivers/STM32U5xx_HAL_Driver/Src/stm32u5xx_hal_icache.c **** }
 859              		.loc 1 634 1 is_stmt 0 view .LVU208
 860 001e 7047     		bx	lr
 861              	.L86:
 862              		.align	2
 863              	.L85:
 864 0020 00040340 		.word	1073939456
 865 0024 20040340 		.word	1073939488
 866              		.cfi_endproc
ARM GAS  C:\Users\Ya\AppData\Local\Temp\ccv9y9EX.s 			page 28


 867              	.LFE357:
 869              		.section	.text.HAL_ICACHE_DeInit,"ax",%progbits
 870              		.align	1
 871              		.global	HAL_ICACHE_DeInit
 872              		.syntax unified
 873              		.thumb
 874              		.thumb_func
 876              	HAL_ICACHE_DeInit:
 877              	.LFB341:
 189:Drivers/STM32U5xx_HAL_Driver/Src/stm32u5xx_hal_icache.c ****   HAL_StatusTypeDef status;
 878              		.loc 1 189 1 is_stmt 1 view -0
 879              		.cfi_startproc
 880              		@ args = 0, pretend = 0, frame = 0
 881              		@ frame_needed = 0, uses_anonymous_args = 0
 882 0000 10B5     		push	{r4, lr}
 883              		.cfi_def_cfa_offset 8
 884              		.cfi_offset 4, -8
 885              		.cfi_offset 14, -4
 190:Drivers/STM32U5xx_HAL_Driver/Src/stm32u5xx_hal_icache.c **** 
 886              		.loc 1 190 3 view .LVU210
 193:Drivers/STM32U5xx_HAL_Driver/Src/stm32u5xx_hal_icache.c **** 
 887              		.loc 1 193 3 view .LVU211
 888 0002 0E4C     		ldr	r4, .L89
 889 0004 0423     		movs	r3, #4
 890 0006 2360     		str	r3, [r4]
 196:Drivers/STM32U5xx_HAL_Driver/Src/stm32u5xx_hal_icache.c ****   (void)HAL_ICACHE_Monitor_Reset(ICACHE_MONITOR_HIT_MISS);
 891              		.loc 1 196 3 view .LVU212
 196:Drivers/STM32U5xx_HAL_Driver/Src/stm32u5xx_hal_icache.c ****   (void)HAL_ICACHE_Monitor_Reset(ICACHE_MONITOR_HIT_MISS);
 892              		.loc 1 196 9 is_stmt 0 view .LVU213
 893 0008 4FF44030 		mov	r0, #196608
 894 000c FFF7FEFF 		bl	HAL_ICACHE_Monitor_Stop
 895              	.LVL56:
 197:Drivers/STM32U5xx_HAL_Driver/Src/stm32u5xx_hal_icache.c **** 
 896              		.loc 1 197 3 is_stmt 1 view .LVU214
 197:Drivers/STM32U5xx_HAL_Driver/Src/stm32u5xx_hal_icache.c **** 
 897              		.loc 1 197 9 is_stmt 0 view .LVU215
 898 0010 4FF44030 		mov	r0, #196608
 899 0014 FFF7FEFF 		bl	HAL_ICACHE_Monitor_Reset
 900              	.LVL57:
 200:Drivers/STM32U5xx_HAL_Driver/Src/stm32u5xx_hal_icache.c ****   (void)HAL_ICACHE_DisableRemapRegion(ICACHE_REGION_1);
 901              		.loc 1 200 3 is_stmt 1 view .LVU216
 200:Drivers/STM32U5xx_HAL_Driver/Src/stm32u5xx_hal_icache.c ****   (void)HAL_ICACHE_DisableRemapRegion(ICACHE_REGION_1);
 902              		.loc 1 200 9 is_stmt 0 view .LVU217
 903 0018 0020     		movs	r0, #0
 904 001a FFF7FEFF 		bl	HAL_ICACHE_DisableRemapRegion
 905              	.LVL58:
 201:Drivers/STM32U5xx_HAL_Driver/Src/stm32u5xx_hal_icache.c ****   (void)HAL_ICACHE_DisableRemapRegion(ICACHE_REGION_2);
 906              		.loc 1 201 3 is_stmt 1 view .LVU218
 201:Drivers/STM32U5xx_HAL_Driver/Src/stm32u5xx_hal_icache.c ****   (void)HAL_ICACHE_DisableRemapRegion(ICACHE_REGION_2);
 907              		.loc 1 201 9 is_stmt 0 view .LVU219
 908 001e 0120     		movs	r0, #1
 909 0020 FFF7FEFF 		bl	HAL_ICACHE_DisableRemapRegion
 910              	.LVL59:
 202:Drivers/STM32U5xx_HAL_Driver/Src/stm32u5xx_hal_icache.c ****   (void)HAL_ICACHE_DisableRemapRegion(ICACHE_REGION_3);
 911              		.loc 1 202 3 is_stmt 1 view .LVU220
 202:Drivers/STM32U5xx_HAL_Driver/Src/stm32u5xx_hal_icache.c ****   (void)HAL_ICACHE_DisableRemapRegion(ICACHE_REGION_3);
 912              		.loc 1 202 9 is_stmt 0 view .LVU221
ARM GAS  C:\Users\Ya\AppData\Local\Temp\ccv9y9EX.s 			page 29


 913 0024 0220     		movs	r0, #2
 914 0026 FFF7FEFF 		bl	HAL_ICACHE_DisableRemapRegion
 915              	.LVL60:
 203:Drivers/STM32U5xx_HAL_Driver/Src/stm32u5xx_hal_icache.c **** 
 916              		.loc 1 203 3 is_stmt 1 view .LVU222
 203:Drivers/STM32U5xx_HAL_Driver/Src/stm32u5xx_hal_icache.c **** 
 917              		.loc 1 203 9 is_stmt 0 view .LVU223
 918 002a 0320     		movs	r0, #3
 919 002c FFF7FEFF 		bl	HAL_ICACHE_DisableRemapRegion
 920              	.LVL61:
 206:Drivers/STM32U5xx_HAL_Driver/Src/stm32u5xx_hal_icache.c **** 
 921              		.loc 1 206 3 is_stmt 1 view .LVU224
 206:Drivers/STM32U5xx_HAL_Driver/Src/stm32u5xx_hal_icache.c **** 
 922              		.loc 1 206 12 is_stmt 0 view .LVU225
 923 0030 FFF7FEFF 		bl	HAL_ICACHE_WaitForInvalidateComplete
 924              	.LVL62:
 209:Drivers/STM32U5xx_HAL_Driver/Src/stm32u5xx_hal_icache.c **** 
 925              		.loc 1 209 3 is_stmt 1 view .LVU226
 926 0034 0623     		movs	r3, #6
 927 0036 E360     		str	r3, [r4, #12]
 211:Drivers/STM32U5xx_HAL_Driver/Src/stm32u5xx_hal_icache.c **** }
 928              		.loc 1 211 3 view .LVU227
 212:Drivers/STM32U5xx_HAL_Driver/Src/stm32u5xx_hal_icache.c **** 
 929              		.loc 1 212 1 is_stmt 0 view .LVU228
 930 0038 10BD     		pop	{r4, pc}
 931              	.L90:
 932 003a 00BF     		.align	2
 933              	.L89:
 934 003c 00040340 		.word	1073939456
 935              		.cfi_endproc
 936              	.LFE341:
 938              		.text
 939              	.Letext0:
 940              		.file 2 "c:\\users\\ya\\appdata\\roaming\\code\\user\\globalstorage\\bmd.stm32-for-vscode\\@xpack-
 941              		.file 3 "c:\\users\\ya\\appdata\\roaming\\code\\user\\globalstorage\\bmd.stm32-for-vscode\\@xpack-
 942              		.file 4 "Drivers/CMSIS/Device/ST/STM32U5xx/Include/stm32u575xx.h"
 943              		.file 5 "Drivers/STM32U5xx_HAL_Driver/Inc/stm32u5xx_hal_def.h"
 944              		.file 6 "Drivers/STM32U5xx_HAL_Driver/Inc/stm32u5xx_hal_icache.h"
 945              		.file 7 "Drivers/STM32U5xx_HAL_Driver/Inc/stm32u5xx_hal.h"
ARM GAS  C:\Users\Ya\AppData\Local\Temp\ccv9y9EX.s 			page 30

