ARM GAS  C:\Users\Ya\AppData\Local\Temp\ccLrGXJ9.s 			page 1


   1              		.cpu cortex-m33
   2              		.arch armv8-m.main
   3              		.fpu fpv5-sp-d16
   4              		.arch_extension dsp
   5              		.eabi_attribute 27, 1
   6              		.eabi_attribute 28, 1
   7              		.eabi_attribute 20, 1
   8              		.eabi_attribute 21, 1
   9              		.eabi_attribute 23, 3
  10              		.eabi_attribute 24, 1
  11              		.eabi_attribute 25, 1
  12              		.eabi_attribute 26, 1
  13              		.eabi_attribute 30, 1
  14              		.eabi_attribute 34, 1
  15              		.eabi_attribute 18, 4
  16              		.file	"stm32u5xx_hal_pwr_ex.c"
  17              		.text
  18              	.Ltext0:
  19              		.cfi_sections	.debug_frame
  20              		.file 1 "Drivers/STM32U5xx_HAL_Driver/Src/stm32u5xx_hal_pwr_ex.c"
  21              		.section	.text.HAL_PWREx_ControlVoltageScaling,"ax",%progbits
  22              		.align	1
  23              		.global	HAL_PWREx_ControlVoltageScaling
  24              		.syntax unified
  25              		.thumb
  26              		.thumb_func
  28              	HAL_PWREx_ControlVoltageScaling:
  29              	.LVL0:
  30              	.LFB340:
   1:Drivers/STM32U5xx_HAL_Driver/Src/stm32u5xx_hal_pwr_ex.c **** /**
   2:Drivers/STM32U5xx_HAL_Driver/Src/stm32u5xx_hal_pwr_ex.c ****   ******************************************************************************
   3:Drivers/STM32U5xx_HAL_Driver/Src/stm32u5xx_hal_pwr_ex.c ****   * @file    stm32u5xx_hal_pwr_ex.c
   4:Drivers/STM32U5xx_HAL_Driver/Src/stm32u5xx_hal_pwr_ex.c ****   * @author  MCD Application Team
   5:Drivers/STM32U5xx_HAL_Driver/Src/stm32u5xx_hal_pwr_ex.c ****   * @brief   Extended PWR HAL module driver.
   6:Drivers/STM32U5xx_HAL_Driver/Src/stm32u5xx_hal_pwr_ex.c ****   *          This file provides firmware functions to manage the following
   7:Drivers/STM32U5xx_HAL_Driver/Src/stm32u5xx_hal_pwr_ex.c ****   *          functionalities of the Power Controller extension peripheral :
   8:Drivers/STM32U5xx_HAL_Driver/Src/stm32u5xx_hal_pwr_ex.c ****   *           + Power Supply Control Functions
   9:Drivers/STM32U5xx_HAL_Driver/Src/stm32u5xx_hal_pwr_ex.c ****   *           + Low Power Control Functions
  10:Drivers/STM32U5xx_HAL_Driver/Src/stm32u5xx_hal_pwr_ex.c ****   *           + Voltage Monitoring Functions
  11:Drivers/STM32U5xx_HAL_Driver/Src/stm32u5xx_hal_pwr_ex.c ****   *           + Memories Retention Functions
  12:Drivers/STM32U5xx_HAL_Driver/Src/stm32u5xx_hal_pwr_ex.c ****   *           + I/O Pull-Up Pull-Down Configuration Functions
  13:Drivers/STM32U5xx_HAL_Driver/Src/stm32u5xx_hal_pwr_ex.c ****   *
  14:Drivers/STM32U5xx_HAL_Driver/Src/stm32u5xx_hal_pwr_ex.c ****   ******************************************************************************
  15:Drivers/STM32U5xx_HAL_Driver/Src/stm32u5xx_hal_pwr_ex.c ****   * @attention
  16:Drivers/STM32U5xx_HAL_Driver/Src/stm32u5xx_hal_pwr_ex.c ****   *
  17:Drivers/STM32U5xx_HAL_Driver/Src/stm32u5xx_hal_pwr_ex.c ****   * Copyright (c) 2021 STMicroelectronics.
  18:Drivers/STM32U5xx_HAL_Driver/Src/stm32u5xx_hal_pwr_ex.c ****   * All rights reserved.
  19:Drivers/STM32U5xx_HAL_Driver/Src/stm32u5xx_hal_pwr_ex.c ****   *
  20:Drivers/STM32U5xx_HAL_Driver/Src/stm32u5xx_hal_pwr_ex.c ****   * This software is licensed under terms that can be found in the LICENSE file
  21:Drivers/STM32U5xx_HAL_Driver/Src/stm32u5xx_hal_pwr_ex.c ****   * in the root directory of this software component.
  22:Drivers/STM32U5xx_HAL_Driver/Src/stm32u5xx_hal_pwr_ex.c ****   * If no LICENSE file comes with this software, it is provided AS-IS.
  23:Drivers/STM32U5xx_HAL_Driver/Src/stm32u5xx_hal_pwr_ex.c ****   *
  24:Drivers/STM32U5xx_HAL_Driver/Src/stm32u5xx_hal_pwr_ex.c ****   ******************************************************************************
  25:Drivers/STM32U5xx_HAL_Driver/Src/stm32u5xx_hal_pwr_ex.c ****   @verbatim
  26:Drivers/STM32U5xx_HAL_Driver/Src/stm32u5xx_hal_pwr_ex.c ****   ==============================================================================
  27:Drivers/STM32U5xx_HAL_Driver/Src/stm32u5xx_hal_pwr_ex.c ****                         ##### How to use this driver #####
  28:Drivers/STM32U5xx_HAL_Driver/Src/stm32u5xx_hal_pwr_ex.c ****   ==============================================================================
ARM GAS  C:\Users\Ya\AppData\Local\Temp\ccLrGXJ9.s 			page 2


  29:Drivers/STM32U5xx_HAL_Driver/Src/stm32u5xx_hal_pwr_ex.c ****   [..]
  30:Drivers/STM32U5xx_HAL_Driver/Src/stm32u5xx_hal_pwr_ex.c ****    (#) Call HAL_PWREx_ControlVoltageScaling() and HAL_PWREx_GetVoltageRange() to
  31:Drivers/STM32U5xx_HAL_Driver/Src/stm32u5xx_hal_pwr_ex.c ****        set / get the voltage scaling range.
  32:Drivers/STM32U5xx_HAL_Driver/Src/stm32u5xx_hal_pwr_ex.c ****       (+) Voltage scaling can be one of the following values :
  33:Drivers/STM32U5xx_HAL_Driver/Src/stm32u5xx_hal_pwr_ex.c ****              (++) voltage output scale 1 : 1V2
  34:Drivers/STM32U5xx_HAL_Driver/Src/stm32u5xx_hal_pwr_ex.c ****                   => Used when system clock frequency is up to 160 MHz
  35:Drivers/STM32U5xx_HAL_Driver/Src/stm32u5xx_hal_pwr_ex.c ****              (++) voltage output scale 2 : 1V1
  36:Drivers/STM32U5xx_HAL_Driver/Src/stm32u5xx_hal_pwr_ex.c ****                   => Used when system clock frequency is up to 100 MHz
  37:Drivers/STM32U5xx_HAL_Driver/Src/stm32u5xx_hal_pwr_ex.c ****              (++) voltage output scale 3 : 1V0
  38:Drivers/STM32U5xx_HAL_Driver/Src/stm32u5xx_hal_pwr_ex.c ****                   => Used when system clock frequency is up to 50 MHz
  39:Drivers/STM32U5xx_HAL_Driver/Src/stm32u5xx_hal_pwr_ex.c ****              (++) voltage output scale 4 : 0V9
  40:Drivers/STM32U5xx_HAL_Driver/Src/stm32u5xx_hal_pwr_ex.c ****                   => Used when system clock frequency is up to 24 MHz
  41:Drivers/STM32U5xx_HAL_Driver/Src/stm32u5xx_hal_pwr_ex.c **** 
  42:Drivers/STM32U5xx_HAL_Driver/Src/stm32u5xx_hal_pwr_ex.c ****    (#) Call HAL_PWREx_EnableFastSoftStart() and HAL_PWREx_DisableFastSoftStart()
  43:Drivers/STM32U5xx_HAL_Driver/Src/stm32u5xx_hal_pwr_ex.c ****        to enable / disable the fast software startup for the current regulator.
  44:Drivers/STM32U5xx_HAL_Driver/Src/stm32u5xx_hal_pwr_ex.c **** 
  45:Drivers/STM32U5xx_HAL_Driver/Src/stm32u5xx_hal_pwr_ex.c ****    (#) Call HAL_PWREx_EnterSTOP1Mode() function to enter the whole system to
  46:Drivers/STM32U5xx_HAL_Driver/Src/stm32u5xx_hal_pwr_ex.c ****        Stop 1 mode. Wake-up from Stop 1 mode could be following to an event or
  47:Drivers/STM32U5xx_HAL_Driver/Src/stm32u5xx_hal_pwr_ex.c ****        an interrupt according to low power mode intrinsic request called
  48:Drivers/STM32U5xx_HAL_Driver/Src/stm32u5xx_hal_pwr_ex.c ****        (__WFI() or __WFE()). (Regulator state on U5 devices is managed
  49:Drivers/STM32U5xx_HAL_Driver/Src/stm32u5xx_hal_pwr_ex.c ****        internally but regulator parameter is kept for product compatibility).
  50:Drivers/STM32U5xx_HAL_Driver/Src/stm32u5xx_hal_pwr_ex.c **** 
  51:Drivers/STM32U5xx_HAL_Driver/Src/stm32u5xx_hal_pwr_ex.c ****    (#) Call HAL_PWREx_EnterSTOP2Mode() function to enter the whole system to
  52:Drivers/STM32U5xx_HAL_Driver/Src/stm32u5xx_hal_pwr_ex.c ****        Stop 2 mode. Wake-up from Stop 2 mode could be following to an event or
  53:Drivers/STM32U5xx_HAL_Driver/Src/stm32u5xx_hal_pwr_ex.c ****        an interrupt according to low power mode intrinsic request called
  54:Drivers/STM32U5xx_HAL_Driver/Src/stm32u5xx_hal_pwr_ex.c ****        (__WFI() or __WFE()). (Regulator state on U5 devices is managed
  55:Drivers/STM32U5xx_HAL_Driver/Src/stm32u5xx_hal_pwr_ex.c ****        internally but regulator parameter is kept for product compatibility).
  56:Drivers/STM32U5xx_HAL_Driver/Src/stm32u5xx_hal_pwr_ex.c **** 
  57:Drivers/STM32U5xx_HAL_Driver/Src/stm32u5xx_hal_pwr_ex.c ****    (#) Call HAL_PWREx_EnterSTOP3Mode() function to enter the whole system to
  58:Drivers/STM32U5xx_HAL_Driver/Src/stm32u5xx_hal_pwr_ex.c ****        Stop 3 mode. Wake-up from Stop 3 mode could be following to an event or
  59:Drivers/STM32U5xx_HAL_Driver/Src/stm32u5xx_hal_pwr_ex.c ****        an interrupt according to low power mode intrinsic request called
  60:Drivers/STM32U5xx_HAL_Driver/Src/stm32u5xx_hal_pwr_ex.c ****        (__WFI() or __WFE()). (Regulator state on U5 devices is managed
  61:Drivers/STM32U5xx_HAL_Driver/Src/stm32u5xx_hal_pwr_ex.c ****        internally but regulator parameter is kept for product compatibility).
  62:Drivers/STM32U5xx_HAL_Driver/Src/stm32u5xx_hal_pwr_ex.c **** 
  63:Drivers/STM32U5xx_HAL_Driver/Src/stm32u5xx_hal_pwr_ex.c ****    (#) Call HAL_PWREx_EnterSHUTDOWNMode() function to enter the whole system in
  64:Drivers/STM32U5xx_HAL_Driver/Src/stm32u5xx_hal_pwr_ex.c ****        Shutdown mode. Wake-up from Shutdown mode can be following to an external
  65:Drivers/STM32U5xx_HAL_Driver/Src/stm32u5xx_hal_pwr_ex.c ****        reset (NRST pin), a WKUP pin event (configurable rising or falling edge),
  66:Drivers/STM32U5xx_HAL_Driver/Src/stm32u5xx_hal_pwr_ex.c ****        or an RTC event occurs (alarm, periodic wakeup, timestamp), or a tamper
  67:Drivers/STM32U5xx_HAL_Driver/Src/stm32u5xx_hal_pwr_ex.c ****        detection.
  68:Drivers/STM32U5xx_HAL_Driver/Src/stm32u5xx_hal_pwr_ex.c **** 
  69:Drivers/STM32U5xx_HAL_Driver/Src/stm32u5xx_hal_pwr_ex.c ****    (#) Call HAL_PWREx_ConfigSRDDomain() to force in Run mode or to enter in Stop
  70:Drivers/STM32U5xx_HAL_Driver/Src/stm32u5xx_hal_pwr_ex.c ****        mode Smart Run Domain when the system enters Stop mode (Stop 0/1/2).
  71:Drivers/STM32U5xx_HAL_Driver/Src/stm32u5xx_hal_pwr_ex.c **** 
  72:Drivers/STM32U5xx_HAL_Driver/Src/stm32u5xx_hal_pwr_ex.c ****    (#) Call HAL_PWREx_EnableUltraLowPowerMode() and
  73:Drivers/STM32U5xx_HAL_Driver/Src/stm32u5xx_hal_pwr_ex.c ****        HAL_PWREx_DisableUltraLowPowerMode() to enable / disable the BOR ultra
  74:Drivers/STM32U5xx_HAL_Driver/Src/stm32u5xx_hal_pwr_ex.c ****        low power mode.
  75:Drivers/STM32U5xx_HAL_Driver/Src/stm32u5xx_hal_pwr_ex.c **** 
  76:Drivers/STM32U5xx_HAL_Driver/Src/stm32u5xx_hal_pwr_ex.c ****    (#) Call HAL_PWREx_S3WU_IRQHandler() function to handle the PWR Stop 3 wake
  77:Drivers/STM32U5xx_HAL_Driver/Src/stm32u5xx_hal_pwr_ex.c ****        up interrupt request.
  78:Drivers/STM32U5xx_HAL_Driver/Src/stm32u5xx_hal_pwr_ex.c **** 
  79:Drivers/STM32U5xx_HAL_Driver/Src/stm32u5xx_hal_pwr_ex.c ****    (#) Call HAL_PWREx_EnableBatteryCharging() and
  80:Drivers/STM32U5xx_HAL_Driver/Src/stm32u5xx_hal_pwr_ex.c ****        HAL_PWREx_DisableBatteryCharging() to enable / disable the battery
  81:Drivers/STM32U5xx_HAL_Driver/Src/stm32u5xx_hal_pwr_ex.c ****        charging capability when VDD alimentation is available.
  82:Drivers/STM32U5xx_HAL_Driver/Src/stm32u5xx_hal_pwr_ex.c **** 
  83:Drivers/STM32U5xx_HAL_Driver/Src/stm32u5xx_hal_pwr_ex.c ****    (#) Call HAL_PWREx_EnableVddUSB(), HAL_PWREx_EnableVddIO2() and
  84:Drivers/STM32U5xx_HAL_Driver/Src/stm32u5xx_hal_pwr_ex.c ****        HAL_PWREx_EnableVddA() to enable respectively VDDUSB, VDDIO2 and VDDA
  85:Drivers/STM32U5xx_HAL_Driver/Src/stm32u5xx_hal_pwr_ex.c ****        electrical and logical isolation.
ARM GAS  C:\Users\Ya\AppData\Local\Temp\ccLrGXJ9.s 			page 3


  86:Drivers/STM32U5xx_HAL_Driver/Src/stm32u5xx_hal_pwr_ex.c ****        It is recommended to disable VDDUSB, VDDIO2 and VDDA electrical and
  87:Drivers/STM32U5xx_HAL_Driver/Src/stm32u5xx_hal_pwr_ex.c ****        logical isolation through HAL_PWREx_DisableVddUSB(),
  88:Drivers/STM32U5xx_HAL_Driver/Src/stm32u5xx_hal_pwr_ex.c ****        HAL_PWREx_DisableVddIO2() and HAL_PWREx_DisableVddA().
  89:Drivers/STM32U5xx_HAL_Driver/Src/stm32u5xx_hal_pwr_ex.c **** 
  90:Drivers/STM32U5xx_HAL_Driver/Src/stm32u5xx_hal_pwr_ex.c ****    (#) Call HAL_PWREx_ConfigPVM() after setting parameters to be configured
  91:Drivers/STM32U5xx_HAL_Driver/Src/stm32u5xx_hal_pwr_ex.c ****        (event mode and PVD type) in order to set up the Peripheral Voltage
  92:Drivers/STM32U5xx_HAL_Driver/Src/stm32u5xx_hal_pwr_ex.c ****        Monitor, then use HAL_PWREx_EnableUVM(), HAL_PWREx_EnableIO2VM(),
  93:Drivers/STM32U5xx_HAL_Driver/Src/stm32u5xx_hal_pwr_ex.c ****        HAL_PWREx_EnableAVM1() and HAL_PWREx_EnableAVM2() functions to start the
  94:Drivers/STM32U5xx_HAL_Driver/Src/stm32u5xx_hal_pwr_ex.c ****        PVM VDDx monitoring and use HAL_PWREx_DisableUVM(),
  95:Drivers/STM32U5xx_HAL_Driver/Src/stm32u5xx_hal_pwr_ex.c ****        HAL_PWREx_DisableIO2VM(), HAL_PWREx_DisableAVM1() and
  96:Drivers/STM32U5xx_HAL_Driver/Src/stm32u5xx_hal_pwr_ex.c ****        HAL_PWREx_DisableAVM2() to stop the PVM VDDx monitoring.
  97:Drivers/STM32U5xx_HAL_Driver/Src/stm32u5xx_hal_pwr_ex.c ****        (+) PVM monitored voltages are :
  98:Drivers/STM32U5xx_HAL_Driver/Src/stm32u5xx_hal_pwr_ex.c ****              (++) VDDUSB versus 1V2
  99:Drivers/STM32U5xx_HAL_Driver/Src/stm32u5xx_hal_pwr_ex.c ****              (++) VDDIO2 versus 0V9
 100:Drivers/STM32U5xx_HAL_Driver/Src/stm32u5xx_hal_pwr_ex.c ****              (++) VDDA versus 1V6
 101:Drivers/STM32U5xx_HAL_Driver/Src/stm32u5xx_hal_pwr_ex.c ****              (++) VDDA versus 1V8
 102:Drivers/STM32U5xx_HAL_Driver/Src/stm32u5xx_hal_pwr_ex.c **** 
 103:Drivers/STM32U5xx_HAL_Driver/Src/stm32u5xx_hal_pwr_ex.c ****    (#) Call HAL_PWREx_EnableUSBHSTranceiverSupply() and
 104:Drivers/STM32U5xx_HAL_Driver/Src/stm32u5xx_hal_pwr_ex.c ****        HAL_PWREx_DisableUSBHSTranceiverSupply() to enable / disable the internal
 105:Drivers/STM32U5xx_HAL_Driver/Src/stm32u5xx_hal_pwr_ex.c ****        USB HS transceiver supply.
 106:Drivers/STM32U5xx_HAL_Driver/Src/stm32u5xx_hal_pwr_ex.c ****        (+) This feature is available only for STM32U59xxx, STM32U5Axxx, STM32U5Fxxx
 107:Drivers/STM32U5xx_HAL_Driver/Src/stm32u5xx_hal_pwr_ex.c ****            and STM32U5Gxxx devices
 108:Drivers/STM32U5xx_HAL_Driver/Src/stm32u5xx_hal_pwr_ex.c **** 
 109:Drivers/STM32U5xx_HAL_Driver/Src/stm32u5xx_hal_pwr_ex.c ****    (#) Call HAL_PWREx_EnableOTGHSPHYLowPowerRetention() and
 110:Drivers/STM32U5xx_HAL_Driver/Src/stm32u5xx_hal_pwr_ex.c ****        HAL_PWREx_DisableOTGHSPHYLowPowerRetention() to enable / disable OTG_HS PHY power during
 111:Drivers/STM32U5xx_HAL_Driver/Src/stm32u5xx_hal_pwr_ex.c ****        low power modes (Stop2, Stop3 and Standby).
 112:Drivers/STM32U5xx_HAL_Driver/Src/stm32u5xx_hal_pwr_ex.c ****        (+) This feature is available only for STM32U59xxx, STM32U5Axxx, STM32U5Fxxx
 113:Drivers/STM32U5xx_HAL_Driver/Src/stm32u5xx_hal_pwr_ex.c ****            and STM32U5Gxxx devices
 114:Drivers/STM32U5xx_HAL_Driver/Src/stm32u5xx_hal_pwr_ex.c **** 
 115:Drivers/STM32U5xx_HAL_Driver/Src/stm32u5xx_hal_pwr_ex.c ****    (#) Call HAL_PWREx_EnableVDD11USB() and
 116:Drivers/STM32U5xx_HAL_Driver/Src/stm32u5xx_hal_pwr_ex.c ****        HAL_PWREx_DisableVDD11USB() to enable/ disable the VDD11USB.
 117:Drivers/STM32U5xx_HAL_Driver/Src/stm32u5xx_hal_pwr_ex.c ****        (+) This feature is available only for STM32U59xxx, STM32U5Axxx, STM32U5Fxxx
 118:Drivers/STM32U5xx_HAL_Driver/Src/stm32u5xx_hal_pwr_ex.c ****            and STM32U5Gxxx devices
 119:Drivers/STM32U5xx_HAL_Driver/Src/stm32u5xx_hal_pwr_ex.c **** 
 120:Drivers/STM32U5xx_HAL_Driver/Src/stm32u5xx_hal_pwr_ex.c ****    (#) Call HAL_PWREx_EnableMonitoring() and HAL_PWREx_DisableMonitoring() to
 121:Drivers/STM32U5xx_HAL_Driver/Src/stm32u5xx_hal_pwr_ex.c ****        enable / disable the VBAT and temperature monitoring.
 122:Drivers/STM32U5xx_HAL_Driver/Src/stm32u5xx_hal_pwr_ex.c **** 
 123:Drivers/STM32U5xx_HAL_Driver/Src/stm32u5xx_hal_pwr_ex.c ****    (#) Call HAL_PWREx_EnableUCPDStandbyMode() and
 124:Drivers/STM32U5xx_HAL_Driver/Src/stm32u5xx_hal_pwr_ex.c ****        HAL_PWREx_DisableUCPDStandbyMode() to enable / disable the UCPD
 125:Drivers/STM32U5xx_HAL_Driver/Src/stm32u5xx_hal_pwr_ex.c ****        configuration memorization in Standby mode.
 126:Drivers/STM32U5xx_HAL_Driver/Src/stm32u5xx_hal_pwr_ex.c **** 
 127:Drivers/STM32U5xx_HAL_Driver/Src/stm32u5xx_hal_pwr_ex.c ****    (#) Call HAL_PWREx_EnableUCPDDeadBattery() and
 128:Drivers/STM32U5xx_HAL_Driver/Src/stm32u5xx_hal_pwr_ex.c ****        HAL_PWREx_DisableUCPDDeadBattery() to enable / disable the dead battery
 129:Drivers/STM32U5xx_HAL_Driver/Src/stm32u5xx_hal_pwr_ex.c ****        behavior.
 130:Drivers/STM32U5xx_HAL_Driver/Src/stm32u5xx_hal_pwr_ex.c **** 
 131:Drivers/STM32U5xx_HAL_Driver/Src/stm32u5xx_hal_pwr_ex.c ****    (#) Call HAL_PWREx_PVD_PVM_IRQHandler() function to handle the PWR PVD and
 132:Drivers/STM32U5xx_HAL_Driver/Src/stm32u5xx_hal_pwr_ex.c ****        PVM interrupt request.
 133:Drivers/STM32U5xx_HAL_Driver/Src/stm32u5xx_hal_pwr_ex.c **** 
 134:Drivers/STM32U5xx_HAL_Driver/Src/stm32u5xx_hal_pwr_ex.c ****    (#) Call HAL_PWREx_EnableSRAM2ContentStandbyRetention() and
 135:Drivers/STM32U5xx_HAL_Driver/Src/stm32u5xx_hal_pwr_ex.c ****        HAL_PWREx_DisableSRAM2ContentStandbyRetention() to
 136:Drivers/STM32U5xx_HAL_Driver/Src/stm32u5xx_hal_pwr_ex.c ****        enable / disable the SRAM2 content retention in Stop 3 and Standby low
 137:Drivers/STM32U5xx_HAL_Driver/Src/stm32u5xx_hal_pwr_ex.c ****        power modes.
 138:Drivers/STM32U5xx_HAL_Driver/Src/stm32u5xx_hal_pwr_ex.c **** 
 139:Drivers/STM32U5xx_HAL_Driver/Src/stm32u5xx_hal_pwr_ex.c ****    (#) Call HAL_PWREx_EnableRAMsContentStopRetention() and
 140:Drivers/STM32U5xx_HAL_Driver/Src/stm32u5xx_hal_pwr_ex.c ****        HAL_PWREx_DisableRAMsContentStopRetention() to
 141:Drivers/STM32U5xx_HAL_Driver/Src/stm32u5xx_hal_pwr_ex.c ****        enable / disable the RAMs content retention in Stop mode (Stop 0/1/2/3).
 142:Drivers/STM32U5xx_HAL_Driver/Src/stm32u5xx_hal_pwr_ex.c ****        (+) Retained RAM can be one of the following RAMs :
ARM GAS  C:\Users\Ya\AppData\Local\Temp\ccLrGXJ9.s 			page 4


 143:Drivers/STM32U5xx_HAL_Driver/Src/stm32u5xx_hal_pwr_ex.c ****              (++) SRAM1
 144:Drivers/STM32U5xx_HAL_Driver/Src/stm32u5xx_hal_pwr_ex.c ****              (++) SRAM2
 145:Drivers/STM32U5xx_HAL_Driver/Src/stm32u5xx_hal_pwr_ex.c ****              (++) SRAM3 (available only for STM32U575xx, STM32U585xx, STM32U59xxx,
 146:Drivers/STM32U5xx_HAL_Driver/Src/stm32u5xx_hal_pwr_ex.c ****                   STM32U5Axxx, STM32U5Fxxx and STM32U5Gxxx devices)
 147:Drivers/STM32U5xx_HAL_Driver/Src/stm32u5xx_hal_pwr_ex.c ****              (++) SRAM4
 148:Drivers/STM32U5xx_HAL_Driver/Src/stm32u5xx_hal_pwr_ex.c ****              (++) SRAM5 (available only for STM32U59xxx, STM32U5Axxx,
 149:Drivers/STM32U5xx_HAL_Driver/Src/stm32u5xx_hal_pwr_ex.c ****                   STM32U5Fxxx and STM32U5Gxxx devices)
 150:Drivers/STM32U5xx_HAL_Driver/Src/stm32u5xx_hal_pwr_ex.c ****              (++) SRAM6 (available only for STM32U5Fxxx and STM32U5Gxxx devices)
 151:Drivers/STM32U5xx_HAL_Driver/Src/stm32u5xx_hal_pwr_ex.c ****              (++) ICACHE
 152:Drivers/STM32U5xx_HAL_Driver/Src/stm32u5xx_hal_pwr_ex.c ****              (++) DMA2DRAM (available only for STM32U575xx, STM32U585xx, STM32U59xxx,
 153:Drivers/STM32U5xx_HAL_Driver/Src/stm32u5xx_hal_pwr_ex.c ****                   STM32U5Axxx, STM32U5Fxxx and STM32U5Gxxx devices)
 154:Drivers/STM32U5xx_HAL_Driver/Src/stm32u5xx_hal_pwr_ex.c ****              (++) PKA32RAM
 155:Drivers/STM32U5xx_HAL_Driver/Src/stm32u5xx_hal_pwr_ex.c ****              (++) DCACHE1
 156:Drivers/STM32U5xx_HAL_Driver/Src/stm32u5xx_hal_pwr_ex.c ****              (++) FMAC
 157:Drivers/STM32U5xx_HAL_Driver/Src/stm32u5xx_hal_pwr_ex.c ****              (++) FDCAN
 158:Drivers/STM32U5xx_HAL_Driver/Src/stm32u5xx_hal_pwr_ex.c ****              (++) USB
 159:Drivers/STM32U5xx_HAL_Driver/Src/stm32u5xx_hal_pwr_ex.c ****              (++) DCACHE2 (available only for STM32U59xxx, STM32U5Axxx,
 160:Drivers/STM32U5xx_HAL_Driver/Src/stm32u5xx_hal_pwr_ex.c ****                   STM32U5Fxxx and STM32U5Gxxx devices)
 161:Drivers/STM32U5xx_HAL_Driver/Src/stm32u5xx_hal_pwr_ex.c ****              (++) LTDC (available only for STM32U59xxx, STM32U5Axxx,
 162:Drivers/STM32U5xx_HAL_Driver/Src/stm32u5xx_hal_pwr_ex.c ****                   STM32U5Fxxx and STM32U5Gxxx devices)
 163:Drivers/STM32U5xx_HAL_Driver/Src/stm32u5xx_hal_pwr_ex.c ****              (++) GFXMMU (available only for STM32U59xxx, STM32U5Axxx,
 164:Drivers/STM32U5xx_HAL_Driver/Src/stm32u5xx_hal_pwr_ex.c ****                   STM32U5Fxxx and STM32U5Gxxx devices)
 165:Drivers/STM32U5xx_HAL_Driver/Src/stm32u5xx_hal_pwr_ex.c ****              (++) DSI (available only for STM32U59xxx, STM32U5Axxx,
 166:Drivers/STM32U5xx_HAL_Driver/Src/stm32u5xx_hal_pwr_ex.c ****                   STM32U5Fxxx and STM32U5Gxxx devices)
 167:Drivers/STM32U5xx_HAL_Driver/Src/stm32u5xx_hal_pwr_ex.c ****              (++) JPEG (available only for STM32U5Fxxx and STM32U5Gxxx devices)
 168:Drivers/STM32U5xx_HAL_Driver/Src/stm32u5xx_hal_pwr_ex.c **** 
 169:Drivers/STM32U5xx_HAL_Driver/Src/stm32u5xx_hal_pwr_ex.c ****    (#) Call HAL_PWREx_EnableRAMsContentRunRetention() and
 170:Drivers/STM32U5xx_HAL_Driver/Src/stm32u5xx_hal_pwr_ex.c ****        HAL_PWREx_DisableRAMsContentRunRetention() to
 171:Drivers/STM32U5xx_HAL_Driver/Src/stm32u5xx_hal_pwr_ex.c ****        enable / disable the RAMs content retention in Run mode.
 172:Drivers/STM32U5xx_HAL_Driver/Src/stm32u5xx_hal_pwr_ex.c ****        (+) Retained RAM can be one of the following RAMs :
 173:Drivers/STM32U5xx_HAL_Driver/Src/stm32u5xx_hal_pwr_ex.c ****              (++) SRAM1
 174:Drivers/STM32U5xx_HAL_Driver/Src/stm32u5xx_hal_pwr_ex.c ****              (++) SRAM2
 175:Drivers/STM32U5xx_HAL_Driver/Src/stm32u5xx_hal_pwr_ex.c ****              (++) SRAM3 (available only for STM32U575xx, STM32U585xx, STM32U59xxx,
 176:Drivers/STM32U5xx_HAL_Driver/Src/stm32u5xx_hal_pwr_ex.c ****                   STM32U5Axxx, STM32U5Fxxx and STM32U5Gxxx devices)
 177:Drivers/STM32U5xx_HAL_Driver/Src/stm32u5xx_hal_pwr_ex.c ****              (++) SRAM4
 178:Drivers/STM32U5xx_HAL_Driver/Src/stm32u5xx_hal_pwr_ex.c ****              (++) SRAM5 (available only for STM32U59xxx, STM32U5Axxx,
 179:Drivers/STM32U5xx_HAL_Driver/Src/stm32u5xx_hal_pwr_ex.c ****                   STM32U5Fxxx and STM32U5Gxxx devices)
 180:Drivers/STM32U5xx_HAL_Driver/Src/stm32u5xx_hal_pwr_ex.c ****              (++) SRAM6 (available only for STM32U5Fxxx and STM32U5Gxxx devices)
 181:Drivers/STM32U5xx_HAL_Driver/Src/stm32u5xx_hal_pwr_ex.c **** 
 182:Drivers/STM32U5xx_HAL_Driver/Src/stm32u5xx_hal_pwr_ex.c ****    (#) Call HAL_PWREx_EnableFlashFastWakeUp() and
 183:Drivers/STM32U5xx_HAL_Driver/Src/stm32u5xx_hal_pwr_ex.c ****        HAL_PWREx_DisableFlashFastWakeUp() to enable / disable the flash memory
 184:Drivers/STM32U5xx_HAL_Driver/Src/stm32u5xx_hal_pwr_ex.c ****        fast wakeup from Stop mode (Stop 0/1).
 185:Drivers/STM32U5xx_HAL_Driver/Src/stm32u5xx_hal_pwr_ex.c **** 
 186:Drivers/STM32U5xx_HAL_Driver/Src/stm32u5xx_hal_pwr_ex.c ****    (#) Call HAL_PWREx_EnableSRAM4FastWakeUp() and
 187:Drivers/STM32U5xx_HAL_Driver/Src/stm32u5xx_hal_pwr_ex.c ****        HAL_PWREx_DisableSRAM4FastWakeUp() to enable / disable the SRAM4 memory
 188:Drivers/STM32U5xx_HAL_Driver/Src/stm32u5xx_hal_pwr_ex.c ****        fast wakeup from Stop mode (Stop 0/1/2).
 189:Drivers/STM32U5xx_HAL_Driver/Src/stm32u5xx_hal_pwr_ex.c **** 
 190:Drivers/STM32U5xx_HAL_Driver/Src/stm32u5xx_hal_pwr_ex.c ****    (#) Call HAL_PWREx_EnableBkupRAMRetention() and
 191:Drivers/STM32U5xx_HAL_Driver/Src/stm32u5xx_hal_pwr_ex.c ****        HAL_PWREx_DisableBkupRAMRetention() to enable / disable the Backup RAM
 192:Drivers/STM32U5xx_HAL_Driver/Src/stm32u5xx_hal_pwr_ex.c ****        content retention in Standby, Shutdown and VBAT modes.
 193:Drivers/STM32U5xx_HAL_Driver/Src/stm32u5xx_hal_pwr_ex.c **** 
 194:Drivers/STM32U5xx_HAL_Driver/Src/stm32u5xx_hal_pwr_ex.c ****    (#) Call HAL_PWREx_EnablePullUpPullDownConfig() and
 195:Drivers/STM32U5xx_HAL_Driver/Src/stm32u5xx_hal_pwr_ex.c ****        HAL_PWREx_DisablePullUpPullDownConfig() to I/O enable / disable pull-up
 196:Drivers/STM32U5xx_HAL_Driver/Src/stm32u5xx_hal_pwr_ex.c ****        and pull-down configuration.
 197:Drivers/STM32U5xx_HAL_Driver/Src/stm32u5xx_hal_pwr_ex.c **** 
 198:Drivers/STM32U5xx_HAL_Driver/Src/stm32u5xx_hal_pwr_ex.c ****    (#) Call HAL_PWREx_EnableGPIOPullUp() and HAL_PWREx_EnableGPIOPullDown() to
 199:Drivers/STM32U5xx_HAL_Driver/Src/stm32u5xx_hal_pwr_ex.c ****        apply respectively pull-up and pull-down to selected I/O.
ARM GAS  C:\Users\Ya\AppData\Local\Temp\ccLrGXJ9.s 			page 5


 200:Drivers/STM32U5xx_HAL_Driver/Src/stm32u5xx_hal_pwr_ex.c ****        Call HAL_PWREx_DisableGPIOPullUp() and HAL_PWREx_DisableGPIOPullDown() to
 201:Drivers/STM32U5xx_HAL_Driver/Src/stm32u5xx_hal_pwr_ex.c ****        disable applied respectively pull-up and pull-down to selected I/O.
 202:Drivers/STM32U5xx_HAL_Driver/Src/stm32u5xx_hal_pwr_ex.c **** 
 203:Drivers/STM32U5xx_HAL_Driver/Src/stm32u5xx_hal_pwr_ex.c ****   @endverbatim
 204:Drivers/STM32U5xx_HAL_Driver/Src/stm32u5xx_hal_pwr_ex.c ****   ******************************************************************************
 205:Drivers/STM32U5xx_HAL_Driver/Src/stm32u5xx_hal_pwr_ex.c ****   */
 206:Drivers/STM32U5xx_HAL_Driver/Src/stm32u5xx_hal_pwr_ex.c **** 
 207:Drivers/STM32U5xx_HAL_Driver/Src/stm32u5xx_hal_pwr_ex.c **** /* Includes ------------------------------------------------------------------*/
 208:Drivers/STM32U5xx_HAL_Driver/Src/stm32u5xx_hal_pwr_ex.c **** #include "stm32u5xx_hal.h"
 209:Drivers/STM32U5xx_HAL_Driver/Src/stm32u5xx_hal_pwr_ex.c **** 
 210:Drivers/STM32U5xx_HAL_Driver/Src/stm32u5xx_hal_pwr_ex.c **** /** @addtogroup STM32U5xx_HAL_Driver
 211:Drivers/STM32U5xx_HAL_Driver/Src/stm32u5xx_hal_pwr_ex.c ****   * @{
 212:Drivers/STM32U5xx_HAL_Driver/Src/stm32u5xx_hal_pwr_ex.c ****   */
 213:Drivers/STM32U5xx_HAL_Driver/Src/stm32u5xx_hal_pwr_ex.c **** 
 214:Drivers/STM32U5xx_HAL_Driver/Src/stm32u5xx_hal_pwr_ex.c **** /** @defgroup PWREx PWREx
 215:Drivers/STM32U5xx_HAL_Driver/Src/stm32u5xx_hal_pwr_ex.c ****   * @brief    PWR Extended HAL module driver
 216:Drivers/STM32U5xx_HAL_Driver/Src/stm32u5xx_hal_pwr_ex.c ****   * @{
 217:Drivers/STM32U5xx_HAL_Driver/Src/stm32u5xx_hal_pwr_ex.c ****   */
 218:Drivers/STM32U5xx_HAL_Driver/Src/stm32u5xx_hal_pwr_ex.c **** 
 219:Drivers/STM32U5xx_HAL_Driver/Src/stm32u5xx_hal_pwr_ex.c **** #if defined (HAL_PWR_MODULE_ENABLED)
 220:Drivers/STM32U5xx_HAL_Driver/Src/stm32u5xx_hal_pwr_ex.c **** 
 221:Drivers/STM32U5xx_HAL_Driver/Src/stm32u5xx_hal_pwr_ex.c **** /* Private typedef -----------------------------------------------------------*/
 222:Drivers/STM32U5xx_HAL_Driver/Src/stm32u5xx_hal_pwr_ex.c **** /* Private define ------------------------------------------------------------*/
 223:Drivers/STM32U5xx_HAL_Driver/Src/stm32u5xx_hal_pwr_ex.c **** 
 224:Drivers/STM32U5xx_HAL_Driver/Src/stm32u5xx_hal_pwr_ex.c **** /** @defgroup PWR_Extended_Private_Defines PWR Extended Private Defines
 225:Drivers/STM32U5xx_HAL_Driver/Src/stm32u5xx_hal_pwr_ex.c ****   * @{
 226:Drivers/STM32U5xx_HAL_Driver/Src/stm32u5xx_hal_pwr_ex.c ****   */
 227:Drivers/STM32U5xx_HAL_Driver/Src/stm32u5xx_hal_pwr_ex.c **** #if defined (PWR_PUCRJ_PU0)
 228:Drivers/STM32U5xx_HAL_Driver/Src/stm32u5xx_hal_pwr_ex.c **** /* PORTI pins mask */
 229:Drivers/STM32U5xx_HAL_Driver/Src/stm32u5xx_hal_pwr_ex.c **** #define PWR_PORTI_AVAILABLE_PINS  (0xFFFFU)
 230:Drivers/STM32U5xx_HAL_Driver/Src/stm32u5xx_hal_pwr_ex.c **** /* PORTJ pins mask */
 231:Drivers/STM32U5xx_HAL_Driver/Src/stm32u5xx_hal_pwr_ex.c **** #define PWR_PORTJ_AVAILABLE_PINS  (0x0FFFU)
 232:Drivers/STM32U5xx_HAL_Driver/Src/stm32u5xx_hal_pwr_ex.c **** #else
 233:Drivers/STM32U5xx_HAL_Driver/Src/stm32u5xx_hal_pwr_ex.c **** /* PORTI pins mask */
 234:Drivers/STM32U5xx_HAL_Driver/Src/stm32u5xx_hal_pwr_ex.c **** #define PWR_PORTI_AVAILABLE_PINS  (0x00FFU)
 235:Drivers/STM32U5xx_HAL_Driver/Src/stm32u5xx_hal_pwr_ex.c **** #endif /* defined (PWR_PUCRJ_PU0) */
 236:Drivers/STM32U5xx_HAL_Driver/Src/stm32u5xx_hal_pwr_ex.c **** 
 237:Drivers/STM32U5xx_HAL_Driver/Src/stm32u5xx_hal_pwr_ex.c **** /* Time out value of flags setting */
 238:Drivers/STM32U5xx_HAL_Driver/Src/stm32u5xx_hal_pwr_ex.c **** #define PWR_FLAG_SETTING_DELAY    (0x32U)
 239:Drivers/STM32U5xx_HAL_Driver/Src/stm32u5xx_hal_pwr_ex.c **** 
 240:Drivers/STM32U5xx_HAL_Driver/Src/stm32u5xx_hal_pwr_ex.c **** /** @defgroup PWR_PVM_Mode_Mask PWR PVM Mode Mask
 241:Drivers/STM32U5xx_HAL_Driver/Src/stm32u5xx_hal_pwr_ex.c ****   * @{
 242:Drivers/STM32U5xx_HAL_Driver/Src/stm32u5xx_hal_pwr_ex.c ****   */
 243:Drivers/STM32U5xx_HAL_Driver/Src/stm32u5xx_hal_pwr_ex.c **** #define PVM_RISING_EDGE  (0x01U)  /*!< Mask for rising edge set as PVM trigger                 */
 244:Drivers/STM32U5xx_HAL_Driver/Src/stm32u5xx_hal_pwr_ex.c **** #define PVM_FALLING_EDGE (0x02U)  /*!< Mask for falling edge set as PVM trigger                */
 245:Drivers/STM32U5xx_HAL_Driver/Src/stm32u5xx_hal_pwr_ex.c **** #define PVM_MODE_IT      (0x04U)  /*!< Mask for interruption yielded by PVM threshold crossing */
 246:Drivers/STM32U5xx_HAL_Driver/Src/stm32u5xx_hal_pwr_ex.c **** #define PVM_MODE_EVT     (0x08U)  /*!< Mask for event yielded by PVM threshold crossing        */
 247:Drivers/STM32U5xx_HAL_Driver/Src/stm32u5xx_hal_pwr_ex.c **** /**
 248:Drivers/STM32U5xx_HAL_Driver/Src/stm32u5xx_hal_pwr_ex.c ****   * @}
 249:Drivers/STM32U5xx_HAL_Driver/Src/stm32u5xx_hal_pwr_ex.c ****   */
 250:Drivers/STM32U5xx_HAL_Driver/Src/stm32u5xx_hal_pwr_ex.c **** 
 251:Drivers/STM32U5xx_HAL_Driver/Src/stm32u5xx_hal_pwr_ex.c **** /**
 252:Drivers/STM32U5xx_HAL_Driver/Src/stm32u5xx_hal_pwr_ex.c ****   * @}
 253:Drivers/STM32U5xx_HAL_Driver/Src/stm32u5xx_hal_pwr_ex.c ****   */
 254:Drivers/STM32U5xx_HAL_Driver/Src/stm32u5xx_hal_pwr_ex.c **** 
 255:Drivers/STM32U5xx_HAL_Driver/Src/stm32u5xx_hal_pwr_ex.c **** /* Private macro -------------------------------------------------------------*/
 256:Drivers/STM32U5xx_HAL_Driver/Src/stm32u5xx_hal_pwr_ex.c **** /* Private variables ---------------------------------------------------------*/
ARM GAS  C:\Users\Ya\AppData\Local\Temp\ccLrGXJ9.s 			page 6


 257:Drivers/STM32U5xx_HAL_Driver/Src/stm32u5xx_hal_pwr_ex.c **** /* Private function prototypes -----------------------------------------------*/
 258:Drivers/STM32U5xx_HAL_Driver/Src/stm32u5xx_hal_pwr_ex.c **** /* Exported functions --------------------------------------------------------*/
 259:Drivers/STM32U5xx_HAL_Driver/Src/stm32u5xx_hal_pwr_ex.c **** 
 260:Drivers/STM32U5xx_HAL_Driver/Src/stm32u5xx_hal_pwr_ex.c **** /** @defgroup PWREx_Exported_Functions PWR Extended Exported Functions
 261:Drivers/STM32U5xx_HAL_Driver/Src/stm32u5xx_hal_pwr_ex.c ****   * @{
 262:Drivers/STM32U5xx_HAL_Driver/Src/stm32u5xx_hal_pwr_ex.c ****   */
 263:Drivers/STM32U5xx_HAL_Driver/Src/stm32u5xx_hal_pwr_ex.c **** 
 264:Drivers/STM32U5xx_HAL_Driver/Src/stm32u5xx_hal_pwr_ex.c **** /** @defgroup PWREx_Exported_Functions_Group1 Power Supply Control Functions
 265:Drivers/STM32U5xx_HAL_Driver/Src/stm32u5xx_hal_pwr_ex.c ****   * @brief    Power supply control functions
 266:Drivers/STM32U5xx_HAL_Driver/Src/stm32u5xx_hal_pwr_ex.c ****   *
 267:Drivers/STM32U5xx_HAL_Driver/Src/stm32u5xx_hal_pwr_ex.c **** @verbatim
 268:Drivers/STM32U5xx_HAL_Driver/Src/stm32u5xx_hal_pwr_ex.c ****  ===============================================================================
 269:Drivers/STM32U5xx_HAL_Driver/Src/stm32u5xx_hal_pwr_ex.c ****                   ##### Power supply control functions #####
 270:Drivers/STM32U5xx_HAL_Driver/Src/stm32u5xx_hal_pwr_ex.c ****  ===============================================================================
 271:Drivers/STM32U5xx_HAL_Driver/Src/stm32u5xx_hal_pwr_ex.c ****     [..]
 272:Drivers/STM32U5xx_HAL_Driver/Src/stm32u5xx_hal_pwr_ex.c ****       This section provides functions allowing to control power supply.
 273:Drivers/STM32U5xx_HAL_Driver/Src/stm32u5xx_hal_pwr_ex.c **** 
 274:Drivers/STM32U5xx_HAL_Driver/Src/stm32u5xx_hal_pwr_ex.c ****     [..]
 275:Drivers/STM32U5xx_HAL_Driver/Src/stm32u5xx_hal_pwr_ex.c ****       (+) The STM32U5 Series devices embed two regulators : one LDO (linear
 276:Drivers/STM32U5xx_HAL_Driver/Src/stm32u5xx_hal_pwr_ex.c ****           voltage regulator) and one SMPS (step down converter) in parallel to
 277:Drivers/STM32U5xx_HAL_Driver/Src/stm32u5xx_hal_pwr_ex.c ****           provide the VCORE supply for digital peripherals, SRAM1, SRAM2, SRAM3
 278:Drivers/STM32U5xx_HAL_Driver/Src/stm32u5xx_hal_pwr_ex.c ****           and SRAM4 and embedded Flash memory.
 279:Drivers/STM32U5xx_HAL_Driver/Src/stm32u5xx_hal_pwr_ex.c **** 
 280:Drivers/STM32U5xx_HAL_Driver/Src/stm32u5xx_hal_pwr_ex.c ****       (+) The SMPS allows the power consumption to be reduced but some
 281:Drivers/STM32U5xx_HAL_Driver/Src/stm32u5xx_hal_pwr_ex.c ****           peripherals can be perturbed by the noise generated by the SMPS,
 282:Drivers/STM32U5xx_HAL_Driver/Src/stm32u5xx_hal_pwr_ex.c ****           requiring the application to switch to LDO when running this
 283:Drivers/STM32U5xx_HAL_Driver/Src/stm32u5xx_hal_pwr_ex.c ****           peripheral in order to reach the best performances.
 284:Drivers/STM32U5xx_HAL_Driver/Src/stm32u5xx_hal_pwr_ex.c **** 
 285:Drivers/STM32U5xx_HAL_Driver/Src/stm32u5xx_hal_pwr_ex.c ****       (+) The LDO and the SMPS regulators have two modes: Main regulator mode
 286:Drivers/STM32U5xx_HAL_Driver/Src/stm32u5xx_hal_pwr_ex.c ****           (used when performance is needed), and Low-power regulator mode. LDO
 287:Drivers/STM32U5xx_HAL_Driver/Src/stm32u5xx_hal_pwr_ex.c ****           or SMPS can be used in all voltage scaling ranges, and in all Stop
 288:Drivers/STM32U5xx_HAL_Driver/Src/stm32u5xx_hal_pwr_ex.c ****           modes.
 289:Drivers/STM32U5xx_HAL_Driver/Src/stm32u5xx_hal_pwr_ex.c **** 
 290:Drivers/STM32U5xx_HAL_Driver/Src/stm32u5xx_hal_pwr_ex.c ****       (+) After reset, the regulator is the LDO, in Range 4. Switching to SMPS
 291:Drivers/STM32U5xx_HAL_Driver/Src/stm32u5xx_hal_pwr_ex.c ****           provides lower consumption in particular at high VDD voltage. It is
 292:Drivers/STM32U5xx_HAL_Driver/Src/stm32u5xx_hal_pwr_ex.c ****           possible to switch from LDO to SMPS, or from SMPS to LDO on the fly in
 293:Drivers/STM32U5xx_HAL_Driver/Src/stm32u5xx_hal_pwr_ex.c ****           any range, by configuring the REGSEL bit. It is recommended to switch
 294:Drivers/STM32U5xx_HAL_Driver/Src/stm32u5xx_hal_pwr_ex.c ****           first to SMPS before changing the voltage range.
 295:Drivers/STM32U5xx_HAL_Driver/Src/stm32u5xx_hal_pwr_ex.c **** 
 296:Drivers/STM32U5xx_HAL_Driver/Src/stm32u5xx_hal_pwr_ex.c ****       (+) When exiting the Stop or Standby modes, the regulator is the same than
 297:Drivers/STM32U5xx_HAL_Driver/Src/stm32u5xx_hal_pwr_ex.c ****           when entering low power modes. The voltage range is the Range 4.
 298:Drivers/STM32U5xx_HAL_Driver/Src/stm32u5xx_hal_pwr_ex.c **** 
 299:Drivers/STM32U5xx_HAL_Driver/Src/stm32u5xx_hal_pwr_ex.c ****       (+) Both regulators can provide four different voltages (voltage scaling)
 300:Drivers/STM32U5xx_HAL_Driver/Src/stm32u5xx_hal_pwr_ex.c ****           and can operate in Stop modes.
 301:Drivers/STM32U5xx_HAL_Driver/Src/stm32u5xx_hal_pwr_ex.c ****           Voltage scaling ranges can be one of the following values :
 302:Drivers/STM32U5xx_HAL_Driver/Src/stm32u5xx_hal_pwr_ex.c ****              (++) voltage output scale 1 : 1V2
 303:Drivers/STM32U5xx_HAL_Driver/Src/stm32u5xx_hal_pwr_ex.c ****                   => Used when system clock frequency is up to 160 MHz
 304:Drivers/STM32U5xx_HAL_Driver/Src/stm32u5xx_hal_pwr_ex.c ****              (++) voltage output scale 2 : 1V1
 305:Drivers/STM32U5xx_HAL_Driver/Src/stm32u5xx_hal_pwr_ex.c ****                   => Used when system clock frequency is up to 100 MHz
 306:Drivers/STM32U5xx_HAL_Driver/Src/stm32u5xx_hal_pwr_ex.c ****              (++) voltage output scale 3 : 1V0
 307:Drivers/STM32U5xx_HAL_Driver/Src/stm32u5xx_hal_pwr_ex.c ****                   => Used when system clock frequency is up to 50 MHz
 308:Drivers/STM32U5xx_HAL_Driver/Src/stm32u5xx_hal_pwr_ex.c ****              (++) voltage output scale 4 : 0V9
 309:Drivers/STM32U5xx_HAL_Driver/Src/stm32u5xx_hal_pwr_ex.c ****                   => Used when system clock frequency is up to 24 MHz
 310:Drivers/STM32U5xx_HAL_Driver/Src/stm32u5xx_hal_pwr_ex.c **** 
 311:Drivers/STM32U5xx_HAL_Driver/Src/stm32u5xx_hal_pwr_ex.c **** @endverbatim
 312:Drivers/STM32U5xx_HAL_Driver/Src/stm32u5xx_hal_pwr_ex.c ****   * @{
 313:Drivers/STM32U5xx_HAL_Driver/Src/stm32u5xx_hal_pwr_ex.c ****   */
ARM GAS  C:\Users\Ya\AppData\Local\Temp\ccLrGXJ9.s 			page 7


 314:Drivers/STM32U5xx_HAL_Driver/Src/stm32u5xx_hal_pwr_ex.c **** 
 315:Drivers/STM32U5xx_HAL_Driver/Src/stm32u5xx_hal_pwr_ex.c **** /**
 316:Drivers/STM32U5xx_HAL_Driver/Src/stm32u5xx_hal_pwr_ex.c ****   * @brief  Configure the main internal regulator output voltage to achieve
 317:Drivers/STM32U5xx_HAL_Driver/Src/stm32u5xx_hal_pwr_ex.c ****   *         a tradeoff between performance and power consumption.
 318:Drivers/STM32U5xx_HAL_Driver/Src/stm32u5xx_hal_pwr_ex.c ****   * @param  VoltageScaling : Specifies the regulator output voltage scale.
 319:Drivers/STM32U5xx_HAL_Driver/Src/stm32u5xx_hal_pwr_ex.c ****   *                          This parameter can be one of the following values :
 320:Drivers/STM32U5xx_HAL_Driver/Src/stm32u5xx_hal_pwr_ex.c ****   *                          @arg @ref PWR_REGULATOR_VOLTAGE_SCALE1 : Regulator voltage output scal
 321:Drivers/STM32U5xx_HAL_Driver/Src/stm32u5xx_hal_pwr_ex.c ****   *                                                                   Provides a typical output vol
 322:Drivers/STM32U5xx_HAL_Driver/Src/stm32u5xx_hal_pwr_ex.c ****   *                                                                   Used when system clock freque
 323:Drivers/STM32U5xx_HAL_Driver/Src/stm32u5xx_hal_pwr_ex.c ****   *                          @arg @ref PWR_REGULATOR_VOLTAGE_SCALE2 : Regulator voltage output scal
 324:Drivers/STM32U5xx_HAL_Driver/Src/stm32u5xx_hal_pwr_ex.c ****   *                                                                   Provides a typical output vol
 325:Drivers/STM32U5xx_HAL_Driver/Src/stm32u5xx_hal_pwr_ex.c ****   *                                                                   Used when system clock freque
 326:Drivers/STM32U5xx_HAL_Driver/Src/stm32u5xx_hal_pwr_ex.c ****   *                          @arg @ref PWR_REGULATOR_VOLTAGE_SCALE3 : Regulator voltage output scal
 327:Drivers/STM32U5xx_HAL_Driver/Src/stm32u5xx_hal_pwr_ex.c ****   *                                                                   Provides a typical output vol
 328:Drivers/STM32U5xx_HAL_Driver/Src/stm32u5xx_hal_pwr_ex.c ****   *                                                                   Used when system clock freque
 329:Drivers/STM32U5xx_HAL_Driver/Src/stm32u5xx_hal_pwr_ex.c ****   *                          @arg @ref PWR_REGULATOR_VOLTAGE_SCALE4 : Regulator voltage output scal
 330:Drivers/STM32U5xx_HAL_Driver/Src/stm32u5xx_hal_pwr_ex.c ****   *                                                                   Provides a typical output vol
 331:Drivers/STM32U5xx_HAL_Driver/Src/stm32u5xx_hal_pwr_ex.c ****   *                                                                   Used when system clock freque
 332:Drivers/STM32U5xx_HAL_Driver/Src/stm32u5xx_hal_pwr_ex.c ****   * @note  Before moving to voltage scaling 2, it is mandatory to ensure that
 333:Drivers/STM32U5xx_HAL_Driver/Src/stm32u5xx_hal_pwr_ex.c ****   *        the system frequency is between 50 MHz and 100 MHz.
 334:Drivers/STM32U5xx_HAL_Driver/Src/stm32u5xx_hal_pwr_ex.c ****   * @note  Before moving to voltage scaling 3, it is mandatory to ensure that
 335:Drivers/STM32U5xx_HAL_Driver/Src/stm32u5xx_hal_pwr_ex.c ****   *        the system frequency is between 24 MHz and 50 MHz.
 336:Drivers/STM32U5xx_HAL_Driver/Src/stm32u5xx_hal_pwr_ex.c ****   * @note  Before moving to voltage scaling 4, it is mandatory to ensure that
 337:Drivers/STM32U5xx_HAL_Driver/Src/stm32u5xx_hal_pwr_ex.c ****   *        the system frequency is below 24 MHz.
 338:Drivers/STM32U5xx_HAL_Driver/Src/stm32u5xx_hal_pwr_ex.c ****   * @retval HAL Status.
 339:Drivers/STM32U5xx_HAL_Driver/Src/stm32u5xx_hal_pwr_ex.c ****   */
 340:Drivers/STM32U5xx_HAL_Driver/Src/stm32u5xx_hal_pwr_ex.c **** HAL_StatusTypeDef HAL_PWREx_ControlVoltageScaling(uint32_t VoltageScaling)
 341:Drivers/STM32U5xx_HAL_Driver/Src/stm32u5xx_hal_pwr_ex.c **** {
  31              		.loc 1 341 1 view -0
  32              		.cfi_startproc
  33              		@ args = 0, pretend = 0, frame = 0
  34              		@ frame_needed = 0, uses_anonymous_args = 0
  35              		@ link register save eliminated.
 342:Drivers/STM32U5xx_HAL_Driver/Src/stm32u5xx_hal_pwr_ex.c ****   uint32_t timeout;
  36              		.loc 1 342 3 view .LVU1
 343:Drivers/STM32U5xx_HAL_Driver/Src/stm32u5xx_hal_pwr_ex.c ****   uint32_t vos_old;
  37              		.loc 1 343 3 view .LVU2
 344:Drivers/STM32U5xx_HAL_Driver/Src/stm32u5xx_hal_pwr_ex.c **** 
 345:Drivers/STM32U5xx_HAL_Driver/Src/stm32u5xx_hal_pwr_ex.c ****   /* Check the parameter */
 346:Drivers/STM32U5xx_HAL_Driver/Src/stm32u5xx_hal_pwr_ex.c ****   assert_param(IS_PWR_VOLTAGE_SCALING_RANGE(VoltageScaling));
  38              		.loc 1 346 3 view .LVU3
 347:Drivers/STM32U5xx_HAL_Driver/Src/stm32u5xx_hal_pwr_ex.c **** 
 348:Drivers/STM32U5xx_HAL_Driver/Src/stm32u5xx_hal_pwr_ex.c ****   /* Get the current voltage scale applied */
 349:Drivers/STM32U5xx_HAL_Driver/Src/stm32u5xx_hal_pwr_ex.c ****   vos_old = READ_BIT(PWR->SVMSR, PWR_SVMSR_ACTVOS);
  39              		.loc 1 349 3 view .LVU4
  40              		.loc 1 349 13 is_stmt 0 view .LVU5
  41 0000 244B     		ldr	r3, .L15
  42 0002 DB6B     		ldr	r3, [r3, #60]
  43              		.loc 1 349 11 view .LVU6
  44 0004 03F44033 		and	r3, r3, #196608
  45              	.LVL1:
 350:Drivers/STM32U5xx_HAL_Driver/Src/stm32u5xx_hal_pwr_ex.c **** 
 351:Drivers/STM32U5xx_HAL_Driver/Src/stm32u5xx_hal_pwr_ex.c ****   /* No change, nothing to do */
 352:Drivers/STM32U5xx_HAL_Driver/Src/stm32u5xx_hal_pwr_ex.c ****   if (vos_old == VoltageScaling)
  46              		.loc 1 352 3 is_stmt 1 view .LVU7
  47              		.loc 1 352 6 is_stmt 0 view .LVU8
  48 0008 8342     		cmp	r3, r0
ARM GAS  C:\Users\Ya\AppData\Local\Temp\ccLrGXJ9.s 			page 8


  49 000a 19D0     		beq	.L14
 353:Drivers/STM32U5xx_HAL_Driver/Src/stm32u5xx_hal_pwr_ex.c ****   {
 354:Drivers/STM32U5xx_HAL_Driver/Src/stm32u5xx_hal_pwr_ex.c ****     /* Enable USB BOOST after wake up from Stop mode */
 355:Drivers/STM32U5xx_HAL_Driver/Src/stm32u5xx_hal_pwr_ex.c ****     if (VoltageScaling > PWR_REGULATOR_VOLTAGE_SCALE3)
 356:Drivers/STM32U5xx_HAL_Driver/Src/stm32u5xx_hal_pwr_ex.c ****     {
 357:Drivers/STM32U5xx_HAL_Driver/Src/stm32u5xx_hal_pwr_ex.c ****       /* Enable USB BOOST */
 358:Drivers/STM32U5xx_HAL_Driver/Src/stm32u5xx_hal_pwr_ex.c ****       SET_BIT(PWR->VOSR, PWR_VOSR_BOOSTEN);
 359:Drivers/STM32U5xx_HAL_Driver/Src/stm32u5xx_hal_pwr_ex.c ****     }
 360:Drivers/STM32U5xx_HAL_Driver/Src/stm32u5xx_hal_pwr_ex.c **** 
 361:Drivers/STM32U5xx_HAL_Driver/Src/stm32u5xx_hal_pwr_ex.c ****     return HAL_OK;
 362:Drivers/STM32U5xx_HAL_Driver/Src/stm32u5xx_hal_pwr_ex.c ****   }
 363:Drivers/STM32U5xx_HAL_Driver/Src/stm32u5xx_hal_pwr_ex.c **** 
 364:Drivers/STM32U5xx_HAL_Driver/Src/stm32u5xx_hal_pwr_ex.c ****   /* Check voltage scaling level */
 365:Drivers/STM32U5xx_HAL_Driver/Src/stm32u5xx_hal_pwr_ex.c ****   /*
 366:Drivers/STM32U5xx_HAL_Driver/Src/stm32u5xx_hal_pwr_ex.c ****    *  The Embedded power distribution (EPOD) must be enabled before switching to
 367:Drivers/STM32U5xx_HAL_Driver/Src/stm32u5xx_hal_pwr_ex.c ****    *  voltage scale 1 / 2 from voltage scale lower.
 368:Drivers/STM32U5xx_HAL_Driver/Src/stm32u5xx_hal_pwr_ex.c ****    */
 369:Drivers/STM32U5xx_HAL_Driver/Src/stm32u5xx_hal_pwr_ex.c ****   if (VoltageScaling > PWR_REGULATOR_VOLTAGE_SCALE3)
  50              		.loc 1 369 3 is_stmt 1 view .LVU9
  51              		.loc 1 369 6 is_stmt 0 view .LVU10
  52 000c B0F5803F 		cmp	r0, #65536
  53 0010 20D9     		bls	.L5
 370:Drivers/STM32U5xx_HAL_Driver/Src/stm32u5xx_hal_pwr_ex.c ****   {
 371:Drivers/STM32U5xx_HAL_Driver/Src/stm32u5xx_hal_pwr_ex.c ****     MODIFY_REG(PWR->VOSR, (PWR_VOSR_VOS | PWR_VOSR_BOOSTEN), (VoltageScaling | PWR_VOSR_BOOSTEN));
  54              		.loc 1 371 5 is_stmt 1 view .LVU11
  55 0012 204A     		ldr	r2, .L15
  56 0014 D368     		ldr	r3, [r2, #12]
  57              	.LVL2:
  58              		.loc 1 371 5 is_stmt 0 view .LVU12
  59 0016 23F4E023 		bic	r3, r3, #458752
  60 001a 0343     		orrs	r3, r3, r0
  61 001c 43F48023 		orr	r3, r3, #262144
  62 0020 D360     		str	r3, [r2, #12]
  63              	.L6:
 372:Drivers/STM32U5xx_HAL_Driver/Src/stm32u5xx_hal_pwr_ex.c ****   }
 373:Drivers/STM32U5xx_HAL_Driver/Src/stm32u5xx_hal_pwr_ex.c ****   else
 374:Drivers/STM32U5xx_HAL_Driver/Src/stm32u5xx_hal_pwr_ex.c ****   {
 375:Drivers/STM32U5xx_HAL_Driver/Src/stm32u5xx_hal_pwr_ex.c ****     MODIFY_REG(PWR->VOSR, (PWR_VOSR_VOS | PWR_VOSR_BOOSTEN), VoltageScaling);
 376:Drivers/STM32U5xx_HAL_Driver/Src/stm32u5xx_hal_pwr_ex.c ****   }
 377:Drivers/STM32U5xx_HAL_Driver/Src/stm32u5xx_hal_pwr_ex.c **** 
 378:Drivers/STM32U5xx_HAL_Driver/Src/stm32u5xx_hal_pwr_ex.c ****   /* Wait until VOSRDY is raised */
 379:Drivers/STM32U5xx_HAL_Driver/Src/stm32u5xx_hal_pwr_ex.c ****   timeout = ((PWR_FLAG_SETTING_DELAY * (SystemCoreClock / 1000U)) / 1000U) + 1U;
  64              		.loc 1 379 3 is_stmt 1 view .LVU13
  65              		.loc 1 379 57 is_stmt 0 view .LVU14
  66 0022 1D4B     		ldr	r3, .L15+4
  67 0024 1B68     		ldr	r3, [r3]
  68 0026 1D4A     		ldr	r2, .L15+8
  69 0028 A2FB0313 		umull	r1, r3, r2, r3
  70 002c 9B09     		lsrs	r3, r3, #6
  71              		.loc 1 379 38 view .LVU15
  72 002e 3221     		movs	r1, #50
  73 0030 01FB03F3 		mul	r3, r1, r3
  74              		.loc 1 379 67 view .LVU16
  75 0034 A2FB0323 		umull	r2, r3, r2, r3
  76 0038 9B09     		lsrs	r3, r3, #6
  77              		.loc 1 379 11 view .LVU17
  78 003a 0133     		adds	r3, r3, #1
ARM GAS  C:\Users\Ya\AppData\Local\Temp\ccLrGXJ9.s 			page 9


  79              	.LVL3:
 380:Drivers/STM32U5xx_HAL_Driver/Src/stm32u5xx_hal_pwr_ex.c ****   while (HAL_IS_BIT_CLR(PWR->VOSR, PWR_VOSR_VOSRDY) && (timeout != 0U))
  80              		.loc 1 380 3 is_stmt 1 view .LVU18
 379:Drivers/STM32U5xx_HAL_Driver/Src/stm32u5xx_hal_pwr_ex.c ****   while (HAL_IS_BIT_CLR(PWR->VOSR, PWR_VOSR_VOSRDY) && (timeout != 0U))
  81              		.loc 1 379 11 is_stmt 0 view .LVU19
  82 003c 1A46     		mov	r2, r3
  83              		.loc 1 380 9 view .LVU20
  84 003e 11E0     		b	.L7
  85              	.LVL4:
  86              	.L14:
 355:Drivers/STM32U5xx_HAL_Driver/Src/stm32u5xx_hal_pwr_ex.c ****     {
  87              		.loc 1 355 5 is_stmt 1 view .LVU21
 355:Drivers/STM32U5xx_HAL_Driver/Src/stm32u5xx_hal_pwr_ex.c ****     {
  88              		.loc 1 355 8 is_stmt 0 view .LVU22
  89 0040 B0F5803F 		cmp	r0, #65536
  90 0044 04D9     		bls	.L3
 358:Drivers/STM32U5xx_HAL_Driver/Src/stm32u5xx_hal_pwr_ex.c ****     }
  91              		.loc 1 358 7 is_stmt 1 view .LVU23
  92 0046 134A     		ldr	r2, .L15
  93 0048 D368     		ldr	r3, [r2, #12]
  94              	.LVL5:
 358:Drivers/STM32U5xx_HAL_Driver/Src/stm32u5xx_hal_pwr_ex.c ****     }
  95              		.loc 1 358 7 is_stmt 0 view .LVU24
  96 004a 43F48023 		orr	r3, r3, #262144
  97 004e D360     		str	r3, [r2, #12]
  98              	.L3:
 361:Drivers/STM32U5xx_HAL_Driver/Src/stm32u5xx_hal_pwr_ex.c ****   }
  99              		.loc 1 361 5 is_stmt 1 view .LVU25
 361:Drivers/STM32U5xx_HAL_Driver/Src/stm32u5xx_hal_pwr_ex.c ****   }
 100              		.loc 1 361 12 is_stmt 0 view .LVU26
 101 0050 0020     		movs	r0, #0
 102              	.LVL6:
 361:Drivers/STM32U5xx_HAL_Driver/Src/stm32u5xx_hal_pwr_ex.c ****   }
 103              		.loc 1 361 12 view .LVU27
 104 0052 7047     		bx	lr
 105              	.LVL7:
 106              	.L5:
 375:Drivers/STM32U5xx_HAL_Driver/Src/stm32u5xx_hal_pwr_ex.c ****   }
 107              		.loc 1 375 5 is_stmt 1 view .LVU28
 108 0054 0F4A     		ldr	r2, .L15
 109 0056 D368     		ldr	r3, [r2, #12]
 110              	.LVL8:
 375:Drivers/STM32U5xx_HAL_Driver/Src/stm32u5xx_hal_pwr_ex.c ****   }
 111              		.loc 1 375 5 is_stmt 0 view .LVU29
 112 0058 23F4E023 		bic	r3, r3, #458752
 113 005c 0343     		orrs	r3, r3, r0
 114 005e D360     		str	r3, [r2, #12]
 115 0060 DFE7     		b	.L6
 116              	.LVL9:
 117              	.L9:
 381:Drivers/STM32U5xx_HAL_Driver/Src/stm32u5xx_hal_pwr_ex.c ****   {
 382:Drivers/STM32U5xx_HAL_Driver/Src/stm32u5xx_hal_pwr_ex.c ****     timeout--;
 118              		.loc 1 382 5 is_stmt 1 view .LVU30
 119              		.loc 1 382 12 is_stmt 0 view .LVU31
 120 0062 013A     		subs	r2, r2, #1
 121              	.LVL10:
 122              	.L7:
ARM GAS  C:\Users\Ya\AppData\Local\Temp\ccLrGXJ9.s 			page 10


 380:Drivers/STM32U5xx_HAL_Driver/Src/stm32u5xx_hal_pwr_ex.c ****   {
 123              		.loc 1 380 53 is_stmt 1 view .LVU32
 380:Drivers/STM32U5xx_HAL_Driver/Src/stm32u5xx_hal_pwr_ex.c ****   {
 124              		.loc 1 380 10 is_stmt 0 view .LVU33
 125 0064 0B49     		ldr	r1, .L15
 126 0066 C968     		ldr	r1, [r1, #12]
 380:Drivers/STM32U5xx_HAL_Driver/Src/stm32u5xx_hal_pwr_ex.c ****   {
 127              		.loc 1 380 53 view .LVU34
 128 0068 11F4004F 		tst	r1, #32768
 129 006c 01D1     		bne	.L8
 380:Drivers/STM32U5xx_HAL_Driver/Src/stm32u5xx_hal_pwr_ex.c ****   {
 130              		.loc 1 380 53 discriminator 1 view .LVU35
 131 006e 002A     		cmp	r2, #0
 132 0070 F7D1     		bne	.L9
 133              	.L8:
 383:Drivers/STM32U5xx_HAL_Driver/Src/stm32u5xx_hal_pwr_ex.c ****   }
 384:Drivers/STM32U5xx_HAL_Driver/Src/stm32u5xx_hal_pwr_ex.c **** 
 385:Drivers/STM32U5xx_HAL_Driver/Src/stm32u5xx_hal_pwr_ex.c ****   /* Check time out */
 386:Drivers/STM32U5xx_HAL_Driver/Src/stm32u5xx_hal_pwr_ex.c ****   if (timeout != 0U)
 134              		.loc 1 386 3 is_stmt 1 view .LVU36
 135              		.loc 1 386 6 is_stmt 0 view .LVU37
 136 0072 12B9     		cbnz	r2, .L10
 387:Drivers/STM32U5xx_HAL_Driver/Src/stm32u5xx_hal_pwr_ex.c ****   {
 388:Drivers/STM32U5xx_HAL_Driver/Src/stm32u5xx_hal_pwr_ex.c ****     /* Wait until ACTVOSRDY is raised */
 389:Drivers/STM32U5xx_HAL_Driver/Src/stm32u5xx_hal_pwr_ex.c ****     timeout = ((PWR_FLAG_SETTING_DELAY * (SystemCoreClock / 1000U)) / 1000U) + 1U;
 390:Drivers/STM32U5xx_HAL_Driver/Src/stm32u5xx_hal_pwr_ex.c ****     while ((HAL_IS_BIT_CLR(PWR->SVMSR, PWR_SVMSR_ACTVOSRDY)) && (timeout != 0U))
 391:Drivers/STM32U5xx_HAL_Driver/Src/stm32u5xx_hal_pwr_ex.c ****     {
 392:Drivers/STM32U5xx_HAL_Driver/Src/stm32u5xx_hal_pwr_ex.c ****       timeout--;
 393:Drivers/STM32U5xx_HAL_Driver/Src/stm32u5xx_hal_pwr_ex.c ****     }
 394:Drivers/STM32U5xx_HAL_Driver/Src/stm32u5xx_hal_pwr_ex.c ****   }
 395:Drivers/STM32U5xx_HAL_Driver/Src/stm32u5xx_hal_pwr_ex.c **** 
 396:Drivers/STM32U5xx_HAL_Driver/Src/stm32u5xx_hal_pwr_ex.c ****   /* Check time out */
 397:Drivers/STM32U5xx_HAL_Driver/Src/stm32u5xx_hal_pwr_ex.c ****   if (timeout == 0U)
 398:Drivers/STM32U5xx_HAL_Driver/Src/stm32u5xx_hal_pwr_ex.c ****   {
 399:Drivers/STM32U5xx_HAL_Driver/Src/stm32u5xx_hal_pwr_ex.c ****     return HAL_TIMEOUT;
 137              		.loc 1 399 12 view .LVU38
 138 0074 0320     		movs	r0, #3
 139              	.LVL11:
 140              		.loc 1 399 12 view .LVU39
 141 0076 7047     		bx	lr
 142              	.LVL12:
 143              	.L12:
 392:Drivers/STM32U5xx_HAL_Driver/Src/stm32u5xx_hal_pwr_ex.c ****     }
 144              		.loc 1 392 7 is_stmt 1 view .LVU40
 392:Drivers/STM32U5xx_HAL_Driver/Src/stm32u5xx_hal_pwr_ex.c ****     }
 145              		.loc 1 392 14 is_stmt 0 view .LVU41
 146 0078 013B     		subs	r3, r3, #1
 147              	.LVL13:
 148              	.L10:
 390:Drivers/STM32U5xx_HAL_Driver/Src/stm32u5xx_hal_pwr_ex.c ****     {
 149              		.loc 1 390 62 is_stmt 1 view .LVU42
 390:Drivers/STM32U5xx_HAL_Driver/Src/stm32u5xx_hal_pwr_ex.c ****     {
 150              		.loc 1 390 13 is_stmt 0 view .LVU43
 151 007a 064A     		ldr	r2, .L15
 152 007c D26B     		ldr	r2, [r2, #60]
 390:Drivers/STM32U5xx_HAL_Driver/Src/stm32u5xx_hal_pwr_ex.c ****     {
 153              		.loc 1 390 62 view .LVU44
ARM GAS  C:\Users\Ya\AppData\Local\Temp\ccLrGXJ9.s 			page 11


 154 007e 12F4004F 		tst	r2, #32768
 155 0082 01D1     		bne	.L11
 390:Drivers/STM32U5xx_HAL_Driver/Src/stm32u5xx_hal_pwr_ex.c ****     {
 156              		.loc 1 390 62 discriminator 1 view .LVU45
 157 0084 002B     		cmp	r3, #0
 158 0086 F7D1     		bne	.L12
 159              	.L11:
 397:Drivers/STM32U5xx_HAL_Driver/Src/stm32u5xx_hal_pwr_ex.c ****   {
 160              		.loc 1 397 3 is_stmt 1 view .LVU46
 397:Drivers/STM32U5xx_HAL_Driver/Src/stm32u5xx_hal_pwr_ex.c ****   {
 161              		.loc 1 397 6 is_stmt 0 view .LVU47
 162 0088 0BB1     		cbz	r3, .L13
 400:Drivers/STM32U5xx_HAL_Driver/Src/stm32u5xx_hal_pwr_ex.c ****   }
 401:Drivers/STM32U5xx_HAL_Driver/Src/stm32u5xx_hal_pwr_ex.c **** 
 402:Drivers/STM32U5xx_HAL_Driver/Src/stm32u5xx_hal_pwr_ex.c ****   return HAL_OK;
 163              		.loc 1 402 10 view .LVU48
 164 008a 0020     		movs	r0, #0
 165              	.LVL14:
 166              		.loc 1 402 10 view .LVU49
 167 008c 7047     		bx	lr
 168              	.LVL15:
 169              	.L13:
 399:Drivers/STM32U5xx_HAL_Driver/Src/stm32u5xx_hal_pwr_ex.c ****   }
 170              		.loc 1 399 12 view .LVU50
 171 008e 0320     		movs	r0, #3
 172              	.LVL16:
 403:Drivers/STM32U5xx_HAL_Driver/Src/stm32u5xx_hal_pwr_ex.c **** }
 173              		.loc 1 403 1 view .LVU51
 174 0090 7047     		bx	lr
 175              	.L16:
 176 0092 00BF     		.align	2
 177              	.L15:
 178 0094 00080246 		.word	1174538240
 179 0098 00000000 		.word	SystemCoreClock
 180 009c D34D6210 		.word	274877907
 181              		.cfi_endproc
 182              	.LFE340:
 184              		.section	.text.HAL_PWREx_GetVoltageRange,"ax",%progbits
 185              		.align	1
 186              		.global	HAL_PWREx_GetVoltageRange
 187              		.syntax unified
 188              		.thumb
 189              		.thumb_func
 191              	HAL_PWREx_GetVoltageRange:
 192              	.LFB341:
 404:Drivers/STM32U5xx_HAL_Driver/Src/stm32u5xx_hal_pwr_ex.c **** 
 405:Drivers/STM32U5xx_HAL_Driver/Src/stm32u5xx_hal_pwr_ex.c **** /**
 406:Drivers/STM32U5xx_HAL_Driver/Src/stm32u5xx_hal_pwr_ex.c ****   * @brief  Return Voltage Scaling Range.
 407:Drivers/STM32U5xx_HAL_Driver/Src/stm32u5xx_hal_pwr_ex.c ****   * @retval Applied voltage scaling value.
 408:Drivers/STM32U5xx_HAL_Driver/Src/stm32u5xx_hal_pwr_ex.c ****   */
 409:Drivers/STM32U5xx_HAL_Driver/Src/stm32u5xx_hal_pwr_ex.c **** uint32_t HAL_PWREx_GetVoltageRange(void)
 410:Drivers/STM32U5xx_HAL_Driver/Src/stm32u5xx_hal_pwr_ex.c **** {
 193              		.loc 1 410 1 is_stmt 1 view -0
 194              		.cfi_startproc
 195              		@ args = 0, pretend = 0, frame = 0
 196              		@ frame_needed = 0, uses_anonymous_args = 0
 197              		@ link register save eliminated.
ARM GAS  C:\Users\Ya\AppData\Local\Temp\ccLrGXJ9.s 			page 12


 411:Drivers/STM32U5xx_HAL_Driver/Src/stm32u5xx_hal_pwr_ex.c ****   return (PWR->SVMSR & PWR_SVMSR_ACTVOS);
 198              		.loc 1 411 3 view .LVU53
 199              		.loc 1 411 14 is_stmt 0 view .LVU54
 200 0000 024B     		ldr	r3, .L18
 201 0002 D86B     		ldr	r0, [r3, #60]
 412:Drivers/STM32U5xx_HAL_Driver/Src/stm32u5xx_hal_pwr_ex.c **** }
 202              		.loc 1 412 1 view .LVU55
 203 0004 00F44030 		and	r0, r0, #196608
 204 0008 7047     		bx	lr
 205              	.L19:
 206 000a 00BF     		.align	2
 207              	.L18:
 208 000c 00080246 		.word	1174538240
 209              		.cfi_endproc
 210              	.LFE341:
 212              		.section	.text.HAL_PWREx_ConfigSupply,"ax",%progbits
 213              		.align	1
 214              		.global	HAL_PWREx_ConfigSupply
 215              		.syntax unified
 216              		.thumb
 217              		.thumb_func
 219              	HAL_PWREx_ConfigSupply:
 220              	.LVL17:
 221              	.LFB342:
 413:Drivers/STM32U5xx_HAL_Driver/Src/stm32u5xx_hal_pwr_ex.c **** 
 414:Drivers/STM32U5xx_HAL_Driver/Src/stm32u5xx_hal_pwr_ex.c **** /**
 415:Drivers/STM32U5xx_HAL_Driver/Src/stm32u5xx_hal_pwr_ex.c ****   * @brief  Configure the system Power Supply.
 416:Drivers/STM32U5xx_HAL_Driver/Src/stm32u5xx_hal_pwr_ex.c ****   * @param  SupplySource : Specifies the Power Supply source to set after a
 417:Drivers/STM32U5xx_HAL_Driver/Src/stm32u5xx_hal_pwr_ex.c ****   *                        system startup.
 418:Drivers/STM32U5xx_HAL_Driver/Src/stm32u5xx_hal_pwr_ex.c ****   *                        This parameter can be one of the following values :
 419:Drivers/STM32U5xx_HAL_Driver/Src/stm32u5xx_hal_pwr_ex.c ****   *                        @arg PWR_LDO_SUPPLY  : The LDO regulator supplies the Vcore Power Domain
 420:Drivers/STM32U5xx_HAL_Driver/Src/stm32u5xx_hal_pwr_ex.c ****   *                        @arg PWR_SMPS_SUPPLY : The SMPS regulator supplies the Vcore Power Domai
 421:Drivers/STM32U5xx_HAL_Driver/Src/stm32u5xx_hal_pwr_ex.c ****   * @retval HAL Status.
 422:Drivers/STM32U5xx_HAL_Driver/Src/stm32u5xx_hal_pwr_ex.c ****   */
 423:Drivers/STM32U5xx_HAL_Driver/Src/stm32u5xx_hal_pwr_ex.c **** HAL_StatusTypeDef HAL_PWREx_ConfigSupply(uint32_t SupplySource)
 424:Drivers/STM32U5xx_HAL_Driver/Src/stm32u5xx_hal_pwr_ex.c **** {
 222              		.loc 1 424 1 is_stmt 1 view -0
 223              		.cfi_startproc
 224              		@ args = 0, pretend = 0, frame = 0
 225              		@ frame_needed = 0, uses_anonymous_args = 0
 226              		@ link register save eliminated.
 425:Drivers/STM32U5xx_HAL_Driver/Src/stm32u5xx_hal_pwr_ex.c ****   uint32_t timeout;
 227              		.loc 1 425 3 view .LVU57
 426:Drivers/STM32U5xx_HAL_Driver/Src/stm32u5xx_hal_pwr_ex.c **** 
 427:Drivers/STM32U5xx_HAL_Driver/Src/stm32u5xx_hal_pwr_ex.c ****   /* Check the parameter */
 428:Drivers/STM32U5xx_HAL_Driver/Src/stm32u5xx_hal_pwr_ex.c ****   assert_param(IS_PWR_SUPPLY(SupplySource));
 228              		.loc 1 428 3 view .LVU58
 429:Drivers/STM32U5xx_HAL_Driver/Src/stm32u5xx_hal_pwr_ex.c **** 
 430:Drivers/STM32U5xx_HAL_Driver/Src/stm32u5xx_hal_pwr_ex.c ****   /* Set maximum time out */
 431:Drivers/STM32U5xx_HAL_Driver/Src/stm32u5xx_hal_pwr_ex.c ****   timeout = ((PWR_FLAG_SETTING_DELAY * (SystemCoreClock / 1000U)) / 1000U) + 1U;
 229              		.loc 1 431 3 view .LVU59
 230              		.loc 1 431 57 is_stmt 0 view .LVU60
 231 0000 174B     		ldr	r3, .L29
 232 0002 1B68     		ldr	r3, [r3]
 233 0004 174A     		ldr	r2, .L29+4
 234 0006 A2FB0313 		umull	r1, r3, r2, r3
 235 000a 9B09     		lsrs	r3, r3, #6
ARM GAS  C:\Users\Ya\AppData\Local\Temp\ccLrGXJ9.s 			page 13


 236              		.loc 1 431 38 view .LVU61
 237 000c 3221     		movs	r1, #50
 238 000e 01FB03F3 		mul	r3, r1, r3
 239              		.loc 1 431 67 view .LVU62
 240 0012 A2FB0323 		umull	r2, r3, r2, r3
 241 0016 9B09     		lsrs	r3, r3, #6
 242              		.loc 1 431 11 view .LVU63
 243 0018 0133     		adds	r3, r3, #1
 244              	.LVL18:
 432:Drivers/STM32U5xx_HAL_Driver/Src/stm32u5xx_hal_pwr_ex.c **** 
 433:Drivers/STM32U5xx_HAL_Driver/Src/stm32u5xx_hal_pwr_ex.c ****   /* Configure the LDO as system regulator supply */
 434:Drivers/STM32U5xx_HAL_Driver/Src/stm32u5xx_hal_pwr_ex.c ****   if (SupplySource == PWR_LDO_SUPPLY)
 245              		.loc 1 434 3 is_stmt 1 view .LVU64
 246              		.loc 1 434 6 is_stmt 0 view .LVU65
 247 001a 80B9     		cbnz	r0, .L21
 435:Drivers/STM32U5xx_HAL_Driver/Src/stm32u5xx_hal_pwr_ex.c ****   {
 436:Drivers/STM32U5xx_HAL_Driver/Src/stm32u5xx_hal_pwr_ex.c ****     /* Set the power supply configuration */
 437:Drivers/STM32U5xx_HAL_Driver/Src/stm32u5xx_hal_pwr_ex.c ****     CLEAR_BIT(PWR->CR3, PWR_CR3_REGSEL);
 248              		.loc 1 437 5 is_stmt 1 view .LVU66
 249 001c 1249     		ldr	r1, .L29+8
 250 001e 8A68     		ldr	r2, [r1, #8]
 251 0020 22F00202 		bic	r2, r2, #2
 252 0024 8A60     		str	r2, [r1, #8]
 438:Drivers/STM32U5xx_HAL_Driver/Src/stm32u5xx_hal_pwr_ex.c **** 
 439:Drivers/STM32U5xx_HAL_Driver/Src/stm32u5xx_hal_pwr_ex.c ****     /* Wait until system switch on new regulator */
 440:Drivers/STM32U5xx_HAL_Driver/Src/stm32u5xx_hal_pwr_ex.c ****     while (HAL_IS_BIT_SET(PWR->SVMSR, PWR_SVMSR_REGS) && (timeout != 0U))
 253              		.loc 1 440 5 view .LVU67
 254              		.loc 1 440 11 is_stmt 0 view .LVU68
 255 0026 00E0     		b	.L22
 256              	.L24:
 441:Drivers/STM32U5xx_HAL_Driver/Src/stm32u5xx_hal_pwr_ex.c ****     {
 442:Drivers/STM32U5xx_HAL_Driver/Src/stm32u5xx_hal_pwr_ex.c ****       timeout--;
 257              		.loc 1 442 7 is_stmt 1 view .LVU69
 258              		.loc 1 442 14 is_stmt 0 view .LVU70
 259 0028 013B     		subs	r3, r3, #1
 260              	.LVL19:
 261              	.L22:
 440:Drivers/STM32U5xx_HAL_Driver/Src/stm32u5xx_hal_pwr_ex.c ****     {
 262              		.loc 1 440 55 is_stmt 1 view .LVU71
 440:Drivers/STM32U5xx_HAL_Driver/Src/stm32u5xx_hal_pwr_ex.c ****     {
 263              		.loc 1 440 12 is_stmt 0 view .LVU72
 264 002a 0F4A     		ldr	r2, .L29+8
 265 002c D26B     		ldr	r2, [r2, #60]
 440:Drivers/STM32U5xx_HAL_Driver/Src/stm32u5xx_hal_pwr_ex.c ****     {
 266              		.loc 1 440 55 view .LVU73
 267 002e 12F0020F 		tst	r2, #2
 268 0032 01D0     		beq	.L23
 440:Drivers/STM32U5xx_HAL_Driver/Src/stm32u5xx_hal_pwr_ex.c ****     {
 269              		.loc 1 440 55 discriminator 1 view .LVU74
 270 0034 002B     		cmp	r3, #0
 271 0036 F7D1     		bne	.L24
 272              	.L23:
 443:Drivers/STM32U5xx_HAL_Driver/Src/stm32u5xx_hal_pwr_ex.c ****     }
 444:Drivers/STM32U5xx_HAL_Driver/Src/stm32u5xx_hal_pwr_ex.c ****   }
 445:Drivers/STM32U5xx_HAL_Driver/Src/stm32u5xx_hal_pwr_ex.c ****   /* Configure the SMPS as system regulator supply */
 446:Drivers/STM32U5xx_HAL_Driver/Src/stm32u5xx_hal_pwr_ex.c ****   else
 447:Drivers/STM32U5xx_HAL_Driver/Src/stm32u5xx_hal_pwr_ex.c ****   {
ARM GAS  C:\Users\Ya\AppData\Local\Temp\ccLrGXJ9.s 			page 14


 448:Drivers/STM32U5xx_HAL_Driver/Src/stm32u5xx_hal_pwr_ex.c ****     /* Set the power supply configuration */
 449:Drivers/STM32U5xx_HAL_Driver/Src/stm32u5xx_hal_pwr_ex.c ****     SET_BIT(PWR->CR3, PWR_CR3_REGSEL);
 450:Drivers/STM32U5xx_HAL_Driver/Src/stm32u5xx_hal_pwr_ex.c **** 
 451:Drivers/STM32U5xx_HAL_Driver/Src/stm32u5xx_hal_pwr_ex.c ****     /* Wait until system switch on new regulator */
 452:Drivers/STM32U5xx_HAL_Driver/Src/stm32u5xx_hal_pwr_ex.c ****     while (HAL_IS_BIT_CLR(PWR->SVMSR, PWR_SVMSR_REGS) && (timeout != 0U))
 453:Drivers/STM32U5xx_HAL_Driver/Src/stm32u5xx_hal_pwr_ex.c ****     {
 454:Drivers/STM32U5xx_HAL_Driver/Src/stm32u5xx_hal_pwr_ex.c ****       timeout--;
 455:Drivers/STM32U5xx_HAL_Driver/Src/stm32u5xx_hal_pwr_ex.c ****     }
 456:Drivers/STM32U5xx_HAL_Driver/Src/stm32u5xx_hal_pwr_ex.c ****   }
 457:Drivers/STM32U5xx_HAL_Driver/Src/stm32u5xx_hal_pwr_ex.c **** 
 458:Drivers/STM32U5xx_HAL_Driver/Src/stm32u5xx_hal_pwr_ex.c ****   /* Check time out */
 459:Drivers/STM32U5xx_HAL_Driver/Src/stm32u5xx_hal_pwr_ex.c ****   if (timeout == 0U)
 273              		.loc 1 459 3 is_stmt 1 view .LVU75
 274              		.loc 1 459 6 is_stmt 0 view .LVU76
 275 0038 83B1     		cbz	r3, .L28
 460:Drivers/STM32U5xx_HAL_Driver/Src/stm32u5xx_hal_pwr_ex.c ****   {
 461:Drivers/STM32U5xx_HAL_Driver/Src/stm32u5xx_hal_pwr_ex.c ****     return HAL_TIMEOUT;
 462:Drivers/STM32U5xx_HAL_Driver/Src/stm32u5xx_hal_pwr_ex.c ****   }
 463:Drivers/STM32U5xx_HAL_Driver/Src/stm32u5xx_hal_pwr_ex.c **** 
 464:Drivers/STM32U5xx_HAL_Driver/Src/stm32u5xx_hal_pwr_ex.c ****   return HAL_OK;
 276              		.loc 1 464 10 view .LVU77
 277 003a 0020     		movs	r0, #0
 278              	.LVL20:
 279              		.loc 1 464 10 view .LVU78
 280 003c 7047     		bx	lr
 281              	.LVL21:
 282              	.L21:
 449:Drivers/STM32U5xx_HAL_Driver/Src/stm32u5xx_hal_pwr_ex.c **** 
 283              		.loc 1 449 5 is_stmt 1 view .LVU79
 284 003e 0A49     		ldr	r1, .L29+8
 285 0040 8A68     		ldr	r2, [r1, #8]
 286 0042 42F00202 		orr	r2, r2, #2
 287 0046 8A60     		str	r2, [r1, #8]
 452:Drivers/STM32U5xx_HAL_Driver/Src/stm32u5xx_hal_pwr_ex.c ****     {
 288              		.loc 1 452 5 view .LVU80
 452:Drivers/STM32U5xx_HAL_Driver/Src/stm32u5xx_hal_pwr_ex.c ****     {
 289              		.loc 1 452 11 is_stmt 0 view .LVU81
 290 0048 00E0     		b	.L25
 291              	.L26:
 454:Drivers/STM32U5xx_HAL_Driver/Src/stm32u5xx_hal_pwr_ex.c ****     }
 292              		.loc 1 454 7 is_stmt 1 view .LVU82
 454:Drivers/STM32U5xx_HAL_Driver/Src/stm32u5xx_hal_pwr_ex.c ****     }
 293              		.loc 1 454 14 is_stmt 0 view .LVU83
 294 004a 013B     		subs	r3, r3, #1
 295              	.LVL22:
 296              	.L25:
 452:Drivers/STM32U5xx_HAL_Driver/Src/stm32u5xx_hal_pwr_ex.c ****     {
 297              		.loc 1 452 55 is_stmt 1 view .LVU84
 452:Drivers/STM32U5xx_HAL_Driver/Src/stm32u5xx_hal_pwr_ex.c ****     {
 298              		.loc 1 452 12 is_stmt 0 view .LVU85
 299 004c 064A     		ldr	r2, .L29+8
 300 004e D26B     		ldr	r2, [r2, #60]
 452:Drivers/STM32U5xx_HAL_Driver/Src/stm32u5xx_hal_pwr_ex.c ****     {
 301              		.loc 1 452 55 view .LVU86
 302 0050 12F0020F 		tst	r2, #2
 303 0054 F0D1     		bne	.L23
 452:Drivers/STM32U5xx_HAL_Driver/Src/stm32u5xx_hal_pwr_ex.c ****     {
ARM GAS  C:\Users\Ya\AppData\Local\Temp\ccLrGXJ9.s 			page 15


 304              		.loc 1 452 55 discriminator 1 view .LVU87
 305 0056 002B     		cmp	r3, #0
 306 0058 F7D1     		bne	.L26
 307 005a EDE7     		b	.L23
 308              	.L28:
 461:Drivers/STM32U5xx_HAL_Driver/Src/stm32u5xx_hal_pwr_ex.c ****   }
 309              		.loc 1 461 12 view .LVU88
 310 005c 0320     		movs	r0, #3
 311              	.LVL23:
 465:Drivers/STM32U5xx_HAL_Driver/Src/stm32u5xx_hal_pwr_ex.c **** }
 312              		.loc 1 465 1 view .LVU89
 313 005e 7047     		bx	lr
 314              	.L30:
 315              		.align	2
 316              	.L29:
 317 0060 00000000 		.word	SystemCoreClock
 318 0064 D34D6210 		.word	274877907
 319 0068 00080246 		.word	1174538240
 320              		.cfi_endproc
 321              	.LFE342:
 323              		.section	.text.HAL_PWREx_GetSupplyConfig,"ax",%progbits
 324              		.align	1
 325              		.global	HAL_PWREx_GetSupplyConfig
 326              		.syntax unified
 327              		.thumb
 328              		.thumb_func
 330              	HAL_PWREx_GetSupplyConfig:
 331              	.LFB343:
 466:Drivers/STM32U5xx_HAL_Driver/Src/stm32u5xx_hal_pwr_ex.c **** 
 467:Drivers/STM32U5xx_HAL_Driver/Src/stm32u5xx_hal_pwr_ex.c **** /**
 468:Drivers/STM32U5xx_HAL_Driver/Src/stm32u5xx_hal_pwr_ex.c ****   * @brief  Get the power supply configuration.
 469:Drivers/STM32U5xx_HAL_Driver/Src/stm32u5xx_hal_pwr_ex.c ****   * @retval The supply configured.
 470:Drivers/STM32U5xx_HAL_Driver/Src/stm32u5xx_hal_pwr_ex.c ****   */
 471:Drivers/STM32U5xx_HAL_Driver/Src/stm32u5xx_hal_pwr_ex.c **** uint32_t  HAL_PWREx_GetSupplyConfig(void)
 472:Drivers/STM32U5xx_HAL_Driver/Src/stm32u5xx_hal_pwr_ex.c **** {
 332              		.loc 1 472 1 is_stmt 1 view -0
 333              		.cfi_startproc
 334              		@ args = 0, pretend = 0, frame = 0
 335              		@ frame_needed = 0, uses_anonymous_args = 0
 336              		@ link register save eliminated.
 473:Drivers/STM32U5xx_HAL_Driver/Src/stm32u5xx_hal_pwr_ex.c ****   return (PWR->SVMSR & PWR_SVMSR_REGS);
 337              		.loc 1 473 3 view .LVU91
 338              		.loc 1 473 14 is_stmt 0 view .LVU92
 339 0000 024B     		ldr	r3, .L32
 340 0002 D86B     		ldr	r0, [r3, #60]
 474:Drivers/STM32U5xx_HAL_Driver/Src/stm32u5xx_hal_pwr_ex.c **** }
 341              		.loc 1 474 1 view .LVU93
 342 0004 00F00200 		and	r0, r0, #2
 343 0008 7047     		bx	lr
 344              	.L33:
 345 000a 00BF     		.align	2
 346              	.L32:
 347 000c 00080246 		.word	1174538240
 348              		.cfi_endproc
 349              	.LFE343:
 351              		.section	.text.HAL_PWREx_EnableFastSoftStart,"ax",%progbits
 352              		.align	1
ARM GAS  C:\Users\Ya\AppData\Local\Temp\ccLrGXJ9.s 			page 16


 353              		.global	HAL_PWREx_EnableFastSoftStart
 354              		.syntax unified
 355              		.thumb
 356              		.thumb_func
 358              	HAL_PWREx_EnableFastSoftStart:
 359              	.LFB344:
 475:Drivers/STM32U5xx_HAL_Driver/Src/stm32u5xx_hal_pwr_ex.c **** 
 476:Drivers/STM32U5xx_HAL_Driver/Src/stm32u5xx_hal_pwr_ex.c **** /**
 477:Drivers/STM32U5xx_HAL_Driver/Src/stm32u5xx_hal_pwr_ex.c ****   * @brief  Enable fast soft start for the current regulator.
 478:Drivers/STM32U5xx_HAL_Driver/Src/stm32u5xx_hal_pwr_ex.c ****   * @retval None.
 479:Drivers/STM32U5xx_HAL_Driver/Src/stm32u5xx_hal_pwr_ex.c ****   */
 480:Drivers/STM32U5xx_HAL_Driver/Src/stm32u5xx_hal_pwr_ex.c **** void HAL_PWREx_EnableFastSoftStart(void)
 481:Drivers/STM32U5xx_HAL_Driver/Src/stm32u5xx_hal_pwr_ex.c **** {
 360              		.loc 1 481 1 is_stmt 1 view -0
 361              		.cfi_startproc
 362              		@ args = 0, pretend = 0, frame = 0
 363              		@ frame_needed = 0, uses_anonymous_args = 0
 364              		@ link register save eliminated.
 482:Drivers/STM32U5xx_HAL_Driver/Src/stm32u5xx_hal_pwr_ex.c ****   SET_BIT(PWR->CR3, PWR_CR3_FSTEN);
 365              		.loc 1 482 3 view .LVU95
 366 0000 024A     		ldr	r2, .L35
 367 0002 9368     		ldr	r3, [r2, #8]
 368 0004 43F00403 		orr	r3, r3, #4
 369 0008 9360     		str	r3, [r2, #8]
 483:Drivers/STM32U5xx_HAL_Driver/Src/stm32u5xx_hal_pwr_ex.c **** }
 370              		.loc 1 483 1 is_stmt 0 view .LVU96
 371 000a 7047     		bx	lr
 372              	.L36:
 373              		.align	2
 374              	.L35:
 375 000c 00080246 		.word	1174538240
 376              		.cfi_endproc
 377              	.LFE344:
 379              		.section	.text.HAL_PWREx_DisableFastSoftStart,"ax",%progbits
 380              		.align	1
 381              		.global	HAL_PWREx_DisableFastSoftStart
 382              		.syntax unified
 383              		.thumb
 384              		.thumb_func
 386              	HAL_PWREx_DisableFastSoftStart:
 387              	.LFB345:
 484:Drivers/STM32U5xx_HAL_Driver/Src/stm32u5xx_hal_pwr_ex.c **** 
 485:Drivers/STM32U5xx_HAL_Driver/Src/stm32u5xx_hal_pwr_ex.c **** /**
 486:Drivers/STM32U5xx_HAL_Driver/Src/stm32u5xx_hal_pwr_ex.c ****   * @brief  Disable fast soft start for the current regulator.
 487:Drivers/STM32U5xx_HAL_Driver/Src/stm32u5xx_hal_pwr_ex.c ****   * @retval None.
 488:Drivers/STM32U5xx_HAL_Driver/Src/stm32u5xx_hal_pwr_ex.c ****   */
 489:Drivers/STM32U5xx_HAL_Driver/Src/stm32u5xx_hal_pwr_ex.c **** void HAL_PWREx_DisableFastSoftStart(void)
 490:Drivers/STM32U5xx_HAL_Driver/Src/stm32u5xx_hal_pwr_ex.c **** {
 388              		.loc 1 490 1 is_stmt 1 view -0
 389              		.cfi_startproc
 390              		@ args = 0, pretend = 0, frame = 0
 391              		@ frame_needed = 0, uses_anonymous_args = 0
 392              		@ link register save eliminated.
 491:Drivers/STM32U5xx_HAL_Driver/Src/stm32u5xx_hal_pwr_ex.c ****   CLEAR_BIT(PWR->CR3, PWR_CR3_FSTEN);
 393              		.loc 1 491 3 view .LVU98
 394 0000 024A     		ldr	r2, .L38
 395 0002 9368     		ldr	r3, [r2, #8]
ARM GAS  C:\Users\Ya\AppData\Local\Temp\ccLrGXJ9.s 			page 17


 396 0004 23F00403 		bic	r3, r3, #4
 397 0008 9360     		str	r3, [r2, #8]
 492:Drivers/STM32U5xx_HAL_Driver/Src/stm32u5xx_hal_pwr_ex.c **** }
 398              		.loc 1 492 1 is_stmt 0 view .LVU99
 399 000a 7047     		bx	lr
 400              	.L39:
 401              		.align	2
 402              	.L38:
 403 000c 00080246 		.word	1174538240
 404              		.cfi_endproc
 405              	.LFE345:
 407              		.section	.text.HAL_PWREx_EnterSTOP1Mode,"ax",%progbits
 408              		.align	1
 409              		.global	HAL_PWREx_EnterSTOP1Mode
 410              		.syntax unified
 411              		.thumb
 412              		.thumb_func
 414              	HAL_PWREx_EnterSTOP1Mode:
 415              	.LVL24:
 416              	.LFB346:
 493:Drivers/STM32U5xx_HAL_Driver/Src/stm32u5xx_hal_pwr_ex.c **** /**
 494:Drivers/STM32U5xx_HAL_Driver/Src/stm32u5xx_hal_pwr_ex.c ****   * @}
 495:Drivers/STM32U5xx_HAL_Driver/Src/stm32u5xx_hal_pwr_ex.c ****   */
 496:Drivers/STM32U5xx_HAL_Driver/Src/stm32u5xx_hal_pwr_ex.c **** 
 497:Drivers/STM32U5xx_HAL_Driver/Src/stm32u5xx_hal_pwr_ex.c **** 
 498:Drivers/STM32U5xx_HAL_Driver/Src/stm32u5xx_hal_pwr_ex.c **** /** @defgroup PWREx_Exported_Functions_Group2 Low Power Control Functions
 499:Drivers/STM32U5xx_HAL_Driver/Src/stm32u5xx_hal_pwr_ex.c ****   * @brief    Low power control functions
 500:Drivers/STM32U5xx_HAL_Driver/Src/stm32u5xx_hal_pwr_ex.c ****   *
 501:Drivers/STM32U5xx_HAL_Driver/Src/stm32u5xx_hal_pwr_ex.c **** @verbatim
 502:Drivers/STM32U5xx_HAL_Driver/Src/stm32u5xx_hal_pwr_ex.c ****  ===============================================================================
 503:Drivers/STM32U5xx_HAL_Driver/Src/stm32u5xx_hal_pwr_ex.c ****                      ##### Low power control functions #####
 504:Drivers/STM32U5xx_HAL_Driver/Src/stm32u5xx_hal_pwr_ex.c ****  ===============================================================================
 505:Drivers/STM32U5xx_HAL_Driver/Src/stm32u5xx_hal_pwr_ex.c ****     [..]
 506:Drivers/STM32U5xx_HAL_Driver/Src/stm32u5xx_hal_pwr_ex.c ****       This section provides functions allowing to control low power modes.
 507:Drivers/STM32U5xx_HAL_Driver/Src/stm32u5xx_hal_pwr_ex.c **** 
 508:Drivers/STM32U5xx_HAL_Driver/Src/stm32u5xx_hal_pwr_ex.c ****     *** Low Power modes configuration ***
 509:Drivers/STM32U5xx_HAL_Driver/Src/stm32u5xx_hal_pwr_ex.c ****     =====================================
 510:Drivers/STM32U5xx_HAL_Driver/Src/stm32u5xx_hal_pwr_ex.c ****     [..]
 511:Drivers/STM32U5xx_HAL_Driver/Src/stm32u5xx_hal_pwr_ex.c ****       This section presents 4 principles low power modes :
 512:Drivers/STM32U5xx_HAL_Driver/Src/stm32u5xx_hal_pwr_ex.c ****       (+) Stop 1 mode   : Cortex-M33 is stopped, clocks are stopped and the
 513:Drivers/STM32U5xx_HAL_Driver/Src/stm32u5xx_hal_pwr_ex.c ****                           regulator is in low power mode. Several peripheral can
 514:Drivers/STM32U5xx_HAL_Driver/Src/stm32u5xx_hal_pwr_ex.c ****                           operate in this mode.
 515:Drivers/STM32U5xx_HAL_Driver/Src/stm32u5xx_hal_pwr_ex.c **** 
 516:Drivers/STM32U5xx_HAL_Driver/Src/stm32u5xx_hal_pwr_ex.c ****       (+) Stop 2 mode   : Cortex-M33 is stopped, clocks are stopped and the
 517:Drivers/STM32U5xx_HAL_Driver/Src/stm32u5xx_hal_pwr_ex.c ****                           regulator is in low power mode. Only autonomous
 518:Drivers/STM32U5xx_HAL_Driver/Src/stm32u5xx_hal_pwr_ex.c ****                           peripherals can operate in this mode.
 519:Drivers/STM32U5xx_HAL_Driver/Src/stm32u5xx_hal_pwr_ex.c **** 
 520:Drivers/STM32U5xx_HAL_Driver/Src/stm32u5xx_hal_pwr_ex.c ****       (+) Stop 3 mode   : Cortex-M33 is stopped, clocks are stopped and the
 521:Drivers/STM32U5xx_HAL_Driver/Src/stm32u5xx_hal_pwr_ex.c ****                           regulator is in low power mode. No peripheral can
 522:Drivers/STM32U5xx_HAL_Driver/Src/stm32u5xx_hal_pwr_ex.c ****                           operate in this mode. Only RAMs content is preserved.
 523:Drivers/STM32U5xx_HAL_Driver/Src/stm32u5xx_hal_pwr_ex.c **** 
 524:Drivers/STM32U5xx_HAL_Driver/Src/stm32u5xx_hal_pwr_ex.c ****       (+) Shutdown mode : All PWR domains enter Shutdown mode and the VCORE
 525:Drivers/STM32U5xx_HAL_Driver/Src/stm32u5xx_hal_pwr_ex.c ****                           supply regulator is powered off. The SRAMs and
 526:Drivers/STM32U5xx_HAL_Driver/Src/stm32u5xx_hal_pwr_ex.c ****                           register contents are lost except for registers in the
 527:Drivers/STM32U5xx_HAL_Driver/Src/stm32u5xx_hal_pwr_ex.c ****                           Backup domain.
 528:Drivers/STM32U5xx_HAL_Driver/Src/stm32u5xx_hal_pwr_ex.c **** 
 529:Drivers/STM32U5xx_HAL_Driver/Src/stm32u5xx_hal_pwr_ex.c ****    *** Stop 1 mode ***
ARM GAS  C:\Users\Ya\AppData\Local\Temp\ccLrGXJ9.s 			page 18


 530:Drivers/STM32U5xx_HAL_Driver/Src/stm32u5xx_hal_pwr_ex.c ****    ===================
 531:Drivers/STM32U5xx_HAL_Driver/Src/stm32u5xx_hal_pwr_ex.c ****     [..]
 532:Drivers/STM32U5xx_HAL_Driver/Src/stm32u5xx_hal_pwr_ex.c ****       The Stop 1 mode is based on the Cortex-M33 Deepsleep mode combined with
 533:Drivers/STM32U5xx_HAL_Driver/Src/stm32u5xx_hal_pwr_ex.c ****       the peripheral clock gating. The voltage regulator is configured in low
 534:Drivers/STM32U5xx_HAL_Driver/Src/stm32u5xx_hal_pwr_ex.c ****       power mode. In Stop 1 mode, all clocks in the VCORE domain are stopped.
 535:Drivers/STM32U5xx_HAL_Driver/Src/stm32u5xx_hal_pwr_ex.c ****       The PLL, MSIS, MSIK, HSI16 and HSE oscillators are disabled.
 536:Drivers/STM32U5xx_HAL_Driver/Src/stm32u5xx_hal_pwr_ex.c ****       Some peripherals with the LPBAM capability can switch on HSI16 or MSIS or
 537:Drivers/STM32U5xx_HAL_Driver/Src/stm32u5xx_hal_pwr_ex.c ****       MSIK for transferring data. All SRAMs and register contents are preserved,
 538:Drivers/STM32U5xx_HAL_Driver/Src/stm32u5xx_hal_pwr_ex.c ****       but the SRAMs can be totally or partially switched off to further reduced
 539:Drivers/STM32U5xx_HAL_Driver/Src/stm32u5xx_hal_pwr_ex.c ****       consumption.
 540:Drivers/STM32U5xx_HAL_Driver/Src/stm32u5xx_hal_pwr_ex.c ****       The BOR is always available in Stop 1 mode.
 541:Drivers/STM32U5xx_HAL_Driver/Src/stm32u5xx_hal_pwr_ex.c **** 
 542:Drivers/STM32U5xx_HAL_Driver/Src/stm32u5xx_hal_pwr_ex.c ****       (+) Entry:
 543:Drivers/STM32U5xx_HAL_Driver/Src/stm32u5xx_hal_pwr_ex.c ****           The Stop 1 mode is entered by using the HAL_PWREx_EnterSTOP1Mode()
 544:Drivers/STM32U5xx_HAL_Driver/Src/stm32u5xx_hal_pwr_ex.c ****           function.
 545:Drivers/STM32U5xx_HAL_Driver/Src/stm32u5xx_hal_pwr_ex.c **** 
 546:Drivers/STM32U5xx_HAL_Driver/Src/stm32u5xx_hal_pwr_ex.c ****           (++) PWR_STOPENTRY_WFI: enter Stop 1 mode with WFI instruction.
 547:Drivers/STM32U5xx_HAL_Driver/Src/stm32u5xx_hal_pwr_ex.c ****           (++) PWR_STOPENTRY_WFE: enter Stop 1 mode with WFE instruction.
 548:Drivers/STM32U5xx_HAL_Driver/Src/stm32u5xx_hal_pwr_ex.c **** 
 549:Drivers/STM32U5xx_HAL_Driver/Src/stm32u5xx_hal_pwr_ex.c ****       (+) Exit:
 550:Drivers/STM32U5xx_HAL_Driver/Src/stm32u5xx_hal_pwr_ex.c ****           Any EXTI line configured in interrupt mode (the corresponding EXTI
 551:Drivers/STM32U5xx_HAL_Driver/Src/stm32u5xx_hal_pwr_ex.c ****           interrupt vector must be enabled in the NVIC). The interrupt source
 552:Drivers/STM32U5xx_HAL_Driver/Src/stm32u5xx_hal_pwr_ex.c ****           can be external interrupts or peripherals with wakeup capability.
 553:Drivers/STM32U5xx_HAL_Driver/Src/stm32u5xx_hal_pwr_ex.c ****           Any peripheral interrupt occurring when the AHB/APB clocks are present
 554:Drivers/STM32U5xx_HAL_Driver/Src/stm32u5xx_hal_pwr_ex.c ****           due to an autonomous peripheral clock request (the peripheral vector
 555:Drivers/STM32U5xx_HAL_Driver/Src/stm32u5xx_hal_pwr_ex.c ****           must be enabled in the NVIC)
 556:Drivers/STM32U5xx_HAL_Driver/Src/stm32u5xx_hal_pwr_ex.c ****           Any EXTI line configured in event mode.
 557:Drivers/STM32U5xx_HAL_Driver/Src/stm32u5xx_hal_pwr_ex.c **** 
 558:Drivers/STM32U5xx_HAL_Driver/Src/stm32u5xx_hal_pwr_ex.c ****    *** Stop 2 mode ***
 559:Drivers/STM32U5xx_HAL_Driver/Src/stm32u5xx_hal_pwr_ex.c ****    ===================
 560:Drivers/STM32U5xx_HAL_Driver/Src/stm32u5xx_hal_pwr_ex.c ****     [..]
 561:Drivers/STM32U5xx_HAL_Driver/Src/stm32u5xx_hal_pwr_ex.c ****       The Stop 2 mode is based on the Cortex-M33 Deepsleep mode combined with
 562:Drivers/STM32U5xx_HAL_Driver/Src/stm32u5xx_hal_pwr_ex.c ****       peripheral clock gating. In Stop 2 mode, all clocks in the VCORE domain
 563:Drivers/STM32U5xx_HAL_Driver/Src/stm32u5xx_hal_pwr_ex.c ****       are stopped.
 564:Drivers/STM32U5xx_HAL_Driver/Src/stm32u5xx_hal_pwr_ex.c ****       The PLL, MSIS, MSIK, HSI16 and HSE oscillators are disabled.
 565:Drivers/STM32U5xx_HAL_Driver/Src/stm32u5xx_hal_pwr_ex.c ****       Some peripherals with the LPBAM capability can switch on HSI16 or MSIS or
 566:Drivers/STM32U5xx_HAL_Driver/Src/stm32u5xx_hal_pwr_ex.c ****       MSIK for transferring data. All SRAMs and register contents are preserved,
 567:Drivers/STM32U5xx_HAL_Driver/Src/stm32u5xx_hal_pwr_ex.c ****       but the SRAMs can be totally or partially switched off to further reduce
 568:Drivers/STM32U5xx_HAL_Driver/Src/stm32u5xx_hal_pwr_ex.c ****       consumption.
 569:Drivers/STM32U5xx_HAL_Driver/Src/stm32u5xx_hal_pwr_ex.c ****       The BOR is always available in Stop 2 mode.
 570:Drivers/STM32U5xx_HAL_Driver/Src/stm32u5xx_hal_pwr_ex.c **** 
 571:Drivers/STM32U5xx_HAL_Driver/Src/stm32u5xx_hal_pwr_ex.c ****       (+) Entry:
 572:Drivers/STM32U5xx_HAL_Driver/Src/stm32u5xx_hal_pwr_ex.c ****           The Stop 2 mode is entered by using the HAL_PWREx_EnterSTOP2Mode()
 573:Drivers/STM32U5xx_HAL_Driver/Src/stm32u5xx_hal_pwr_ex.c ****           function.
 574:Drivers/STM32U5xx_HAL_Driver/Src/stm32u5xx_hal_pwr_ex.c **** 
 575:Drivers/STM32U5xx_HAL_Driver/Src/stm32u5xx_hal_pwr_ex.c ****           (++) PWR_STOPENTRY_WFI: enter Stop 2 mode with WFI instruction.
 576:Drivers/STM32U5xx_HAL_Driver/Src/stm32u5xx_hal_pwr_ex.c ****           (++) PWR_STOPENTRY_WFE: enter Stop 2 mode with WFE instruction.
 577:Drivers/STM32U5xx_HAL_Driver/Src/stm32u5xx_hal_pwr_ex.c **** 
 578:Drivers/STM32U5xx_HAL_Driver/Src/stm32u5xx_hal_pwr_ex.c ****       (+) Exit:
 579:Drivers/STM32U5xx_HAL_Driver/Src/stm32u5xx_hal_pwr_ex.c ****           Any EXTI line configured in interrupt mode (the corresponding EXTI
 580:Drivers/STM32U5xx_HAL_Driver/Src/stm32u5xx_hal_pwr_ex.c ****           interrupt vector must be enabled in the NVIC). The interrupt source
 581:Drivers/STM32U5xx_HAL_Driver/Src/stm32u5xx_hal_pwr_ex.c ****           can be external interrupts or peripherals with wakeup capability.
 582:Drivers/STM32U5xx_HAL_Driver/Src/stm32u5xx_hal_pwr_ex.c ****           Any peripheral interrupt occurring when the AHB/APB clocks are present
 583:Drivers/STM32U5xx_HAL_Driver/Src/stm32u5xx_hal_pwr_ex.c ****           due to an autonomous peripheral clock request (the peripheral vector
 584:Drivers/STM32U5xx_HAL_Driver/Src/stm32u5xx_hal_pwr_ex.c ****           must be enabled in the NVIC)
 585:Drivers/STM32U5xx_HAL_Driver/Src/stm32u5xx_hal_pwr_ex.c ****           Any EXTI line configured in event mode.
 586:Drivers/STM32U5xx_HAL_Driver/Src/stm32u5xx_hal_pwr_ex.c **** 
ARM GAS  C:\Users\Ya\AppData\Local\Temp\ccLrGXJ9.s 			page 19


 587:Drivers/STM32U5xx_HAL_Driver/Src/stm32u5xx_hal_pwr_ex.c ****    *** Stop 3 mode ***
 588:Drivers/STM32U5xx_HAL_Driver/Src/stm32u5xx_hal_pwr_ex.c ****    ===================
 589:Drivers/STM32U5xx_HAL_Driver/Src/stm32u5xx_hal_pwr_ex.c ****     [..]
 590:Drivers/STM32U5xx_HAL_Driver/Src/stm32u5xx_hal_pwr_ex.c ****       The Stop 3 mode is based on the Cortex-M33 Deepsleep mode combined with
 591:Drivers/STM32U5xx_HAL_Driver/Src/stm32u5xx_hal_pwr_ex.c ****       peripheral clock gating. In Stop 3 mode, all clocks in the VCORE domain
 592:Drivers/STM32U5xx_HAL_Driver/Src/stm32u5xx_hal_pwr_ex.c ****       are stopped.
 593:Drivers/STM32U5xx_HAL_Driver/Src/stm32u5xx_hal_pwr_ex.c ****       The PLL, MSIS, MSIK, HSI16 and HSE oscillators are disabled.
 594:Drivers/STM32U5xx_HAL_Driver/Src/stm32u5xx_hal_pwr_ex.c ****       All SRAMs and register contents are preserved, but the SRAMs can be
 595:Drivers/STM32U5xx_HAL_Driver/Src/stm32u5xx_hal_pwr_ex.c ****       totally or partially switched off to further reduce consumption.
 596:Drivers/STM32U5xx_HAL_Driver/Src/stm32u5xx_hal_pwr_ex.c ****       The BOR is always available in Stop 3 mode.
 597:Drivers/STM32U5xx_HAL_Driver/Src/stm32u5xx_hal_pwr_ex.c **** 
 598:Drivers/STM32U5xx_HAL_Driver/Src/stm32u5xx_hal_pwr_ex.c ****       (+) Entry:
 599:Drivers/STM32U5xx_HAL_Driver/Src/stm32u5xx_hal_pwr_ex.c ****           The Stop 3 mode is entered by using the HAL_PWREx_EnterSTOP3Mode()
 600:Drivers/STM32U5xx_HAL_Driver/Src/stm32u5xx_hal_pwr_ex.c ****           function.
 601:Drivers/STM32U5xx_HAL_Driver/Src/stm32u5xx_hal_pwr_ex.c **** 
 602:Drivers/STM32U5xx_HAL_Driver/Src/stm32u5xx_hal_pwr_ex.c ****           (++) PWR_STOPENTRY_WFI: enter Stop 3 mode with WFI instruction.
 603:Drivers/STM32U5xx_HAL_Driver/Src/stm32u5xx_hal_pwr_ex.c ****           (++) PWR_STOPENTRY_WFE: enter Stop 3 mode with WFE instruction.
 604:Drivers/STM32U5xx_HAL_Driver/Src/stm32u5xx_hal_pwr_ex.c **** 
 605:Drivers/STM32U5xx_HAL_Driver/Src/stm32u5xx_hal_pwr_ex.c ****       (+) Exit:
 606:Drivers/STM32U5xx_HAL_Driver/Src/stm32u5xx_hal_pwr_ex.c ****           WKUPx pin edge, RTC or TAMP event, external Reset in NRST pin, IWDG
 607:Drivers/STM32U5xx_HAL_Driver/Src/stm32u5xx_hal_pwr_ex.c ****           Reset, BOR reset.
 608:Drivers/STM32U5xx_HAL_Driver/Src/stm32u5xx_hal_pwr_ex.c **** 
 609:Drivers/STM32U5xx_HAL_Driver/Src/stm32u5xx_hal_pwr_ex.c ****   *** Shutdown mode ***
 610:Drivers/STM32U5xx_HAL_Driver/Src/stm32u5xx_hal_pwr_ex.c ****    ====================
 611:Drivers/STM32U5xx_HAL_Driver/Src/stm32u5xx_hal_pwr_ex.c ****     [..]
 612:Drivers/STM32U5xx_HAL_Driver/Src/stm32u5xx_hal_pwr_ex.c ****       The lowest power consumption is reached in Shutdown mode. It is based on
 613:Drivers/STM32U5xx_HAL_Driver/Src/stm32u5xx_hal_pwr_ex.c ****       the Deepsleep mode with the voltage regulator disabled. The VCORE domain
 614:Drivers/STM32U5xx_HAL_Driver/Src/stm32u5xx_hal_pwr_ex.c ****       is consequently powered off.
 615:Drivers/STM32U5xx_HAL_Driver/Src/stm32u5xx_hal_pwr_ex.c ****       The PLL, HSI16, MSIS, MSIK and HSE oscillators are also switched off.
 616:Drivers/STM32U5xx_HAL_Driver/Src/stm32u5xx_hal_pwr_ex.c ****       The SRAMs and register contents are lost except for registers in the
 617:Drivers/STM32U5xx_HAL_Driver/Src/stm32u5xx_hal_pwr_ex.c ****       Backup domain.
 618:Drivers/STM32U5xx_HAL_Driver/Src/stm32u5xx_hal_pwr_ex.c ****       The BOR is not available in Shutdown mode.
 619:Drivers/STM32U5xx_HAL_Driver/Src/stm32u5xx_hal_pwr_ex.c ****       No power voltage monitoring is possible in this mode, therefore the switch
 620:Drivers/STM32U5xx_HAL_Driver/Src/stm32u5xx_hal_pwr_ex.c ****       to Backup domain is not supported.
 621:Drivers/STM32U5xx_HAL_Driver/Src/stm32u5xx_hal_pwr_ex.c **** 
 622:Drivers/STM32U5xx_HAL_Driver/Src/stm32u5xx_hal_pwr_ex.c ****       (+) Entry:
 623:Drivers/STM32U5xx_HAL_Driver/Src/stm32u5xx_hal_pwr_ex.c ****           The Shutdown mode is entered by using the HAL_PWREx_EnterSHUTDOWNMode()
 624:Drivers/STM32U5xx_HAL_Driver/Src/stm32u5xx_hal_pwr_ex.c ****           function.
 625:Drivers/STM32U5xx_HAL_Driver/Src/stm32u5xx_hal_pwr_ex.c **** 
 626:Drivers/STM32U5xx_HAL_Driver/Src/stm32u5xx_hal_pwr_ex.c ****       (+) Exit:
 627:Drivers/STM32U5xx_HAL_Driver/Src/stm32u5xx_hal_pwr_ex.c ****           WKUPx pin edge, RTC/TAMP event, external Reset in NRST pin.
 628:Drivers/STM32U5xx_HAL_Driver/Src/stm32u5xx_hal_pwr_ex.c **** 
 629:Drivers/STM32U5xx_HAL_Driver/Src/stm32u5xx_hal_pwr_ex.c **** @endverbatim
 630:Drivers/STM32U5xx_HAL_Driver/Src/stm32u5xx_hal_pwr_ex.c ****   * @{
 631:Drivers/STM32U5xx_HAL_Driver/Src/stm32u5xx_hal_pwr_ex.c ****   */
 632:Drivers/STM32U5xx_HAL_Driver/Src/stm32u5xx_hal_pwr_ex.c **** 
 633:Drivers/STM32U5xx_HAL_Driver/Src/stm32u5xx_hal_pwr_ex.c **** /**
 634:Drivers/STM32U5xx_HAL_Driver/Src/stm32u5xx_hal_pwr_ex.c ****   * @brief  Enter the whole system to Stop 1 mode.
 635:Drivers/STM32U5xx_HAL_Driver/Src/stm32u5xx_hal_pwr_ex.c ****   * @note   Stop 1 offers the largest number of active peripherals and wakeup
 636:Drivers/STM32U5xx_HAL_Driver/Src/stm32u5xx_hal_pwr_ex.c ****   *         sources, a smaller wakeup time but a higher consumption.
 637:Drivers/STM32U5xx_HAL_Driver/Src/stm32u5xx_hal_pwr_ex.c ****   * @note   Stop mode achieves the lowest power consumption while retaining
 638:Drivers/STM32U5xx_HAL_Driver/Src/stm32u5xx_hal_pwr_ex.c ****   *         the content of SRAM and registers. All clocks in the VCORE domain
 639:Drivers/STM32U5xx_HAL_Driver/Src/stm32u5xx_hal_pwr_ex.c ****   *         are stopped. The PLL, the MSI (MSIS and MSIK) RC, the HSI16 RC and
 640:Drivers/STM32U5xx_HAL_Driver/Src/stm32u5xx_hal_pwr_ex.c ****   *         the HSE crystal oscillators are disabled. The LSE or LSI is still
 641:Drivers/STM32U5xx_HAL_Driver/Src/stm32u5xx_hal_pwr_ex.c ****   *         running.
 642:Drivers/STM32U5xx_HAL_Driver/Src/stm32u5xx_hal_pwr_ex.c ****   * @note   The system clock when exiting from Stop mode can be either MSIS up
 643:Drivers/STM32U5xx_HAL_Driver/Src/stm32u5xx_hal_pwr_ex.c ****   *         to 24 MHz or HSI16, depending on software configuration.
ARM GAS  C:\Users\Ya\AppData\Local\Temp\ccLrGXJ9.s 			page 20


 644:Drivers/STM32U5xx_HAL_Driver/Src/stm32u5xx_hal_pwr_ex.c ****   * @param  STOPEntry : Specifies if Stop mode is entered with WFI or WFE
 645:Drivers/STM32U5xx_HAL_Driver/Src/stm32u5xx_hal_pwr_ex.c ****   *                     instruction.
 646:Drivers/STM32U5xx_HAL_Driver/Src/stm32u5xx_hal_pwr_ex.c ****   *                     This parameter can be one of the following values :
 647:Drivers/STM32U5xx_HAL_Driver/Src/stm32u5xx_hal_pwr_ex.c ****   *                     @arg @ref PWR_STOPENTRY_WFI enter Stop mode with Wait
 648:Drivers/STM32U5xx_HAL_Driver/Src/stm32u5xx_hal_pwr_ex.c ****   *                               For Interrupt request.
 649:Drivers/STM32U5xx_HAL_Driver/Src/stm32u5xx_hal_pwr_ex.c ****   *                     @arg @ref PWR_STOPENTRY_WFE enter Stop mode with Wait
 650:Drivers/STM32U5xx_HAL_Driver/Src/stm32u5xx_hal_pwr_ex.c ****   *                               For Event request.
 651:Drivers/STM32U5xx_HAL_Driver/Src/stm32u5xx_hal_pwr_ex.c ****   * @retval None.
 652:Drivers/STM32U5xx_HAL_Driver/Src/stm32u5xx_hal_pwr_ex.c ****   */
 653:Drivers/STM32U5xx_HAL_Driver/Src/stm32u5xx_hal_pwr_ex.c **** void HAL_PWREx_EnterSTOP1Mode(uint8_t STOPEntry)
 654:Drivers/STM32U5xx_HAL_Driver/Src/stm32u5xx_hal_pwr_ex.c **** {
 417              		.loc 1 654 1 is_stmt 1 view -0
 418              		.cfi_startproc
 419              		@ args = 0, pretend = 0, frame = 0
 420              		@ frame_needed = 0, uses_anonymous_args = 0
 421              		@ link register save eliminated.
 655:Drivers/STM32U5xx_HAL_Driver/Src/stm32u5xx_hal_pwr_ex.c ****   /* Check the parameters */
 656:Drivers/STM32U5xx_HAL_Driver/Src/stm32u5xx_hal_pwr_ex.c ****   assert_param(IS_PWR_STOP_ENTRY(STOPEntry));
 422              		.loc 1 656 3 view .LVU101
 657:Drivers/STM32U5xx_HAL_Driver/Src/stm32u5xx_hal_pwr_ex.c **** 
 658:Drivers/STM32U5xx_HAL_Driver/Src/stm32u5xx_hal_pwr_ex.c ****   /* Stop 1 mode */
 659:Drivers/STM32U5xx_HAL_Driver/Src/stm32u5xx_hal_pwr_ex.c ****   MODIFY_REG(PWR->CR1, PWR_CR1_LPMS, PWR_CR1_LPMS_0);
 423              		.loc 1 659 3 view .LVU102
 424 0000 0C4A     		ldr	r2, .L44
 425 0002 1368     		ldr	r3, [r2]
 426 0004 23F00703 		bic	r3, r3, #7
 427 0008 43F00103 		orr	r3, r3, #1
 428 000c 1360     		str	r3, [r2]
 660:Drivers/STM32U5xx_HAL_Driver/Src/stm32u5xx_hal_pwr_ex.c **** 
 661:Drivers/STM32U5xx_HAL_Driver/Src/stm32u5xx_hal_pwr_ex.c ****   /* Set SLEEPDEEP bit of Cortex System Control Register */
 662:Drivers/STM32U5xx_HAL_Driver/Src/stm32u5xx_hal_pwr_ex.c ****   SET_BIT(SCB->SCR, ((uint32_t)SCB_SCR_SLEEPDEEP_Msk));
 429              		.loc 1 662 3 view .LVU103
 430 000e 0A4A     		ldr	r2, .L44+4
 431 0010 1369     		ldr	r3, [r2, #16]
 432 0012 43F00403 		orr	r3, r3, #4
 433 0016 1361     		str	r3, [r2, #16]
 663:Drivers/STM32U5xx_HAL_Driver/Src/stm32u5xx_hal_pwr_ex.c **** 
 664:Drivers/STM32U5xx_HAL_Driver/Src/stm32u5xx_hal_pwr_ex.c ****   /* Select Stop mode entry */
 665:Drivers/STM32U5xx_HAL_Driver/Src/stm32u5xx_hal_pwr_ex.c ****   if (STOPEntry == PWR_STOPENTRY_WFI)
 434              		.loc 1 665 3 view .LVU104
 435              		.loc 1 665 6 is_stmt 0 view .LVU105
 436 0018 0128     		cmp	r0, #1
 437 001a 08D0     		beq	.L43
 666:Drivers/STM32U5xx_HAL_Driver/Src/stm32u5xx_hal_pwr_ex.c ****   {
 667:Drivers/STM32U5xx_HAL_Driver/Src/stm32u5xx_hal_pwr_ex.c ****     /* Request Wait For Interrupt */
 668:Drivers/STM32U5xx_HAL_Driver/Src/stm32u5xx_hal_pwr_ex.c ****     __WFI();
 669:Drivers/STM32U5xx_HAL_Driver/Src/stm32u5xx_hal_pwr_ex.c ****   }
 670:Drivers/STM32U5xx_HAL_Driver/Src/stm32u5xx_hal_pwr_ex.c ****   else
 671:Drivers/STM32U5xx_HAL_Driver/Src/stm32u5xx_hal_pwr_ex.c ****   {
 672:Drivers/STM32U5xx_HAL_Driver/Src/stm32u5xx_hal_pwr_ex.c ****     /* Request Wait For Event */
 673:Drivers/STM32U5xx_HAL_Driver/Src/stm32u5xx_hal_pwr_ex.c ****     __SEV();
 438              		.loc 1 673 5 is_stmt 1 view .LVU106
 439              		.syntax unified
 440              	@ 673 "Drivers/STM32U5xx_HAL_Driver/Src/stm32u5xx_hal_pwr_ex.c" 1
 441 001c 40BF     		sev
 442              	@ 0 "" 2
 674:Drivers/STM32U5xx_HAL_Driver/Src/stm32u5xx_hal_pwr_ex.c ****     __WFE();
ARM GAS  C:\Users\Ya\AppData\Local\Temp\ccLrGXJ9.s 			page 21


 443              		.loc 1 674 5 view .LVU107
 444              	@ 674 "Drivers/STM32U5xx_HAL_Driver/Src/stm32u5xx_hal_pwr_ex.c" 1
 445 001e 20BF     		wfe
 446              	@ 0 "" 2
 675:Drivers/STM32U5xx_HAL_Driver/Src/stm32u5xx_hal_pwr_ex.c ****     __WFE();
 447              		.loc 1 675 5 view .LVU108
 448              	@ 675 "Drivers/STM32U5xx_HAL_Driver/Src/stm32u5xx_hal_pwr_ex.c" 1
 449 0020 20BF     		wfe
 450              	@ 0 "" 2
 451              		.thumb
 452              		.syntax unified
 453              	.L42:
 676:Drivers/STM32U5xx_HAL_Driver/Src/stm32u5xx_hal_pwr_ex.c ****   }
 677:Drivers/STM32U5xx_HAL_Driver/Src/stm32u5xx_hal_pwr_ex.c **** 
 678:Drivers/STM32U5xx_HAL_Driver/Src/stm32u5xx_hal_pwr_ex.c ****   /* Reset SLEEPDEEP bit of Cortex System Control Register */
 679:Drivers/STM32U5xx_HAL_Driver/Src/stm32u5xx_hal_pwr_ex.c ****   CLEAR_BIT(SCB->SCR, ((uint32_t)SCB_SCR_SLEEPDEEP_Msk));
 454              		.loc 1 679 3 view .LVU109
 455 0022 054A     		ldr	r2, .L44+4
 456 0024 1369     		ldr	r3, [r2, #16]
 457 0026 23F00403 		bic	r3, r3, #4
 458 002a 1361     		str	r3, [r2, #16]
 680:Drivers/STM32U5xx_HAL_Driver/Src/stm32u5xx_hal_pwr_ex.c **** }
 459              		.loc 1 680 1 is_stmt 0 view .LVU110
 460 002c 7047     		bx	lr
 461              	.L43:
 668:Drivers/STM32U5xx_HAL_Driver/Src/stm32u5xx_hal_pwr_ex.c ****   }
 462              		.loc 1 668 5 is_stmt 1 view .LVU111
 463              		.syntax unified
 464              	@ 668 "Drivers/STM32U5xx_HAL_Driver/Src/stm32u5xx_hal_pwr_ex.c" 1
 465 002e 30BF     		wfi
 466              	@ 0 "" 2
 467              		.thumb
 468              		.syntax unified
 469 0030 F7E7     		b	.L42
 470              	.L45:
 471 0032 00BF     		.align	2
 472              	.L44:
 473 0034 00080246 		.word	1174538240
 474 0038 00ED00E0 		.word	-536810240
 475              		.cfi_endproc
 476              	.LFE346:
 478              		.section	.text.HAL_PWREx_EnterSTOP2Mode,"ax",%progbits
 479              		.align	1
 480              		.global	HAL_PWREx_EnterSTOP2Mode
 481              		.syntax unified
 482              		.thumb
 483              		.thumb_func
 485              	HAL_PWREx_EnterSTOP2Mode:
 486              	.LVL25:
 487              	.LFB347:
 681:Drivers/STM32U5xx_HAL_Driver/Src/stm32u5xx_hal_pwr_ex.c **** 
 682:Drivers/STM32U5xx_HAL_Driver/Src/stm32u5xx_hal_pwr_ex.c **** /**
 683:Drivers/STM32U5xx_HAL_Driver/Src/stm32u5xx_hal_pwr_ex.c ****   * @brief  Enter the whole system to Stop 2 mode.
 684:Drivers/STM32U5xx_HAL_Driver/Src/stm32u5xx_hal_pwr_ex.c ****   * @note   In Stop 2 mode, all clocks in the VCORE domain are stopped. The PLL,
 685:Drivers/STM32U5xx_HAL_Driver/Src/stm32u5xx_hal_pwr_ex.c ****   *         MSIS, MSIK, HSI16 and HSE oscillators are disabled.
 686:Drivers/STM32U5xx_HAL_Driver/Src/stm32u5xx_hal_pwr_ex.c ****   * @note   Stop mode achieves the lowest power consumption while retaining
 687:Drivers/STM32U5xx_HAL_Driver/Src/stm32u5xx_hal_pwr_ex.c ****   *         the content of SRAM and registers. All clocks in the VCORE domain
ARM GAS  C:\Users\Ya\AppData\Local\Temp\ccLrGXJ9.s 			page 22


 688:Drivers/STM32U5xx_HAL_Driver/Src/stm32u5xx_hal_pwr_ex.c ****   *         are stopped. The PLL, the MSI (MSIS and MSIK) RC, the HSI16 RC and
 689:Drivers/STM32U5xx_HAL_Driver/Src/stm32u5xx_hal_pwr_ex.c ****   *         the HSE crystal oscillators are disabled. The LSE or LSI is still
 690:Drivers/STM32U5xx_HAL_Driver/Src/stm32u5xx_hal_pwr_ex.c ****   *         running.
 691:Drivers/STM32U5xx_HAL_Driver/Src/stm32u5xx_hal_pwr_ex.c ****   * @note   The system clock when exiting from Stop mode can be either MSIS up
 692:Drivers/STM32U5xx_HAL_Driver/Src/stm32u5xx_hal_pwr_ex.c ****   *         to 24 MHz or HSI16, depending on software configuration.
 693:Drivers/STM32U5xx_HAL_Driver/Src/stm32u5xx_hal_pwr_ex.c ****   * @param  STOPEntry : Specifies if Stop mode is entered with WFI or WFE
 694:Drivers/STM32U5xx_HAL_Driver/Src/stm32u5xx_hal_pwr_ex.c ****   *                     instruction.
 695:Drivers/STM32U5xx_HAL_Driver/Src/stm32u5xx_hal_pwr_ex.c ****   *                     This parameter can be one of the following values :
 696:Drivers/STM32U5xx_HAL_Driver/Src/stm32u5xx_hal_pwr_ex.c ****   *                     @arg @ref PWR_STOPENTRY_WFI enter Stop mode with Wait
 697:Drivers/STM32U5xx_HAL_Driver/Src/stm32u5xx_hal_pwr_ex.c ****   *                               For Interrupt request.
 698:Drivers/STM32U5xx_HAL_Driver/Src/stm32u5xx_hal_pwr_ex.c ****   *                     @arg @ref PWR_STOPENTRY_WFE enter Stop mode with Wait
 699:Drivers/STM32U5xx_HAL_Driver/Src/stm32u5xx_hal_pwr_ex.c ****   *                               For Event request.
 700:Drivers/STM32U5xx_HAL_Driver/Src/stm32u5xx_hal_pwr_ex.c ****   * @retval None.
 701:Drivers/STM32U5xx_HAL_Driver/Src/stm32u5xx_hal_pwr_ex.c ****   */
 702:Drivers/STM32U5xx_HAL_Driver/Src/stm32u5xx_hal_pwr_ex.c **** void HAL_PWREx_EnterSTOP2Mode(uint8_t STOPEntry)
 703:Drivers/STM32U5xx_HAL_Driver/Src/stm32u5xx_hal_pwr_ex.c **** {
 488              		.loc 1 703 1 view -0
 489              		.cfi_startproc
 490              		@ args = 0, pretend = 0, frame = 0
 491              		@ frame_needed = 0, uses_anonymous_args = 0
 492              		@ link register save eliminated.
 704:Drivers/STM32U5xx_HAL_Driver/Src/stm32u5xx_hal_pwr_ex.c ****   /* Check the parameters */
 705:Drivers/STM32U5xx_HAL_Driver/Src/stm32u5xx_hal_pwr_ex.c ****   assert_param(IS_PWR_STOP_ENTRY(STOPEntry));
 493              		.loc 1 705 3 view .LVU113
 706:Drivers/STM32U5xx_HAL_Driver/Src/stm32u5xx_hal_pwr_ex.c **** 
 707:Drivers/STM32U5xx_HAL_Driver/Src/stm32u5xx_hal_pwr_ex.c ****   /* Stop 2 mode */
 708:Drivers/STM32U5xx_HAL_Driver/Src/stm32u5xx_hal_pwr_ex.c ****   MODIFY_REG(PWR->CR1, PWR_CR1_LPMS, PWR_CR1_LPMS_1);
 494              		.loc 1 708 3 view .LVU114
 495 0000 0C4A     		ldr	r2, .L50
 496 0002 1368     		ldr	r3, [r2]
 497 0004 23F00703 		bic	r3, r3, #7
 498 0008 43F00203 		orr	r3, r3, #2
 499 000c 1360     		str	r3, [r2]
 709:Drivers/STM32U5xx_HAL_Driver/Src/stm32u5xx_hal_pwr_ex.c **** 
 710:Drivers/STM32U5xx_HAL_Driver/Src/stm32u5xx_hal_pwr_ex.c ****   /* Set SLEEPDEEP bit of Cortex System Control Register */
 711:Drivers/STM32U5xx_HAL_Driver/Src/stm32u5xx_hal_pwr_ex.c ****   SET_BIT(SCB->SCR, ((uint32_t)SCB_SCR_SLEEPDEEP_Msk));
 500              		.loc 1 711 3 view .LVU115
 501 000e 0A4A     		ldr	r2, .L50+4
 502 0010 1369     		ldr	r3, [r2, #16]
 503 0012 43F00403 		orr	r3, r3, #4
 504 0016 1361     		str	r3, [r2, #16]
 712:Drivers/STM32U5xx_HAL_Driver/Src/stm32u5xx_hal_pwr_ex.c **** 
 713:Drivers/STM32U5xx_HAL_Driver/Src/stm32u5xx_hal_pwr_ex.c ****   /* Select Stop mode entry */
 714:Drivers/STM32U5xx_HAL_Driver/Src/stm32u5xx_hal_pwr_ex.c ****   if (STOPEntry == PWR_STOPENTRY_WFI)
 505              		.loc 1 714 3 view .LVU116
 506              		.loc 1 714 6 is_stmt 0 view .LVU117
 507 0018 0128     		cmp	r0, #1
 508 001a 08D0     		beq	.L49
 715:Drivers/STM32U5xx_HAL_Driver/Src/stm32u5xx_hal_pwr_ex.c ****   {
 716:Drivers/STM32U5xx_HAL_Driver/Src/stm32u5xx_hal_pwr_ex.c ****     /* Request Wait For Interrupt */
 717:Drivers/STM32U5xx_HAL_Driver/Src/stm32u5xx_hal_pwr_ex.c ****     __WFI();
 718:Drivers/STM32U5xx_HAL_Driver/Src/stm32u5xx_hal_pwr_ex.c ****   }
 719:Drivers/STM32U5xx_HAL_Driver/Src/stm32u5xx_hal_pwr_ex.c ****   else
 720:Drivers/STM32U5xx_HAL_Driver/Src/stm32u5xx_hal_pwr_ex.c ****   {
 721:Drivers/STM32U5xx_HAL_Driver/Src/stm32u5xx_hal_pwr_ex.c ****     /* Request Wait For Event */
 722:Drivers/STM32U5xx_HAL_Driver/Src/stm32u5xx_hal_pwr_ex.c ****     __SEV();
 509              		.loc 1 722 5 is_stmt 1 view .LVU118
ARM GAS  C:\Users\Ya\AppData\Local\Temp\ccLrGXJ9.s 			page 23


 510              		.syntax unified
 511              	@ 722 "Drivers/STM32U5xx_HAL_Driver/Src/stm32u5xx_hal_pwr_ex.c" 1
 512 001c 40BF     		sev
 513              	@ 0 "" 2
 723:Drivers/STM32U5xx_HAL_Driver/Src/stm32u5xx_hal_pwr_ex.c ****     __WFE();
 514              		.loc 1 723 5 view .LVU119
 515              	@ 723 "Drivers/STM32U5xx_HAL_Driver/Src/stm32u5xx_hal_pwr_ex.c" 1
 516 001e 20BF     		wfe
 517              	@ 0 "" 2
 724:Drivers/STM32U5xx_HAL_Driver/Src/stm32u5xx_hal_pwr_ex.c ****     __WFE();
 518              		.loc 1 724 5 view .LVU120
 519              	@ 724 "Drivers/STM32U5xx_HAL_Driver/Src/stm32u5xx_hal_pwr_ex.c" 1
 520 0020 20BF     		wfe
 521              	@ 0 "" 2
 522              		.thumb
 523              		.syntax unified
 524              	.L48:
 725:Drivers/STM32U5xx_HAL_Driver/Src/stm32u5xx_hal_pwr_ex.c ****   }
 726:Drivers/STM32U5xx_HAL_Driver/Src/stm32u5xx_hal_pwr_ex.c **** 
 727:Drivers/STM32U5xx_HAL_Driver/Src/stm32u5xx_hal_pwr_ex.c ****   /* Reset SLEEPDEEP bit of Cortex System Control Register */
 728:Drivers/STM32U5xx_HAL_Driver/Src/stm32u5xx_hal_pwr_ex.c ****   CLEAR_BIT(SCB->SCR, ((uint32_t)SCB_SCR_SLEEPDEEP_Msk));
 525              		.loc 1 728 3 view .LVU121
 526 0022 054A     		ldr	r2, .L50+4
 527 0024 1369     		ldr	r3, [r2, #16]
 528 0026 23F00403 		bic	r3, r3, #4
 529 002a 1361     		str	r3, [r2, #16]
 729:Drivers/STM32U5xx_HAL_Driver/Src/stm32u5xx_hal_pwr_ex.c **** }
 530              		.loc 1 729 1 is_stmt 0 view .LVU122
 531 002c 7047     		bx	lr
 532              	.L49:
 717:Drivers/STM32U5xx_HAL_Driver/Src/stm32u5xx_hal_pwr_ex.c ****   }
 533              		.loc 1 717 5 is_stmt 1 view .LVU123
 534              		.syntax unified
 535              	@ 717 "Drivers/STM32U5xx_HAL_Driver/Src/stm32u5xx_hal_pwr_ex.c" 1
 536 002e 30BF     		wfi
 537              	@ 0 "" 2
 538              		.thumb
 539              		.syntax unified
 540 0030 F7E7     		b	.L48
 541              	.L51:
 542 0032 00BF     		.align	2
 543              	.L50:
 544 0034 00080246 		.word	1174538240
 545 0038 00ED00E0 		.word	-536810240
 546              		.cfi_endproc
 547              	.LFE347:
 549              		.section	.text.HAL_PWREx_EnterSTOP3Mode,"ax",%progbits
 550              		.align	1
 551              		.global	HAL_PWREx_EnterSTOP3Mode
 552              		.syntax unified
 553              		.thumb
 554              		.thumb_func
 556              	HAL_PWREx_EnterSTOP3Mode:
 557              	.LVL26:
 558              	.LFB348:
 730:Drivers/STM32U5xx_HAL_Driver/Src/stm32u5xx_hal_pwr_ex.c **** 
 731:Drivers/STM32U5xx_HAL_Driver/Src/stm32u5xx_hal_pwr_ex.c **** /**
ARM GAS  C:\Users\Ya\AppData\Local\Temp\ccLrGXJ9.s 			page 24


 732:Drivers/STM32U5xx_HAL_Driver/Src/stm32u5xx_hal_pwr_ex.c ****   * @brief  Enter the whole system to Stop 3 mode.
 733:Drivers/STM32U5xx_HAL_Driver/Src/stm32u5xx_hal_pwr_ex.c ****   * @note   Stop 3 is the lowest power mode with full retention, but the
 734:Drivers/STM32U5xx_HAL_Driver/Src/stm32u5xx_hal_pwr_ex.c ****   *         functional peripherals and sources of wakeup are reduced to the same
 735:Drivers/STM32U5xx_HAL_Driver/Src/stm32u5xx_hal_pwr_ex.c ****   *         ones than in Standby mode.
 736:Drivers/STM32U5xx_HAL_Driver/Src/stm32u5xx_hal_pwr_ex.c ****   * @note   Stop mode achieves the lowest power consumption while retaining
 737:Drivers/STM32U5xx_HAL_Driver/Src/stm32u5xx_hal_pwr_ex.c ****   *         the content of SRAM and registers. All clocks in the VCORE domain
 738:Drivers/STM32U5xx_HAL_Driver/Src/stm32u5xx_hal_pwr_ex.c ****   *         are stopped. The PLL, the MSI (MSIS and MSIK) RC, the HSI16 RC and
 739:Drivers/STM32U5xx_HAL_Driver/Src/stm32u5xx_hal_pwr_ex.c ****   *         the HSE crystal oscillators are disabled. The LSE or LSI is still
 740:Drivers/STM32U5xx_HAL_Driver/Src/stm32u5xx_hal_pwr_ex.c ****   *         running.
 741:Drivers/STM32U5xx_HAL_Driver/Src/stm32u5xx_hal_pwr_ex.c ****   * @note   The system clock when exiting from Stop mode can be either MSIS up
 742:Drivers/STM32U5xx_HAL_Driver/Src/stm32u5xx_hal_pwr_ex.c ****   *         to 24 MHz or HSI16, depending on software configuration.
 743:Drivers/STM32U5xx_HAL_Driver/Src/stm32u5xx_hal_pwr_ex.c ****   * @param  STOPEntry : Specifies if Stop mode is entered with WFI or WFE
 744:Drivers/STM32U5xx_HAL_Driver/Src/stm32u5xx_hal_pwr_ex.c ****   *                     instruction.
 745:Drivers/STM32U5xx_HAL_Driver/Src/stm32u5xx_hal_pwr_ex.c ****   *                     This parameter can be one of the following values :
 746:Drivers/STM32U5xx_HAL_Driver/Src/stm32u5xx_hal_pwr_ex.c ****   *                     @arg @ref PWR_STOPENTRY_WFI enter Stop mode with Wait
 747:Drivers/STM32U5xx_HAL_Driver/Src/stm32u5xx_hal_pwr_ex.c ****   *                               For Interrupt request.
 748:Drivers/STM32U5xx_HAL_Driver/Src/stm32u5xx_hal_pwr_ex.c ****   *                     @arg @ref PWR_STOPENTRY_WFE enter Stop mode with Wait
 749:Drivers/STM32U5xx_HAL_Driver/Src/stm32u5xx_hal_pwr_ex.c ****   *                               For Event request.
 750:Drivers/STM32U5xx_HAL_Driver/Src/stm32u5xx_hal_pwr_ex.c ****   * @retval None.
 751:Drivers/STM32U5xx_HAL_Driver/Src/stm32u5xx_hal_pwr_ex.c ****   */
 752:Drivers/STM32U5xx_HAL_Driver/Src/stm32u5xx_hal_pwr_ex.c **** void HAL_PWREx_EnterSTOP3Mode(uint8_t STOPEntry)
 753:Drivers/STM32U5xx_HAL_Driver/Src/stm32u5xx_hal_pwr_ex.c **** {
 559              		.loc 1 753 1 view -0
 560              		.cfi_startproc
 561              		@ args = 0, pretend = 0, frame = 0
 562              		@ frame_needed = 0, uses_anonymous_args = 0
 563              		@ link register save eliminated.
 754:Drivers/STM32U5xx_HAL_Driver/Src/stm32u5xx_hal_pwr_ex.c ****   /* Check the parameter */
 755:Drivers/STM32U5xx_HAL_Driver/Src/stm32u5xx_hal_pwr_ex.c ****   assert_param(IS_PWR_STOP_ENTRY(STOPEntry));
 564              		.loc 1 755 3 view .LVU125
 756:Drivers/STM32U5xx_HAL_Driver/Src/stm32u5xx_hal_pwr_ex.c **** 
 757:Drivers/STM32U5xx_HAL_Driver/Src/stm32u5xx_hal_pwr_ex.c ****   /* Set Stop mode 3 */
 758:Drivers/STM32U5xx_HAL_Driver/Src/stm32u5xx_hal_pwr_ex.c ****   MODIFY_REG(PWR->CR1, PWR_CR1_LPMS, (PWR_CR1_LPMS_0 | PWR_CR1_LPMS_1));
 565              		.loc 1 758 3 view .LVU126
 566 0000 0C4A     		ldr	r2, .L56
 567 0002 1368     		ldr	r3, [r2]
 568 0004 23F00703 		bic	r3, r3, #7
 569 0008 43F00303 		orr	r3, r3, #3
 570 000c 1360     		str	r3, [r2]
 759:Drivers/STM32U5xx_HAL_Driver/Src/stm32u5xx_hal_pwr_ex.c **** 
 760:Drivers/STM32U5xx_HAL_Driver/Src/stm32u5xx_hal_pwr_ex.c ****   /* Set SLEEPDEEP bit of Cortex System Control Register */
 761:Drivers/STM32U5xx_HAL_Driver/Src/stm32u5xx_hal_pwr_ex.c ****   SET_BIT(SCB->SCR, ((uint32_t)SCB_SCR_SLEEPDEEP_Msk));
 571              		.loc 1 761 3 view .LVU127
 572 000e 0A4A     		ldr	r2, .L56+4
 573 0010 1369     		ldr	r3, [r2, #16]
 574 0012 43F00403 		orr	r3, r3, #4
 575 0016 1361     		str	r3, [r2, #16]
 762:Drivers/STM32U5xx_HAL_Driver/Src/stm32u5xx_hal_pwr_ex.c **** 
 763:Drivers/STM32U5xx_HAL_Driver/Src/stm32u5xx_hal_pwr_ex.c ****   /* Select Stop mode entry */
 764:Drivers/STM32U5xx_HAL_Driver/Src/stm32u5xx_hal_pwr_ex.c ****   if (STOPEntry == PWR_STOPENTRY_WFI)
 576              		.loc 1 764 3 view .LVU128
 577              		.loc 1 764 6 is_stmt 0 view .LVU129
 578 0018 0128     		cmp	r0, #1
 579 001a 08D0     		beq	.L55
 765:Drivers/STM32U5xx_HAL_Driver/Src/stm32u5xx_hal_pwr_ex.c ****   {
 766:Drivers/STM32U5xx_HAL_Driver/Src/stm32u5xx_hal_pwr_ex.c ****     /* Request Wait For Interrupt */
 767:Drivers/STM32U5xx_HAL_Driver/Src/stm32u5xx_hal_pwr_ex.c ****     __WFI();
ARM GAS  C:\Users\Ya\AppData\Local\Temp\ccLrGXJ9.s 			page 25


 768:Drivers/STM32U5xx_HAL_Driver/Src/stm32u5xx_hal_pwr_ex.c ****   }
 769:Drivers/STM32U5xx_HAL_Driver/Src/stm32u5xx_hal_pwr_ex.c ****   else
 770:Drivers/STM32U5xx_HAL_Driver/Src/stm32u5xx_hal_pwr_ex.c ****   {
 771:Drivers/STM32U5xx_HAL_Driver/Src/stm32u5xx_hal_pwr_ex.c ****     /* Request Wait For Event */
 772:Drivers/STM32U5xx_HAL_Driver/Src/stm32u5xx_hal_pwr_ex.c ****     __SEV();
 580              		.loc 1 772 5 is_stmt 1 view .LVU130
 581              		.syntax unified
 582              	@ 772 "Drivers/STM32U5xx_HAL_Driver/Src/stm32u5xx_hal_pwr_ex.c" 1
 583 001c 40BF     		sev
 584              	@ 0 "" 2
 773:Drivers/STM32U5xx_HAL_Driver/Src/stm32u5xx_hal_pwr_ex.c ****     __WFE();
 585              		.loc 1 773 5 view .LVU131
 586              	@ 773 "Drivers/STM32U5xx_HAL_Driver/Src/stm32u5xx_hal_pwr_ex.c" 1
 587 001e 20BF     		wfe
 588              	@ 0 "" 2
 774:Drivers/STM32U5xx_HAL_Driver/Src/stm32u5xx_hal_pwr_ex.c ****     __WFE();
 589              		.loc 1 774 5 view .LVU132
 590              	@ 774 "Drivers/STM32U5xx_HAL_Driver/Src/stm32u5xx_hal_pwr_ex.c" 1
 591 0020 20BF     		wfe
 592              	@ 0 "" 2
 593              		.thumb
 594              		.syntax unified
 595              	.L54:
 775:Drivers/STM32U5xx_HAL_Driver/Src/stm32u5xx_hal_pwr_ex.c ****   }
 776:Drivers/STM32U5xx_HAL_Driver/Src/stm32u5xx_hal_pwr_ex.c **** 
 777:Drivers/STM32U5xx_HAL_Driver/Src/stm32u5xx_hal_pwr_ex.c ****   /* Reset SLEEPDEEP bit of Cortex System Control Register */
 778:Drivers/STM32U5xx_HAL_Driver/Src/stm32u5xx_hal_pwr_ex.c ****   CLEAR_BIT(SCB->SCR, ((uint32_t)SCB_SCR_SLEEPDEEP_Msk));
 596              		.loc 1 778 3 view .LVU133
 597 0022 054A     		ldr	r2, .L56+4
 598 0024 1369     		ldr	r3, [r2, #16]
 599 0026 23F00403 		bic	r3, r3, #4
 600 002a 1361     		str	r3, [r2, #16]
 779:Drivers/STM32U5xx_HAL_Driver/Src/stm32u5xx_hal_pwr_ex.c **** }
 601              		.loc 1 779 1 is_stmt 0 view .LVU134
 602 002c 7047     		bx	lr
 603              	.L55:
 767:Drivers/STM32U5xx_HAL_Driver/Src/stm32u5xx_hal_pwr_ex.c ****   }
 604              		.loc 1 767 5 is_stmt 1 view .LVU135
 605              		.syntax unified
 606              	@ 767 "Drivers/STM32U5xx_HAL_Driver/Src/stm32u5xx_hal_pwr_ex.c" 1
 607 002e 30BF     		wfi
 608              	@ 0 "" 2
 609              		.thumb
 610              		.syntax unified
 611 0030 F7E7     		b	.L54
 612              	.L57:
 613 0032 00BF     		.align	2
 614              	.L56:
 615 0034 00080246 		.word	1174538240
 616 0038 00ED00E0 		.word	-536810240
 617              		.cfi_endproc
 618              	.LFE348:
 620              		.section	.text.HAL_PWREx_EnterSHUTDOWNMode,"ax",%progbits
 621              		.align	1
 622              		.global	HAL_PWREx_EnterSHUTDOWNMode
 623              		.syntax unified
 624              		.thumb
ARM GAS  C:\Users\Ya\AppData\Local\Temp\ccLrGXJ9.s 			page 26


 625              		.thumb_func
 627              	HAL_PWREx_EnterSHUTDOWNMode:
 628              	.LFB349:
 780:Drivers/STM32U5xx_HAL_Driver/Src/stm32u5xx_hal_pwr_ex.c **** 
 781:Drivers/STM32U5xx_HAL_Driver/Src/stm32u5xx_hal_pwr_ex.c **** /**
 782:Drivers/STM32U5xx_HAL_Driver/Src/stm32u5xx_hal_pwr_ex.c ****   * @brief  Enter the whole system to Shutdown mode.
 783:Drivers/STM32U5xx_HAL_Driver/Src/stm32u5xx_hal_pwr_ex.c ****   * @note   Shutdown mode allows the lowest power consumption. The internal
 784:Drivers/STM32U5xx_HAL_Driver/Src/stm32u5xx_hal_pwr_ex.c ****   *         regulator is switched off so that the VCORE domain is powered off.
 785:Drivers/STM32U5xx_HAL_Driver/Src/stm32u5xx_hal_pwr_ex.c ****   *         The PLL, the HSI16, the MSI (MSIS and MSIK), the LSI and the HSE
 786:Drivers/STM32U5xx_HAL_Driver/Src/stm32u5xx_hal_pwr_ex.c ****   *         oscillators are also switched off.
 787:Drivers/STM32U5xx_HAL_Driver/Src/stm32u5xx_hal_pwr_ex.c ****   * @note   The SRAMs and register contents are lost except for registers in the
 788:Drivers/STM32U5xx_HAL_Driver/Src/stm32u5xx_hal_pwr_ex.c ****   *         Backup domain. The BOR is not available in Shutdown mode. No power
 789:Drivers/STM32U5xx_HAL_Driver/Src/stm32u5xx_hal_pwr_ex.c ****   *         voltage monitoring is possible in this mode, therefore the switch to
 790:Drivers/STM32U5xx_HAL_Driver/Src/stm32u5xx_hal_pwr_ex.c ****   *         Backup domain is not supported.
 791:Drivers/STM32U5xx_HAL_Driver/Src/stm32u5xx_hal_pwr_ex.c ****   * @retval None.
 792:Drivers/STM32U5xx_HAL_Driver/Src/stm32u5xx_hal_pwr_ex.c ****   */
 793:Drivers/STM32U5xx_HAL_Driver/Src/stm32u5xx_hal_pwr_ex.c **** void HAL_PWREx_EnterSHUTDOWNMode(void)
 794:Drivers/STM32U5xx_HAL_Driver/Src/stm32u5xx_hal_pwr_ex.c **** {
 629              		.loc 1 794 1 view -0
 630              		.cfi_startproc
 631              		@ args = 0, pretend = 0, frame = 0
 632              		@ frame_needed = 0, uses_anonymous_args = 0
 633              		@ link register save eliminated.
 795:Drivers/STM32U5xx_HAL_Driver/Src/stm32u5xx_hal_pwr_ex.c ****   /* Set Shutdown mode */
 796:Drivers/STM32U5xx_HAL_Driver/Src/stm32u5xx_hal_pwr_ex.c ****   MODIFY_REG(PWR->CR1, PWR_CR1_LPMS, (PWR_CR1_LPMS_1 | PWR_CR1_LPMS_2));
 634              		.loc 1 796 3 view .LVU137
 635 0000 064A     		ldr	r2, .L59
 636 0002 1368     		ldr	r3, [r2]
 637 0004 23F00703 		bic	r3, r3, #7
 638 0008 43F00603 		orr	r3, r3, #6
 639 000c 1360     		str	r3, [r2]
 797:Drivers/STM32U5xx_HAL_Driver/Src/stm32u5xx_hal_pwr_ex.c **** 
 798:Drivers/STM32U5xx_HAL_Driver/Src/stm32u5xx_hal_pwr_ex.c ****   /* Set SLEEPDEEP bit of Cortex System Control Register */
 799:Drivers/STM32U5xx_HAL_Driver/Src/stm32u5xx_hal_pwr_ex.c ****   SET_BIT(SCB->SCR, ((uint32_t)SCB_SCR_SLEEPDEEP_Msk));
 640              		.loc 1 799 3 view .LVU138
 641 000e 044A     		ldr	r2, .L59+4
 642 0010 1369     		ldr	r3, [r2, #16]
 643 0012 43F00403 		orr	r3, r3, #4
 644 0016 1361     		str	r3, [r2, #16]
 800:Drivers/STM32U5xx_HAL_Driver/Src/stm32u5xx_hal_pwr_ex.c **** 
 801:Drivers/STM32U5xx_HAL_Driver/Src/stm32u5xx_hal_pwr_ex.c ****   /* This option is used to ensure that store operations are completed */
 802:Drivers/STM32U5xx_HAL_Driver/Src/stm32u5xx_hal_pwr_ex.c **** #if defined (__CC_ARM)
 803:Drivers/STM32U5xx_HAL_Driver/Src/stm32u5xx_hal_pwr_ex.c ****   __force_stores();
 804:Drivers/STM32U5xx_HAL_Driver/Src/stm32u5xx_hal_pwr_ex.c **** #endif /* (__CC_ARM)*/
 805:Drivers/STM32U5xx_HAL_Driver/Src/stm32u5xx_hal_pwr_ex.c ****   /* Request Wait For Interrupt */
 806:Drivers/STM32U5xx_HAL_Driver/Src/stm32u5xx_hal_pwr_ex.c ****   __WFI();
 645              		.loc 1 806 3 view .LVU139
 646              		.syntax unified
 647              	@ 806 "Drivers/STM32U5xx_HAL_Driver/Src/stm32u5xx_hal_pwr_ex.c" 1
 648 0018 30BF     		wfi
 649              	@ 0 "" 2
 807:Drivers/STM32U5xx_HAL_Driver/Src/stm32u5xx_hal_pwr_ex.c **** }
 650              		.loc 1 807 1 is_stmt 0 view .LVU140
 651              		.thumb
 652              		.syntax unified
 653 001a 7047     		bx	lr
 654              	.L60:
ARM GAS  C:\Users\Ya\AppData\Local\Temp\ccLrGXJ9.s 			page 27


 655              		.align	2
 656              	.L59:
 657 001c 00080246 		.word	1174538240
 658 0020 00ED00E0 		.word	-536810240
 659              		.cfi_endproc
 660              	.LFE349:
 662              		.section	.text.HAL_PWREx_ConfigSRDDomain,"ax",%progbits
 663              		.align	1
 664              		.global	HAL_PWREx_ConfigSRDDomain
 665              		.syntax unified
 666              		.thumb
 667              		.thumb_func
 669              	HAL_PWREx_ConfigSRDDomain:
 670              	.LVL27:
 671              	.LFB350:
 808:Drivers/STM32U5xx_HAL_Driver/Src/stm32u5xx_hal_pwr_ex.c **** 
 809:Drivers/STM32U5xx_HAL_Driver/Src/stm32u5xx_hal_pwr_ex.c **** /**
 810:Drivers/STM32U5xx_HAL_Driver/Src/stm32u5xx_hal_pwr_ex.c ****   * @brief  Configure the SRD domain when the System in Stop 0/1/2 mode.
 811:Drivers/STM32U5xx_HAL_Driver/Src/stm32u5xx_hal_pwr_ex.c ****   * @param  SRDState : Specifies the SRD state.
 812:Drivers/STM32U5xx_HAL_Driver/Src/stm32u5xx_hal_pwr_ex.c ****   *                    This parameter can be one of the following values :
 813:Drivers/STM32U5xx_HAL_Driver/Src/stm32u5xx_hal_pwr_ex.c ****   *                    @arg PWR_SRD_DOMAIN_STOP : SRD in Stop mode when system
 814:Drivers/STM32U5xx_HAL_Driver/Src/stm32u5xx_hal_pwr_ex.c ****   *                                               goes to Stop 0/1/2 mode
 815:Drivers/STM32U5xx_HAL_Driver/Src/stm32u5xx_hal_pwr_ex.c ****   *                    @arg PWR_SRD_DOMAIN_RUN  : SRD in Run mode when system
 816:Drivers/STM32U5xx_HAL_Driver/Src/stm32u5xx_hal_pwr_ex.c ****   *                                               goes to Stop 0/1/2 mode
 817:Drivers/STM32U5xx_HAL_Driver/Src/stm32u5xx_hal_pwr_ex.c ****   * @retval None.
 818:Drivers/STM32U5xx_HAL_Driver/Src/stm32u5xx_hal_pwr_ex.c ****   */
 819:Drivers/STM32U5xx_HAL_Driver/Src/stm32u5xx_hal_pwr_ex.c **** void HAL_PWREx_ConfigSRDDomain(uint32_t SRDState)
 820:Drivers/STM32U5xx_HAL_Driver/Src/stm32u5xx_hal_pwr_ex.c **** {
 672              		.loc 1 820 1 is_stmt 1 view -0
 673              		.cfi_startproc
 674              		@ args = 0, pretend = 0, frame = 0
 675              		@ frame_needed = 0, uses_anonymous_args = 0
 676              		@ link register save eliminated.
 821:Drivers/STM32U5xx_HAL_Driver/Src/stm32u5xx_hal_pwr_ex.c ****   /* Check the parameter */
 822:Drivers/STM32U5xx_HAL_Driver/Src/stm32u5xx_hal_pwr_ex.c ****   assert_param(IS_PWR_SRD_STATE(SRDState));
 677              		.loc 1 822 3 view .LVU142
 823:Drivers/STM32U5xx_HAL_Driver/Src/stm32u5xx_hal_pwr_ex.c **** 
 824:Drivers/STM32U5xx_HAL_Driver/Src/stm32u5xx_hal_pwr_ex.c ****   /* Config the SRD domain */
 825:Drivers/STM32U5xx_HAL_Driver/Src/stm32u5xx_hal_pwr_ex.c ****   MODIFY_REG(PWR->CR2, PWR_CR2_SRDRUN, SRDState);
 678              		.loc 1 825 3 view .LVU143
 679 0000 034A     		ldr	r2, .L62
 680 0002 5368     		ldr	r3, [r2, #4]
 681 0004 23F00043 		bic	r3, r3, #-2147483648
 682 0008 0343     		orrs	r3, r3, r0
 683 000a 5360     		str	r3, [r2, #4]
 826:Drivers/STM32U5xx_HAL_Driver/Src/stm32u5xx_hal_pwr_ex.c **** }
 684              		.loc 1 826 1 is_stmt 0 view .LVU144
 685 000c 7047     		bx	lr
 686              	.L63:
 687 000e 00BF     		.align	2
 688              	.L62:
 689 0010 00080246 		.word	1174538240
 690              		.cfi_endproc
 691              	.LFE350:
 693              		.section	.text.HAL_PWREx_EnableUltraLowPowerMode,"ax",%progbits
 694              		.align	1
 695              		.global	HAL_PWREx_EnableUltraLowPowerMode
ARM GAS  C:\Users\Ya\AppData\Local\Temp\ccLrGXJ9.s 			page 28


 696              		.syntax unified
 697              		.thumb
 698              		.thumb_func
 700              	HAL_PWREx_EnableUltraLowPowerMode:
 701              	.LFB351:
 827:Drivers/STM32U5xx_HAL_Driver/Src/stm32u5xx_hal_pwr_ex.c **** 
 828:Drivers/STM32U5xx_HAL_Driver/Src/stm32u5xx_hal_pwr_ex.c **** /**
 829:Drivers/STM32U5xx_HAL_Driver/Src/stm32u5xx_hal_pwr_ex.c ****   * @brief  Enable BOR ultra-low power mode.
 830:Drivers/STM32U5xx_HAL_Driver/Src/stm32u5xx_hal_pwr_ex.c ****   * @note   BOR operating can be in discontinuous (ultra-low power) mode in
 831:Drivers/STM32U5xx_HAL_Driver/Src/stm32u5xx_hal_pwr_ex.c ****   *         Stop 1, Stop 2, Stop 3 and Standby modes and when the regulator is
 832:Drivers/STM32U5xx_HAL_Driver/Src/stm32u5xx_hal_pwr_ex.c ****   *         in Range 4 (Run, Sleep or Stop 0 mode).
 833:Drivers/STM32U5xx_HAL_Driver/Src/stm32u5xx_hal_pwr_ex.c ****   * @retval None.
 834:Drivers/STM32U5xx_HAL_Driver/Src/stm32u5xx_hal_pwr_ex.c ****   */
 835:Drivers/STM32U5xx_HAL_Driver/Src/stm32u5xx_hal_pwr_ex.c **** void HAL_PWREx_EnableUltraLowPowerMode(void)
 836:Drivers/STM32U5xx_HAL_Driver/Src/stm32u5xx_hal_pwr_ex.c **** {
 702              		.loc 1 836 1 is_stmt 1 view -0
 703              		.cfi_startproc
 704              		@ args = 0, pretend = 0, frame = 0
 705              		@ frame_needed = 0, uses_anonymous_args = 0
 706              		@ link register save eliminated.
 837:Drivers/STM32U5xx_HAL_Driver/Src/stm32u5xx_hal_pwr_ex.c ****   SET_BIT(PWR->CR1, PWR_CR1_ULPMEN);
 707              		.loc 1 837 3 view .LVU146
 708 0000 024A     		ldr	r2, .L65
 709 0002 1368     		ldr	r3, [r2]
 710 0004 43F08003 		orr	r3, r3, #128
 711 0008 1360     		str	r3, [r2]
 838:Drivers/STM32U5xx_HAL_Driver/Src/stm32u5xx_hal_pwr_ex.c **** }
 712              		.loc 1 838 1 is_stmt 0 view .LVU147
 713 000a 7047     		bx	lr
 714              	.L66:
 715              		.align	2
 716              	.L65:
 717 000c 00080246 		.word	1174538240
 718              		.cfi_endproc
 719              	.LFE351:
 721              		.section	.text.HAL_PWREx_DisableUltraLowPowerMode,"ax",%progbits
 722              		.align	1
 723              		.global	HAL_PWREx_DisableUltraLowPowerMode
 724              		.syntax unified
 725              		.thumb
 726              		.thumb_func
 728              	HAL_PWREx_DisableUltraLowPowerMode:
 729              	.LFB352:
 839:Drivers/STM32U5xx_HAL_Driver/Src/stm32u5xx_hal_pwr_ex.c **** 
 840:Drivers/STM32U5xx_HAL_Driver/Src/stm32u5xx_hal_pwr_ex.c **** /**
 841:Drivers/STM32U5xx_HAL_Driver/Src/stm32u5xx_hal_pwr_ex.c ****   * @brief  Disable BOR ultra-low power mode.
 842:Drivers/STM32U5xx_HAL_Driver/Src/stm32u5xx_hal_pwr_ex.c ****   * @retval None.
 843:Drivers/STM32U5xx_HAL_Driver/Src/stm32u5xx_hal_pwr_ex.c ****   */
 844:Drivers/STM32U5xx_HAL_Driver/Src/stm32u5xx_hal_pwr_ex.c **** void HAL_PWREx_DisableUltraLowPowerMode(void)
 845:Drivers/STM32U5xx_HAL_Driver/Src/stm32u5xx_hal_pwr_ex.c **** {
 730              		.loc 1 845 1 is_stmt 1 view -0
 731              		.cfi_startproc
 732              		@ args = 0, pretend = 0, frame = 0
 733              		@ frame_needed = 0, uses_anonymous_args = 0
 734              		@ link register save eliminated.
 846:Drivers/STM32U5xx_HAL_Driver/Src/stm32u5xx_hal_pwr_ex.c ****   CLEAR_BIT(PWR->CR1, PWR_CR1_ULPMEN);
 735              		.loc 1 846 3 view .LVU149
ARM GAS  C:\Users\Ya\AppData\Local\Temp\ccLrGXJ9.s 			page 29


 736 0000 024A     		ldr	r2, .L68
 737 0002 1368     		ldr	r3, [r2]
 738 0004 23F08003 		bic	r3, r3, #128
 739 0008 1360     		str	r3, [r2]
 847:Drivers/STM32U5xx_HAL_Driver/Src/stm32u5xx_hal_pwr_ex.c **** }
 740              		.loc 1 847 1 is_stmt 0 view .LVU150
 741 000a 7047     		bx	lr
 742              	.L69:
 743              		.align	2
 744              	.L68:
 745 000c 00080246 		.word	1174538240
 746              		.cfi_endproc
 747              	.LFE352:
 749              		.section	.text.HAL_PWREx_S3WUCallback,"ax",%progbits
 750              		.align	1
 751              		.weak	HAL_PWREx_S3WUCallback
 752              		.syntax unified
 753              		.thumb
 754              		.thumb_func
 756              	HAL_PWREx_S3WUCallback:
 757              	.LVL28:
 758              	.LFB354:
 848:Drivers/STM32U5xx_HAL_Driver/Src/stm32u5xx_hal_pwr_ex.c **** 
 849:Drivers/STM32U5xx_HAL_Driver/Src/stm32u5xx_hal_pwr_ex.c **** /**
 850:Drivers/STM32U5xx_HAL_Driver/Src/stm32u5xx_hal_pwr_ex.c ****   * @brief  This function handles the PWR Wake up from Stop 3 interrupt request.
 851:Drivers/STM32U5xx_HAL_Driver/Src/stm32u5xx_hal_pwr_ex.c ****   * @note   This API should be called under the PWR_S3WU_IRQHandler().
 852:Drivers/STM32U5xx_HAL_Driver/Src/stm32u5xx_hal_pwr_ex.c ****   * @param  WakeUpPin : Specifies the wakeup pin interrupt to be handled.
 853:Drivers/STM32U5xx_HAL_Driver/Src/stm32u5xx_hal_pwr_ex.c ****   *                     This parameter can be a combination of @ref PWR_WakeUp_Pins.
 854:Drivers/STM32U5xx_HAL_Driver/Src/stm32u5xx_hal_pwr_ex.c ****   * @retval None.
 855:Drivers/STM32U5xx_HAL_Driver/Src/stm32u5xx_hal_pwr_ex.c ****   */
 856:Drivers/STM32U5xx_HAL_Driver/Src/stm32u5xx_hal_pwr_ex.c **** void HAL_PWREx_S3WU_IRQHandler(uint32_t WakeUpPin)
 857:Drivers/STM32U5xx_HAL_Driver/Src/stm32u5xx_hal_pwr_ex.c **** {
 858:Drivers/STM32U5xx_HAL_Driver/Src/stm32u5xx_hal_pwr_ex.c ****   /* Check PWR wake up line 1 */
 859:Drivers/STM32U5xx_HAL_Driver/Src/stm32u5xx_hal_pwr_ex.c ****   if ((WakeUpPin & PWR_WAKEUP_PIN1) != 0U)
 860:Drivers/STM32U5xx_HAL_Driver/Src/stm32u5xx_hal_pwr_ex.c ****   {
 861:Drivers/STM32U5xx_HAL_Driver/Src/stm32u5xx_hal_pwr_ex.c ****     if (READ_BIT(PWR->WUSR, PWR_WUSR_WUF1) != 0U)
 862:Drivers/STM32U5xx_HAL_Driver/Src/stm32u5xx_hal_pwr_ex.c ****     {
 863:Drivers/STM32U5xx_HAL_Driver/Src/stm32u5xx_hal_pwr_ex.c ****       /* Clear PWR wake up flag line 1 */
 864:Drivers/STM32U5xx_HAL_Driver/Src/stm32u5xx_hal_pwr_ex.c ****       SET_BIT(PWR->WUSCR, PWR_WUSCR_CWUF1);
 865:Drivers/STM32U5xx_HAL_Driver/Src/stm32u5xx_hal_pwr_ex.c **** 
 866:Drivers/STM32U5xx_HAL_Driver/Src/stm32u5xx_hal_pwr_ex.c ****       /* PWR S3WU interrupt user callback */
 867:Drivers/STM32U5xx_HAL_Driver/Src/stm32u5xx_hal_pwr_ex.c ****       HAL_PWREx_S3WUCallback(WakeUpPin);
 868:Drivers/STM32U5xx_HAL_Driver/Src/stm32u5xx_hal_pwr_ex.c ****     }
 869:Drivers/STM32U5xx_HAL_Driver/Src/stm32u5xx_hal_pwr_ex.c ****   }
 870:Drivers/STM32U5xx_HAL_Driver/Src/stm32u5xx_hal_pwr_ex.c **** 
 871:Drivers/STM32U5xx_HAL_Driver/Src/stm32u5xx_hal_pwr_ex.c ****   /* Check PWR wake up line 2 */
 872:Drivers/STM32U5xx_HAL_Driver/Src/stm32u5xx_hal_pwr_ex.c ****   if ((WakeUpPin & PWR_WAKEUP_PIN2) != 0U)
 873:Drivers/STM32U5xx_HAL_Driver/Src/stm32u5xx_hal_pwr_ex.c ****   {
 874:Drivers/STM32U5xx_HAL_Driver/Src/stm32u5xx_hal_pwr_ex.c ****     if (READ_BIT(PWR->WUSR, PWR_WUSR_WUF2) != 0U)
 875:Drivers/STM32U5xx_HAL_Driver/Src/stm32u5xx_hal_pwr_ex.c ****     {
 876:Drivers/STM32U5xx_HAL_Driver/Src/stm32u5xx_hal_pwr_ex.c ****       /* Clear PWR wake up flag line 2 */
 877:Drivers/STM32U5xx_HAL_Driver/Src/stm32u5xx_hal_pwr_ex.c ****       SET_BIT(PWR->WUSCR, PWR_WUSCR_CWUF2);
 878:Drivers/STM32U5xx_HAL_Driver/Src/stm32u5xx_hal_pwr_ex.c **** 
 879:Drivers/STM32U5xx_HAL_Driver/Src/stm32u5xx_hal_pwr_ex.c ****       /* PWR S3WU interrupt user callback */
 880:Drivers/STM32U5xx_HAL_Driver/Src/stm32u5xx_hal_pwr_ex.c ****       HAL_PWREx_S3WUCallback(WakeUpPin);
 881:Drivers/STM32U5xx_HAL_Driver/Src/stm32u5xx_hal_pwr_ex.c ****     }
 882:Drivers/STM32U5xx_HAL_Driver/Src/stm32u5xx_hal_pwr_ex.c ****   }
ARM GAS  C:\Users\Ya\AppData\Local\Temp\ccLrGXJ9.s 			page 30


 883:Drivers/STM32U5xx_HAL_Driver/Src/stm32u5xx_hal_pwr_ex.c **** 
 884:Drivers/STM32U5xx_HAL_Driver/Src/stm32u5xx_hal_pwr_ex.c ****   /* Check PWR wake up line 3 */
 885:Drivers/STM32U5xx_HAL_Driver/Src/stm32u5xx_hal_pwr_ex.c ****   if ((WakeUpPin & PWR_WAKEUP_PIN3) != 0U)
 886:Drivers/STM32U5xx_HAL_Driver/Src/stm32u5xx_hal_pwr_ex.c ****   {
 887:Drivers/STM32U5xx_HAL_Driver/Src/stm32u5xx_hal_pwr_ex.c ****     if (READ_BIT(PWR->WUSR, PWR_WUSR_WUF3) != 0U)
 888:Drivers/STM32U5xx_HAL_Driver/Src/stm32u5xx_hal_pwr_ex.c ****     {
 889:Drivers/STM32U5xx_HAL_Driver/Src/stm32u5xx_hal_pwr_ex.c ****       /* Clear PWR wake up flag line 3 */
 890:Drivers/STM32U5xx_HAL_Driver/Src/stm32u5xx_hal_pwr_ex.c ****       SET_BIT(PWR->WUSCR, PWR_WUSCR_CWUF3);
 891:Drivers/STM32U5xx_HAL_Driver/Src/stm32u5xx_hal_pwr_ex.c **** 
 892:Drivers/STM32U5xx_HAL_Driver/Src/stm32u5xx_hal_pwr_ex.c ****       /* PWR S3WU interrupt user callback */
 893:Drivers/STM32U5xx_HAL_Driver/Src/stm32u5xx_hal_pwr_ex.c ****       HAL_PWREx_S3WUCallback(WakeUpPin);
 894:Drivers/STM32U5xx_HAL_Driver/Src/stm32u5xx_hal_pwr_ex.c ****     }
 895:Drivers/STM32U5xx_HAL_Driver/Src/stm32u5xx_hal_pwr_ex.c ****   }
 896:Drivers/STM32U5xx_HAL_Driver/Src/stm32u5xx_hal_pwr_ex.c **** 
 897:Drivers/STM32U5xx_HAL_Driver/Src/stm32u5xx_hal_pwr_ex.c ****   /* Check PWR wake up line 4 */
 898:Drivers/STM32U5xx_HAL_Driver/Src/stm32u5xx_hal_pwr_ex.c ****   if ((WakeUpPin & PWR_WAKEUP_PIN4) != 0U)
 899:Drivers/STM32U5xx_HAL_Driver/Src/stm32u5xx_hal_pwr_ex.c ****   {
 900:Drivers/STM32U5xx_HAL_Driver/Src/stm32u5xx_hal_pwr_ex.c ****     if (READ_BIT(PWR->WUSR, PWR_WUSR_WUF4) != 0U)
 901:Drivers/STM32U5xx_HAL_Driver/Src/stm32u5xx_hal_pwr_ex.c ****     {
 902:Drivers/STM32U5xx_HAL_Driver/Src/stm32u5xx_hal_pwr_ex.c ****       /* Clear PWR wake up flag line 4 */
 903:Drivers/STM32U5xx_HAL_Driver/Src/stm32u5xx_hal_pwr_ex.c ****       SET_BIT(PWR->WUSCR, PWR_WUSCR_CWUF4);
 904:Drivers/STM32U5xx_HAL_Driver/Src/stm32u5xx_hal_pwr_ex.c **** 
 905:Drivers/STM32U5xx_HAL_Driver/Src/stm32u5xx_hal_pwr_ex.c ****       /* PWR S3WU interrupt user callback */
 906:Drivers/STM32U5xx_HAL_Driver/Src/stm32u5xx_hal_pwr_ex.c ****       HAL_PWREx_S3WUCallback(WakeUpPin);
 907:Drivers/STM32U5xx_HAL_Driver/Src/stm32u5xx_hal_pwr_ex.c ****     }
 908:Drivers/STM32U5xx_HAL_Driver/Src/stm32u5xx_hal_pwr_ex.c ****   }
 909:Drivers/STM32U5xx_HAL_Driver/Src/stm32u5xx_hal_pwr_ex.c **** 
 910:Drivers/STM32U5xx_HAL_Driver/Src/stm32u5xx_hal_pwr_ex.c ****   /* Check PWR wake up line 5 */
 911:Drivers/STM32U5xx_HAL_Driver/Src/stm32u5xx_hal_pwr_ex.c ****   if ((WakeUpPin & PWR_WAKEUP_PIN5) != 0U)
 912:Drivers/STM32U5xx_HAL_Driver/Src/stm32u5xx_hal_pwr_ex.c ****   {
 913:Drivers/STM32U5xx_HAL_Driver/Src/stm32u5xx_hal_pwr_ex.c ****     if (READ_BIT(PWR->WUSR, PWR_WUSR_WUF5) != 0U)
 914:Drivers/STM32U5xx_HAL_Driver/Src/stm32u5xx_hal_pwr_ex.c ****     {
 915:Drivers/STM32U5xx_HAL_Driver/Src/stm32u5xx_hal_pwr_ex.c ****       /* Clear PWR wake up flag line 5 */
 916:Drivers/STM32U5xx_HAL_Driver/Src/stm32u5xx_hal_pwr_ex.c ****       SET_BIT(PWR->WUSCR, PWR_WUSCR_CWUF5);
 917:Drivers/STM32U5xx_HAL_Driver/Src/stm32u5xx_hal_pwr_ex.c **** 
 918:Drivers/STM32U5xx_HAL_Driver/Src/stm32u5xx_hal_pwr_ex.c ****       /* PWR S3WU interrupt user callback */
 919:Drivers/STM32U5xx_HAL_Driver/Src/stm32u5xx_hal_pwr_ex.c ****       HAL_PWREx_S3WUCallback(WakeUpPin);
 920:Drivers/STM32U5xx_HAL_Driver/Src/stm32u5xx_hal_pwr_ex.c ****     }
 921:Drivers/STM32U5xx_HAL_Driver/Src/stm32u5xx_hal_pwr_ex.c ****   }
 922:Drivers/STM32U5xx_HAL_Driver/Src/stm32u5xx_hal_pwr_ex.c **** 
 923:Drivers/STM32U5xx_HAL_Driver/Src/stm32u5xx_hal_pwr_ex.c ****   /* Check PWR wake up line 6 */
 924:Drivers/STM32U5xx_HAL_Driver/Src/stm32u5xx_hal_pwr_ex.c ****   if ((WakeUpPin & PWR_WAKEUP_PIN6) != 0U)
 925:Drivers/STM32U5xx_HAL_Driver/Src/stm32u5xx_hal_pwr_ex.c ****   {
 926:Drivers/STM32U5xx_HAL_Driver/Src/stm32u5xx_hal_pwr_ex.c ****     if (READ_BIT(PWR->WUSR, PWR_WUSR_WUF6) != 0U)
 927:Drivers/STM32U5xx_HAL_Driver/Src/stm32u5xx_hal_pwr_ex.c ****     {
 928:Drivers/STM32U5xx_HAL_Driver/Src/stm32u5xx_hal_pwr_ex.c ****       /* Clear PWR wake up flag line 6 */
 929:Drivers/STM32U5xx_HAL_Driver/Src/stm32u5xx_hal_pwr_ex.c ****       SET_BIT(PWR->WUSCR, PWR_WUSCR_CWUF6);
 930:Drivers/STM32U5xx_HAL_Driver/Src/stm32u5xx_hal_pwr_ex.c **** 
 931:Drivers/STM32U5xx_HAL_Driver/Src/stm32u5xx_hal_pwr_ex.c ****       /* PWR S3WU interrupt user callback */
 932:Drivers/STM32U5xx_HAL_Driver/Src/stm32u5xx_hal_pwr_ex.c ****       HAL_PWREx_S3WUCallback(WakeUpPin);
 933:Drivers/STM32U5xx_HAL_Driver/Src/stm32u5xx_hal_pwr_ex.c ****     }
 934:Drivers/STM32U5xx_HAL_Driver/Src/stm32u5xx_hal_pwr_ex.c ****   }
 935:Drivers/STM32U5xx_HAL_Driver/Src/stm32u5xx_hal_pwr_ex.c **** 
 936:Drivers/STM32U5xx_HAL_Driver/Src/stm32u5xx_hal_pwr_ex.c ****   /* Check PWR wake up line 7 */
 937:Drivers/STM32U5xx_HAL_Driver/Src/stm32u5xx_hal_pwr_ex.c ****   if ((WakeUpPin & PWR_WAKEUP_PIN7) != 0U)
 938:Drivers/STM32U5xx_HAL_Driver/Src/stm32u5xx_hal_pwr_ex.c ****   {
 939:Drivers/STM32U5xx_HAL_Driver/Src/stm32u5xx_hal_pwr_ex.c ****     if (READ_BIT(PWR->WUSR, PWR_WUSR_WUF7) != 0U)
ARM GAS  C:\Users\Ya\AppData\Local\Temp\ccLrGXJ9.s 			page 31


 940:Drivers/STM32U5xx_HAL_Driver/Src/stm32u5xx_hal_pwr_ex.c ****     {
 941:Drivers/STM32U5xx_HAL_Driver/Src/stm32u5xx_hal_pwr_ex.c ****       /* Clear PWR wake up flag line 7 */
 942:Drivers/STM32U5xx_HAL_Driver/Src/stm32u5xx_hal_pwr_ex.c ****       SET_BIT(PWR->WUSCR, PWR_WUSCR_CWUF7);
 943:Drivers/STM32U5xx_HAL_Driver/Src/stm32u5xx_hal_pwr_ex.c **** 
 944:Drivers/STM32U5xx_HAL_Driver/Src/stm32u5xx_hal_pwr_ex.c ****       /* PWR S3WU interrupt user callback */
 945:Drivers/STM32U5xx_HAL_Driver/Src/stm32u5xx_hal_pwr_ex.c ****       HAL_PWREx_S3WUCallback(WakeUpPin);
 946:Drivers/STM32U5xx_HAL_Driver/Src/stm32u5xx_hal_pwr_ex.c ****     }
 947:Drivers/STM32U5xx_HAL_Driver/Src/stm32u5xx_hal_pwr_ex.c ****   }
 948:Drivers/STM32U5xx_HAL_Driver/Src/stm32u5xx_hal_pwr_ex.c **** 
 949:Drivers/STM32U5xx_HAL_Driver/Src/stm32u5xx_hal_pwr_ex.c ****   /* Check PWR wake up line 8 */
 950:Drivers/STM32U5xx_HAL_Driver/Src/stm32u5xx_hal_pwr_ex.c ****   if ((WakeUpPin & PWR_WAKEUP_PIN8) != 0U)
 951:Drivers/STM32U5xx_HAL_Driver/Src/stm32u5xx_hal_pwr_ex.c ****   {
 952:Drivers/STM32U5xx_HAL_Driver/Src/stm32u5xx_hal_pwr_ex.c ****     if (READ_BIT(PWR->WUSR, PWR_WUSR_WUF8) != 0U)
 953:Drivers/STM32U5xx_HAL_Driver/Src/stm32u5xx_hal_pwr_ex.c ****     {
 954:Drivers/STM32U5xx_HAL_Driver/Src/stm32u5xx_hal_pwr_ex.c ****       /* Clear PWR wake up flag line 8 */
 955:Drivers/STM32U5xx_HAL_Driver/Src/stm32u5xx_hal_pwr_ex.c ****       SET_BIT(PWR->WUSCR, PWR_WUSCR_CWUF8);
 956:Drivers/STM32U5xx_HAL_Driver/Src/stm32u5xx_hal_pwr_ex.c **** 
 957:Drivers/STM32U5xx_HAL_Driver/Src/stm32u5xx_hal_pwr_ex.c ****       /* PWR S3WU interrupt user callback */
 958:Drivers/STM32U5xx_HAL_Driver/Src/stm32u5xx_hal_pwr_ex.c ****       HAL_PWREx_S3WUCallback(WakeUpPin);
 959:Drivers/STM32U5xx_HAL_Driver/Src/stm32u5xx_hal_pwr_ex.c ****     }
 960:Drivers/STM32U5xx_HAL_Driver/Src/stm32u5xx_hal_pwr_ex.c ****   }
 961:Drivers/STM32U5xx_HAL_Driver/Src/stm32u5xx_hal_pwr_ex.c **** }
 962:Drivers/STM32U5xx_HAL_Driver/Src/stm32u5xx_hal_pwr_ex.c **** 
 963:Drivers/STM32U5xx_HAL_Driver/Src/stm32u5xx_hal_pwr_ex.c **** /**
 964:Drivers/STM32U5xx_HAL_Driver/Src/stm32u5xx_hal_pwr_ex.c ****   * @brief  PWR S3WU interrupt callback.
 965:Drivers/STM32U5xx_HAL_Driver/Src/stm32u5xx_hal_pwr_ex.c ****   * @param  WakeUpPin : Specifies the wakeup pin interrupt to be handled.
 966:Drivers/STM32U5xx_HAL_Driver/Src/stm32u5xx_hal_pwr_ex.c ****   *                     This parameter can be a combination of @ref PWR_WakeUp_Pins.
 967:Drivers/STM32U5xx_HAL_Driver/Src/stm32u5xx_hal_pwr_ex.c ****   * @retval None.
 968:Drivers/STM32U5xx_HAL_Driver/Src/stm32u5xx_hal_pwr_ex.c ****   */
 969:Drivers/STM32U5xx_HAL_Driver/Src/stm32u5xx_hal_pwr_ex.c **** __weak void HAL_PWREx_S3WUCallback(uint32_t WakeUpPin)
 970:Drivers/STM32U5xx_HAL_Driver/Src/stm32u5xx_hal_pwr_ex.c **** {
 759              		.loc 1 970 1 is_stmt 1 view -0
 760              		.cfi_startproc
 761              		@ args = 0, pretend = 0, frame = 0
 762              		@ frame_needed = 0, uses_anonymous_args = 0
 763              		@ link register save eliminated.
 971:Drivers/STM32U5xx_HAL_Driver/Src/stm32u5xx_hal_pwr_ex.c ****   /* Prevent unused argument(s) compilation warning */
 972:Drivers/STM32U5xx_HAL_Driver/Src/stm32u5xx_hal_pwr_ex.c ****   UNUSED(WakeUpPin);
 764              		.loc 1 972 3 view .LVU152
 973:Drivers/STM32U5xx_HAL_Driver/Src/stm32u5xx_hal_pwr_ex.c **** 
 974:Drivers/STM32U5xx_HAL_Driver/Src/stm32u5xx_hal_pwr_ex.c ****   /* NOTE : This function should not be modified; when the callback is needed,
 975:Drivers/STM32U5xx_HAL_Driver/Src/stm32u5xx_hal_pwr_ex.c ****             HAL_PWREx_S3WU_IRQHandler() API can be implemented in the user file
 976:Drivers/STM32U5xx_HAL_Driver/Src/stm32u5xx_hal_pwr_ex.c ****    */
 977:Drivers/STM32U5xx_HAL_Driver/Src/stm32u5xx_hal_pwr_ex.c **** }
 765              		.loc 1 977 1 is_stmt 0 view .LVU153
 766 0000 7047     		bx	lr
 767              		.cfi_endproc
 768              	.LFE354:
 770              		.section	.text.HAL_PWREx_S3WU_IRQHandler,"ax",%progbits
 771              		.align	1
 772              		.global	HAL_PWREx_S3WU_IRQHandler
 773              		.syntax unified
 774              		.thumb
 775              		.thumb_func
 777              	HAL_PWREx_S3WU_IRQHandler:
 778              	.LVL29:
 779              	.LFB353:
ARM GAS  C:\Users\Ya\AppData\Local\Temp\ccLrGXJ9.s 			page 32


 857:Drivers/STM32U5xx_HAL_Driver/Src/stm32u5xx_hal_pwr_ex.c ****   /* Check PWR wake up line 1 */
 780              		.loc 1 857 1 is_stmt 1 view -0
 781              		.cfi_startproc
 782              		@ args = 0, pretend = 0, frame = 0
 783              		@ frame_needed = 0, uses_anonymous_args = 0
 857:Drivers/STM32U5xx_HAL_Driver/Src/stm32u5xx_hal_pwr_ex.c ****   /* Check PWR wake up line 1 */
 784              		.loc 1 857 1 is_stmt 0 view .LVU155
 785 0000 10B5     		push	{r4, lr}
 786              		.cfi_def_cfa_offset 8
 787              		.cfi_offset 4, -8
 788              		.cfi_offset 14, -4
 789 0002 0446     		mov	r4, r0
 859:Drivers/STM32U5xx_HAL_Driver/Src/stm32u5xx_hal_pwr_ex.c ****   {
 790              		.loc 1 859 3 is_stmt 1 view .LVU156
 859:Drivers/STM32U5xx_HAL_Driver/Src/stm32u5xx_hal_pwr_ex.c ****   {
 791              		.loc 1 859 6 is_stmt 0 view .LVU157
 792 0004 10F0010F 		tst	r0, #1
 793 0008 04D0     		beq	.L72
 861:Drivers/STM32U5xx_HAL_Driver/Src/stm32u5xx_hal_pwr_ex.c ****     {
 794              		.loc 1 861 5 is_stmt 1 view .LVU158
 861:Drivers/STM32U5xx_HAL_Driver/Src/stm32u5xx_hal_pwr_ex.c ****     {
 795              		.loc 1 861 9 is_stmt 0 view .LVU159
 796 000a 424B     		ldr	r3, .L89
 797 000c 5B6C     		ldr	r3, [r3, #68]
 861:Drivers/STM32U5xx_HAL_Driver/Src/stm32u5xx_hal_pwr_ex.c ****     {
 798              		.loc 1 861 8 view .LVU160
 799 000e 13F0010F 		tst	r3, #1
 800 0012 38D1     		bne	.L81
 801              	.LVL30:
 802              	.L72:
 872:Drivers/STM32U5xx_HAL_Driver/Src/stm32u5xx_hal_pwr_ex.c ****   {
 803              		.loc 1 872 3 is_stmt 1 view .LVU161
 872:Drivers/STM32U5xx_HAL_Driver/Src/stm32u5xx_hal_pwr_ex.c ****   {
 804              		.loc 1 872 6 is_stmt 0 view .LVU162
 805 0014 14F0020F 		tst	r4, #2
 806 0018 04D0     		beq	.L73
 874:Drivers/STM32U5xx_HAL_Driver/Src/stm32u5xx_hal_pwr_ex.c ****     {
 807              		.loc 1 874 5 is_stmt 1 view .LVU163
 874:Drivers/STM32U5xx_HAL_Driver/Src/stm32u5xx_hal_pwr_ex.c ****     {
 808              		.loc 1 874 9 is_stmt 0 view .LVU164
 809 001a 3E4B     		ldr	r3, .L89
 810 001c 5B6C     		ldr	r3, [r3, #68]
 874:Drivers/STM32U5xx_HAL_Driver/Src/stm32u5xx_hal_pwr_ex.c ****     {
 811              		.loc 1 874 8 view .LVU165
 812 001e 13F0020F 		tst	r3, #2
 813 0022 38D1     		bne	.L82
 814              	.L73:
 885:Drivers/STM32U5xx_HAL_Driver/Src/stm32u5xx_hal_pwr_ex.c ****   {
 815              		.loc 1 885 3 is_stmt 1 view .LVU166
 885:Drivers/STM32U5xx_HAL_Driver/Src/stm32u5xx_hal_pwr_ex.c ****   {
 816              		.loc 1 885 6 is_stmt 0 view .LVU167
 817 0024 14F0040F 		tst	r4, #4
 818 0028 04D0     		beq	.L74
 887:Drivers/STM32U5xx_HAL_Driver/Src/stm32u5xx_hal_pwr_ex.c ****     {
 819              		.loc 1 887 5 is_stmt 1 view .LVU168
 887:Drivers/STM32U5xx_HAL_Driver/Src/stm32u5xx_hal_pwr_ex.c ****     {
 820              		.loc 1 887 9 is_stmt 0 view .LVU169
ARM GAS  C:\Users\Ya\AppData\Local\Temp\ccLrGXJ9.s 			page 33


 821 002a 3A4B     		ldr	r3, .L89
 822 002c 5B6C     		ldr	r3, [r3, #68]
 887:Drivers/STM32U5xx_HAL_Driver/Src/stm32u5xx_hal_pwr_ex.c ****     {
 823              		.loc 1 887 8 view .LVU170
 824 002e 13F0040F 		tst	r3, #4
 825 0032 39D1     		bne	.L83
 826              	.L74:
 898:Drivers/STM32U5xx_HAL_Driver/Src/stm32u5xx_hal_pwr_ex.c ****   {
 827              		.loc 1 898 3 is_stmt 1 view .LVU171
 898:Drivers/STM32U5xx_HAL_Driver/Src/stm32u5xx_hal_pwr_ex.c ****   {
 828              		.loc 1 898 6 is_stmt 0 view .LVU172
 829 0034 14F0080F 		tst	r4, #8
 830 0038 04D0     		beq	.L75
 900:Drivers/STM32U5xx_HAL_Driver/Src/stm32u5xx_hal_pwr_ex.c ****     {
 831              		.loc 1 900 5 is_stmt 1 view .LVU173
 900:Drivers/STM32U5xx_HAL_Driver/Src/stm32u5xx_hal_pwr_ex.c ****     {
 832              		.loc 1 900 9 is_stmt 0 view .LVU174
 833 003a 364B     		ldr	r3, .L89
 834 003c 5B6C     		ldr	r3, [r3, #68]
 900:Drivers/STM32U5xx_HAL_Driver/Src/stm32u5xx_hal_pwr_ex.c ****     {
 835              		.loc 1 900 8 view .LVU175
 836 003e 13F0080F 		tst	r3, #8
 837 0042 3AD1     		bne	.L84
 838              	.L75:
 911:Drivers/STM32U5xx_HAL_Driver/Src/stm32u5xx_hal_pwr_ex.c ****   {
 839              		.loc 1 911 3 is_stmt 1 view .LVU176
 911:Drivers/STM32U5xx_HAL_Driver/Src/stm32u5xx_hal_pwr_ex.c ****   {
 840              		.loc 1 911 6 is_stmt 0 view .LVU177
 841 0044 14F0100F 		tst	r4, #16
 842 0048 04D0     		beq	.L76
 913:Drivers/STM32U5xx_HAL_Driver/Src/stm32u5xx_hal_pwr_ex.c ****     {
 843              		.loc 1 913 5 is_stmt 1 view .LVU178
 913:Drivers/STM32U5xx_HAL_Driver/Src/stm32u5xx_hal_pwr_ex.c ****     {
 844              		.loc 1 913 9 is_stmt 0 view .LVU179
 845 004a 324B     		ldr	r3, .L89
 846 004c 5B6C     		ldr	r3, [r3, #68]
 913:Drivers/STM32U5xx_HAL_Driver/Src/stm32u5xx_hal_pwr_ex.c ****     {
 847              		.loc 1 913 8 view .LVU180
 848 004e 13F0100F 		tst	r3, #16
 849 0052 3BD1     		bne	.L85
 850              	.L76:
 924:Drivers/STM32U5xx_HAL_Driver/Src/stm32u5xx_hal_pwr_ex.c ****   {
 851              		.loc 1 924 3 is_stmt 1 view .LVU181
 924:Drivers/STM32U5xx_HAL_Driver/Src/stm32u5xx_hal_pwr_ex.c ****   {
 852              		.loc 1 924 6 is_stmt 0 view .LVU182
 853 0054 14F0200F 		tst	r4, #32
 854 0058 04D0     		beq	.L77
 926:Drivers/STM32U5xx_HAL_Driver/Src/stm32u5xx_hal_pwr_ex.c ****     {
 855              		.loc 1 926 5 is_stmt 1 view .LVU183
 926:Drivers/STM32U5xx_HAL_Driver/Src/stm32u5xx_hal_pwr_ex.c ****     {
 856              		.loc 1 926 9 is_stmt 0 view .LVU184
 857 005a 2E4B     		ldr	r3, .L89
 858 005c 5B6C     		ldr	r3, [r3, #68]
 926:Drivers/STM32U5xx_HAL_Driver/Src/stm32u5xx_hal_pwr_ex.c ****     {
 859              		.loc 1 926 8 view .LVU185
 860 005e 13F0200F 		tst	r3, #32
 861 0062 3CD1     		bne	.L86
ARM GAS  C:\Users\Ya\AppData\Local\Temp\ccLrGXJ9.s 			page 34


 862              	.L77:
 937:Drivers/STM32U5xx_HAL_Driver/Src/stm32u5xx_hal_pwr_ex.c ****   {
 863              		.loc 1 937 3 is_stmt 1 view .LVU186
 937:Drivers/STM32U5xx_HAL_Driver/Src/stm32u5xx_hal_pwr_ex.c ****   {
 864              		.loc 1 937 6 is_stmt 0 view .LVU187
 865 0064 14F0400F 		tst	r4, #64
 866 0068 04D0     		beq	.L78
 939:Drivers/STM32U5xx_HAL_Driver/Src/stm32u5xx_hal_pwr_ex.c ****     {
 867              		.loc 1 939 5 is_stmt 1 view .LVU188
 939:Drivers/STM32U5xx_HAL_Driver/Src/stm32u5xx_hal_pwr_ex.c ****     {
 868              		.loc 1 939 9 is_stmt 0 view .LVU189
 869 006a 2A4B     		ldr	r3, .L89
 870 006c 5B6C     		ldr	r3, [r3, #68]
 939:Drivers/STM32U5xx_HAL_Driver/Src/stm32u5xx_hal_pwr_ex.c ****     {
 871              		.loc 1 939 8 view .LVU190
 872 006e 13F0400F 		tst	r3, #64
 873 0072 3DD1     		bne	.L87
 874              	.L78:
 950:Drivers/STM32U5xx_HAL_Driver/Src/stm32u5xx_hal_pwr_ex.c ****   {
 875              		.loc 1 950 3 is_stmt 1 view .LVU191
 950:Drivers/STM32U5xx_HAL_Driver/Src/stm32u5xx_hal_pwr_ex.c ****   {
 876              		.loc 1 950 6 is_stmt 0 view .LVU192
 877 0074 14F0800F 		tst	r4, #128
 878 0078 04D0     		beq	.L71
 952:Drivers/STM32U5xx_HAL_Driver/Src/stm32u5xx_hal_pwr_ex.c ****     {
 879              		.loc 1 952 5 is_stmt 1 view .LVU193
 952:Drivers/STM32U5xx_HAL_Driver/Src/stm32u5xx_hal_pwr_ex.c ****     {
 880              		.loc 1 952 9 is_stmt 0 view .LVU194
 881 007a 264B     		ldr	r3, .L89
 882 007c 5B6C     		ldr	r3, [r3, #68]
 952:Drivers/STM32U5xx_HAL_Driver/Src/stm32u5xx_hal_pwr_ex.c ****     {
 883              		.loc 1 952 8 view .LVU195
 884 007e 13F0800F 		tst	r3, #128
 885 0082 3ED1     		bne	.L88
 886              	.L71:
 961:Drivers/STM32U5xx_HAL_Driver/Src/stm32u5xx_hal_pwr_ex.c **** 
 887              		.loc 1 961 1 view .LVU196
 888 0084 10BD     		pop	{r4, pc}
 889              	.LVL31:
 890              	.L81:
 864:Drivers/STM32U5xx_HAL_Driver/Src/stm32u5xx_hal_pwr_ex.c **** 
 891              		.loc 1 864 7 is_stmt 1 view .LVU197
 892 0086 234A     		ldr	r2, .L89
 893 0088 936C     		ldr	r3, [r2, #72]
 894 008a 43F00103 		orr	r3, r3, #1
 895 008e 9364     		str	r3, [r2, #72]
 867:Drivers/STM32U5xx_HAL_Driver/Src/stm32u5xx_hal_pwr_ex.c ****     }
 896              		.loc 1 867 7 view .LVU198
 897 0090 FFF7FEFF 		bl	HAL_PWREx_S3WUCallback
 898              	.LVL32:
 867:Drivers/STM32U5xx_HAL_Driver/Src/stm32u5xx_hal_pwr_ex.c ****     }
 899              		.loc 1 867 7 is_stmt 0 view .LVU199
 900 0094 BEE7     		b	.L72
 901              	.L82:
 877:Drivers/STM32U5xx_HAL_Driver/Src/stm32u5xx_hal_pwr_ex.c **** 
 902              		.loc 1 877 7 is_stmt 1 view .LVU200
 903 0096 1F4A     		ldr	r2, .L89
ARM GAS  C:\Users\Ya\AppData\Local\Temp\ccLrGXJ9.s 			page 35


 904 0098 936C     		ldr	r3, [r2, #72]
 905 009a 43F00203 		orr	r3, r3, #2
 906 009e 9364     		str	r3, [r2, #72]
 880:Drivers/STM32U5xx_HAL_Driver/Src/stm32u5xx_hal_pwr_ex.c ****     }
 907              		.loc 1 880 7 view .LVU201
 908 00a0 2046     		mov	r0, r4
 909 00a2 FFF7FEFF 		bl	HAL_PWREx_S3WUCallback
 910              	.LVL33:
 911 00a6 BDE7     		b	.L73
 912              	.L83:
 890:Drivers/STM32U5xx_HAL_Driver/Src/stm32u5xx_hal_pwr_ex.c **** 
 913              		.loc 1 890 7 view .LVU202
 914 00a8 1A4A     		ldr	r2, .L89
 915 00aa 936C     		ldr	r3, [r2, #72]
 916 00ac 43F00403 		orr	r3, r3, #4
 917 00b0 9364     		str	r3, [r2, #72]
 893:Drivers/STM32U5xx_HAL_Driver/Src/stm32u5xx_hal_pwr_ex.c ****     }
 918              		.loc 1 893 7 view .LVU203
 919 00b2 2046     		mov	r0, r4
 920 00b4 FFF7FEFF 		bl	HAL_PWREx_S3WUCallback
 921              	.LVL34:
 922 00b8 BCE7     		b	.L74
 923              	.L84:
 903:Drivers/STM32U5xx_HAL_Driver/Src/stm32u5xx_hal_pwr_ex.c **** 
 924              		.loc 1 903 7 view .LVU204
 925 00ba 164A     		ldr	r2, .L89
 926 00bc 936C     		ldr	r3, [r2, #72]
 927 00be 43F00803 		orr	r3, r3, #8
 928 00c2 9364     		str	r3, [r2, #72]
 906:Drivers/STM32U5xx_HAL_Driver/Src/stm32u5xx_hal_pwr_ex.c ****     }
 929              		.loc 1 906 7 view .LVU205
 930 00c4 2046     		mov	r0, r4
 931 00c6 FFF7FEFF 		bl	HAL_PWREx_S3WUCallback
 932              	.LVL35:
 933 00ca BBE7     		b	.L75
 934              	.L85:
 916:Drivers/STM32U5xx_HAL_Driver/Src/stm32u5xx_hal_pwr_ex.c **** 
 935              		.loc 1 916 7 view .LVU206
 936 00cc 114A     		ldr	r2, .L89
 937 00ce 936C     		ldr	r3, [r2, #72]
 938 00d0 43F01003 		orr	r3, r3, #16
 939 00d4 9364     		str	r3, [r2, #72]
 919:Drivers/STM32U5xx_HAL_Driver/Src/stm32u5xx_hal_pwr_ex.c ****     }
 940              		.loc 1 919 7 view .LVU207
 941 00d6 2046     		mov	r0, r4
 942 00d8 FFF7FEFF 		bl	HAL_PWREx_S3WUCallback
 943              	.LVL36:
 944 00dc BAE7     		b	.L76
 945              	.L86:
 929:Drivers/STM32U5xx_HAL_Driver/Src/stm32u5xx_hal_pwr_ex.c **** 
 946              		.loc 1 929 7 view .LVU208
 947 00de 0D4A     		ldr	r2, .L89
 948 00e0 936C     		ldr	r3, [r2, #72]
 949 00e2 43F02003 		orr	r3, r3, #32
 950 00e6 9364     		str	r3, [r2, #72]
 932:Drivers/STM32U5xx_HAL_Driver/Src/stm32u5xx_hal_pwr_ex.c ****     }
 951              		.loc 1 932 7 view .LVU209
ARM GAS  C:\Users\Ya\AppData\Local\Temp\ccLrGXJ9.s 			page 36


 952 00e8 2046     		mov	r0, r4
 953 00ea FFF7FEFF 		bl	HAL_PWREx_S3WUCallback
 954              	.LVL37:
 955 00ee B9E7     		b	.L77
 956              	.L87:
 942:Drivers/STM32U5xx_HAL_Driver/Src/stm32u5xx_hal_pwr_ex.c **** 
 957              		.loc 1 942 7 view .LVU210
 958 00f0 084A     		ldr	r2, .L89
 959 00f2 936C     		ldr	r3, [r2, #72]
 960 00f4 43F04003 		orr	r3, r3, #64
 961 00f8 9364     		str	r3, [r2, #72]
 945:Drivers/STM32U5xx_HAL_Driver/Src/stm32u5xx_hal_pwr_ex.c ****     }
 962              		.loc 1 945 7 view .LVU211
 963 00fa 2046     		mov	r0, r4
 964 00fc FFF7FEFF 		bl	HAL_PWREx_S3WUCallback
 965              	.LVL38:
 966 0100 B8E7     		b	.L78
 967              	.L88:
 955:Drivers/STM32U5xx_HAL_Driver/Src/stm32u5xx_hal_pwr_ex.c **** 
 968              		.loc 1 955 7 view .LVU212
 969 0102 044A     		ldr	r2, .L89
 970 0104 936C     		ldr	r3, [r2, #72]
 971 0106 43F08003 		orr	r3, r3, #128
 972 010a 9364     		str	r3, [r2, #72]
 958:Drivers/STM32U5xx_HAL_Driver/Src/stm32u5xx_hal_pwr_ex.c ****     }
 973              		.loc 1 958 7 view .LVU213
 974 010c 2046     		mov	r0, r4
 975 010e FFF7FEFF 		bl	HAL_PWREx_S3WUCallback
 976              	.LVL39:
 961:Drivers/STM32U5xx_HAL_Driver/Src/stm32u5xx_hal_pwr_ex.c **** 
 977              		.loc 1 961 1 is_stmt 0 view .LVU214
 978 0112 B7E7     		b	.L71
 979              	.L90:
 980              		.align	2
 981              	.L89:
 982 0114 00080246 		.word	1174538240
 983              		.cfi_endproc
 984              	.LFE353:
 986              		.section	.text.HAL_PWREx_ConfigPVM,"ax",%progbits
 987              		.align	1
 988              		.global	HAL_PWREx_ConfigPVM
 989              		.syntax unified
 990              		.thumb
 991              		.thumb_func
 993              	HAL_PWREx_ConfigPVM:
 994              	.LVL40:
 995              	.LFB355:
 978:Drivers/STM32U5xx_HAL_Driver/Src/stm32u5xx_hal_pwr_ex.c **** /**
 979:Drivers/STM32U5xx_HAL_Driver/Src/stm32u5xx_hal_pwr_ex.c ****   * @}
 980:Drivers/STM32U5xx_HAL_Driver/Src/stm32u5xx_hal_pwr_ex.c ****   */
 981:Drivers/STM32U5xx_HAL_Driver/Src/stm32u5xx_hal_pwr_ex.c **** 
 982:Drivers/STM32U5xx_HAL_Driver/Src/stm32u5xx_hal_pwr_ex.c **** /** @defgroup PWREx_Exported_Functions_Group3 Voltage Monitoring Functions
 983:Drivers/STM32U5xx_HAL_Driver/Src/stm32u5xx_hal_pwr_ex.c ****   * @brief    Voltage monitoring functions
 984:Drivers/STM32U5xx_HAL_Driver/Src/stm32u5xx_hal_pwr_ex.c ****   *
 985:Drivers/STM32U5xx_HAL_Driver/Src/stm32u5xx_hal_pwr_ex.c **** @verbatim
 986:Drivers/STM32U5xx_HAL_Driver/Src/stm32u5xx_hal_pwr_ex.c ****  ===============================================================================
 987:Drivers/STM32U5xx_HAL_Driver/Src/stm32u5xx_hal_pwr_ex.c ****                      ##### Voltage Monitoring Functions #####
ARM GAS  C:\Users\Ya\AppData\Local\Temp\ccLrGXJ9.s 			page 37


 988:Drivers/STM32U5xx_HAL_Driver/Src/stm32u5xx_hal_pwr_ex.c ****  ===============================================================================
 989:Drivers/STM32U5xx_HAL_Driver/Src/stm32u5xx_hal_pwr_ex.c ****     [..]
 990:Drivers/STM32U5xx_HAL_Driver/Src/stm32u5xx_hal_pwr_ex.c ****       This section provides functions allowing voltage monitoring.
 991:Drivers/STM32U5xx_HAL_Driver/Src/stm32u5xx_hal_pwr_ex.c **** 
 992:Drivers/STM32U5xx_HAL_Driver/Src/stm32u5xx_hal_pwr_ex.c ****     *** PVM configuration ***
 993:Drivers/STM32U5xx_HAL_Driver/Src/stm32u5xx_hal_pwr_ex.c ****     =========================
 994:Drivers/STM32U5xx_HAL_Driver/Src/stm32u5xx_hal_pwr_ex.c ****     [..]
 995:Drivers/STM32U5xx_HAL_Driver/Src/stm32u5xx_hal_pwr_ex.c ****       (+) The supplies (VDDA, VDDIO2 and VDDUSB) can be independent from VDD and
 996:Drivers/STM32U5xx_HAL_Driver/Src/stm32u5xx_hal_pwr_ex.c ****           can be monitored with four peripheral voltage monitoring (PVM):
 997:Drivers/STM32U5xx_HAL_Driver/Src/stm32u5xx_hal_pwr_ex.c **** 
 998:Drivers/STM32U5xx_HAL_Driver/Src/stm32u5xx_hal_pwr_ex.c ****           (++) The UVM monitors the USB supply VDDUSB. VDDUSBRDY indicates if
 999:Drivers/STM32U5xx_HAL_Driver/Src/stm32u5xx_hal_pwr_ex.c ****                the VDDUSB independent power supply is higher or lower than the
1000:Drivers/STM32U5xx_HAL_Driver/Src/stm32u5xx_hal_pwr_ex.c ****                VUVM threshold.
1001:Drivers/STM32U5xx_HAL_Driver/Src/stm32u5xx_hal_pwr_ex.c ****           (++) The IO2VM monitors the PG[15:2] supply VDDIO2. VDDIO2RDY
1002:Drivers/STM32U5xx_HAL_Driver/Src/stm32u5xx_hal_pwr_ex.c ****                indicates if the VDDIO2 independent power supply is higher or
1003:Drivers/STM32U5xx_HAL_Driver/Src/stm32u5xx_hal_pwr_ex.c ****                lower than the VIO2VM threshold.
1004:Drivers/STM32U5xx_HAL_Driver/Src/stm32u5xx_hal_pwr_ex.c ****           (++) The AVM1 monitors the analog supply VDDA. VDDA1RDY indicates if
1005:Drivers/STM32U5xx_HAL_Driver/Src/stm32u5xx_hal_pwr_ex.c ****                the VDDA independent power supply is higher or lower than the
1006:Drivers/STM32U5xx_HAL_Driver/Src/stm32u5xx_hal_pwr_ex.c ****                VAVM1 threshold.
1007:Drivers/STM32U5xx_HAL_Driver/Src/stm32u5xx_hal_pwr_ex.c ****           (++) The AVM2 monitors the analog supply VDDA. VDDA2RDY indicates if
1008:Drivers/STM32U5xx_HAL_Driver/Src/stm32u5xx_hal_pwr_ex.c ****                the VDDA independent power supply is higher or lower than the
1009:Drivers/STM32U5xx_HAL_Driver/Src/stm32u5xx_hal_pwr_ex.c ****                VAVM2 threshold.
1010:Drivers/STM32U5xx_HAL_Driver/Src/stm32u5xx_hal_pwr_ex.c **** 
1011:Drivers/STM32U5xx_HAL_Driver/Src/stm32u5xx_hal_pwr_ex.c ****       (+) Each PVM output is connected to an EXTI line and can generate an
1012:Drivers/STM32U5xx_HAL_Driver/Src/stm32u5xx_hal_pwr_ex.c ****           interrupt if enabled through the EXTI registers. The PVMx output
1013:Drivers/STM32U5xx_HAL_Driver/Src/stm32u5xx_hal_pwr_ex.c ****           interrupt is generated when the independent power supply drops below
1014:Drivers/STM32U5xx_HAL_Driver/Src/stm32u5xx_hal_pwr_ex.c ****           the PVM threshold and/or when it rises above the PVM threshold,
1015:Drivers/STM32U5xx_HAL_Driver/Src/stm32u5xx_hal_pwr_ex.c ****           depending on EXTI line rising/falling edge configuration.
1016:Drivers/STM32U5xx_HAL_Driver/Src/stm32u5xx_hal_pwr_ex.c **** 
1017:Drivers/STM32U5xx_HAL_Driver/Src/stm32u5xx_hal_pwr_ex.c ****       (+) Each PVM can remain active in Stop 0, Stop 1, Stop 2 modes, and the
1018:Drivers/STM32U5xx_HAL_Driver/Src/stm32u5xx_hal_pwr_ex.c ****           PVM interrupt can wake up from the Stop mode. The PVM is not
1019:Drivers/STM32U5xx_HAL_Driver/Src/stm32u5xx_hal_pwr_ex.c ****           functional in Stop 3 mode.
1020:Drivers/STM32U5xx_HAL_Driver/Src/stm32u5xx_hal_pwr_ex.c **** 
1021:Drivers/STM32U5xx_HAL_Driver/Src/stm32u5xx_hal_pwr_ex.c ****     *** VBAT charging ***
1022:Drivers/STM32U5xx_HAL_Driver/Src/stm32u5xx_hal_pwr_ex.c ****     =====================
1023:Drivers/STM32U5xx_HAL_Driver/Src/stm32u5xx_hal_pwr_ex.c ****     [..]
1024:Drivers/STM32U5xx_HAL_Driver/Src/stm32u5xx_hal_pwr_ex.c ****       When VDD is present, it is possible to charge the external battery on VBAT
1025:Drivers/STM32U5xx_HAL_Driver/Src/stm32u5xx_hal_pwr_ex.c ****       through an internal resistance.
1026:Drivers/STM32U5xx_HAL_Driver/Src/stm32u5xx_hal_pwr_ex.c ****       The VBAT charging is done either through a 5 kOhm resistor or through a 1.5
1027:Drivers/STM32U5xx_HAL_Driver/Src/stm32u5xx_hal_pwr_ex.c ****       kOhm resistor depending on the VBRS bit value in the PWR_BDCR2 register.
1028:Drivers/STM32U5xx_HAL_Driver/Src/stm32u5xx_hal_pwr_ex.c ****       The battery charging is enabled by setting VBE bit in the PWR_BDCR2
1029:Drivers/STM32U5xx_HAL_Driver/Src/stm32u5xx_hal_pwr_ex.c ****       register. It is automatically disabled in VBAT mode.
1030:Drivers/STM32U5xx_HAL_Driver/Src/stm32u5xx_hal_pwr_ex.c **** 
1031:Drivers/STM32U5xx_HAL_Driver/Src/stm32u5xx_hal_pwr_ex.c ****     *** Backup domain monitoring ***
1032:Drivers/STM32U5xx_HAL_Driver/Src/stm32u5xx_hal_pwr_ex.c ****     ================================
1033:Drivers/STM32U5xx_HAL_Driver/Src/stm32u5xx_hal_pwr_ex.c ****     [..]
1034:Drivers/STM32U5xx_HAL_Driver/Src/stm32u5xx_hal_pwr_ex.c ****       When the Backup domain voltage and temperature monitoring is enabled
1035:Drivers/STM32U5xx_HAL_Driver/Src/stm32u5xx_hal_pwr_ex.c ****       (MONEN = 1 in the PWR_BDCR1 register), the Backup domain voltage and the
1036:Drivers/STM32U5xx_HAL_Driver/Src/stm32u5xx_hal_pwr_ex.c ****       temperature are monitored.
1037:Drivers/STM32U5xx_HAL_Driver/Src/stm32u5xx_hal_pwr_ex.c ****       If the Backup domain voltage monitoring internal tamper is enabled in the
1038:Drivers/STM32U5xx_HAL_Driver/Src/stm32u5xx_hal_pwr_ex.c ****       TAMP peripheral (ITAMP1E = 1 in the TAMP_CR1 register), a tamper event is
1039:Drivers/STM32U5xx_HAL_Driver/Src/stm32u5xx_hal_pwr_ex.c ****       generated when the Backup domain voltage is above the functional range.
1040:Drivers/STM32U5xx_HAL_Driver/Src/stm32u5xx_hal_pwr_ex.c ****       In case the Backup domain voltage is below the functional range,
1041:Drivers/STM32U5xx_HAL_Driver/Src/stm32u5xx_hal_pwr_ex.c ****       a Brownout reset is generated, erasing all device including Backup domain.
1042:Drivers/STM32U5xx_HAL_Driver/Src/stm32u5xx_hal_pwr_ex.c **** 
1043:Drivers/STM32U5xx_HAL_Driver/Src/stm32u5xx_hal_pwr_ex.c ****     *** Backup domain battery ***
1044:Drivers/STM32U5xx_HAL_Driver/Src/stm32u5xx_hal_pwr_ex.c ****     =============================
ARM GAS  C:\Users\Ya\AppData\Local\Temp\ccLrGXJ9.s 			page 38


1045:Drivers/STM32U5xx_HAL_Driver/Src/stm32u5xx_hal_pwr_ex.c ****     [..]
1046:Drivers/STM32U5xx_HAL_Driver/Src/stm32u5xx_hal_pwr_ex.c ****       (+) To retain the content of the backup registers and supply the RTC
1047:Drivers/STM32U5xx_HAL_Driver/Src/stm32u5xx_hal_pwr_ex.c ****           function when VDD is turned off, the VBAT pin can be connected to an
1048:Drivers/STM32U5xx_HAL_Driver/Src/stm32u5xx_hal_pwr_ex.c ****           optional backup voltage supplied by a battery or by another source.
1049:Drivers/STM32U5xx_HAL_Driver/Src/stm32u5xx_hal_pwr_ex.c ****           The VBAT pin powers the RTC unit, the LSE oscillator and the PC13 to
1050:Drivers/STM32U5xx_HAL_Driver/Src/stm32u5xx_hal_pwr_ex.c ****           PC15 I/Os, allowing the RTC to operate even when the main power supply
1051:Drivers/STM32U5xx_HAL_Driver/Src/stm32u5xx_hal_pwr_ex.c ****           is turned off. The backup SRAM is optionally powered by VBAT pin when
1052:Drivers/STM32U5xx_HAL_Driver/Src/stm32u5xx_hal_pwr_ex.c ****           the BREN bit is set in the PWR Backup domain control register 1
1053:Drivers/STM32U5xx_HAL_Driver/Src/stm32u5xx_hal_pwr_ex.c ****           (PWR_BDCR1).
1054:Drivers/STM32U5xx_HAL_Driver/Src/stm32u5xx_hal_pwr_ex.c ****           The switch to the VBAT supply is controlled by the power down reset
1055:Drivers/STM32U5xx_HAL_Driver/Src/stm32u5xx_hal_pwr_ex.c ****           embedded in the Reset block.
1056:Drivers/STM32U5xx_HAL_Driver/Src/stm32u5xx_hal_pwr_ex.c **** 
1057:Drivers/STM32U5xx_HAL_Driver/Src/stm32u5xx_hal_pwr_ex.c ****       (+) After exiting reset, the USB Type-C (dead battery) behavior is enabled,
1058:Drivers/STM32U5xx_HAL_Driver/Src/stm32u5xx_hal_pwr_ex.c ****           which may have a pull-down effect on CC1 and CC2 pins. It is
1059:Drivers/STM32U5xx_HAL_Driver/Src/stm32u5xx_hal_pwr_ex.c ****           recommended to disable it in all cases, either to stop this pull-down
1060:Drivers/STM32U5xx_HAL_Driver/Src/stm32u5xx_hal_pwr_ex.c ****           or to handover control to the UCPD (the UCPD must be initialized
1061:Drivers/STM32U5xx_HAL_Driver/Src/stm32u5xx_hal_pwr_ex.c ****           before doing the disable).
1062:Drivers/STM32U5xx_HAL_Driver/Src/stm32u5xx_hal_pwr_ex.c **** 
1063:Drivers/STM32U5xx_HAL_Driver/Src/stm32u5xx_hal_pwr_ex.c **** @endverbatim
1064:Drivers/STM32U5xx_HAL_Driver/Src/stm32u5xx_hal_pwr_ex.c ****   * @{
1065:Drivers/STM32U5xx_HAL_Driver/Src/stm32u5xx_hal_pwr_ex.c ****   */
1066:Drivers/STM32U5xx_HAL_Driver/Src/stm32u5xx_hal_pwr_ex.c **** 
1067:Drivers/STM32U5xx_HAL_Driver/Src/stm32u5xx_hal_pwr_ex.c **** /**
1068:Drivers/STM32U5xx_HAL_Driver/Src/stm32u5xx_hal_pwr_ex.c ****   * @brief  Configure the voltage monitor threshold detected by the Peripheral
1069:Drivers/STM32U5xx_HAL_Driver/Src/stm32u5xx_hal_pwr_ex.c ****   *         voltage monitoring (PVM).
1070:Drivers/STM32U5xx_HAL_Driver/Src/stm32u5xx_hal_pwr_ex.c ****   * @param  pConfigPVM : Pointer to a PWR_PVMTypeDef structure that contains the
1071:Drivers/STM32U5xx_HAL_Driver/Src/stm32u5xx_hal_pwr_ex.c ****   *                      PVM configuration information (PVMType and EventMode).
1072:Drivers/STM32U5xx_HAL_Driver/Src/stm32u5xx_hal_pwr_ex.c ****   * @retval HAL Status.
1073:Drivers/STM32U5xx_HAL_Driver/Src/stm32u5xx_hal_pwr_ex.c ****   */
1074:Drivers/STM32U5xx_HAL_Driver/Src/stm32u5xx_hal_pwr_ex.c **** HAL_StatusTypeDef HAL_PWREx_ConfigPVM(PWR_PVMTypeDef *pConfigPVM)
1075:Drivers/STM32U5xx_HAL_Driver/Src/stm32u5xx_hal_pwr_ex.c **** {
 996              		.loc 1 1075 1 is_stmt 1 view -0
 997              		.cfi_startproc
 998              		@ args = 0, pretend = 0, frame = 0
 999              		@ frame_needed = 0, uses_anonymous_args = 0
 1000              		@ link register save eliminated.
1076:Drivers/STM32U5xx_HAL_Driver/Src/stm32u5xx_hal_pwr_ex.c ****   /* Check the PVM parameter */
1077:Drivers/STM32U5xx_HAL_Driver/Src/stm32u5xx_hal_pwr_ex.c ****   if (pConfigPVM == NULL)
 1001              		.loc 1 1077 3 view .LVU216
 1002              		.loc 1 1077 6 is_stmt 0 view .LVU217
 1003 0000 0246     		mov	r2, r0
 1004 0002 0028     		cmp	r0, #0
 1005 0004 00F01281 		beq	.L110
1078:Drivers/STM32U5xx_HAL_Driver/Src/stm32u5xx_hal_pwr_ex.c ****   {
1079:Drivers/STM32U5xx_HAL_Driver/Src/stm32u5xx_hal_pwr_ex.c ****     return HAL_ERROR;
1080:Drivers/STM32U5xx_HAL_Driver/Src/stm32u5xx_hal_pwr_ex.c ****   }
1081:Drivers/STM32U5xx_HAL_Driver/Src/stm32u5xx_hal_pwr_ex.c **** 
1082:Drivers/STM32U5xx_HAL_Driver/Src/stm32u5xx_hal_pwr_ex.c ****   /* Check the parameters */
1083:Drivers/STM32U5xx_HAL_Driver/Src/stm32u5xx_hal_pwr_ex.c ****   assert_param(IS_PWR_PVM_TYPE(pConfigPVM->PVMType));
 1006              		.loc 1 1083 3 is_stmt 1 view .LVU218
1084:Drivers/STM32U5xx_HAL_Driver/Src/stm32u5xx_hal_pwr_ex.c ****   assert_param(IS_PWR_PVM_MODE(pConfigPVM->Mode));
 1007              		.loc 1 1084 3 view .LVU219
1085:Drivers/STM32U5xx_HAL_Driver/Src/stm32u5xx_hal_pwr_ex.c **** 
1086:Drivers/STM32U5xx_HAL_Driver/Src/stm32u5xx_hal_pwr_ex.c ****   /* Check the peripheral voltage monitor type */
1087:Drivers/STM32U5xx_HAL_Driver/Src/stm32u5xx_hal_pwr_ex.c ****   switch (pConfigPVM->PVMType)
 1008              		.loc 1 1087 3 view .LVU220
 1009              		.loc 1 1087 21 is_stmt 0 view .LVU221
ARM GAS  C:\Users\Ya\AppData\Local\Temp\ccLrGXJ9.s 			page 39


 1010 0008 0368     		ldr	r3, [r0]
 1011              		.loc 1 1087 3 view .LVU222
 1012 000a B3F1806F 		cmp	r3, #67108864
 1013 000e 00F0CE80 		beq	.L93
 1014 0012 48D8     		bhi	.L94
 1015 0014 B3F1807F 		cmp	r3, #16777216
 1016 0018 00F08A80 		beq	.L95
 1017 001c B3F1007F 		cmp	r3, #33554432
 1018 0020 3FD1     		bne	.L115
1088:Drivers/STM32U5xx_HAL_Driver/Src/stm32u5xx_hal_pwr_ex.c ****   {
1089:Drivers/STM32U5xx_HAL_Driver/Src/stm32u5xx_hal_pwr_ex.c ****     case PWR_UVM: /* Independent USB voltage monitor */
1090:Drivers/STM32U5xx_HAL_Driver/Src/stm32u5xx_hal_pwr_ex.c **** 
1091:Drivers/STM32U5xx_HAL_Driver/Src/stm32u5xx_hal_pwr_ex.c ****       /* Disable EXTI UVM event and interrupt */
1092:Drivers/STM32U5xx_HAL_Driver/Src/stm32u5xx_hal_pwr_ex.c ****       __HAL_PWR_UVM_EXTI_DISABLE_EVENT();
1093:Drivers/STM32U5xx_HAL_Driver/Src/stm32u5xx_hal_pwr_ex.c ****       __HAL_PWR_UVM_EXTI_DISABLE_IT();
1094:Drivers/STM32U5xx_HAL_Driver/Src/stm32u5xx_hal_pwr_ex.c ****       __HAL_PWR_UVM_EXTI_DISABLE_RISING_EDGE();
1095:Drivers/STM32U5xx_HAL_Driver/Src/stm32u5xx_hal_pwr_ex.c ****       __HAL_PWR_UVM_EXTI_DISABLE_FALLING_EDGE();
1096:Drivers/STM32U5xx_HAL_Driver/Src/stm32u5xx_hal_pwr_ex.c **** 
1097:Drivers/STM32U5xx_HAL_Driver/Src/stm32u5xx_hal_pwr_ex.c ****       /* Configure the UVM in interrupt mode */
1098:Drivers/STM32U5xx_HAL_Driver/Src/stm32u5xx_hal_pwr_ex.c ****       if ((pConfigPVM->Mode & PVM_MODE_IT) == PVM_MODE_IT)
1099:Drivers/STM32U5xx_HAL_Driver/Src/stm32u5xx_hal_pwr_ex.c ****       {
1100:Drivers/STM32U5xx_HAL_Driver/Src/stm32u5xx_hal_pwr_ex.c ****         __HAL_PWR_UVM_EXTI_ENABLE_IT();
1101:Drivers/STM32U5xx_HAL_Driver/Src/stm32u5xx_hal_pwr_ex.c ****       }
1102:Drivers/STM32U5xx_HAL_Driver/Src/stm32u5xx_hal_pwr_ex.c **** 
1103:Drivers/STM32U5xx_HAL_Driver/Src/stm32u5xx_hal_pwr_ex.c ****       /* Configure the UVM in event mode */
1104:Drivers/STM32U5xx_HAL_Driver/Src/stm32u5xx_hal_pwr_ex.c ****       if ((pConfigPVM->Mode & PVM_MODE_EVT) == PVM_MODE_EVT)
1105:Drivers/STM32U5xx_HAL_Driver/Src/stm32u5xx_hal_pwr_ex.c ****       {
1106:Drivers/STM32U5xx_HAL_Driver/Src/stm32u5xx_hal_pwr_ex.c ****         __HAL_PWR_UVM_EXTI_ENABLE_EVENT();
1107:Drivers/STM32U5xx_HAL_Driver/Src/stm32u5xx_hal_pwr_ex.c ****       }
1108:Drivers/STM32U5xx_HAL_Driver/Src/stm32u5xx_hal_pwr_ex.c **** 
1109:Drivers/STM32U5xx_HAL_Driver/Src/stm32u5xx_hal_pwr_ex.c ****       /* Configure the UVM in rising edge */
1110:Drivers/STM32U5xx_HAL_Driver/Src/stm32u5xx_hal_pwr_ex.c ****       if ((pConfigPVM->Mode & PVM_RISING_EDGE) == PVM_RISING_EDGE)
1111:Drivers/STM32U5xx_HAL_Driver/Src/stm32u5xx_hal_pwr_ex.c ****       {
1112:Drivers/STM32U5xx_HAL_Driver/Src/stm32u5xx_hal_pwr_ex.c ****         __HAL_PWR_UVM_EXTI_ENABLE_RISING_EDGE();
1113:Drivers/STM32U5xx_HAL_Driver/Src/stm32u5xx_hal_pwr_ex.c ****       }
1114:Drivers/STM32U5xx_HAL_Driver/Src/stm32u5xx_hal_pwr_ex.c **** 
1115:Drivers/STM32U5xx_HAL_Driver/Src/stm32u5xx_hal_pwr_ex.c ****       /* Configure the UVM in falling edge */
1116:Drivers/STM32U5xx_HAL_Driver/Src/stm32u5xx_hal_pwr_ex.c ****       if ((pConfigPVM->Mode & PVM_FALLING_EDGE) == PVM_FALLING_EDGE)
1117:Drivers/STM32U5xx_HAL_Driver/Src/stm32u5xx_hal_pwr_ex.c ****       {
1118:Drivers/STM32U5xx_HAL_Driver/Src/stm32u5xx_hal_pwr_ex.c ****         __HAL_PWR_UVM_EXTI_ENABLE_FALLING_EDGE();
1119:Drivers/STM32U5xx_HAL_Driver/Src/stm32u5xx_hal_pwr_ex.c ****       }
1120:Drivers/STM32U5xx_HAL_Driver/Src/stm32u5xx_hal_pwr_ex.c **** 
1121:Drivers/STM32U5xx_HAL_Driver/Src/stm32u5xx_hal_pwr_ex.c ****       break;
1122:Drivers/STM32U5xx_HAL_Driver/Src/stm32u5xx_hal_pwr_ex.c **** 
1123:Drivers/STM32U5xx_HAL_Driver/Src/stm32u5xx_hal_pwr_ex.c ****     case PWR_IO2VM: /* Independent I/Os voltage monitor */
1124:Drivers/STM32U5xx_HAL_Driver/Src/stm32u5xx_hal_pwr_ex.c **** 
1125:Drivers/STM32U5xx_HAL_Driver/Src/stm32u5xx_hal_pwr_ex.c ****       /* Disable EXTI IO2VM event and interrupt */
1126:Drivers/STM32U5xx_HAL_Driver/Src/stm32u5xx_hal_pwr_ex.c ****       __HAL_PWR_IO2VM_EXTI_DISABLE_EVENT();
 1019              		.loc 1 1126 7 is_stmt 1 view .LVU223
 1020 0022 874B     		ldr	r3, .L117
 1021 0024 D3F88410 		ldr	r1, [r3, #132]
 1022 0028 21F48011 		bic	r1, r1, #1048576
 1023 002c C3F88410 		str	r1, [r3, #132]
1127:Drivers/STM32U5xx_HAL_Driver/Src/stm32u5xx_hal_pwr_ex.c ****       __HAL_PWR_IO2VM_EXTI_DISABLE_IT();
 1024              		.loc 1 1127 7 view .LVU224
 1025 0030 D3F88010 		ldr	r1, [r3, #128]
 1026 0034 21F48011 		bic	r1, r1, #1048576
ARM GAS  C:\Users\Ya\AppData\Local\Temp\ccLrGXJ9.s 			page 40


 1027 0038 C3F88010 		str	r1, [r3, #128]
1128:Drivers/STM32U5xx_HAL_Driver/Src/stm32u5xx_hal_pwr_ex.c ****       __HAL_PWR_IO2VM_EXTI_DISABLE_RISING_EDGE();
 1028              		.loc 1 1128 7 view .LVU225
 1029 003c 1968     		ldr	r1, [r3]
 1030 003e 21F48011 		bic	r1, r1, #1048576
 1031 0042 1960     		str	r1, [r3]
1129:Drivers/STM32U5xx_HAL_Driver/Src/stm32u5xx_hal_pwr_ex.c ****       __HAL_PWR_IO2VM_EXTI_DISABLE_FALLING_EDGE();
 1032              		.loc 1 1129 7 view .LVU226
 1033 0044 5968     		ldr	r1, [r3, #4]
 1034 0046 21F48011 		bic	r1, r1, #1048576
 1035 004a 5960     		str	r1, [r3, #4]
1130:Drivers/STM32U5xx_HAL_Driver/Src/stm32u5xx_hal_pwr_ex.c **** 
1131:Drivers/STM32U5xx_HAL_Driver/Src/stm32u5xx_hal_pwr_ex.c ****       /* Configure the IO2VM in interrupt mode */
1132:Drivers/STM32U5xx_HAL_Driver/Src/stm32u5xx_hal_pwr_ex.c ****       if ((pConfigPVM->Mode & PVM_MODE_IT) == PVM_MODE_IT)
 1036              		.loc 1 1132 7 view .LVU227
 1037              		.loc 1 1132 22 is_stmt 0 view .LVU228
 1038 004c 4368     		ldr	r3, [r0, #4]
 1039              		.loc 1 1132 10 view .LVU229
 1040 004e 13F0040F 		tst	r3, #4
 1041 0052 06D0     		beq	.L101
1133:Drivers/STM32U5xx_HAL_Driver/Src/stm32u5xx_hal_pwr_ex.c ****       {
1134:Drivers/STM32U5xx_HAL_Driver/Src/stm32u5xx_hal_pwr_ex.c ****         __HAL_PWR_IO2VM_EXTI_ENABLE_IT();
 1042              		.loc 1 1134 9 is_stmt 1 view .LVU230
 1043 0054 7A49     		ldr	r1, .L117
 1044 0056 D1F88030 		ldr	r3, [r1, #128]
 1045 005a 43F48013 		orr	r3, r3, #1048576
 1046 005e C1F88030 		str	r3, [r1, #128]
 1047              	.L101:
1135:Drivers/STM32U5xx_HAL_Driver/Src/stm32u5xx_hal_pwr_ex.c ****       }
1136:Drivers/STM32U5xx_HAL_Driver/Src/stm32u5xx_hal_pwr_ex.c **** 
1137:Drivers/STM32U5xx_HAL_Driver/Src/stm32u5xx_hal_pwr_ex.c ****       /* Configure the IO2VM in event mode */
1138:Drivers/STM32U5xx_HAL_Driver/Src/stm32u5xx_hal_pwr_ex.c ****       if ((pConfigPVM->Mode & PVM_MODE_EVT) == PVM_MODE_EVT)
 1048              		.loc 1 1138 7 view .LVU231
 1049              		.loc 1 1138 22 is_stmt 0 view .LVU232
 1050 0062 5368     		ldr	r3, [r2, #4]
 1051              		.loc 1 1138 10 view .LVU233
 1052 0064 13F0080F 		tst	r3, #8
 1053 0068 06D0     		beq	.L102
1139:Drivers/STM32U5xx_HAL_Driver/Src/stm32u5xx_hal_pwr_ex.c ****       {
1140:Drivers/STM32U5xx_HAL_Driver/Src/stm32u5xx_hal_pwr_ex.c ****         __HAL_PWR_IO2VM_EXTI_ENABLE_EVENT();
 1054              		.loc 1 1140 9 is_stmt 1 view .LVU234
 1055 006a 7549     		ldr	r1, .L117
 1056 006c D1F88430 		ldr	r3, [r1, #132]
 1057 0070 43F48013 		orr	r3, r3, #1048576
 1058 0074 C1F88430 		str	r3, [r1, #132]
 1059              	.L102:
1141:Drivers/STM32U5xx_HAL_Driver/Src/stm32u5xx_hal_pwr_ex.c ****       }
1142:Drivers/STM32U5xx_HAL_Driver/Src/stm32u5xx_hal_pwr_ex.c **** 
1143:Drivers/STM32U5xx_HAL_Driver/Src/stm32u5xx_hal_pwr_ex.c ****       /* Configure the IO2VM in rising edge */
1144:Drivers/STM32U5xx_HAL_Driver/Src/stm32u5xx_hal_pwr_ex.c ****       if ((pConfigPVM->Mode & PVM_RISING_EDGE) == PVM_RISING_EDGE)
 1060              		.loc 1 1144 7 view .LVU235
 1061              		.loc 1 1144 22 is_stmt 0 view .LVU236
 1062 0078 5368     		ldr	r3, [r2, #4]
 1063              		.loc 1 1144 10 view .LVU237
 1064 007a 13F0010F 		tst	r3, #1
 1065 007e 04D0     		beq	.L103
1145:Drivers/STM32U5xx_HAL_Driver/Src/stm32u5xx_hal_pwr_ex.c ****       {
ARM GAS  C:\Users\Ya\AppData\Local\Temp\ccLrGXJ9.s 			page 41


1146:Drivers/STM32U5xx_HAL_Driver/Src/stm32u5xx_hal_pwr_ex.c ****         __HAL_PWR_IO2VM_EXTI_ENABLE_RISING_EDGE();
 1066              		.loc 1 1146 9 is_stmt 1 view .LVU238
 1067 0080 6F49     		ldr	r1, .L117
 1068 0082 0B68     		ldr	r3, [r1]
 1069 0084 43F48013 		orr	r3, r3, #1048576
 1070 0088 0B60     		str	r3, [r1]
 1071              	.L103:
1147:Drivers/STM32U5xx_HAL_Driver/Src/stm32u5xx_hal_pwr_ex.c ****       }
1148:Drivers/STM32U5xx_HAL_Driver/Src/stm32u5xx_hal_pwr_ex.c **** 
1149:Drivers/STM32U5xx_HAL_Driver/Src/stm32u5xx_hal_pwr_ex.c ****       /* Configure the IO2VM in falling edge */
1150:Drivers/STM32U5xx_HAL_Driver/Src/stm32u5xx_hal_pwr_ex.c ****       if ((pConfigPVM->Mode & PVM_FALLING_EDGE) == PVM_FALLING_EDGE)
 1072              		.loc 1 1150 7 view .LVU239
 1073              		.loc 1 1150 22 is_stmt 0 view .LVU240
 1074 008a 5368     		ldr	r3, [r2, #4]
 1075              		.loc 1 1150 10 view .LVU241
 1076 008c 13F0020F 		tst	r3, #2
 1077 0090 00F0D080 		beq	.L112
1151:Drivers/STM32U5xx_HAL_Driver/Src/stm32u5xx_hal_pwr_ex.c ****       {
1152:Drivers/STM32U5xx_HAL_Driver/Src/stm32u5xx_hal_pwr_ex.c ****         __HAL_PWR_IO2VM_EXTI_ENABLE_FALLING_EDGE();
 1078              		.loc 1 1152 9 is_stmt 1 view .LVU242
 1079 0094 6A4A     		ldr	r2, .L117
 1080 0096 5368     		ldr	r3, [r2, #4]
 1081 0098 43F48013 		orr	r3, r3, #1048576
 1082 009c 5360     		str	r3, [r2, #4]
1153:Drivers/STM32U5xx_HAL_Driver/Src/stm32u5xx_hal_pwr_ex.c ****       }
1154:Drivers/STM32U5xx_HAL_Driver/Src/stm32u5xx_hal_pwr_ex.c **** 
1155:Drivers/STM32U5xx_HAL_Driver/Src/stm32u5xx_hal_pwr_ex.c ****       break;
1156:Drivers/STM32U5xx_HAL_Driver/Src/stm32u5xx_hal_pwr_ex.c **** 
1157:Drivers/STM32U5xx_HAL_Driver/Src/stm32u5xx_hal_pwr_ex.c ****     case PWR_AVM1: /* VDDA Independent analog supply voltage monitor 1 (1.6V threshold) */
1158:Drivers/STM32U5xx_HAL_Driver/Src/stm32u5xx_hal_pwr_ex.c **** 
1159:Drivers/STM32U5xx_HAL_Driver/Src/stm32u5xx_hal_pwr_ex.c ****       /* Disable EXTI AVM1 event and interrupt */
1160:Drivers/STM32U5xx_HAL_Driver/Src/stm32u5xx_hal_pwr_ex.c ****       __HAL_PWR_AVM1_EXTI_DISABLE_EVENT();
1161:Drivers/STM32U5xx_HAL_Driver/Src/stm32u5xx_hal_pwr_ex.c ****       __HAL_PWR_AVM1_EXTI_DISABLE_IT();
1162:Drivers/STM32U5xx_HAL_Driver/Src/stm32u5xx_hal_pwr_ex.c ****       __HAL_PWR_AVM1_EXTI_DISABLE_RISING_EDGE();
1163:Drivers/STM32U5xx_HAL_Driver/Src/stm32u5xx_hal_pwr_ex.c ****       __HAL_PWR_AVM1_EXTI_DISABLE_FALLING_EDGE();
1164:Drivers/STM32U5xx_HAL_Driver/Src/stm32u5xx_hal_pwr_ex.c **** 
1165:Drivers/STM32U5xx_HAL_Driver/Src/stm32u5xx_hal_pwr_ex.c ****       /* Configure the AVM1 in interrupt mode */
1166:Drivers/STM32U5xx_HAL_Driver/Src/stm32u5xx_hal_pwr_ex.c ****       if ((pConfigPVM->Mode & PVM_MODE_IT) == PVM_MODE_IT)
1167:Drivers/STM32U5xx_HAL_Driver/Src/stm32u5xx_hal_pwr_ex.c ****       {
1168:Drivers/STM32U5xx_HAL_Driver/Src/stm32u5xx_hal_pwr_ex.c ****         __HAL_PWR_AVM1_EXTI_ENABLE_IT();
1169:Drivers/STM32U5xx_HAL_Driver/Src/stm32u5xx_hal_pwr_ex.c ****       }
1170:Drivers/STM32U5xx_HAL_Driver/Src/stm32u5xx_hal_pwr_ex.c **** 
1171:Drivers/STM32U5xx_HAL_Driver/Src/stm32u5xx_hal_pwr_ex.c ****       /* Configure the AVM1 in event mode */
1172:Drivers/STM32U5xx_HAL_Driver/Src/stm32u5xx_hal_pwr_ex.c ****       if ((pConfigPVM->Mode & PVM_MODE_EVT) == PVM_MODE_EVT)
1173:Drivers/STM32U5xx_HAL_Driver/Src/stm32u5xx_hal_pwr_ex.c ****       {
1174:Drivers/STM32U5xx_HAL_Driver/Src/stm32u5xx_hal_pwr_ex.c ****         __HAL_PWR_AVM1_EXTI_ENABLE_EVENT();
1175:Drivers/STM32U5xx_HAL_Driver/Src/stm32u5xx_hal_pwr_ex.c ****       }
1176:Drivers/STM32U5xx_HAL_Driver/Src/stm32u5xx_hal_pwr_ex.c **** 
1177:Drivers/STM32U5xx_HAL_Driver/Src/stm32u5xx_hal_pwr_ex.c ****       /* Configure the AVM1 in rising edge */
1178:Drivers/STM32U5xx_HAL_Driver/Src/stm32u5xx_hal_pwr_ex.c ****       if ((pConfigPVM->Mode & PVM_RISING_EDGE) == PVM_RISING_EDGE)
1179:Drivers/STM32U5xx_HAL_Driver/Src/stm32u5xx_hal_pwr_ex.c ****       {
1180:Drivers/STM32U5xx_HAL_Driver/Src/stm32u5xx_hal_pwr_ex.c ****         __HAL_PWR_AVM1_EXTI_ENABLE_RISING_EDGE();
1181:Drivers/STM32U5xx_HAL_Driver/Src/stm32u5xx_hal_pwr_ex.c ****       }
1182:Drivers/STM32U5xx_HAL_Driver/Src/stm32u5xx_hal_pwr_ex.c **** 
1183:Drivers/STM32U5xx_HAL_Driver/Src/stm32u5xx_hal_pwr_ex.c ****       /* Configure the AVM1 in falling edge */
1184:Drivers/STM32U5xx_HAL_Driver/Src/stm32u5xx_hal_pwr_ex.c ****       if ((pConfigPVM->Mode & PVM_FALLING_EDGE) == PVM_FALLING_EDGE)
1185:Drivers/STM32U5xx_HAL_Driver/Src/stm32u5xx_hal_pwr_ex.c ****       {
ARM GAS  C:\Users\Ya\AppData\Local\Temp\ccLrGXJ9.s 			page 42


1186:Drivers/STM32U5xx_HAL_Driver/Src/stm32u5xx_hal_pwr_ex.c ****         __HAL_PWR_AVM1_EXTI_ENABLE_FALLING_EDGE();
1187:Drivers/STM32U5xx_HAL_Driver/Src/stm32u5xx_hal_pwr_ex.c ****       }
1188:Drivers/STM32U5xx_HAL_Driver/Src/stm32u5xx_hal_pwr_ex.c **** 
1189:Drivers/STM32U5xx_HAL_Driver/Src/stm32u5xx_hal_pwr_ex.c ****       break;
1190:Drivers/STM32U5xx_HAL_Driver/Src/stm32u5xx_hal_pwr_ex.c **** 
1191:Drivers/STM32U5xx_HAL_Driver/Src/stm32u5xx_hal_pwr_ex.c ****     case PWR_AVM2: /* VDDA Independent analog supply voltage monitor 2 (1.8V threshold) */
1192:Drivers/STM32U5xx_HAL_Driver/Src/stm32u5xx_hal_pwr_ex.c **** 
1193:Drivers/STM32U5xx_HAL_Driver/Src/stm32u5xx_hal_pwr_ex.c ****       /* Disable EXTI AVM2 event and interrupt */
1194:Drivers/STM32U5xx_HAL_Driver/Src/stm32u5xx_hal_pwr_ex.c ****       __HAL_PWR_AVM2_EXTI_DISABLE_EVENT();
1195:Drivers/STM32U5xx_HAL_Driver/Src/stm32u5xx_hal_pwr_ex.c ****       __HAL_PWR_AVM2_EXTI_DISABLE_IT();
1196:Drivers/STM32U5xx_HAL_Driver/Src/stm32u5xx_hal_pwr_ex.c ****       __HAL_PWR_AVM2_EXTI_DISABLE_RISING_EDGE();
1197:Drivers/STM32U5xx_HAL_Driver/Src/stm32u5xx_hal_pwr_ex.c ****       __HAL_PWR_AVM2_EXTI_DISABLE_FALLING_EDGE();
1198:Drivers/STM32U5xx_HAL_Driver/Src/stm32u5xx_hal_pwr_ex.c **** 
1199:Drivers/STM32U5xx_HAL_Driver/Src/stm32u5xx_hal_pwr_ex.c ****       /* Configure the AVM2 in interrupt mode */
1200:Drivers/STM32U5xx_HAL_Driver/Src/stm32u5xx_hal_pwr_ex.c ****       if ((pConfigPVM->Mode & PVM_MODE_IT) == PVM_MODE_IT)
1201:Drivers/STM32U5xx_HAL_Driver/Src/stm32u5xx_hal_pwr_ex.c ****       {
1202:Drivers/STM32U5xx_HAL_Driver/Src/stm32u5xx_hal_pwr_ex.c ****         __HAL_PWR_AVM2_EXTI_ENABLE_IT();
1203:Drivers/STM32U5xx_HAL_Driver/Src/stm32u5xx_hal_pwr_ex.c ****       }
1204:Drivers/STM32U5xx_HAL_Driver/Src/stm32u5xx_hal_pwr_ex.c **** 
1205:Drivers/STM32U5xx_HAL_Driver/Src/stm32u5xx_hal_pwr_ex.c ****       /* Configure the AVM2 in event mode */
1206:Drivers/STM32U5xx_HAL_Driver/Src/stm32u5xx_hal_pwr_ex.c ****       if ((pConfigPVM->Mode & PVM_MODE_EVT) == PVM_MODE_EVT)
1207:Drivers/STM32U5xx_HAL_Driver/Src/stm32u5xx_hal_pwr_ex.c ****       {
1208:Drivers/STM32U5xx_HAL_Driver/Src/stm32u5xx_hal_pwr_ex.c ****         __HAL_PWR_AVM2_EXTI_ENABLE_EVENT();
1209:Drivers/STM32U5xx_HAL_Driver/Src/stm32u5xx_hal_pwr_ex.c ****       }
1210:Drivers/STM32U5xx_HAL_Driver/Src/stm32u5xx_hal_pwr_ex.c **** 
1211:Drivers/STM32U5xx_HAL_Driver/Src/stm32u5xx_hal_pwr_ex.c ****       /* Configure the AVM2 in rising edge */
1212:Drivers/STM32U5xx_HAL_Driver/Src/stm32u5xx_hal_pwr_ex.c ****       if ((pConfigPVM->Mode & PVM_RISING_EDGE) == PVM_RISING_EDGE)
1213:Drivers/STM32U5xx_HAL_Driver/Src/stm32u5xx_hal_pwr_ex.c ****       {
1214:Drivers/STM32U5xx_HAL_Driver/Src/stm32u5xx_hal_pwr_ex.c ****         __HAL_PWR_AVM2_EXTI_ENABLE_RISING_EDGE();
1215:Drivers/STM32U5xx_HAL_Driver/Src/stm32u5xx_hal_pwr_ex.c ****       }
1216:Drivers/STM32U5xx_HAL_Driver/Src/stm32u5xx_hal_pwr_ex.c **** 
1217:Drivers/STM32U5xx_HAL_Driver/Src/stm32u5xx_hal_pwr_ex.c ****       /* Configure the AVM2 in falling edge */
1218:Drivers/STM32U5xx_HAL_Driver/Src/stm32u5xx_hal_pwr_ex.c ****       if ((pConfigPVM->Mode & PVM_FALLING_EDGE) == PVM_FALLING_EDGE)
1219:Drivers/STM32U5xx_HAL_Driver/Src/stm32u5xx_hal_pwr_ex.c ****       {
1220:Drivers/STM32U5xx_HAL_Driver/Src/stm32u5xx_hal_pwr_ex.c ****         __HAL_PWR_AVM2_EXTI_ENABLE_FALLING_EDGE();
1221:Drivers/STM32U5xx_HAL_Driver/Src/stm32u5xx_hal_pwr_ex.c ****       }
1222:Drivers/STM32U5xx_HAL_Driver/Src/stm32u5xx_hal_pwr_ex.c **** 
1223:Drivers/STM32U5xx_HAL_Driver/Src/stm32u5xx_hal_pwr_ex.c ****       break;
1224:Drivers/STM32U5xx_HAL_Driver/Src/stm32u5xx_hal_pwr_ex.c **** 
1225:Drivers/STM32U5xx_HAL_Driver/Src/stm32u5xx_hal_pwr_ex.c ****     default: /* No valid voltage monitor selected */
1226:Drivers/STM32U5xx_HAL_Driver/Src/stm32u5xx_hal_pwr_ex.c ****       return HAL_ERROR;
1227:Drivers/STM32U5xx_HAL_Driver/Src/stm32u5xx_hal_pwr_ex.c ****       break;
1228:Drivers/STM32U5xx_HAL_Driver/Src/stm32u5xx_hal_pwr_ex.c ****   }
1229:Drivers/STM32U5xx_HAL_Driver/Src/stm32u5xx_hal_pwr_ex.c **** 
1230:Drivers/STM32U5xx_HAL_Driver/Src/stm32u5xx_hal_pwr_ex.c ****   return HAL_OK;
 1083              		.loc 1 1230 10 is_stmt 0 view .LVU243
 1084 009e 0020     		movs	r0, #0
 1085              	.LVL41:
 1086              		.loc 1 1230 10 view .LVU244
 1087 00a0 7047     		bx	lr
 1088              	.LVL42:
 1089              	.L115:
1087:Drivers/STM32U5xx_HAL_Driver/Src/stm32u5xx_hal_pwr_ex.c ****   {
 1090              		.loc 1 1087 3 view .LVU245
 1091 00a2 0120     		movs	r0, #1
 1092              	.LVL43:
1087:Drivers/STM32U5xx_HAL_Driver/Src/stm32u5xx_hal_pwr_ex.c ****   {
ARM GAS  C:\Users\Ya\AppData\Local\Temp\ccLrGXJ9.s 			page 43


 1093              		.loc 1 1087 3 view .LVU246
 1094 00a4 7047     		bx	lr
 1095              	.LVL44:
 1096              	.L94:
1087:Drivers/STM32U5xx_HAL_Driver/Src/stm32u5xx_hal_pwr_ex.c ****   {
 1097              		.loc 1 1087 3 view .LVU247
 1098 00a6 B3F1006F 		cmp	r3, #134217728
 1099 00aa 3FD1     		bne	.L116
1194:Drivers/STM32U5xx_HAL_Driver/Src/stm32u5xx_hal_pwr_ex.c ****       __HAL_PWR_AVM2_EXTI_DISABLE_IT();
 1100              		.loc 1 1194 7 is_stmt 1 view .LVU248
 1101 00ac 644B     		ldr	r3, .L117
 1102 00ae D3F88410 		ldr	r1, [r3, #132]
 1103 00b2 21F48001 		bic	r1, r1, #4194304
 1104 00b6 C3F88410 		str	r1, [r3, #132]
1195:Drivers/STM32U5xx_HAL_Driver/Src/stm32u5xx_hal_pwr_ex.c ****       __HAL_PWR_AVM2_EXTI_DISABLE_RISING_EDGE();
 1105              		.loc 1 1195 7 view .LVU249
 1106 00ba D3F88010 		ldr	r1, [r3, #128]
 1107 00be 21F48001 		bic	r1, r1, #4194304
 1108 00c2 C3F88010 		str	r1, [r3, #128]
1196:Drivers/STM32U5xx_HAL_Driver/Src/stm32u5xx_hal_pwr_ex.c ****       __HAL_PWR_AVM2_EXTI_DISABLE_FALLING_EDGE();
 1109              		.loc 1 1196 7 view .LVU250
 1110 00c6 1968     		ldr	r1, [r3]
 1111 00c8 21F48001 		bic	r1, r1, #4194304
 1112 00cc 1960     		str	r1, [r3]
1197:Drivers/STM32U5xx_HAL_Driver/Src/stm32u5xx_hal_pwr_ex.c **** 
 1113              		.loc 1 1197 7 view .LVU251
 1114 00ce 5968     		ldr	r1, [r3, #4]
 1115 00d0 21F48001 		bic	r1, r1, #4194304
 1116 00d4 5960     		str	r1, [r3, #4]
1200:Drivers/STM32U5xx_HAL_Driver/Src/stm32u5xx_hal_pwr_ex.c ****       {
 1117              		.loc 1 1200 7 view .LVU252
1200:Drivers/STM32U5xx_HAL_Driver/Src/stm32u5xx_hal_pwr_ex.c ****       {
 1118              		.loc 1 1200 22 is_stmt 0 view .LVU253
 1119 00d6 4368     		ldr	r3, [r0, #4]
1200:Drivers/STM32U5xx_HAL_Driver/Src/stm32u5xx_hal_pwr_ex.c ****       {
 1120              		.loc 1 1200 10 view .LVU254
 1121 00d8 13F0040F 		tst	r3, #4
 1122 00dc 06D0     		beq	.L107
1202:Drivers/STM32U5xx_HAL_Driver/Src/stm32u5xx_hal_pwr_ex.c ****       }
 1123              		.loc 1 1202 9 is_stmt 1 view .LVU255
 1124 00de 5849     		ldr	r1, .L117
 1125 00e0 D1F88030 		ldr	r3, [r1, #128]
 1126 00e4 43F48003 		orr	r3, r3, #4194304
 1127 00e8 C1F88030 		str	r3, [r1, #128]
 1128              	.L107:
1206:Drivers/STM32U5xx_HAL_Driver/Src/stm32u5xx_hal_pwr_ex.c ****       {
 1129              		.loc 1 1206 7 view .LVU256
1206:Drivers/STM32U5xx_HAL_Driver/Src/stm32u5xx_hal_pwr_ex.c ****       {
 1130              		.loc 1 1206 22 is_stmt 0 view .LVU257
 1131 00ec 5368     		ldr	r3, [r2, #4]
1206:Drivers/STM32U5xx_HAL_Driver/Src/stm32u5xx_hal_pwr_ex.c ****       {
 1132              		.loc 1 1206 10 view .LVU258
 1133 00ee 13F0080F 		tst	r3, #8
 1134 00f2 06D0     		beq	.L108
1208:Drivers/STM32U5xx_HAL_Driver/Src/stm32u5xx_hal_pwr_ex.c ****       }
 1135              		.loc 1 1208 9 is_stmt 1 view .LVU259
 1136 00f4 5249     		ldr	r1, .L117
ARM GAS  C:\Users\Ya\AppData\Local\Temp\ccLrGXJ9.s 			page 44


 1137 00f6 D1F88430 		ldr	r3, [r1, #132]
 1138 00fa 43F48003 		orr	r3, r3, #4194304
 1139 00fe C1F88430 		str	r3, [r1, #132]
 1140              	.L108:
1212:Drivers/STM32U5xx_HAL_Driver/Src/stm32u5xx_hal_pwr_ex.c ****       {
 1141              		.loc 1 1212 7 view .LVU260
1212:Drivers/STM32U5xx_HAL_Driver/Src/stm32u5xx_hal_pwr_ex.c ****       {
 1142              		.loc 1 1212 22 is_stmt 0 view .LVU261
 1143 0102 5368     		ldr	r3, [r2, #4]
1212:Drivers/STM32U5xx_HAL_Driver/Src/stm32u5xx_hal_pwr_ex.c ****       {
 1144              		.loc 1 1212 10 view .LVU262
 1145 0104 13F0010F 		tst	r3, #1
 1146 0108 04D0     		beq	.L109
1214:Drivers/STM32U5xx_HAL_Driver/Src/stm32u5xx_hal_pwr_ex.c ****       }
 1147              		.loc 1 1214 9 is_stmt 1 view .LVU263
 1148 010a 4D49     		ldr	r1, .L117
 1149 010c 0B68     		ldr	r3, [r1]
 1150 010e 43F48003 		orr	r3, r3, #4194304
 1151 0112 0B60     		str	r3, [r1]
 1152              	.L109:
1218:Drivers/STM32U5xx_HAL_Driver/Src/stm32u5xx_hal_pwr_ex.c ****       {
 1153              		.loc 1 1218 7 view .LVU264
1218:Drivers/STM32U5xx_HAL_Driver/Src/stm32u5xx_hal_pwr_ex.c ****       {
 1154              		.loc 1 1218 22 is_stmt 0 view .LVU265
 1155 0114 5368     		ldr	r3, [r2, #4]
1218:Drivers/STM32U5xx_HAL_Driver/Src/stm32u5xx_hal_pwr_ex.c ****       {
 1156              		.loc 1 1218 10 view .LVU266
 1157 0116 13F0020F 		tst	r3, #2
 1158 011a 00F08F80 		beq	.L114
1220:Drivers/STM32U5xx_HAL_Driver/Src/stm32u5xx_hal_pwr_ex.c ****       }
 1159              		.loc 1 1220 9 is_stmt 1 view .LVU267
 1160 011e 484A     		ldr	r2, .L117
 1161 0120 5368     		ldr	r3, [r2, #4]
 1162 0122 43F48003 		orr	r3, r3, #4194304
 1163 0126 5360     		str	r3, [r2, #4]
 1164              		.loc 1 1230 10 is_stmt 0 view .LVU268
 1165 0128 0020     		movs	r0, #0
 1166              	.LVL45:
 1167              		.loc 1 1230 10 view .LVU269
 1168 012a 7047     		bx	lr
 1169              	.LVL46:
 1170              	.L116:
1087:Drivers/STM32U5xx_HAL_Driver/Src/stm32u5xx_hal_pwr_ex.c ****   {
 1171              		.loc 1 1087 3 view .LVU270
 1172 012c 0120     		movs	r0, #1
 1173              	.LVL47:
1087:Drivers/STM32U5xx_HAL_Driver/Src/stm32u5xx_hal_pwr_ex.c ****   {
 1174              		.loc 1 1087 3 view .LVU271
 1175 012e 7047     		bx	lr
 1176              	.LVL48:
 1177              	.L95:
1092:Drivers/STM32U5xx_HAL_Driver/Src/stm32u5xx_hal_pwr_ex.c ****       __HAL_PWR_UVM_EXTI_DISABLE_IT();
 1178              		.loc 1 1092 7 is_stmt 1 view .LVU272
 1179 0130 434B     		ldr	r3, .L117
 1180 0132 D3F88410 		ldr	r1, [r3, #132]
 1181 0136 21F40021 		bic	r1, r1, #524288
 1182 013a C3F88410 		str	r1, [r3, #132]
ARM GAS  C:\Users\Ya\AppData\Local\Temp\ccLrGXJ9.s 			page 45


1093:Drivers/STM32U5xx_HAL_Driver/Src/stm32u5xx_hal_pwr_ex.c ****       __HAL_PWR_UVM_EXTI_DISABLE_RISING_EDGE();
 1183              		.loc 1 1093 7 view .LVU273
 1184 013e D3F88010 		ldr	r1, [r3, #128]
 1185 0142 21F40021 		bic	r1, r1, #524288
 1186 0146 C3F88010 		str	r1, [r3, #128]
1094:Drivers/STM32U5xx_HAL_Driver/Src/stm32u5xx_hal_pwr_ex.c ****       __HAL_PWR_UVM_EXTI_DISABLE_FALLING_EDGE();
 1187              		.loc 1 1094 7 view .LVU274
 1188 014a 1968     		ldr	r1, [r3]
 1189 014c 21F40021 		bic	r1, r1, #524288
 1190 0150 1960     		str	r1, [r3]
1095:Drivers/STM32U5xx_HAL_Driver/Src/stm32u5xx_hal_pwr_ex.c **** 
 1191              		.loc 1 1095 7 view .LVU275
 1192 0152 5968     		ldr	r1, [r3, #4]
 1193 0154 21F40021 		bic	r1, r1, #524288
 1194 0158 5960     		str	r1, [r3, #4]
1098:Drivers/STM32U5xx_HAL_Driver/Src/stm32u5xx_hal_pwr_ex.c ****       {
 1195              		.loc 1 1098 7 view .LVU276
1098:Drivers/STM32U5xx_HAL_Driver/Src/stm32u5xx_hal_pwr_ex.c ****       {
 1196              		.loc 1 1098 22 is_stmt 0 view .LVU277
 1197 015a 4368     		ldr	r3, [r0, #4]
1098:Drivers/STM32U5xx_HAL_Driver/Src/stm32u5xx_hal_pwr_ex.c ****       {
 1198              		.loc 1 1098 10 view .LVU278
 1199 015c 13F0040F 		tst	r3, #4
 1200 0160 06D0     		beq	.L98
1100:Drivers/STM32U5xx_HAL_Driver/Src/stm32u5xx_hal_pwr_ex.c ****       }
 1201              		.loc 1 1100 9 is_stmt 1 view .LVU279
 1202 0162 3749     		ldr	r1, .L117
 1203 0164 D1F88030 		ldr	r3, [r1, #128]
 1204 0168 43F40023 		orr	r3, r3, #524288
 1205 016c C1F88030 		str	r3, [r1, #128]
 1206              	.L98:
1104:Drivers/STM32U5xx_HAL_Driver/Src/stm32u5xx_hal_pwr_ex.c ****       {
 1207              		.loc 1 1104 7 view .LVU280
1104:Drivers/STM32U5xx_HAL_Driver/Src/stm32u5xx_hal_pwr_ex.c ****       {
 1208              		.loc 1 1104 22 is_stmt 0 view .LVU281
 1209 0170 5368     		ldr	r3, [r2, #4]
1104:Drivers/STM32U5xx_HAL_Driver/Src/stm32u5xx_hal_pwr_ex.c ****       {
 1210              		.loc 1 1104 10 view .LVU282
 1211 0172 13F0080F 		tst	r3, #8
 1212 0176 06D0     		beq	.L99
1106:Drivers/STM32U5xx_HAL_Driver/Src/stm32u5xx_hal_pwr_ex.c ****       }
 1213              		.loc 1 1106 9 is_stmt 1 view .LVU283
 1214 0178 3149     		ldr	r1, .L117
 1215 017a D1F88430 		ldr	r3, [r1, #132]
 1216 017e 43F40023 		orr	r3, r3, #524288
 1217 0182 C1F88430 		str	r3, [r1, #132]
 1218              	.L99:
1110:Drivers/STM32U5xx_HAL_Driver/Src/stm32u5xx_hal_pwr_ex.c ****       {
 1219              		.loc 1 1110 7 view .LVU284
1110:Drivers/STM32U5xx_HAL_Driver/Src/stm32u5xx_hal_pwr_ex.c ****       {
 1220              		.loc 1 1110 22 is_stmt 0 view .LVU285
 1221 0186 5368     		ldr	r3, [r2, #4]
1110:Drivers/STM32U5xx_HAL_Driver/Src/stm32u5xx_hal_pwr_ex.c ****       {
 1222              		.loc 1 1110 10 view .LVU286
 1223 0188 13F0010F 		tst	r3, #1
 1224 018c 04D0     		beq	.L100
1112:Drivers/STM32U5xx_HAL_Driver/Src/stm32u5xx_hal_pwr_ex.c ****       }
ARM GAS  C:\Users\Ya\AppData\Local\Temp\ccLrGXJ9.s 			page 46


 1225              		.loc 1 1112 9 is_stmt 1 view .LVU287
 1226 018e 2C49     		ldr	r1, .L117
 1227 0190 0B68     		ldr	r3, [r1]
 1228 0192 43F40023 		orr	r3, r3, #524288
 1229 0196 0B60     		str	r3, [r1]
 1230              	.L100:
1116:Drivers/STM32U5xx_HAL_Driver/Src/stm32u5xx_hal_pwr_ex.c ****       {
 1231              		.loc 1 1116 7 view .LVU288
1116:Drivers/STM32U5xx_HAL_Driver/Src/stm32u5xx_hal_pwr_ex.c ****       {
 1232              		.loc 1 1116 22 is_stmt 0 view .LVU289
 1233 0198 5368     		ldr	r3, [r2, #4]
1116:Drivers/STM32U5xx_HAL_Driver/Src/stm32u5xx_hal_pwr_ex.c ****       {
 1234              		.loc 1 1116 10 view .LVU290
 1235 019a 13F0020F 		tst	r3, #2
 1236 019e 47D0     		beq	.L111
1118:Drivers/STM32U5xx_HAL_Driver/Src/stm32u5xx_hal_pwr_ex.c ****       }
 1237              		.loc 1 1118 9 is_stmt 1 view .LVU291
 1238 01a0 274A     		ldr	r2, .L117
 1239 01a2 5368     		ldr	r3, [r2, #4]
 1240 01a4 43F40023 		orr	r3, r3, #524288
 1241 01a8 5360     		str	r3, [r2, #4]
 1242              		.loc 1 1230 10 is_stmt 0 view .LVU292
 1243 01aa 0020     		movs	r0, #0
 1244              	.LVL49:
 1245              		.loc 1 1230 10 view .LVU293
 1246 01ac 7047     		bx	lr
 1247              	.LVL50:
 1248              	.L93:
1160:Drivers/STM32U5xx_HAL_Driver/Src/stm32u5xx_hal_pwr_ex.c ****       __HAL_PWR_AVM1_EXTI_DISABLE_IT();
 1249              		.loc 1 1160 7 is_stmt 1 view .LVU294
 1250 01ae 244B     		ldr	r3, .L117
 1251 01b0 D3F88410 		ldr	r1, [r3, #132]
 1252 01b4 21F40011 		bic	r1, r1, #2097152
 1253 01b8 C3F88410 		str	r1, [r3, #132]
1161:Drivers/STM32U5xx_HAL_Driver/Src/stm32u5xx_hal_pwr_ex.c ****       __HAL_PWR_AVM1_EXTI_DISABLE_RISING_EDGE();
 1254              		.loc 1 1161 7 view .LVU295
 1255 01bc D3F88010 		ldr	r1, [r3, #128]
 1256 01c0 21F40011 		bic	r1, r1, #2097152
 1257 01c4 C3F88010 		str	r1, [r3, #128]
1162:Drivers/STM32U5xx_HAL_Driver/Src/stm32u5xx_hal_pwr_ex.c ****       __HAL_PWR_AVM1_EXTI_DISABLE_FALLING_EDGE();
 1258              		.loc 1 1162 7 view .LVU296
 1259 01c8 1968     		ldr	r1, [r3]
 1260 01ca 21F40011 		bic	r1, r1, #2097152
 1261 01ce 1960     		str	r1, [r3]
1163:Drivers/STM32U5xx_HAL_Driver/Src/stm32u5xx_hal_pwr_ex.c **** 
 1262              		.loc 1 1163 7 view .LVU297
 1263 01d0 5968     		ldr	r1, [r3, #4]
 1264 01d2 21F40011 		bic	r1, r1, #2097152
 1265 01d6 5960     		str	r1, [r3, #4]
1166:Drivers/STM32U5xx_HAL_Driver/Src/stm32u5xx_hal_pwr_ex.c ****       {
 1266              		.loc 1 1166 7 view .LVU298
1166:Drivers/STM32U5xx_HAL_Driver/Src/stm32u5xx_hal_pwr_ex.c ****       {
 1267              		.loc 1 1166 22 is_stmt 0 view .LVU299
 1268 01d8 4368     		ldr	r3, [r0, #4]
1166:Drivers/STM32U5xx_HAL_Driver/Src/stm32u5xx_hal_pwr_ex.c ****       {
 1269              		.loc 1 1166 10 view .LVU300
 1270 01da 13F0040F 		tst	r3, #4
ARM GAS  C:\Users\Ya\AppData\Local\Temp\ccLrGXJ9.s 			page 47


 1271 01de 06D0     		beq	.L104
1168:Drivers/STM32U5xx_HAL_Driver/Src/stm32u5xx_hal_pwr_ex.c ****       }
 1272              		.loc 1 1168 9 is_stmt 1 view .LVU301
 1273 01e0 1749     		ldr	r1, .L117
 1274 01e2 D1F88030 		ldr	r3, [r1, #128]
 1275 01e6 43F40013 		orr	r3, r3, #2097152
 1276 01ea C1F88030 		str	r3, [r1, #128]
 1277              	.L104:
1172:Drivers/STM32U5xx_HAL_Driver/Src/stm32u5xx_hal_pwr_ex.c ****       {
 1278              		.loc 1 1172 7 view .LVU302
1172:Drivers/STM32U5xx_HAL_Driver/Src/stm32u5xx_hal_pwr_ex.c ****       {
 1279              		.loc 1 1172 22 is_stmt 0 view .LVU303
 1280 01ee 5368     		ldr	r3, [r2, #4]
1172:Drivers/STM32U5xx_HAL_Driver/Src/stm32u5xx_hal_pwr_ex.c ****       {
 1281              		.loc 1 1172 10 view .LVU304
 1282 01f0 13F0080F 		tst	r3, #8
 1283 01f4 06D0     		beq	.L105
1174:Drivers/STM32U5xx_HAL_Driver/Src/stm32u5xx_hal_pwr_ex.c ****       }
 1284              		.loc 1 1174 9 is_stmt 1 view .LVU305
 1285 01f6 1249     		ldr	r1, .L117
 1286 01f8 D1F88430 		ldr	r3, [r1, #132]
 1287 01fc 43F40013 		orr	r3, r3, #2097152
 1288 0200 C1F88430 		str	r3, [r1, #132]
 1289              	.L105:
1178:Drivers/STM32U5xx_HAL_Driver/Src/stm32u5xx_hal_pwr_ex.c ****       {
 1290              		.loc 1 1178 7 view .LVU306
1178:Drivers/STM32U5xx_HAL_Driver/Src/stm32u5xx_hal_pwr_ex.c ****       {
 1291              		.loc 1 1178 22 is_stmt 0 view .LVU307
 1292 0204 5368     		ldr	r3, [r2, #4]
1178:Drivers/STM32U5xx_HAL_Driver/Src/stm32u5xx_hal_pwr_ex.c ****       {
 1293              		.loc 1 1178 10 view .LVU308
 1294 0206 13F0010F 		tst	r3, #1
 1295 020a 04D0     		beq	.L106
1180:Drivers/STM32U5xx_HAL_Driver/Src/stm32u5xx_hal_pwr_ex.c ****       }
 1296              		.loc 1 1180 9 is_stmt 1 view .LVU309
 1297 020c 0C49     		ldr	r1, .L117
 1298 020e 0B68     		ldr	r3, [r1]
 1299 0210 43F40013 		orr	r3, r3, #2097152
 1300 0214 0B60     		str	r3, [r1]
 1301              	.L106:
1184:Drivers/STM32U5xx_HAL_Driver/Src/stm32u5xx_hal_pwr_ex.c ****       {
 1302              		.loc 1 1184 7 view .LVU310
1184:Drivers/STM32U5xx_HAL_Driver/Src/stm32u5xx_hal_pwr_ex.c ****       {
 1303              		.loc 1 1184 22 is_stmt 0 view .LVU311
 1304 0216 5368     		ldr	r3, [r2, #4]
1184:Drivers/STM32U5xx_HAL_Driver/Src/stm32u5xx_hal_pwr_ex.c ****       {
 1305              		.loc 1 1184 10 view .LVU312
 1306 0218 13F0020F 		tst	r3, #2
 1307 021c 0CD0     		beq	.L113
1186:Drivers/STM32U5xx_HAL_Driver/Src/stm32u5xx_hal_pwr_ex.c ****       }
 1308              		.loc 1 1186 9 is_stmt 1 view .LVU313
 1309 021e 084A     		ldr	r2, .L117
 1310 0220 5368     		ldr	r3, [r2, #4]
 1311 0222 43F40013 		orr	r3, r3, #2097152
 1312 0226 5360     		str	r3, [r2, #4]
 1313              		.loc 1 1230 10 is_stmt 0 view .LVU314
 1314 0228 0020     		movs	r0, #0
ARM GAS  C:\Users\Ya\AppData\Local\Temp\ccLrGXJ9.s 			page 48


 1315              	.LVL51:
 1316              		.loc 1 1230 10 view .LVU315
 1317 022a 7047     		bx	lr
 1318              	.LVL52:
 1319              	.L110:
1079:Drivers/STM32U5xx_HAL_Driver/Src/stm32u5xx_hal_pwr_ex.c ****   }
 1320              		.loc 1 1079 12 view .LVU316
 1321 022c 0120     		movs	r0, #1
 1322              	.LVL53:
1079:Drivers/STM32U5xx_HAL_Driver/Src/stm32u5xx_hal_pwr_ex.c ****   }
 1323              		.loc 1 1079 12 view .LVU317
 1324 022e 7047     		bx	lr
 1325              	.LVL54:
 1326              	.L111:
 1327              		.loc 1 1230 10 view .LVU318
 1328 0230 0020     		movs	r0, #0
 1329              	.LVL55:
 1330              		.loc 1 1230 10 view .LVU319
 1331 0232 7047     		bx	lr
 1332              	.LVL56:
 1333              	.L112:
 1334              		.loc 1 1230 10 view .LVU320
 1335 0234 0020     		movs	r0, #0
 1336              	.LVL57:
 1337              		.loc 1 1230 10 view .LVU321
 1338 0236 7047     		bx	lr
 1339              	.LVL58:
 1340              	.L113:
 1341              		.loc 1 1230 10 view .LVU322
 1342 0238 0020     		movs	r0, #0
 1343              	.LVL59:
 1344              		.loc 1 1230 10 view .LVU323
 1345 023a 7047     		bx	lr
 1346              	.LVL60:
 1347              	.L114:
 1348              		.loc 1 1230 10 view .LVU324
 1349 023c 0020     		movs	r0, #0
 1350              	.LVL61:
1231:Drivers/STM32U5xx_HAL_Driver/Src/stm32u5xx_hal_pwr_ex.c **** }
 1351              		.loc 1 1231 1 view .LVU325
 1352 023e 7047     		bx	lr
 1353              	.L118:
 1354              		.align	2
 1355              	.L117:
 1356 0240 00200246 		.word	1174544384
 1357              		.cfi_endproc
 1358              	.LFE355:
 1360              		.section	.text.HAL_PWREx_EnableVddUSB,"ax",%progbits
 1361              		.align	1
 1362              		.global	HAL_PWREx_EnableVddUSB
 1363              		.syntax unified
 1364              		.thumb
 1365              		.thumb_func
 1367              	HAL_PWREx_EnableVddUSB:
 1368              	.LFB356:
1232:Drivers/STM32U5xx_HAL_Driver/Src/stm32u5xx_hal_pwr_ex.c **** 
1233:Drivers/STM32U5xx_HAL_Driver/Src/stm32u5xx_hal_pwr_ex.c **** /**
ARM GAS  C:\Users\Ya\AppData\Local\Temp\ccLrGXJ9.s 			page 49


1234:Drivers/STM32U5xx_HAL_Driver/Src/stm32u5xx_hal_pwr_ex.c ****   * @brief  Enable VDDUSB supply.
1235:Drivers/STM32U5xx_HAL_Driver/Src/stm32u5xx_hal_pwr_ex.c ****   * @note   Remove VDDUSB electrical and logical isolation, once VDDUSB supply
1236:Drivers/STM32U5xx_HAL_Driver/Src/stm32u5xx_hal_pwr_ex.c ****   *         is present for consumption saving.
1237:Drivers/STM32U5xx_HAL_Driver/Src/stm32u5xx_hal_pwr_ex.c ****   * @retval None.
1238:Drivers/STM32U5xx_HAL_Driver/Src/stm32u5xx_hal_pwr_ex.c ****   */
1239:Drivers/STM32U5xx_HAL_Driver/Src/stm32u5xx_hal_pwr_ex.c **** void HAL_PWREx_EnableVddUSB(void)
1240:Drivers/STM32U5xx_HAL_Driver/Src/stm32u5xx_hal_pwr_ex.c **** {
 1369              		.loc 1 1240 1 is_stmt 1 view -0
 1370              		.cfi_startproc
 1371              		@ args = 0, pretend = 0, frame = 0
 1372              		@ frame_needed = 0, uses_anonymous_args = 0
 1373              		@ link register save eliminated.
1241:Drivers/STM32U5xx_HAL_Driver/Src/stm32u5xx_hal_pwr_ex.c ****   SET_BIT(PWR->SVMCR, PWR_SVMCR_USV);
 1374              		.loc 1 1241 3 view .LVU327
 1375 0000 024A     		ldr	r2, .L120
 1376 0002 1369     		ldr	r3, [r2, #16]
 1377 0004 43F08053 		orr	r3, r3, #268435456
 1378 0008 1361     		str	r3, [r2, #16]
1242:Drivers/STM32U5xx_HAL_Driver/Src/stm32u5xx_hal_pwr_ex.c **** }
 1379              		.loc 1 1242 1 is_stmt 0 view .LVU328
 1380 000a 7047     		bx	lr
 1381              	.L121:
 1382              		.align	2
 1383              	.L120:
 1384 000c 00080246 		.word	1174538240
 1385              		.cfi_endproc
 1386              	.LFE356:
 1388              		.section	.text.HAL_PWREx_DisableVddUSB,"ax",%progbits
 1389              		.align	1
 1390              		.global	HAL_PWREx_DisableVddUSB
 1391              		.syntax unified
 1392              		.thumb
 1393              		.thumb_func
 1395              	HAL_PWREx_DisableVddUSB:
 1396              	.LFB357:
1243:Drivers/STM32U5xx_HAL_Driver/Src/stm32u5xx_hal_pwr_ex.c **** 
1244:Drivers/STM32U5xx_HAL_Driver/Src/stm32u5xx_hal_pwr_ex.c **** /**
1245:Drivers/STM32U5xx_HAL_Driver/Src/stm32u5xx_hal_pwr_ex.c ****   * @brief  Disable VDDUSB supply.
1246:Drivers/STM32U5xx_HAL_Driver/Src/stm32u5xx_hal_pwr_ex.c ****   * @retval None.
1247:Drivers/STM32U5xx_HAL_Driver/Src/stm32u5xx_hal_pwr_ex.c ****   */
1248:Drivers/STM32U5xx_HAL_Driver/Src/stm32u5xx_hal_pwr_ex.c **** void HAL_PWREx_DisableVddUSB(void)
1249:Drivers/STM32U5xx_HAL_Driver/Src/stm32u5xx_hal_pwr_ex.c **** {
 1397              		.loc 1 1249 1 is_stmt 1 view -0
 1398              		.cfi_startproc
 1399              		@ args = 0, pretend = 0, frame = 0
 1400              		@ frame_needed = 0, uses_anonymous_args = 0
 1401              		@ link register save eliminated.
1250:Drivers/STM32U5xx_HAL_Driver/Src/stm32u5xx_hal_pwr_ex.c ****   CLEAR_BIT(PWR->SVMCR, PWR_SVMCR_USV);
 1402              		.loc 1 1250 3 view .LVU330
 1403 0000 024A     		ldr	r2, .L123
 1404 0002 1369     		ldr	r3, [r2, #16]
 1405 0004 23F08053 		bic	r3, r3, #268435456
 1406 0008 1361     		str	r3, [r2, #16]
1251:Drivers/STM32U5xx_HAL_Driver/Src/stm32u5xx_hal_pwr_ex.c **** }
 1407              		.loc 1 1251 1 is_stmt 0 view .LVU331
 1408 000a 7047     		bx	lr
 1409              	.L124:
ARM GAS  C:\Users\Ya\AppData\Local\Temp\ccLrGXJ9.s 			page 50


 1410              		.align	2
 1411              	.L123:
 1412 000c 00080246 		.word	1174538240
 1413              		.cfi_endproc
 1414              	.LFE357:
 1416              		.section	.text.HAL_PWREx_EnableVddIO2,"ax",%progbits
 1417              		.align	1
 1418              		.global	HAL_PWREx_EnableVddIO2
 1419              		.syntax unified
 1420              		.thumb
 1421              		.thumb_func
 1423              	HAL_PWREx_EnableVddIO2:
 1424              	.LFB358:
1252:Drivers/STM32U5xx_HAL_Driver/Src/stm32u5xx_hal_pwr_ex.c **** 
1253:Drivers/STM32U5xx_HAL_Driver/Src/stm32u5xx_hal_pwr_ex.c **** /**
1254:Drivers/STM32U5xx_HAL_Driver/Src/stm32u5xx_hal_pwr_ex.c ****   * @brief  Enable VDDIO2 supply.
1255:Drivers/STM32U5xx_HAL_Driver/Src/stm32u5xx_hal_pwr_ex.c ****   * @note   Remove VDDIO2 electrical and logical isolation, once VDDIO2 supply
1256:Drivers/STM32U5xx_HAL_Driver/Src/stm32u5xx_hal_pwr_ex.c ****   *         is present for consumption saving.
1257:Drivers/STM32U5xx_HAL_Driver/Src/stm32u5xx_hal_pwr_ex.c ****   * @retval None.
1258:Drivers/STM32U5xx_HAL_Driver/Src/stm32u5xx_hal_pwr_ex.c ****   */
1259:Drivers/STM32U5xx_HAL_Driver/Src/stm32u5xx_hal_pwr_ex.c **** void HAL_PWREx_EnableVddIO2(void)
1260:Drivers/STM32U5xx_HAL_Driver/Src/stm32u5xx_hal_pwr_ex.c **** {
 1425              		.loc 1 1260 1 is_stmt 1 view -0
 1426              		.cfi_startproc
 1427              		@ args = 0, pretend = 0, frame = 0
 1428              		@ frame_needed = 0, uses_anonymous_args = 0
 1429              		@ link register save eliminated.
1261:Drivers/STM32U5xx_HAL_Driver/Src/stm32u5xx_hal_pwr_ex.c ****   SET_BIT(PWR->SVMCR, PWR_SVMCR_IO2SV);
 1430              		.loc 1 1261 3 view .LVU333
 1431 0000 024A     		ldr	r2, .L126
 1432 0002 1369     		ldr	r3, [r2, #16]
 1433 0004 43F00053 		orr	r3, r3, #536870912
 1434 0008 1361     		str	r3, [r2, #16]
1262:Drivers/STM32U5xx_HAL_Driver/Src/stm32u5xx_hal_pwr_ex.c **** }
 1435              		.loc 1 1262 1 is_stmt 0 view .LVU334
 1436 000a 7047     		bx	lr
 1437              	.L127:
 1438              		.align	2
 1439              	.L126:
 1440 000c 00080246 		.word	1174538240
 1441              		.cfi_endproc
 1442              	.LFE358:
 1444              		.section	.text.HAL_PWREx_DisableVddIO2,"ax",%progbits
 1445              		.align	1
 1446              		.global	HAL_PWREx_DisableVddIO2
 1447              		.syntax unified
 1448              		.thumb
 1449              		.thumb_func
 1451              	HAL_PWREx_DisableVddIO2:
 1452              	.LFB359:
1263:Drivers/STM32U5xx_HAL_Driver/Src/stm32u5xx_hal_pwr_ex.c **** 
1264:Drivers/STM32U5xx_HAL_Driver/Src/stm32u5xx_hal_pwr_ex.c **** /**
1265:Drivers/STM32U5xx_HAL_Driver/Src/stm32u5xx_hal_pwr_ex.c ****   * @brief  Disable VDDIO2 supply.
1266:Drivers/STM32U5xx_HAL_Driver/Src/stm32u5xx_hal_pwr_ex.c ****   * @retval None.
1267:Drivers/STM32U5xx_HAL_Driver/Src/stm32u5xx_hal_pwr_ex.c ****   */
1268:Drivers/STM32U5xx_HAL_Driver/Src/stm32u5xx_hal_pwr_ex.c **** void HAL_PWREx_DisableVddIO2(void)
1269:Drivers/STM32U5xx_HAL_Driver/Src/stm32u5xx_hal_pwr_ex.c **** {
ARM GAS  C:\Users\Ya\AppData\Local\Temp\ccLrGXJ9.s 			page 51


 1453              		.loc 1 1269 1 is_stmt 1 view -0
 1454              		.cfi_startproc
 1455              		@ args = 0, pretend = 0, frame = 0
 1456              		@ frame_needed = 0, uses_anonymous_args = 0
 1457              		@ link register save eliminated.
1270:Drivers/STM32U5xx_HAL_Driver/Src/stm32u5xx_hal_pwr_ex.c ****   CLEAR_BIT(PWR->SVMCR, PWR_SVMCR_IO2SV);
 1458              		.loc 1 1270 3 view .LVU336
 1459 0000 024A     		ldr	r2, .L129
 1460 0002 1369     		ldr	r3, [r2, #16]
 1461 0004 23F00053 		bic	r3, r3, #536870912
 1462 0008 1361     		str	r3, [r2, #16]
1271:Drivers/STM32U5xx_HAL_Driver/Src/stm32u5xx_hal_pwr_ex.c **** }
 1463              		.loc 1 1271 1 is_stmt 0 view .LVU337
 1464 000a 7047     		bx	lr
 1465              	.L130:
 1466              		.align	2
 1467              	.L129:
 1468 000c 00080246 		.word	1174538240
 1469              		.cfi_endproc
 1470              	.LFE359:
 1472              		.section	.text.HAL_PWREx_EnableVddA,"ax",%progbits
 1473              		.align	1
 1474              		.global	HAL_PWREx_EnableVddA
 1475              		.syntax unified
 1476              		.thumb
 1477              		.thumb_func
 1479              	HAL_PWREx_EnableVddA:
 1480              	.LFB360:
1272:Drivers/STM32U5xx_HAL_Driver/Src/stm32u5xx_hal_pwr_ex.c **** 
1273:Drivers/STM32U5xx_HAL_Driver/Src/stm32u5xx_hal_pwr_ex.c **** /**
1274:Drivers/STM32U5xx_HAL_Driver/Src/stm32u5xx_hal_pwr_ex.c ****   * @brief  Enable VDDA supply.
1275:Drivers/STM32U5xx_HAL_Driver/Src/stm32u5xx_hal_pwr_ex.c ****   * @note   Remove VDDA electrical and logical isolation, once VDDA supply is
1276:Drivers/STM32U5xx_HAL_Driver/Src/stm32u5xx_hal_pwr_ex.c ****   *         present for consumption saving.
1277:Drivers/STM32U5xx_HAL_Driver/Src/stm32u5xx_hal_pwr_ex.c ****   * @retval None.
1278:Drivers/STM32U5xx_HAL_Driver/Src/stm32u5xx_hal_pwr_ex.c ****   */
1279:Drivers/STM32U5xx_HAL_Driver/Src/stm32u5xx_hal_pwr_ex.c **** void HAL_PWREx_EnableVddA(void)
1280:Drivers/STM32U5xx_HAL_Driver/Src/stm32u5xx_hal_pwr_ex.c **** {
 1481              		.loc 1 1280 1 is_stmt 1 view -0
 1482              		.cfi_startproc
 1483              		@ args = 0, pretend = 0, frame = 0
 1484              		@ frame_needed = 0, uses_anonymous_args = 0
 1485              		@ link register save eliminated.
1281:Drivers/STM32U5xx_HAL_Driver/Src/stm32u5xx_hal_pwr_ex.c ****   SET_BIT(PWR->SVMCR, PWR_SVMCR_ASV);
 1486              		.loc 1 1281 3 view .LVU339
 1487 0000 024A     		ldr	r2, .L132
 1488 0002 1369     		ldr	r3, [r2, #16]
 1489 0004 43F08043 		orr	r3, r3, #1073741824
 1490 0008 1361     		str	r3, [r2, #16]
1282:Drivers/STM32U5xx_HAL_Driver/Src/stm32u5xx_hal_pwr_ex.c **** }
 1491              		.loc 1 1282 1 is_stmt 0 view .LVU340
 1492 000a 7047     		bx	lr
 1493              	.L133:
 1494              		.align	2
 1495              	.L132:
 1496 000c 00080246 		.word	1174538240
 1497              		.cfi_endproc
 1498              	.LFE360:
ARM GAS  C:\Users\Ya\AppData\Local\Temp\ccLrGXJ9.s 			page 52


 1500              		.section	.text.HAL_PWREx_DisableVddA,"ax",%progbits
 1501              		.align	1
 1502              		.global	HAL_PWREx_DisableVddA
 1503              		.syntax unified
 1504              		.thumb
 1505              		.thumb_func
 1507              	HAL_PWREx_DisableVddA:
 1508              	.LFB361:
1283:Drivers/STM32U5xx_HAL_Driver/Src/stm32u5xx_hal_pwr_ex.c **** 
1284:Drivers/STM32U5xx_HAL_Driver/Src/stm32u5xx_hal_pwr_ex.c **** /**
1285:Drivers/STM32U5xx_HAL_Driver/Src/stm32u5xx_hal_pwr_ex.c ****   * @brief  Disable VDDA supply.
1286:Drivers/STM32U5xx_HAL_Driver/Src/stm32u5xx_hal_pwr_ex.c ****   * @retval None.
1287:Drivers/STM32U5xx_HAL_Driver/Src/stm32u5xx_hal_pwr_ex.c ****   */
1288:Drivers/STM32U5xx_HAL_Driver/Src/stm32u5xx_hal_pwr_ex.c **** void HAL_PWREx_DisableVddA(void)
1289:Drivers/STM32U5xx_HAL_Driver/Src/stm32u5xx_hal_pwr_ex.c **** {
 1509              		.loc 1 1289 1 is_stmt 1 view -0
 1510              		.cfi_startproc
 1511              		@ args = 0, pretend = 0, frame = 0
 1512              		@ frame_needed = 0, uses_anonymous_args = 0
 1513              		@ link register save eliminated.
1290:Drivers/STM32U5xx_HAL_Driver/Src/stm32u5xx_hal_pwr_ex.c ****   CLEAR_BIT(PWR->SVMCR, PWR_SVMCR_ASV);
 1514              		.loc 1 1290 3 view .LVU342
 1515 0000 024A     		ldr	r2, .L135
 1516 0002 1369     		ldr	r3, [r2, #16]
 1517 0004 23F08043 		bic	r3, r3, #1073741824
 1518 0008 1361     		str	r3, [r2, #16]
1291:Drivers/STM32U5xx_HAL_Driver/Src/stm32u5xx_hal_pwr_ex.c **** }
 1519              		.loc 1 1291 1 is_stmt 0 view .LVU343
 1520 000a 7047     		bx	lr
 1521              	.L136:
 1522              		.align	2
 1523              	.L135:
 1524 000c 00080246 		.word	1174538240
 1525              		.cfi_endproc
 1526              	.LFE361:
 1528              		.section	.text.HAL_PWREx_EnableUVM,"ax",%progbits
 1529              		.align	1
 1530              		.global	HAL_PWREx_EnableUVM
 1531              		.syntax unified
 1532              		.thumb
 1533              		.thumb_func
 1535              	HAL_PWREx_EnableUVM:
 1536              	.LFB362:
1292:Drivers/STM32U5xx_HAL_Driver/Src/stm32u5xx_hal_pwr_ex.c **** 
1293:Drivers/STM32U5xx_HAL_Driver/Src/stm32u5xx_hal_pwr_ex.c **** /**
1294:Drivers/STM32U5xx_HAL_Driver/Src/stm32u5xx_hal_pwr_ex.c ****   * @brief  Enable the UVM Voltage Monitoring : VDDUSB versus 1.2 V.
1295:Drivers/STM32U5xx_HAL_Driver/Src/stm32u5xx_hal_pwr_ex.c ****   * @retval None.
1296:Drivers/STM32U5xx_HAL_Driver/Src/stm32u5xx_hal_pwr_ex.c ****   */
1297:Drivers/STM32U5xx_HAL_Driver/Src/stm32u5xx_hal_pwr_ex.c **** void HAL_PWREx_EnableUVM(void)
1298:Drivers/STM32U5xx_HAL_Driver/Src/stm32u5xx_hal_pwr_ex.c **** {
 1537              		.loc 1 1298 1 is_stmt 1 view -0
 1538              		.cfi_startproc
 1539              		@ args = 0, pretend = 0, frame = 0
 1540              		@ frame_needed = 0, uses_anonymous_args = 0
 1541              		@ link register save eliminated.
1299:Drivers/STM32U5xx_HAL_Driver/Src/stm32u5xx_hal_pwr_ex.c ****   SET_BIT(PWR->SVMCR, PWR_SVMCR_UVMEN);
 1542              		.loc 1 1299 3 view .LVU345
ARM GAS  C:\Users\Ya\AppData\Local\Temp\ccLrGXJ9.s 			page 53


 1543 0000 024A     		ldr	r2, .L138
 1544 0002 1369     		ldr	r3, [r2, #16]
 1545 0004 43F08073 		orr	r3, r3, #16777216
 1546 0008 1361     		str	r3, [r2, #16]
1300:Drivers/STM32U5xx_HAL_Driver/Src/stm32u5xx_hal_pwr_ex.c **** }
 1547              		.loc 1 1300 1 is_stmt 0 view .LVU346
 1548 000a 7047     		bx	lr
 1549              	.L139:
 1550              		.align	2
 1551              	.L138:
 1552 000c 00080246 		.word	1174538240
 1553              		.cfi_endproc
 1554              	.LFE362:
 1556              		.section	.text.HAL_PWREx_DisableUVM,"ax",%progbits
 1557              		.align	1
 1558              		.global	HAL_PWREx_DisableUVM
 1559              		.syntax unified
 1560              		.thumb
 1561              		.thumb_func
 1563              	HAL_PWREx_DisableUVM:
 1564              	.LFB363:
1301:Drivers/STM32U5xx_HAL_Driver/Src/stm32u5xx_hal_pwr_ex.c **** 
1302:Drivers/STM32U5xx_HAL_Driver/Src/stm32u5xx_hal_pwr_ex.c **** /**
1303:Drivers/STM32U5xx_HAL_Driver/Src/stm32u5xx_hal_pwr_ex.c ****   * @brief  Disable the UVM Voltage Monitoring : VDDUSB versus 1.2 V.
1304:Drivers/STM32U5xx_HAL_Driver/Src/stm32u5xx_hal_pwr_ex.c ****   * @retval None.
1305:Drivers/STM32U5xx_HAL_Driver/Src/stm32u5xx_hal_pwr_ex.c ****   */
1306:Drivers/STM32U5xx_HAL_Driver/Src/stm32u5xx_hal_pwr_ex.c **** void HAL_PWREx_DisableUVM(void)
1307:Drivers/STM32U5xx_HAL_Driver/Src/stm32u5xx_hal_pwr_ex.c **** {
 1565              		.loc 1 1307 1 is_stmt 1 view -0
 1566              		.cfi_startproc
 1567              		@ args = 0, pretend = 0, frame = 0
 1568              		@ frame_needed = 0, uses_anonymous_args = 0
 1569              		@ link register save eliminated.
1308:Drivers/STM32U5xx_HAL_Driver/Src/stm32u5xx_hal_pwr_ex.c ****   CLEAR_BIT(PWR->SVMCR, PWR_SVMCR_UVMEN);
 1570              		.loc 1 1308 3 view .LVU348
 1571 0000 024A     		ldr	r2, .L141
 1572 0002 1369     		ldr	r3, [r2, #16]
 1573 0004 23F08073 		bic	r3, r3, #16777216
 1574 0008 1361     		str	r3, [r2, #16]
1309:Drivers/STM32U5xx_HAL_Driver/Src/stm32u5xx_hal_pwr_ex.c **** }
 1575              		.loc 1 1309 1 is_stmt 0 view .LVU349
 1576 000a 7047     		bx	lr
 1577              	.L142:
 1578              		.align	2
 1579              	.L141:
 1580 000c 00080246 		.word	1174538240
 1581              		.cfi_endproc
 1582              	.LFE363:
 1584              		.section	.text.HAL_PWREx_EnableIO2VM,"ax",%progbits
 1585              		.align	1
 1586              		.global	HAL_PWREx_EnableIO2VM
 1587              		.syntax unified
 1588              		.thumb
 1589              		.thumb_func
 1591              	HAL_PWREx_EnableIO2VM:
 1592              	.LFB364:
1310:Drivers/STM32U5xx_HAL_Driver/Src/stm32u5xx_hal_pwr_ex.c **** 
ARM GAS  C:\Users\Ya\AppData\Local\Temp\ccLrGXJ9.s 			page 54


1311:Drivers/STM32U5xx_HAL_Driver/Src/stm32u5xx_hal_pwr_ex.c **** /**
1312:Drivers/STM32U5xx_HAL_Driver/Src/stm32u5xx_hal_pwr_ex.c ****   * @brief  Enable the IO2VM Voltage Monitoring : VDDIO2 versus 0.9 V.
1313:Drivers/STM32U5xx_HAL_Driver/Src/stm32u5xx_hal_pwr_ex.c ****   * @retval None.
1314:Drivers/STM32U5xx_HAL_Driver/Src/stm32u5xx_hal_pwr_ex.c ****   */
1315:Drivers/STM32U5xx_HAL_Driver/Src/stm32u5xx_hal_pwr_ex.c **** void HAL_PWREx_EnableIO2VM(void)
1316:Drivers/STM32U5xx_HAL_Driver/Src/stm32u5xx_hal_pwr_ex.c **** {
 1593              		.loc 1 1316 1 is_stmt 1 view -0
 1594              		.cfi_startproc
 1595              		@ args = 0, pretend = 0, frame = 0
 1596              		@ frame_needed = 0, uses_anonymous_args = 0
 1597              		@ link register save eliminated.
1317:Drivers/STM32U5xx_HAL_Driver/Src/stm32u5xx_hal_pwr_ex.c ****   SET_BIT(PWR->SVMCR, PWR_SVMCR_IO2VMEN);
 1598              		.loc 1 1317 3 view .LVU351
 1599 0000 024A     		ldr	r2, .L144
 1600 0002 1369     		ldr	r3, [r2, #16]
 1601 0004 43F00073 		orr	r3, r3, #33554432
 1602 0008 1361     		str	r3, [r2, #16]
1318:Drivers/STM32U5xx_HAL_Driver/Src/stm32u5xx_hal_pwr_ex.c **** }
 1603              		.loc 1 1318 1 is_stmt 0 view .LVU352
 1604 000a 7047     		bx	lr
 1605              	.L145:
 1606              		.align	2
 1607              	.L144:
 1608 000c 00080246 		.word	1174538240
 1609              		.cfi_endproc
 1610              	.LFE364:
 1612              		.section	.text.HAL_PWREx_DisableIO2VM,"ax",%progbits
 1613              		.align	1
 1614              		.global	HAL_PWREx_DisableIO2VM
 1615              		.syntax unified
 1616              		.thumb
 1617              		.thumb_func
 1619              	HAL_PWREx_DisableIO2VM:
 1620              	.LFB365:
1319:Drivers/STM32U5xx_HAL_Driver/Src/stm32u5xx_hal_pwr_ex.c **** 
1320:Drivers/STM32U5xx_HAL_Driver/Src/stm32u5xx_hal_pwr_ex.c **** /**
1321:Drivers/STM32U5xx_HAL_Driver/Src/stm32u5xx_hal_pwr_ex.c ****   * @brief  Disable the IO2VM Voltage Monitoring : VDDIO2 versus 0.9 V.
1322:Drivers/STM32U5xx_HAL_Driver/Src/stm32u5xx_hal_pwr_ex.c ****   * @retval None.
1323:Drivers/STM32U5xx_HAL_Driver/Src/stm32u5xx_hal_pwr_ex.c ****   */
1324:Drivers/STM32U5xx_HAL_Driver/Src/stm32u5xx_hal_pwr_ex.c **** void HAL_PWREx_DisableIO2VM(void)
1325:Drivers/STM32U5xx_HAL_Driver/Src/stm32u5xx_hal_pwr_ex.c **** {
 1621              		.loc 1 1325 1 is_stmt 1 view -0
 1622              		.cfi_startproc
 1623              		@ args = 0, pretend = 0, frame = 0
 1624              		@ frame_needed = 0, uses_anonymous_args = 0
 1625              		@ link register save eliminated.
1326:Drivers/STM32U5xx_HAL_Driver/Src/stm32u5xx_hal_pwr_ex.c ****   CLEAR_BIT(PWR->SVMCR, PWR_SVMCR_IO2VMEN);
 1626              		.loc 1 1326 3 view .LVU354
 1627 0000 024A     		ldr	r2, .L147
 1628 0002 1369     		ldr	r3, [r2, #16]
 1629 0004 23F00073 		bic	r3, r3, #33554432
 1630 0008 1361     		str	r3, [r2, #16]
1327:Drivers/STM32U5xx_HAL_Driver/Src/stm32u5xx_hal_pwr_ex.c **** }
 1631              		.loc 1 1327 1 is_stmt 0 view .LVU355
 1632 000a 7047     		bx	lr
 1633              	.L148:
 1634              		.align	2
ARM GAS  C:\Users\Ya\AppData\Local\Temp\ccLrGXJ9.s 			page 55


 1635              	.L147:
 1636 000c 00080246 		.word	1174538240
 1637              		.cfi_endproc
 1638              	.LFE365:
 1640              		.section	.text.HAL_PWREx_EnableAVM1,"ax",%progbits
 1641              		.align	1
 1642              		.global	HAL_PWREx_EnableAVM1
 1643              		.syntax unified
 1644              		.thumb
 1645              		.thumb_func
 1647              	HAL_PWREx_EnableAVM1:
 1648              	.LFB366:
1328:Drivers/STM32U5xx_HAL_Driver/Src/stm32u5xx_hal_pwr_ex.c **** 
1329:Drivers/STM32U5xx_HAL_Driver/Src/stm32u5xx_hal_pwr_ex.c **** /**
1330:Drivers/STM32U5xx_HAL_Driver/Src/stm32u5xx_hal_pwr_ex.c ****   * @brief  Enable the AVM1 Voltage Monitoring : VDDA versus 1.6 V.
1331:Drivers/STM32U5xx_HAL_Driver/Src/stm32u5xx_hal_pwr_ex.c ****   * @retval None.
1332:Drivers/STM32U5xx_HAL_Driver/Src/stm32u5xx_hal_pwr_ex.c ****   */
1333:Drivers/STM32U5xx_HAL_Driver/Src/stm32u5xx_hal_pwr_ex.c **** void HAL_PWREx_EnableAVM1(void)
1334:Drivers/STM32U5xx_HAL_Driver/Src/stm32u5xx_hal_pwr_ex.c **** {
 1649              		.loc 1 1334 1 is_stmt 1 view -0
 1650              		.cfi_startproc
 1651              		@ args = 0, pretend = 0, frame = 0
 1652              		@ frame_needed = 0, uses_anonymous_args = 0
 1653              		@ link register save eliminated.
1335:Drivers/STM32U5xx_HAL_Driver/Src/stm32u5xx_hal_pwr_ex.c ****   SET_BIT(PWR->SVMCR, PWR_SVMCR_AVM1EN);
 1654              		.loc 1 1335 3 view .LVU357
 1655 0000 024A     		ldr	r2, .L150
 1656 0002 1369     		ldr	r3, [r2, #16]
 1657 0004 43F08063 		orr	r3, r3, #67108864
 1658 0008 1361     		str	r3, [r2, #16]
1336:Drivers/STM32U5xx_HAL_Driver/Src/stm32u5xx_hal_pwr_ex.c **** }
 1659              		.loc 1 1336 1 is_stmt 0 view .LVU358
 1660 000a 7047     		bx	lr
 1661              	.L151:
 1662              		.align	2
 1663              	.L150:
 1664 000c 00080246 		.word	1174538240
 1665              		.cfi_endproc
 1666              	.LFE366:
 1668              		.section	.text.HAL_PWREx_DisableAVM1,"ax",%progbits
 1669              		.align	1
 1670              		.global	HAL_PWREx_DisableAVM1
 1671              		.syntax unified
 1672              		.thumb
 1673              		.thumb_func
 1675              	HAL_PWREx_DisableAVM1:
 1676              	.LFB367:
1337:Drivers/STM32U5xx_HAL_Driver/Src/stm32u5xx_hal_pwr_ex.c **** 
1338:Drivers/STM32U5xx_HAL_Driver/Src/stm32u5xx_hal_pwr_ex.c **** /**
1339:Drivers/STM32U5xx_HAL_Driver/Src/stm32u5xx_hal_pwr_ex.c ****   * @brief  Disable the AVM1 Voltage Monitoring : VDDA versus 1.6 V.
1340:Drivers/STM32U5xx_HAL_Driver/Src/stm32u5xx_hal_pwr_ex.c ****   * @retval None.
1341:Drivers/STM32U5xx_HAL_Driver/Src/stm32u5xx_hal_pwr_ex.c ****   */
1342:Drivers/STM32U5xx_HAL_Driver/Src/stm32u5xx_hal_pwr_ex.c **** void HAL_PWREx_DisableAVM1(void)
1343:Drivers/STM32U5xx_HAL_Driver/Src/stm32u5xx_hal_pwr_ex.c **** {
 1677              		.loc 1 1343 1 is_stmt 1 view -0
 1678              		.cfi_startproc
 1679              		@ args = 0, pretend = 0, frame = 0
ARM GAS  C:\Users\Ya\AppData\Local\Temp\ccLrGXJ9.s 			page 56


 1680              		@ frame_needed = 0, uses_anonymous_args = 0
 1681              		@ link register save eliminated.
1344:Drivers/STM32U5xx_HAL_Driver/Src/stm32u5xx_hal_pwr_ex.c ****   CLEAR_BIT(PWR->SVMCR, PWR_SVMCR_AVM1EN);
 1682              		.loc 1 1344 3 view .LVU360
 1683 0000 024A     		ldr	r2, .L153
 1684 0002 1369     		ldr	r3, [r2, #16]
 1685 0004 23F08063 		bic	r3, r3, #67108864
 1686 0008 1361     		str	r3, [r2, #16]
1345:Drivers/STM32U5xx_HAL_Driver/Src/stm32u5xx_hal_pwr_ex.c **** }
 1687              		.loc 1 1345 1 is_stmt 0 view .LVU361
 1688 000a 7047     		bx	lr
 1689              	.L154:
 1690              		.align	2
 1691              	.L153:
 1692 000c 00080246 		.word	1174538240
 1693              		.cfi_endproc
 1694              	.LFE367:
 1696              		.section	.text.HAL_PWREx_EnableAVM2,"ax",%progbits
 1697              		.align	1
 1698              		.global	HAL_PWREx_EnableAVM2
 1699              		.syntax unified
 1700              		.thumb
 1701              		.thumb_func
 1703              	HAL_PWREx_EnableAVM2:
 1704              	.LFB368:
1346:Drivers/STM32U5xx_HAL_Driver/Src/stm32u5xx_hal_pwr_ex.c **** 
1347:Drivers/STM32U5xx_HAL_Driver/Src/stm32u5xx_hal_pwr_ex.c **** /**
1348:Drivers/STM32U5xx_HAL_Driver/Src/stm32u5xx_hal_pwr_ex.c ****   * @brief  Enable the AVM2 Voltage Monitoring : VDDA versus 1.8 V.
1349:Drivers/STM32U5xx_HAL_Driver/Src/stm32u5xx_hal_pwr_ex.c ****   * @retval None.
1350:Drivers/STM32U5xx_HAL_Driver/Src/stm32u5xx_hal_pwr_ex.c ****   */
1351:Drivers/STM32U5xx_HAL_Driver/Src/stm32u5xx_hal_pwr_ex.c **** void HAL_PWREx_EnableAVM2(void)
1352:Drivers/STM32U5xx_HAL_Driver/Src/stm32u5xx_hal_pwr_ex.c **** {
 1705              		.loc 1 1352 1 is_stmt 1 view -0
 1706              		.cfi_startproc
 1707              		@ args = 0, pretend = 0, frame = 0
 1708              		@ frame_needed = 0, uses_anonymous_args = 0
 1709              		@ link register save eliminated.
1353:Drivers/STM32U5xx_HAL_Driver/Src/stm32u5xx_hal_pwr_ex.c ****   SET_BIT(PWR->SVMCR, PWR_SVMCR_AVM2EN);
 1710              		.loc 1 1353 3 view .LVU363
 1711 0000 024A     		ldr	r2, .L156
 1712 0002 1369     		ldr	r3, [r2, #16]
 1713 0004 43F00063 		orr	r3, r3, #134217728
 1714 0008 1361     		str	r3, [r2, #16]
1354:Drivers/STM32U5xx_HAL_Driver/Src/stm32u5xx_hal_pwr_ex.c **** }
 1715              		.loc 1 1354 1 is_stmt 0 view .LVU364
 1716 000a 7047     		bx	lr
 1717              	.L157:
 1718              		.align	2
 1719              	.L156:
 1720 000c 00080246 		.word	1174538240
 1721              		.cfi_endproc
 1722              	.LFE368:
 1724              		.section	.text.HAL_PWREx_DisableAVM2,"ax",%progbits
 1725              		.align	1
 1726              		.global	HAL_PWREx_DisableAVM2
 1727              		.syntax unified
 1728              		.thumb
ARM GAS  C:\Users\Ya\AppData\Local\Temp\ccLrGXJ9.s 			page 57


 1729              		.thumb_func
 1731              	HAL_PWREx_DisableAVM2:
 1732              	.LFB369:
1355:Drivers/STM32U5xx_HAL_Driver/Src/stm32u5xx_hal_pwr_ex.c **** 
1356:Drivers/STM32U5xx_HAL_Driver/Src/stm32u5xx_hal_pwr_ex.c **** /**
1357:Drivers/STM32U5xx_HAL_Driver/Src/stm32u5xx_hal_pwr_ex.c ****   * @brief  Disable the AVM2 Voltage Monitoring : VDDA versus 1.8 V.
1358:Drivers/STM32U5xx_HAL_Driver/Src/stm32u5xx_hal_pwr_ex.c ****   * @retval None.
1359:Drivers/STM32U5xx_HAL_Driver/Src/stm32u5xx_hal_pwr_ex.c ****   */
1360:Drivers/STM32U5xx_HAL_Driver/Src/stm32u5xx_hal_pwr_ex.c **** void HAL_PWREx_DisableAVM2(void)
1361:Drivers/STM32U5xx_HAL_Driver/Src/stm32u5xx_hal_pwr_ex.c **** {
 1733              		.loc 1 1361 1 is_stmt 1 view -0
 1734              		.cfi_startproc
 1735              		@ args = 0, pretend = 0, frame = 0
 1736              		@ frame_needed = 0, uses_anonymous_args = 0
 1737              		@ link register save eliminated.
1362:Drivers/STM32U5xx_HAL_Driver/Src/stm32u5xx_hal_pwr_ex.c ****   CLEAR_BIT(PWR->SVMCR, PWR_SVMCR_AVM2EN);
 1738              		.loc 1 1362 3 view .LVU366
 1739 0000 024A     		ldr	r2, .L159
 1740 0002 1369     		ldr	r3, [r2, #16]
 1741 0004 23F00063 		bic	r3, r3, #134217728
 1742 0008 1361     		str	r3, [r2, #16]
1363:Drivers/STM32U5xx_HAL_Driver/Src/stm32u5xx_hal_pwr_ex.c **** }
 1743              		.loc 1 1363 1 is_stmt 0 view .LVU367
 1744 000a 7047     		bx	lr
 1745              	.L160:
 1746              		.align	2
 1747              	.L159:
 1748 000c 00080246 		.word	1174538240
 1749              		.cfi_endproc
 1750              	.LFE369:
 1752              		.section	.text.HAL_PWREx_EnableMonitoring,"ax",%progbits
 1753              		.align	1
 1754              		.global	HAL_PWREx_EnableMonitoring
 1755              		.syntax unified
 1756              		.thumb
 1757              		.thumb_func
 1759              	HAL_PWREx_EnableMonitoring:
 1760              	.LFB370:
1364:Drivers/STM32U5xx_HAL_Driver/Src/stm32u5xx_hal_pwr_ex.c **** 
1365:Drivers/STM32U5xx_HAL_Driver/Src/stm32u5xx_hal_pwr_ex.c **** /**
1366:Drivers/STM32U5xx_HAL_Driver/Src/stm32u5xx_hal_pwr_ex.c ****   * @brief  Enable the VBAT and temperature monitoring.
1367:Drivers/STM32U5xx_HAL_Driver/Src/stm32u5xx_hal_pwr_ex.c ****   * @retval None.
1368:Drivers/STM32U5xx_HAL_Driver/Src/stm32u5xx_hal_pwr_ex.c ****   */
1369:Drivers/STM32U5xx_HAL_Driver/Src/stm32u5xx_hal_pwr_ex.c **** void HAL_PWREx_EnableMonitoring(void)
1370:Drivers/STM32U5xx_HAL_Driver/Src/stm32u5xx_hal_pwr_ex.c **** {
 1761              		.loc 1 1370 1 is_stmt 1 view -0
 1762              		.cfi_startproc
 1763              		@ args = 0, pretend = 0, frame = 0
 1764              		@ frame_needed = 0, uses_anonymous_args = 0
 1765              		@ link register save eliminated.
1371:Drivers/STM32U5xx_HAL_Driver/Src/stm32u5xx_hal_pwr_ex.c ****   SET_BIT(PWR->BDCR1, PWR_BDCR1_MONEN);
 1766              		.loc 1 1371 3 view .LVU369
 1767 0000 024A     		ldr	r2, .L162
 1768 0002 136A     		ldr	r3, [r2, #32]
 1769 0004 43F01003 		orr	r3, r3, #16
 1770 0008 1362     		str	r3, [r2, #32]
1372:Drivers/STM32U5xx_HAL_Driver/Src/stm32u5xx_hal_pwr_ex.c **** }
ARM GAS  C:\Users\Ya\AppData\Local\Temp\ccLrGXJ9.s 			page 58


 1771              		.loc 1 1372 1 is_stmt 0 view .LVU370
 1772 000a 7047     		bx	lr
 1773              	.L163:
 1774              		.align	2
 1775              	.L162:
 1776 000c 00080246 		.word	1174538240
 1777              		.cfi_endproc
 1778              	.LFE370:
 1780              		.section	.text.HAL_PWREx_DisableMonitoring,"ax",%progbits
 1781              		.align	1
 1782              		.global	HAL_PWREx_DisableMonitoring
 1783              		.syntax unified
 1784              		.thumb
 1785              		.thumb_func
 1787              	HAL_PWREx_DisableMonitoring:
 1788              	.LFB371:
1373:Drivers/STM32U5xx_HAL_Driver/Src/stm32u5xx_hal_pwr_ex.c **** 
1374:Drivers/STM32U5xx_HAL_Driver/Src/stm32u5xx_hal_pwr_ex.c **** /**
1375:Drivers/STM32U5xx_HAL_Driver/Src/stm32u5xx_hal_pwr_ex.c ****   * @brief  Disable the VBAT and temperature monitoring.
1376:Drivers/STM32U5xx_HAL_Driver/Src/stm32u5xx_hal_pwr_ex.c ****   * @retval None.
1377:Drivers/STM32U5xx_HAL_Driver/Src/stm32u5xx_hal_pwr_ex.c ****   */
1378:Drivers/STM32U5xx_HAL_Driver/Src/stm32u5xx_hal_pwr_ex.c **** void HAL_PWREx_DisableMonitoring(void)
1379:Drivers/STM32U5xx_HAL_Driver/Src/stm32u5xx_hal_pwr_ex.c **** {
 1789              		.loc 1 1379 1 is_stmt 1 view -0
 1790              		.cfi_startproc
 1791              		@ args = 0, pretend = 0, frame = 0
 1792              		@ frame_needed = 0, uses_anonymous_args = 0
 1793              		@ link register save eliminated.
1380:Drivers/STM32U5xx_HAL_Driver/Src/stm32u5xx_hal_pwr_ex.c ****   CLEAR_BIT(PWR->BDCR1, PWR_BDCR1_MONEN);
 1794              		.loc 1 1380 3 view .LVU372
 1795 0000 024A     		ldr	r2, .L165
 1796 0002 136A     		ldr	r3, [r2, #32]
 1797 0004 23F01003 		bic	r3, r3, #16
 1798 0008 1362     		str	r3, [r2, #32]
1381:Drivers/STM32U5xx_HAL_Driver/Src/stm32u5xx_hal_pwr_ex.c **** }
 1799              		.loc 1 1381 1 is_stmt 0 view .LVU373
 1800 000a 7047     		bx	lr
 1801              	.L166:
 1802              		.align	2
 1803              	.L165:
 1804 000c 00080246 		.word	1174538240
 1805              		.cfi_endproc
 1806              	.LFE371:
 1808              		.section	.text.HAL_PWREx_EnableUCPDStandbyMode,"ax",%progbits
 1809              		.align	1
 1810              		.global	HAL_PWREx_EnableUCPDStandbyMode
 1811              		.syntax unified
 1812              		.thumb
 1813              		.thumb_func
 1815              	HAL_PWREx_EnableUCPDStandbyMode:
 1816              	.LFB372:
1382:Drivers/STM32U5xx_HAL_Driver/Src/stm32u5xx_hal_pwr_ex.c **** 
1383:Drivers/STM32U5xx_HAL_Driver/Src/stm32u5xx_hal_pwr_ex.c **** #if defined (PWR_VOSR_USBPWREN)
1384:Drivers/STM32U5xx_HAL_Driver/Src/stm32u5xx_hal_pwr_ex.c **** /**
1385:Drivers/STM32U5xx_HAL_Driver/Src/stm32u5xx_hal_pwr_ex.c ****   * @brief  Enable the internal USB HS transceiver supply.
1386:Drivers/STM32U5xx_HAL_Driver/Src/stm32u5xx_hal_pwr_ex.c ****   * @retval HAL status.
1387:Drivers/STM32U5xx_HAL_Driver/Src/stm32u5xx_hal_pwr_ex.c ****   */
ARM GAS  C:\Users\Ya\AppData\Local\Temp\ccLrGXJ9.s 			page 59


1388:Drivers/STM32U5xx_HAL_Driver/Src/stm32u5xx_hal_pwr_ex.c **** HAL_StatusTypeDef HAL_PWREx_EnableUSBHSTranceiverSupply(void)
1389:Drivers/STM32U5xx_HAL_Driver/Src/stm32u5xx_hal_pwr_ex.c **** {
1390:Drivers/STM32U5xx_HAL_Driver/Src/stm32u5xx_hal_pwr_ex.c ****   uint32_t vos;
1391:Drivers/STM32U5xx_HAL_Driver/Src/stm32u5xx_hal_pwr_ex.c **** 
1392:Drivers/STM32U5xx_HAL_Driver/Src/stm32u5xx_hal_pwr_ex.c ****   /* Get the system applied voltage scaling range */
1393:Drivers/STM32U5xx_HAL_Driver/Src/stm32u5xx_hal_pwr_ex.c ****   vos = HAL_PWREx_GetVoltageRange();
1394:Drivers/STM32U5xx_HAL_Driver/Src/stm32u5xx_hal_pwr_ex.c **** 
1395:Drivers/STM32U5xx_HAL_Driver/Src/stm32u5xx_hal_pwr_ex.c ****   /* Check the system applied voltage scaling range */
1396:Drivers/STM32U5xx_HAL_Driver/Src/stm32u5xx_hal_pwr_ex.c ****   if ((vos == PWR_REGULATOR_VOLTAGE_SCALE1) || (vos == PWR_REGULATOR_VOLTAGE_SCALE2))
1397:Drivers/STM32U5xx_HAL_Driver/Src/stm32u5xx_hal_pwr_ex.c ****   {
1398:Drivers/STM32U5xx_HAL_Driver/Src/stm32u5xx_hal_pwr_ex.c ****     SET_BIT(PWR->VOSR, (PWR_VOSR_USBPWREN | PWR_VOSR_USBBOOSTEN));
1399:Drivers/STM32U5xx_HAL_Driver/Src/stm32u5xx_hal_pwr_ex.c ****   }
1400:Drivers/STM32U5xx_HAL_Driver/Src/stm32u5xx_hal_pwr_ex.c ****   else
1401:Drivers/STM32U5xx_HAL_Driver/Src/stm32u5xx_hal_pwr_ex.c ****   {
1402:Drivers/STM32U5xx_HAL_Driver/Src/stm32u5xx_hal_pwr_ex.c ****     return HAL_ERROR;
1403:Drivers/STM32U5xx_HAL_Driver/Src/stm32u5xx_hal_pwr_ex.c ****   }
1404:Drivers/STM32U5xx_HAL_Driver/Src/stm32u5xx_hal_pwr_ex.c **** 
1405:Drivers/STM32U5xx_HAL_Driver/Src/stm32u5xx_hal_pwr_ex.c ****   return HAL_OK;
1406:Drivers/STM32U5xx_HAL_Driver/Src/stm32u5xx_hal_pwr_ex.c **** }
1407:Drivers/STM32U5xx_HAL_Driver/Src/stm32u5xx_hal_pwr_ex.c **** 
1408:Drivers/STM32U5xx_HAL_Driver/Src/stm32u5xx_hal_pwr_ex.c **** /**
1409:Drivers/STM32U5xx_HAL_Driver/Src/stm32u5xx_hal_pwr_ex.c ****   * @brief  Disable the internal USB HS transceiver supply.
1410:Drivers/STM32U5xx_HAL_Driver/Src/stm32u5xx_hal_pwr_ex.c ****   * @retval HAL status.
1411:Drivers/STM32U5xx_HAL_Driver/Src/stm32u5xx_hal_pwr_ex.c ****   */
1412:Drivers/STM32U5xx_HAL_Driver/Src/stm32u5xx_hal_pwr_ex.c **** void HAL_PWREx_DisableUSBHSTranceiverSupply(void)
1413:Drivers/STM32U5xx_HAL_Driver/Src/stm32u5xx_hal_pwr_ex.c **** {
1414:Drivers/STM32U5xx_HAL_Driver/Src/stm32u5xx_hal_pwr_ex.c ****   CLEAR_BIT(PWR->VOSR, (PWR_VOSR_USBPWREN | PWR_VOSR_USBBOOSTEN));
1415:Drivers/STM32U5xx_HAL_Driver/Src/stm32u5xx_hal_pwr_ex.c **** }
1416:Drivers/STM32U5xx_HAL_Driver/Src/stm32u5xx_hal_pwr_ex.c **** #endif /* defined (PWR_VOSR_USBPWREN) */
1417:Drivers/STM32U5xx_HAL_Driver/Src/stm32u5xx_hal_pwr_ex.c **** 
1418:Drivers/STM32U5xx_HAL_Driver/Src/stm32u5xx_hal_pwr_ex.c **** #if defined (PWR_CR1_FORCE_USBPWR)
1419:Drivers/STM32U5xx_HAL_Driver/Src/stm32u5xx_hal_pwr_ex.c **** /**
1420:Drivers/STM32U5xx_HAL_Driver/Src/stm32u5xx_hal_pwr_ex.c ****   * @brief  Enable OTG_HS PHY power during low power modes (Stop2, Stop3 and Standby).
1421:Drivers/STM32U5xx_HAL_Driver/Src/stm32u5xx_hal_pwr_ex.c ****   * @retval None.
1422:Drivers/STM32U5xx_HAL_Driver/Src/stm32u5xx_hal_pwr_ex.c ****   */
1423:Drivers/STM32U5xx_HAL_Driver/Src/stm32u5xx_hal_pwr_ex.c **** void HAL_PWREx_EnableOTGHSPHYLowPowerRetention(void)
1424:Drivers/STM32U5xx_HAL_Driver/Src/stm32u5xx_hal_pwr_ex.c **** {
1425:Drivers/STM32U5xx_HAL_Driver/Src/stm32u5xx_hal_pwr_ex.c ****   /* Set FORCE_USBPWR bit  */
1426:Drivers/STM32U5xx_HAL_Driver/Src/stm32u5xx_hal_pwr_ex.c ****   SET_BIT(PWR->CR1, PWR_CR1_FORCE_USBPWR);
1427:Drivers/STM32U5xx_HAL_Driver/Src/stm32u5xx_hal_pwr_ex.c **** }
1428:Drivers/STM32U5xx_HAL_Driver/Src/stm32u5xx_hal_pwr_ex.c **** 
1429:Drivers/STM32U5xx_HAL_Driver/Src/stm32u5xx_hal_pwr_ex.c **** /**
1430:Drivers/STM32U5xx_HAL_Driver/Src/stm32u5xx_hal_pwr_ex.c ****   * @brief  Disable OTG_HS PHY power during low power modes (Stop2, Stop3 and Standby).
1431:Drivers/STM32U5xx_HAL_Driver/Src/stm32u5xx_hal_pwr_ex.c ****   * @retval None.
1432:Drivers/STM32U5xx_HAL_Driver/Src/stm32u5xx_hal_pwr_ex.c ****   */
1433:Drivers/STM32U5xx_HAL_Driver/Src/stm32u5xx_hal_pwr_ex.c **** void HAL_PWREx_DisableOTGHSPHYLowPowerRetention(void)
1434:Drivers/STM32U5xx_HAL_Driver/Src/stm32u5xx_hal_pwr_ex.c **** {
1435:Drivers/STM32U5xx_HAL_Driver/Src/stm32u5xx_hal_pwr_ex.c ****   /* Clear FORCE_USBPWR bit  */
1436:Drivers/STM32U5xx_HAL_Driver/Src/stm32u5xx_hal_pwr_ex.c ****   CLEAR_BIT(PWR->CR1, PWR_CR1_FORCE_USBPWR);
1437:Drivers/STM32U5xx_HAL_Driver/Src/stm32u5xx_hal_pwr_ex.c **** }
1438:Drivers/STM32U5xx_HAL_Driver/Src/stm32u5xx_hal_pwr_ex.c **** #endif /* defined (PWR_CR1_FORCE_USBPWR) */
1439:Drivers/STM32U5xx_HAL_Driver/Src/stm32u5xx_hal_pwr_ex.c **** 
1440:Drivers/STM32U5xx_HAL_Driver/Src/stm32u5xx_hal_pwr_ex.c **** #if defined (PWR_VOSR_VDD11USBDIS)
1441:Drivers/STM32U5xx_HAL_Driver/Src/stm32u5xx_hal_pwr_ex.c **** /**
1442:Drivers/STM32U5xx_HAL_Driver/Src/stm32u5xx_hal_pwr_ex.c ****   * @brief  Enable the VDD11USB.
1443:Drivers/STM32U5xx_HAL_Driver/Src/stm32u5xx_hal_pwr_ex.c ****   * @retval None.
1444:Drivers/STM32U5xx_HAL_Driver/Src/stm32u5xx_hal_pwr_ex.c ****   */
ARM GAS  C:\Users\Ya\AppData\Local\Temp\ccLrGXJ9.s 			page 60


1445:Drivers/STM32U5xx_HAL_Driver/Src/stm32u5xx_hal_pwr_ex.c **** void HAL_PWREx_EnableVDD11USB(void)
1446:Drivers/STM32U5xx_HAL_Driver/Src/stm32u5xx_hal_pwr_ex.c **** {
1447:Drivers/STM32U5xx_HAL_Driver/Src/stm32u5xx_hal_pwr_ex.c ****   /* Clear VDD11USBDIS bit  */
1448:Drivers/STM32U5xx_HAL_Driver/Src/stm32u5xx_hal_pwr_ex.c ****   CLEAR_BIT(PWR->VOSR, PWR_VOSR_VDD11USBDIS);
1449:Drivers/STM32U5xx_HAL_Driver/Src/stm32u5xx_hal_pwr_ex.c **** }
1450:Drivers/STM32U5xx_HAL_Driver/Src/stm32u5xx_hal_pwr_ex.c **** 
1451:Drivers/STM32U5xx_HAL_Driver/Src/stm32u5xx_hal_pwr_ex.c **** /**
1452:Drivers/STM32U5xx_HAL_Driver/Src/stm32u5xx_hal_pwr_ex.c ****   * @brief  Disable the VDD11USB.
1453:Drivers/STM32U5xx_HAL_Driver/Src/stm32u5xx_hal_pwr_ex.c ****   * @retval None.
1454:Drivers/STM32U5xx_HAL_Driver/Src/stm32u5xx_hal_pwr_ex.c ****   */
1455:Drivers/STM32U5xx_HAL_Driver/Src/stm32u5xx_hal_pwr_ex.c **** void HAL_PWREx_DisableVDD11USB(void)
1456:Drivers/STM32U5xx_HAL_Driver/Src/stm32u5xx_hal_pwr_ex.c **** {
1457:Drivers/STM32U5xx_HAL_Driver/Src/stm32u5xx_hal_pwr_ex.c ****   /* Set VDD11USBDIS bit  */
1458:Drivers/STM32U5xx_HAL_Driver/Src/stm32u5xx_hal_pwr_ex.c ****   SET_BIT(PWR->VOSR, PWR_VOSR_VDD11USBDIS);
1459:Drivers/STM32U5xx_HAL_Driver/Src/stm32u5xx_hal_pwr_ex.c **** }
1460:Drivers/STM32U5xx_HAL_Driver/Src/stm32u5xx_hal_pwr_ex.c **** #endif /* defined (PWR_VOSR_VDD11USBDIS) */
1461:Drivers/STM32U5xx_HAL_Driver/Src/stm32u5xx_hal_pwr_ex.c **** 
1462:Drivers/STM32U5xx_HAL_Driver/Src/stm32u5xx_hal_pwr_ex.c **** #ifdef UCPD1
1463:Drivers/STM32U5xx_HAL_Driver/Src/stm32u5xx_hal_pwr_ex.c **** /**
1464:Drivers/STM32U5xx_HAL_Driver/Src/stm32u5xx_hal_pwr_ex.c ****   * @brief  Enable UCPD configuration memorization in Standby mode.
1465:Drivers/STM32U5xx_HAL_Driver/Src/stm32u5xx_hal_pwr_ex.c ****   * @retval None.
1466:Drivers/STM32U5xx_HAL_Driver/Src/stm32u5xx_hal_pwr_ex.c ****   */
1467:Drivers/STM32U5xx_HAL_Driver/Src/stm32u5xx_hal_pwr_ex.c **** void HAL_PWREx_EnableUCPDStandbyMode(void)
1468:Drivers/STM32U5xx_HAL_Driver/Src/stm32u5xx_hal_pwr_ex.c **** {
 1817              		.loc 1 1468 1 is_stmt 1 view -0
 1818              		.cfi_startproc
 1819              		@ args = 0, pretend = 0, frame = 0
 1820              		@ frame_needed = 0, uses_anonymous_args = 0
 1821              		@ link register save eliminated.
1469:Drivers/STM32U5xx_HAL_Driver/Src/stm32u5xx_hal_pwr_ex.c ****   SET_BIT(PWR->UCPDR, PWR_UCPDR_UCPD_STDBY);
 1822              		.loc 1 1469 3 view .LVU375
 1823 0000 024A     		ldr	r2, .L168
 1824 0002 D36A     		ldr	r3, [r2, #44]
 1825 0004 43F00203 		orr	r3, r3, #2
 1826 0008 D362     		str	r3, [r2, #44]
1470:Drivers/STM32U5xx_HAL_Driver/Src/stm32u5xx_hal_pwr_ex.c **** }
 1827              		.loc 1 1470 1 is_stmt 0 view .LVU376
 1828 000a 7047     		bx	lr
 1829              	.L169:
 1830              		.align	2
 1831              	.L168:
 1832 000c 00080246 		.word	1174538240
 1833              		.cfi_endproc
 1834              	.LFE372:
 1836              		.section	.text.HAL_PWREx_DisableUCPDStandbyMode,"ax",%progbits
 1837              		.align	1
 1838              		.global	HAL_PWREx_DisableUCPDStandbyMode
 1839              		.syntax unified
 1840              		.thumb
 1841              		.thumb_func
 1843              	HAL_PWREx_DisableUCPDStandbyMode:
 1844              	.LFB373:
1471:Drivers/STM32U5xx_HAL_Driver/Src/stm32u5xx_hal_pwr_ex.c **** 
1472:Drivers/STM32U5xx_HAL_Driver/Src/stm32u5xx_hal_pwr_ex.c **** /**
1473:Drivers/STM32U5xx_HAL_Driver/Src/stm32u5xx_hal_pwr_ex.c ****   * @brief  Disable UCPD configuration memorization in Standby mode.
1474:Drivers/STM32U5xx_HAL_Driver/Src/stm32u5xx_hal_pwr_ex.c ****   * @note   This function must be called on exiting the Standby mode and before
1475:Drivers/STM32U5xx_HAL_Driver/Src/stm32u5xx_hal_pwr_ex.c ****   *         any UCPD configuration update.
ARM GAS  C:\Users\Ya\AppData\Local\Temp\ccLrGXJ9.s 			page 61


1476:Drivers/STM32U5xx_HAL_Driver/Src/stm32u5xx_hal_pwr_ex.c ****   * @retval None.
1477:Drivers/STM32U5xx_HAL_Driver/Src/stm32u5xx_hal_pwr_ex.c ****   */
1478:Drivers/STM32U5xx_HAL_Driver/Src/stm32u5xx_hal_pwr_ex.c **** void HAL_PWREx_DisableUCPDStandbyMode(void)
1479:Drivers/STM32U5xx_HAL_Driver/Src/stm32u5xx_hal_pwr_ex.c **** {
 1845              		.loc 1 1479 1 is_stmt 1 view -0
 1846              		.cfi_startproc
 1847              		@ args = 0, pretend = 0, frame = 0
 1848              		@ frame_needed = 0, uses_anonymous_args = 0
 1849              		@ link register save eliminated.
1480:Drivers/STM32U5xx_HAL_Driver/Src/stm32u5xx_hal_pwr_ex.c ****   CLEAR_BIT(PWR->UCPDR, PWR_UCPDR_UCPD_STDBY);
 1850              		.loc 1 1480 3 view .LVU378
 1851 0000 024A     		ldr	r2, .L171
 1852 0002 D36A     		ldr	r3, [r2, #44]
 1853 0004 23F00203 		bic	r3, r3, #2
 1854 0008 D362     		str	r3, [r2, #44]
1481:Drivers/STM32U5xx_HAL_Driver/Src/stm32u5xx_hal_pwr_ex.c **** }
 1855              		.loc 1 1481 1 is_stmt 0 view .LVU379
 1856 000a 7047     		bx	lr
 1857              	.L172:
 1858              		.align	2
 1859              	.L171:
 1860 000c 00080246 		.word	1174538240
 1861              		.cfi_endproc
 1862              	.LFE373:
 1864              		.section	.text.HAL_PWREx_EnableUCPDDeadBattery,"ax",%progbits
 1865              		.align	1
 1866              		.global	HAL_PWREx_EnableUCPDDeadBattery
 1867              		.syntax unified
 1868              		.thumb
 1869              		.thumb_func
 1871              	HAL_PWREx_EnableUCPDDeadBattery:
 1872              	.LFB374:
1482:Drivers/STM32U5xx_HAL_Driver/Src/stm32u5xx_hal_pwr_ex.c **** 
1483:Drivers/STM32U5xx_HAL_Driver/Src/stm32u5xx_hal_pwr_ex.c **** /**
1484:Drivers/STM32U5xx_HAL_Driver/Src/stm32u5xx_hal_pwr_ex.c ****   * @brief  Enable dead battery behavior.
1485:Drivers/STM32U5xx_HAL_Driver/Src/stm32u5xx_hal_pwr_ex.c ****   * @note   After exiting reset, the USB Type-C (dead battery) behavior is
1486:Drivers/STM32U5xx_HAL_Driver/Src/stm32u5xx_hal_pwr_ex.c ****   *         enabled, which may have a pull-down effect on CC1 and CC2 pins.
1487:Drivers/STM32U5xx_HAL_Driver/Src/stm32u5xx_hal_pwr_ex.c ****   *         It is recommended to disable it in all cases, either to stop this
1488:Drivers/STM32U5xx_HAL_Driver/Src/stm32u5xx_hal_pwr_ex.c ****   *         pull-down or to handover control to the UCPD (the UCPD must be
1489:Drivers/STM32U5xx_HAL_Driver/Src/stm32u5xx_hal_pwr_ex.c ****   *         initialized before doing the disable).
1490:Drivers/STM32U5xx_HAL_Driver/Src/stm32u5xx_hal_pwr_ex.c ****   * @retval None.
1491:Drivers/STM32U5xx_HAL_Driver/Src/stm32u5xx_hal_pwr_ex.c ****   */
1492:Drivers/STM32U5xx_HAL_Driver/Src/stm32u5xx_hal_pwr_ex.c **** void HAL_PWREx_EnableUCPDDeadBattery(void)
1493:Drivers/STM32U5xx_HAL_Driver/Src/stm32u5xx_hal_pwr_ex.c **** {
 1873              		.loc 1 1493 1 is_stmt 1 view -0
 1874              		.cfi_startproc
 1875              		@ args = 0, pretend = 0, frame = 0
 1876              		@ frame_needed = 0, uses_anonymous_args = 0
 1877              		@ link register save eliminated.
1494:Drivers/STM32U5xx_HAL_Driver/Src/stm32u5xx_hal_pwr_ex.c ****   CLEAR_BIT(PWR->UCPDR, PWR_UCPDR_UCPD_DBDIS);
 1878              		.loc 1 1494 3 view .LVU381
 1879 0000 024A     		ldr	r2, .L174
 1880 0002 D36A     		ldr	r3, [r2, #44]
 1881 0004 23F00103 		bic	r3, r3, #1
 1882 0008 D362     		str	r3, [r2, #44]
1495:Drivers/STM32U5xx_HAL_Driver/Src/stm32u5xx_hal_pwr_ex.c **** }
 1883              		.loc 1 1495 1 is_stmt 0 view .LVU382
ARM GAS  C:\Users\Ya\AppData\Local\Temp\ccLrGXJ9.s 			page 62


 1884 000a 7047     		bx	lr
 1885              	.L175:
 1886              		.align	2
 1887              	.L174:
 1888 000c 00080246 		.word	1174538240
 1889              		.cfi_endproc
 1890              	.LFE374:
 1892              		.section	.text.HAL_PWREx_DisableUCPDDeadBattery,"ax",%progbits
 1893              		.align	1
 1894              		.global	HAL_PWREx_DisableUCPDDeadBattery
 1895              		.syntax unified
 1896              		.thumb
 1897              		.thumb_func
 1899              	HAL_PWREx_DisableUCPDDeadBattery:
 1900              	.LFB375:
1496:Drivers/STM32U5xx_HAL_Driver/Src/stm32u5xx_hal_pwr_ex.c **** 
1497:Drivers/STM32U5xx_HAL_Driver/Src/stm32u5xx_hal_pwr_ex.c **** /**
1498:Drivers/STM32U5xx_HAL_Driver/Src/stm32u5xx_hal_pwr_ex.c ****   * @brief  Disable dead battery behavior.
1499:Drivers/STM32U5xx_HAL_Driver/Src/stm32u5xx_hal_pwr_ex.c ****   * @note   After exiting reset, the USB Type-C (dead battery) behavior is
1500:Drivers/STM32U5xx_HAL_Driver/Src/stm32u5xx_hal_pwr_ex.c ****   *         enabled, which may have a pull-down effect on CC1 and CC2 pins.
1501:Drivers/STM32U5xx_HAL_Driver/Src/stm32u5xx_hal_pwr_ex.c ****   *         It is recommended to disable it in all cases, either to stop this
1502:Drivers/STM32U5xx_HAL_Driver/Src/stm32u5xx_hal_pwr_ex.c ****   *         pull-down or to handover control to the UCPD (the UCPD must be
1503:Drivers/STM32U5xx_HAL_Driver/Src/stm32u5xx_hal_pwr_ex.c ****   *         initialized before doing the disable).
1504:Drivers/STM32U5xx_HAL_Driver/Src/stm32u5xx_hal_pwr_ex.c ****   * @retval None.
1505:Drivers/STM32U5xx_HAL_Driver/Src/stm32u5xx_hal_pwr_ex.c ****   */
1506:Drivers/STM32U5xx_HAL_Driver/Src/stm32u5xx_hal_pwr_ex.c **** void HAL_PWREx_DisableUCPDDeadBattery(void)
1507:Drivers/STM32U5xx_HAL_Driver/Src/stm32u5xx_hal_pwr_ex.c **** {
 1901              		.loc 1 1507 1 is_stmt 1 view -0
 1902              		.cfi_startproc
 1903              		@ args = 0, pretend = 0, frame = 0
 1904              		@ frame_needed = 0, uses_anonymous_args = 0
 1905              		@ link register save eliminated.
1508:Drivers/STM32U5xx_HAL_Driver/Src/stm32u5xx_hal_pwr_ex.c ****   SET_BIT(PWR->UCPDR, PWR_UCPDR_UCPD_DBDIS);
 1906              		.loc 1 1508 3 view .LVU384
 1907 0000 024A     		ldr	r2, .L177
 1908 0002 D36A     		ldr	r3, [r2, #44]
 1909 0004 43F00103 		orr	r3, r3, #1
 1910 0008 D362     		str	r3, [r2, #44]
1509:Drivers/STM32U5xx_HAL_Driver/Src/stm32u5xx_hal_pwr_ex.c **** }
 1911              		.loc 1 1509 1 is_stmt 0 view .LVU385
 1912 000a 7047     		bx	lr
 1913              	.L178:
 1914              		.align	2
 1915              	.L177:
 1916 000c 00080246 		.word	1174538240
 1917              		.cfi_endproc
 1918              	.LFE375:
 1920              		.section	.text.HAL_PWREx_EnableBatteryCharging,"ax",%progbits
 1921              		.align	1
 1922              		.global	HAL_PWREx_EnableBatteryCharging
 1923              		.syntax unified
 1924              		.thumb
 1925              		.thumb_func
 1927              	HAL_PWREx_EnableBatteryCharging:
 1928              	.LVL62:
 1929              	.LFB376:
1510:Drivers/STM32U5xx_HAL_Driver/Src/stm32u5xx_hal_pwr_ex.c **** #endif /* UCPD1 */
ARM GAS  C:\Users\Ya\AppData\Local\Temp\ccLrGXJ9.s 			page 63


1511:Drivers/STM32U5xx_HAL_Driver/Src/stm32u5xx_hal_pwr_ex.c **** 
1512:Drivers/STM32U5xx_HAL_Driver/Src/stm32u5xx_hal_pwr_ex.c **** /**
1513:Drivers/STM32U5xx_HAL_Driver/Src/stm32u5xx_hal_pwr_ex.c ****   * @brief  Enable the Battery charging.
1514:Drivers/STM32U5xx_HAL_Driver/Src/stm32u5xx_hal_pwr_ex.c ****   * @note   When VDD is present, charge the external battery through an internal
1515:Drivers/STM32U5xx_HAL_Driver/Src/stm32u5xx_hal_pwr_ex.c ****   *         resistor.
1516:Drivers/STM32U5xx_HAL_Driver/Src/stm32u5xx_hal_pwr_ex.c ****   * @param  ResistorValue : Specifies the charging resistor.
1517:Drivers/STM32U5xx_HAL_Driver/Src/stm32u5xx_hal_pwr_ex.c ****   *                         This parameter can be one of the following values :
1518:Drivers/STM32U5xx_HAL_Driver/Src/stm32u5xx_hal_pwr_ex.c ****   *                         @arg PWR_BATTERY_CHARGING_RESISTOR_5   : 5 KOhm resistor.
1519:Drivers/STM32U5xx_HAL_Driver/Src/stm32u5xx_hal_pwr_ex.c ****   *                         @arg PWR_BATTERY_CHARGING_RESISTOR_1_5 : 1.5 KOhm resistor.
1520:Drivers/STM32U5xx_HAL_Driver/Src/stm32u5xx_hal_pwr_ex.c ****   * @retval None.
1521:Drivers/STM32U5xx_HAL_Driver/Src/stm32u5xx_hal_pwr_ex.c ****   */
1522:Drivers/STM32U5xx_HAL_Driver/Src/stm32u5xx_hal_pwr_ex.c **** void HAL_PWREx_EnableBatteryCharging(uint32_t ResistorValue)
1523:Drivers/STM32U5xx_HAL_Driver/Src/stm32u5xx_hal_pwr_ex.c **** {
 1930              		.loc 1 1523 1 is_stmt 1 view -0
 1931              		.cfi_startproc
 1932              		@ args = 0, pretend = 0, frame = 0
 1933              		@ frame_needed = 0, uses_anonymous_args = 0
 1934              		@ link register save eliminated.
1524:Drivers/STM32U5xx_HAL_Driver/Src/stm32u5xx_hal_pwr_ex.c ****   /* Check the parameter */
1525:Drivers/STM32U5xx_HAL_Driver/Src/stm32u5xx_hal_pwr_ex.c ****   assert_param(IS_PWR_BATTERY_RESISTOR_SELECT(ResistorValue));
 1935              		.loc 1 1525 3 view .LVU387
1526:Drivers/STM32U5xx_HAL_Driver/Src/stm32u5xx_hal_pwr_ex.c **** 
1527:Drivers/STM32U5xx_HAL_Driver/Src/stm32u5xx_hal_pwr_ex.c ****   /* Specify the charging resistor */
1528:Drivers/STM32U5xx_HAL_Driver/Src/stm32u5xx_hal_pwr_ex.c ****   MODIFY_REG(PWR->BDCR2, PWR_BDCR2_VBRS, ResistorValue);
 1936              		.loc 1 1528 3 view .LVU388
 1937 0000 054A     		ldr	r2, .L180
 1938 0002 536A     		ldr	r3, [r2, #36]
 1939 0004 23F00203 		bic	r3, r3, #2
 1940 0008 0343     		orrs	r3, r3, r0
 1941 000a 5362     		str	r3, [r2, #36]
1529:Drivers/STM32U5xx_HAL_Driver/Src/stm32u5xx_hal_pwr_ex.c **** 
1530:Drivers/STM32U5xx_HAL_Driver/Src/stm32u5xx_hal_pwr_ex.c ****   /* Enable the Battery charging */
1531:Drivers/STM32U5xx_HAL_Driver/Src/stm32u5xx_hal_pwr_ex.c ****   SET_BIT(PWR->BDCR2, PWR_BDCR2_VBE);
 1942              		.loc 1 1531 3 view .LVU389
 1943 000c 536A     		ldr	r3, [r2, #36]
 1944 000e 43F00103 		orr	r3, r3, #1
 1945 0012 5362     		str	r3, [r2, #36]
1532:Drivers/STM32U5xx_HAL_Driver/Src/stm32u5xx_hal_pwr_ex.c **** }
 1946              		.loc 1 1532 1 is_stmt 0 view .LVU390
 1947 0014 7047     		bx	lr
 1948              	.L181:
 1949 0016 00BF     		.align	2
 1950              	.L180:
 1951 0018 00080246 		.word	1174538240
 1952              		.cfi_endproc
 1953              	.LFE376:
 1955              		.section	.text.HAL_PWREx_DisableBatteryCharging,"ax",%progbits
 1956              		.align	1
 1957              		.global	HAL_PWREx_DisableBatteryCharging
 1958              		.syntax unified
 1959              		.thumb
 1960              		.thumb_func
 1962              	HAL_PWREx_DisableBatteryCharging:
 1963              	.LFB377:
1533:Drivers/STM32U5xx_HAL_Driver/Src/stm32u5xx_hal_pwr_ex.c **** 
1534:Drivers/STM32U5xx_HAL_Driver/Src/stm32u5xx_hal_pwr_ex.c **** /**
1535:Drivers/STM32U5xx_HAL_Driver/Src/stm32u5xx_hal_pwr_ex.c ****   * @brief  Disable the Battery charging.
ARM GAS  C:\Users\Ya\AppData\Local\Temp\ccLrGXJ9.s 			page 64


1536:Drivers/STM32U5xx_HAL_Driver/Src/stm32u5xx_hal_pwr_ex.c ****   * @retval None.
1537:Drivers/STM32U5xx_HAL_Driver/Src/stm32u5xx_hal_pwr_ex.c ****   */
1538:Drivers/STM32U5xx_HAL_Driver/Src/stm32u5xx_hal_pwr_ex.c **** void HAL_PWREx_DisableBatteryCharging(void)
1539:Drivers/STM32U5xx_HAL_Driver/Src/stm32u5xx_hal_pwr_ex.c **** {
 1964              		.loc 1 1539 1 is_stmt 1 view -0
 1965              		.cfi_startproc
 1966              		@ args = 0, pretend = 0, frame = 0
 1967              		@ frame_needed = 0, uses_anonymous_args = 0
 1968              		@ link register save eliminated.
1540:Drivers/STM32U5xx_HAL_Driver/Src/stm32u5xx_hal_pwr_ex.c ****   CLEAR_BIT(PWR->BDCR2, PWR_BDCR2_VBE);
 1969              		.loc 1 1540 3 view .LVU392
 1970 0000 024A     		ldr	r2, .L183
 1971 0002 536A     		ldr	r3, [r2, #36]
 1972 0004 23F00103 		bic	r3, r3, #1
 1973 0008 5362     		str	r3, [r2, #36]
1541:Drivers/STM32U5xx_HAL_Driver/Src/stm32u5xx_hal_pwr_ex.c **** }
 1974              		.loc 1 1541 1 is_stmt 0 view .LVU393
 1975 000a 7047     		bx	lr
 1976              	.L184:
 1977              		.align	2
 1978              	.L183:
 1979 000c 00080246 		.word	1174538240
 1980              		.cfi_endproc
 1981              	.LFE377:
 1983              		.section	.text.HAL_PWREx_UVMCallback,"ax",%progbits
 1984              		.align	1
 1985              		.weak	HAL_PWREx_UVMCallback
 1986              		.syntax unified
 1987              		.thumb
 1988              		.thumb_func
 1990              	HAL_PWREx_UVMCallback:
 1991              	.LFB379:
1542:Drivers/STM32U5xx_HAL_Driver/Src/stm32u5xx_hal_pwr_ex.c **** 
