ARM GAS  C:\Users\Ya\AppData\Local\Temp\ccUtQRqv.s 			page 1


   1              		.cpu cortex-m33
   2              		.arch armv8-m.main
   3              		.fpu fpv5-sp-d16
   4              		.arch_extension dsp
   5              		.eabi_attribute 27, 1
   6              		.eabi_attribute 28, 1
   7              		.eabi_attribute 20, 1
   8              		.eabi_attribute 21, 1
   9              		.eabi_attribute 23, 3
  10              		.eabi_attribute 24, 1
  11              		.eabi_attribute 25, 1
  12              		.eabi_attribute 26, 1
  13              		.eabi_attribute 30, 1
  14              		.eabi_attribute 34, 1
  15              		.eabi_attribute 18, 4
  16              		.file	"stm32u5xx_hal_exti.c"
  17              		.text
  18              	.Ltext0:
  19              		.cfi_sections	.debug_frame
  20              		.file 1 "Drivers/STM32U5xx_HAL_Driver/Src/stm32u5xx_hal_exti.c"
  21              		.section	.text.HAL_EXTI_SetConfigLine,"ax",%progbits
  22              		.align	1
  23              		.global	HAL_EXTI_SetConfigLine
  24              		.syntax unified
  25              		.thumb
  26              		.thumb_func
  28              	HAL_EXTI_SetConfigLine:
  29              	.LVL0:
  30              	.LFB340:
   1:Drivers/STM32U5xx_HAL_Driver/Src/stm32u5xx_hal_exti.c **** /**
   2:Drivers/STM32U5xx_HAL_Driver/Src/stm32u5xx_hal_exti.c ****   ******************************************************************************
   3:Drivers/STM32U5xx_HAL_Driver/Src/stm32u5xx_hal_exti.c ****   * @file    stm32u5xx_hal_exti.c
   4:Drivers/STM32U5xx_HAL_Driver/Src/stm32u5xx_hal_exti.c ****   * @author  MCD Application Team
   5:Drivers/STM32U5xx_HAL_Driver/Src/stm32u5xx_hal_exti.c ****   * @brief   EXTI HAL module driver.
   6:Drivers/STM32U5xx_HAL_Driver/Src/stm32u5xx_hal_exti.c ****   *          This file provides firmware functions to manage the following
   7:Drivers/STM32U5xx_HAL_Driver/Src/stm32u5xx_hal_exti.c ****   *          functionalities of the General Purpose Input/Output (EXTI) peripheral:
   8:Drivers/STM32U5xx_HAL_Driver/Src/stm32u5xx_hal_exti.c ****   *           + Initialization and de-initialization functions
   9:Drivers/STM32U5xx_HAL_Driver/Src/stm32u5xx_hal_exti.c ****   *           + IO operation functions
  10:Drivers/STM32U5xx_HAL_Driver/Src/stm32u5xx_hal_exti.c ****   *
  11:Drivers/STM32U5xx_HAL_Driver/Src/stm32u5xx_hal_exti.c ****   ******************************************************************************
  12:Drivers/STM32U5xx_HAL_Driver/Src/stm32u5xx_hal_exti.c ****   * @attention
  13:Drivers/STM32U5xx_HAL_Driver/Src/stm32u5xx_hal_exti.c ****   *
  14:Drivers/STM32U5xx_HAL_Driver/Src/stm32u5xx_hal_exti.c ****   * Copyright (c) 2021 STMicroelectronics.
  15:Drivers/STM32U5xx_HAL_Driver/Src/stm32u5xx_hal_exti.c ****   * All rights reserved.
  16:Drivers/STM32U5xx_HAL_Driver/Src/stm32u5xx_hal_exti.c ****   *
  17:Drivers/STM32U5xx_HAL_Driver/Src/stm32u5xx_hal_exti.c ****   * This software is licensed under terms that can be found in the LICENSE file
  18:Drivers/STM32U5xx_HAL_Driver/Src/stm32u5xx_hal_exti.c ****   * in the root directory of this software component.
  19:Drivers/STM32U5xx_HAL_Driver/Src/stm32u5xx_hal_exti.c ****   * If no LICENSE file comes with this software, it is provided AS-IS.
  20:Drivers/STM32U5xx_HAL_Driver/Src/stm32u5xx_hal_exti.c ****   *
  21:Drivers/STM32U5xx_HAL_Driver/Src/stm32u5xx_hal_exti.c ****   ******************************************************************************
  22:Drivers/STM32U5xx_HAL_Driver/Src/stm32u5xx_hal_exti.c ****   @verbatim
  23:Drivers/STM32U5xx_HAL_Driver/Src/stm32u5xx_hal_exti.c ****   ==============================================================================
  24:Drivers/STM32U5xx_HAL_Driver/Src/stm32u5xx_hal_exti.c ****                     ##### EXTI Peripheral features #####
  25:Drivers/STM32U5xx_HAL_Driver/Src/stm32u5xx_hal_exti.c ****   ==============================================================================
  26:Drivers/STM32U5xx_HAL_Driver/Src/stm32u5xx_hal_exti.c ****   [..]
  27:Drivers/STM32U5xx_HAL_Driver/Src/stm32u5xx_hal_exti.c ****     (+) Each Exti line can be configured within this driver.
  28:Drivers/STM32U5xx_HAL_Driver/Src/stm32u5xx_hal_exti.c **** 
ARM GAS  C:\Users\Ya\AppData\Local\Temp\ccUtQRqv.s 			page 2


  29:Drivers/STM32U5xx_HAL_Driver/Src/stm32u5xx_hal_exti.c ****     (+) Exti line can be configured in 3 different modes
  30:Drivers/STM32U5xx_HAL_Driver/Src/stm32u5xx_hal_exti.c ****         (++) Interrupt
  31:Drivers/STM32U5xx_HAL_Driver/Src/stm32u5xx_hal_exti.c ****         (++) Event
  32:Drivers/STM32U5xx_HAL_Driver/Src/stm32u5xx_hal_exti.c ****         (++) Both of them
  33:Drivers/STM32U5xx_HAL_Driver/Src/stm32u5xx_hal_exti.c **** 
  34:Drivers/STM32U5xx_HAL_Driver/Src/stm32u5xx_hal_exti.c ****     (+) Configurable Exti lines can be configured with 3 different triggers
  35:Drivers/STM32U5xx_HAL_Driver/Src/stm32u5xx_hal_exti.c ****         (++) Rising
  36:Drivers/STM32U5xx_HAL_Driver/Src/stm32u5xx_hal_exti.c ****         (++) Falling
  37:Drivers/STM32U5xx_HAL_Driver/Src/stm32u5xx_hal_exti.c ****         (++) Both of them
  38:Drivers/STM32U5xx_HAL_Driver/Src/stm32u5xx_hal_exti.c **** 
  39:Drivers/STM32U5xx_HAL_Driver/Src/stm32u5xx_hal_exti.c ****     (+) When set in interrupt mode, configurable Exti lines have two diffenrents
  40:Drivers/STM32U5xx_HAL_Driver/Src/stm32u5xx_hal_exti.c ****         interrupt pending registers which allow to distinguish which transition
  41:Drivers/STM32U5xx_HAL_Driver/Src/stm32u5xx_hal_exti.c ****         occurs:
  42:Drivers/STM32U5xx_HAL_Driver/Src/stm32u5xx_hal_exti.c ****         (++) Rising edge pending interrupt
  43:Drivers/STM32U5xx_HAL_Driver/Src/stm32u5xx_hal_exti.c ****         (++) Falling
  44:Drivers/STM32U5xx_HAL_Driver/Src/stm32u5xx_hal_exti.c **** 
  45:Drivers/STM32U5xx_HAL_Driver/Src/stm32u5xx_hal_exti.c ****     (+) Exti lines 0 to 15 are linked to gpio pin number 0 to 15. Gpio port can
  46:Drivers/STM32U5xx_HAL_Driver/Src/stm32u5xx_hal_exti.c ****         be selected through multiplexer.
  47:Drivers/STM32U5xx_HAL_Driver/Src/stm32u5xx_hal_exti.c **** 
  48:Drivers/STM32U5xx_HAL_Driver/Src/stm32u5xx_hal_exti.c ****                      ##### How to use this driver #####
  49:Drivers/STM32U5xx_HAL_Driver/Src/stm32u5xx_hal_exti.c ****   ==============================================================================
  50:Drivers/STM32U5xx_HAL_Driver/Src/stm32u5xx_hal_exti.c ****   [..]
  51:Drivers/STM32U5xx_HAL_Driver/Src/stm32u5xx_hal_exti.c **** 
  52:Drivers/STM32U5xx_HAL_Driver/Src/stm32u5xx_hal_exti.c ****     (#) Configure the EXTI line using HAL_EXTI_SetConfigLine().
  53:Drivers/STM32U5xx_HAL_Driver/Src/stm32u5xx_hal_exti.c ****         (++) Choose the interrupt line number by setting "Line" member from
  54:Drivers/STM32U5xx_HAL_Driver/Src/stm32u5xx_hal_exti.c ****              EXTI_ConfigTypeDef structure.
  55:Drivers/STM32U5xx_HAL_Driver/Src/stm32u5xx_hal_exti.c ****         (++) Configure the interrupt and/or event mode using "Mode" member from
  56:Drivers/STM32U5xx_HAL_Driver/Src/stm32u5xx_hal_exti.c ****              EXTI_ConfigTypeDef structure.
  57:Drivers/STM32U5xx_HAL_Driver/Src/stm32u5xx_hal_exti.c ****         (++) For configurable lines, configure rising and/or falling trigger
  58:Drivers/STM32U5xx_HAL_Driver/Src/stm32u5xx_hal_exti.c ****              "Trigger" member from EXTI_ConfigTypeDef structure.
  59:Drivers/STM32U5xx_HAL_Driver/Src/stm32u5xx_hal_exti.c ****         (++) For Exti lines linked to gpio, choose gpio port using "GPIOSel"
  60:Drivers/STM32U5xx_HAL_Driver/Src/stm32u5xx_hal_exti.c ****              member from GPIO_InitTypeDef structure.
  61:Drivers/STM32U5xx_HAL_Driver/Src/stm32u5xx_hal_exti.c **** 
  62:Drivers/STM32U5xx_HAL_Driver/Src/stm32u5xx_hal_exti.c ****     (#) Get current Exti configuration of a dedicated line using
  63:Drivers/STM32U5xx_HAL_Driver/Src/stm32u5xx_hal_exti.c ****         HAL_EXTI_GetConfigLine().
  64:Drivers/STM32U5xx_HAL_Driver/Src/stm32u5xx_hal_exti.c ****         (++) Provide exiting handle as parameter.
  65:Drivers/STM32U5xx_HAL_Driver/Src/stm32u5xx_hal_exti.c ****         (++) Provide pointer on EXTI_ConfigTypeDef structure as second parameter.
  66:Drivers/STM32U5xx_HAL_Driver/Src/stm32u5xx_hal_exti.c **** 
  67:Drivers/STM32U5xx_HAL_Driver/Src/stm32u5xx_hal_exti.c ****     (#) Clear Exti configuration of a dedicated line using HAL_EXTI_GetConfigLine().
  68:Drivers/STM32U5xx_HAL_Driver/Src/stm32u5xx_hal_exti.c ****         (++) Provide exiting handle as parameter.
  69:Drivers/STM32U5xx_HAL_Driver/Src/stm32u5xx_hal_exti.c **** 
  70:Drivers/STM32U5xx_HAL_Driver/Src/stm32u5xx_hal_exti.c ****     (#) Register callback to treat Exti interrupts using HAL_EXTI_RegisterCallback().
  71:Drivers/STM32U5xx_HAL_Driver/Src/stm32u5xx_hal_exti.c ****         (++) Provide exiting handle as first parameter.
  72:Drivers/STM32U5xx_HAL_Driver/Src/stm32u5xx_hal_exti.c ****         (++) Provide which callback will be registered using one value from
  73:Drivers/STM32U5xx_HAL_Driver/Src/stm32u5xx_hal_exti.c ****              EXTI_CallbackIDTypeDef.
  74:Drivers/STM32U5xx_HAL_Driver/Src/stm32u5xx_hal_exti.c ****         (++) Provide callback function pointer.
  75:Drivers/STM32U5xx_HAL_Driver/Src/stm32u5xx_hal_exti.c **** 
  76:Drivers/STM32U5xx_HAL_Driver/Src/stm32u5xx_hal_exti.c ****     (#) Get interrupt pending bit using HAL_EXTI_GetPending().
  77:Drivers/STM32U5xx_HAL_Driver/Src/stm32u5xx_hal_exti.c **** 
  78:Drivers/STM32U5xx_HAL_Driver/Src/stm32u5xx_hal_exti.c ****     (#) Clear interrupt pending bit using HAL_EXTI_GetPending().
  79:Drivers/STM32U5xx_HAL_Driver/Src/stm32u5xx_hal_exti.c **** 
  80:Drivers/STM32U5xx_HAL_Driver/Src/stm32u5xx_hal_exti.c ****     (#) Generate software interrupt using HAL_EXTI_GenerateSWI().
  81:Drivers/STM32U5xx_HAL_Driver/Src/stm32u5xx_hal_exti.c **** 
  82:Drivers/STM32U5xx_HAL_Driver/Src/stm32u5xx_hal_exti.c ****   @endverbatim
  83:Drivers/STM32U5xx_HAL_Driver/Src/stm32u5xx_hal_exti.c ****   */
  84:Drivers/STM32U5xx_HAL_Driver/Src/stm32u5xx_hal_exti.c **** 
  85:Drivers/STM32U5xx_HAL_Driver/Src/stm32u5xx_hal_exti.c **** /* Includes ------------------------------------------------------------------*/
ARM GAS  C:\Users\Ya\AppData\Local\Temp\ccUtQRqv.s 			page 3


  86:Drivers/STM32U5xx_HAL_Driver/Src/stm32u5xx_hal_exti.c **** #include "stm32u5xx_hal.h"
  87:Drivers/STM32U5xx_HAL_Driver/Src/stm32u5xx_hal_exti.c **** 
  88:Drivers/STM32U5xx_HAL_Driver/Src/stm32u5xx_hal_exti.c **** /** @addtogroup STM32U5xx_HAL_Driver
  89:Drivers/STM32U5xx_HAL_Driver/Src/stm32u5xx_hal_exti.c ****   * @{
  90:Drivers/STM32U5xx_HAL_Driver/Src/stm32u5xx_hal_exti.c ****   */
  91:Drivers/STM32U5xx_HAL_Driver/Src/stm32u5xx_hal_exti.c **** 
  92:Drivers/STM32U5xx_HAL_Driver/Src/stm32u5xx_hal_exti.c **** /** @addtogroup EXTI
  93:Drivers/STM32U5xx_HAL_Driver/Src/stm32u5xx_hal_exti.c ****   * @{
  94:Drivers/STM32U5xx_HAL_Driver/Src/stm32u5xx_hal_exti.c ****   */
  95:Drivers/STM32U5xx_HAL_Driver/Src/stm32u5xx_hal_exti.c **** 
  96:Drivers/STM32U5xx_HAL_Driver/Src/stm32u5xx_hal_exti.c **** #ifdef HAL_EXTI_MODULE_ENABLED
  97:Drivers/STM32U5xx_HAL_Driver/Src/stm32u5xx_hal_exti.c **** 
  98:Drivers/STM32U5xx_HAL_Driver/Src/stm32u5xx_hal_exti.c **** /* Private typedef -----------------------------------------------------------*/
  99:Drivers/STM32U5xx_HAL_Driver/Src/stm32u5xx_hal_exti.c **** /* Private defines ------------------------------------------------------------*/
 100:Drivers/STM32U5xx_HAL_Driver/Src/stm32u5xx_hal_exti.c **** /** @defgroup EXTI_Private_Constants EXTI Private Constants
 101:Drivers/STM32U5xx_HAL_Driver/Src/stm32u5xx_hal_exti.c ****   * @{
 102:Drivers/STM32U5xx_HAL_Driver/Src/stm32u5xx_hal_exti.c ****   */
 103:Drivers/STM32U5xx_HAL_Driver/Src/stm32u5xx_hal_exti.c **** #define EXTI_MODE_OFFSET                    0x04U   /* byte offset between IMR/EMR registers */
 104:Drivers/STM32U5xx_HAL_Driver/Src/stm32u5xx_hal_exti.c **** #define EXTI_CONFIG_OFFSET                  0x08U   /* byte offset between Rising/Falling configura
 105:Drivers/STM32U5xx_HAL_Driver/Src/stm32u5xx_hal_exti.c **** #define EXTI_PRIVCFGR_OFFSET                0x04U   /* byte offset between PRIVCFGR1/PRIVCFGR2 regi
 106:Drivers/STM32U5xx_HAL_Driver/Src/stm32u5xx_hal_exti.c **** #define EXTI_SECCFGR_OFFSET                 0x04U   /* byte offset between SECCFGR1/SECCFGR2 regist
 107:Drivers/STM32U5xx_HAL_Driver/Src/stm32u5xx_hal_exti.c **** /**
 108:Drivers/STM32U5xx_HAL_Driver/Src/stm32u5xx_hal_exti.c ****   * @}
 109:Drivers/STM32U5xx_HAL_Driver/Src/stm32u5xx_hal_exti.c ****   */
 110:Drivers/STM32U5xx_HAL_Driver/Src/stm32u5xx_hal_exti.c **** 
 111:Drivers/STM32U5xx_HAL_Driver/Src/stm32u5xx_hal_exti.c **** /* Private macros ------------------------------------------------------------*/
 112:Drivers/STM32U5xx_HAL_Driver/Src/stm32u5xx_hal_exti.c **** /* Private variables ---------------------------------------------------------*/
 113:Drivers/STM32U5xx_HAL_Driver/Src/stm32u5xx_hal_exti.c **** /* Private function prototypes -----------------------------------------------*/
 114:Drivers/STM32U5xx_HAL_Driver/Src/stm32u5xx_hal_exti.c **** /* Exported functions --------------------------------------------------------*/
 115:Drivers/STM32U5xx_HAL_Driver/Src/stm32u5xx_hal_exti.c **** 
 116:Drivers/STM32U5xx_HAL_Driver/Src/stm32u5xx_hal_exti.c **** /** @addtogroup EXTI_Exported_Functions
 117:Drivers/STM32U5xx_HAL_Driver/Src/stm32u5xx_hal_exti.c ****   * @{
 118:Drivers/STM32U5xx_HAL_Driver/Src/stm32u5xx_hal_exti.c ****   */
 119:Drivers/STM32U5xx_HAL_Driver/Src/stm32u5xx_hal_exti.c **** 
 120:Drivers/STM32U5xx_HAL_Driver/Src/stm32u5xx_hal_exti.c **** /** @addtogroup EXTI_Exported_Functions_Group1
 121:Drivers/STM32U5xx_HAL_Driver/Src/stm32u5xx_hal_exti.c ****   *  @brief    Configuration functions
 122:Drivers/STM32U5xx_HAL_Driver/Src/stm32u5xx_hal_exti.c ****   *
 123:Drivers/STM32U5xx_HAL_Driver/Src/stm32u5xx_hal_exti.c **** @verbatim
 124:Drivers/STM32U5xx_HAL_Driver/Src/stm32u5xx_hal_exti.c ****  ===============================================================================
 125:Drivers/STM32U5xx_HAL_Driver/Src/stm32u5xx_hal_exti.c ****               ##### Configuration functions #####
 126:Drivers/STM32U5xx_HAL_Driver/Src/stm32u5xx_hal_exti.c ****  ===============================================================================
 127:Drivers/STM32U5xx_HAL_Driver/Src/stm32u5xx_hal_exti.c **** 
 128:Drivers/STM32U5xx_HAL_Driver/Src/stm32u5xx_hal_exti.c **** @endverbatim
 129:Drivers/STM32U5xx_HAL_Driver/Src/stm32u5xx_hal_exti.c ****   * @{
 130:Drivers/STM32U5xx_HAL_Driver/Src/stm32u5xx_hal_exti.c ****   */
 131:Drivers/STM32U5xx_HAL_Driver/Src/stm32u5xx_hal_exti.c **** 
 132:Drivers/STM32U5xx_HAL_Driver/Src/stm32u5xx_hal_exti.c **** /**
 133:Drivers/STM32U5xx_HAL_Driver/Src/stm32u5xx_hal_exti.c ****   * @brief  Set configuration of a dedicated Exti line.
 134:Drivers/STM32U5xx_HAL_Driver/Src/stm32u5xx_hal_exti.c ****   * @param  hexti Exti handle.
 135:Drivers/STM32U5xx_HAL_Driver/Src/stm32u5xx_hal_exti.c ****   * @param  pExtiConfig Pointer on EXTI configuration to be set.
 136:Drivers/STM32U5xx_HAL_Driver/Src/stm32u5xx_hal_exti.c ****   * @retval HAL Status.
 137:Drivers/STM32U5xx_HAL_Driver/Src/stm32u5xx_hal_exti.c ****   */
 138:Drivers/STM32U5xx_HAL_Driver/Src/stm32u5xx_hal_exti.c **** HAL_StatusTypeDef HAL_EXTI_SetConfigLine(EXTI_HandleTypeDef *hexti, EXTI_ConfigTypeDef *pExtiConfig
 139:Drivers/STM32U5xx_HAL_Driver/Src/stm32u5xx_hal_exti.c **** {
  31              		.loc 1 139 1 view -0
  32              		.cfi_startproc
  33              		@ args = 0, pretend = 0, frame = 0
ARM GAS  C:\Users\Ya\AppData\Local\Temp\ccUtQRqv.s 			page 4


  34              		@ frame_needed = 0, uses_anonymous_args = 0
 140:Drivers/STM32U5xx_HAL_Driver/Src/stm32u5xx_hal_exti.c ****   __IO uint32_t *regaddr;
  35              		.loc 1 140 3 view .LVU1
 141:Drivers/STM32U5xx_HAL_Driver/Src/stm32u5xx_hal_exti.c ****   uint32_t regval;
  36              		.loc 1 141 3 view .LVU2
 142:Drivers/STM32U5xx_HAL_Driver/Src/stm32u5xx_hal_exti.c ****   uint32_t linepos;
  37              		.loc 1 142 3 view .LVU3
 143:Drivers/STM32U5xx_HAL_Driver/Src/stm32u5xx_hal_exti.c ****   uint32_t maskline;
  38              		.loc 1 143 3 view .LVU4
 144:Drivers/STM32U5xx_HAL_Driver/Src/stm32u5xx_hal_exti.c ****   uint32_t offset;
  39              		.loc 1 144 3 view .LVU5
 145:Drivers/STM32U5xx_HAL_Driver/Src/stm32u5xx_hal_exti.c **** 
 146:Drivers/STM32U5xx_HAL_Driver/Src/stm32u5xx_hal_exti.c ****   /* Check null pointer */
 147:Drivers/STM32U5xx_HAL_Driver/Src/stm32u5xx_hal_exti.c ****   if ((hexti == NULL) || (pExtiConfig == NULL))
  40              		.loc 1 147 3 view .LVU6
  41              		.loc 1 147 6 is_stmt 0 view .LVU7
  42 0000 0028     		cmp	r0, #0
  43 0002 5ED0     		beq	.L12
  44              		.loc 1 147 23 discriminator 1 view .LVU8
  45 0004 0029     		cmp	r1, #0
  46 0006 5ED0     		beq	.L13
 139:Drivers/STM32U5xx_HAL_Driver/Src/stm32u5xx_hal_exti.c ****   __IO uint32_t *regaddr;
  47              		.loc 1 139 1 view .LVU9
  48 0008 70B5     		push	{r4, r5, r6, lr}
  49              		.cfi_def_cfa_offset 16
  50              		.cfi_offset 4, -16
  51              		.cfi_offset 5, -12
  52              		.cfi_offset 6, -8
  53              		.cfi_offset 14, -4
 148:Drivers/STM32U5xx_HAL_Driver/Src/stm32u5xx_hal_exti.c ****   {
 149:Drivers/STM32U5xx_HAL_Driver/Src/stm32u5xx_hal_exti.c ****     return HAL_ERROR;
 150:Drivers/STM32U5xx_HAL_Driver/Src/stm32u5xx_hal_exti.c ****   }
 151:Drivers/STM32U5xx_HAL_Driver/Src/stm32u5xx_hal_exti.c **** 
 152:Drivers/STM32U5xx_HAL_Driver/Src/stm32u5xx_hal_exti.c ****   /* Check the parameters */
 153:Drivers/STM32U5xx_HAL_Driver/Src/stm32u5xx_hal_exti.c ****   assert_param(IS_EXTI_LINE(pExtiConfig->Line));
  54              		.loc 1 153 3 is_stmt 1 view .LVU10
 154:Drivers/STM32U5xx_HAL_Driver/Src/stm32u5xx_hal_exti.c ****   assert_param(IS_EXTI_MODE(pExtiConfig->Mode));
  55              		.loc 1 154 3 view .LVU11
 155:Drivers/STM32U5xx_HAL_Driver/Src/stm32u5xx_hal_exti.c **** 
 156:Drivers/STM32U5xx_HAL_Driver/Src/stm32u5xx_hal_exti.c ****   /* Assign line number to handle */
 157:Drivers/STM32U5xx_HAL_Driver/Src/stm32u5xx_hal_exti.c ****   hexti->Line = pExtiConfig->Line;
  56              		.loc 1 157 3 view .LVU12
  57              		.loc 1 157 28 is_stmt 0 view .LVU13
  58 000a 0A68     		ldr	r2, [r1]
  59              		.loc 1 157 15 view .LVU14
  60 000c 0260     		str	r2, [r0]
 158:Drivers/STM32U5xx_HAL_Driver/Src/stm32u5xx_hal_exti.c **** 
 159:Drivers/STM32U5xx_HAL_Driver/Src/stm32u5xx_hal_exti.c ****   /* compute line register offset and line mask */
 160:Drivers/STM32U5xx_HAL_Driver/Src/stm32u5xx_hal_exti.c ****   offset = ((pExtiConfig->Line & EXTI_REG_MASK) >> EXTI_REG_SHIFT);
  61              		.loc 1 160 3 is_stmt 1 view .LVU15
  62              		.loc 1 160 10 is_stmt 0 view .LVU16
  63 000e C2F30043 		ubfx	r3, r2, #16, #1
  64              	.LVL1:
 161:Drivers/STM32U5xx_HAL_Driver/Src/stm32u5xx_hal_exti.c ****   linepos = (pExtiConfig->Line & EXTI_PIN_MASK);
  65              		.loc 1 161 3 is_stmt 1 view .LVU17
  66              		.loc 1 161 11 is_stmt 0 view .LVU18
  67 0012 02F01F0C 		and	ip, r2, #31
ARM GAS  C:\Users\Ya\AppData\Local\Temp\ccUtQRqv.s 			page 5


  68              	.LVL2:
 162:Drivers/STM32U5xx_HAL_Driver/Src/stm32u5xx_hal_exti.c ****   maskline = (1UL << linepos);
  69              		.loc 1 162 3 is_stmt 1 view .LVU19
  70              		.loc 1 162 12 is_stmt 0 view .LVU20
  71 0016 0120     		movs	r0, #1
  72              	.LVL3:
  73              		.loc 1 162 12 view .LVU21
  74 0018 00FA0CF0 		lsl	r0, r0, ip
  75              	.LVL4:
 163:Drivers/STM32U5xx_HAL_Driver/Src/stm32u5xx_hal_exti.c **** 
 164:Drivers/STM32U5xx_HAL_Driver/Src/stm32u5xx_hal_exti.c ****   /* Configure triggers for configurable lines */
 165:Drivers/STM32U5xx_HAL_Driver/Src/stm32u5xx_hal_exti.c ****   if ((pExtiConfig->Line & EXTI_CONFIG) != 0U)
  76              		.loc 1 165 3 is_stmt 1 view .LVU22
  77              		.loc 1 165 6 is_stmt 0 view .LVU23
  78 001c 12F0007F 		tst	r2, #33554432
  79 0020 1CD0     		beq	.L3
 166:Drivers/STM32U5xx_HAL_Driver/Src/stm32u5xx_hal_exti.c ****   {
 167:Drivers/STM32U5xx_HAL_Driver/Src/stm32u5xx_hal_exti.c ****     assert_param(IS_EXTI_TRIGGER(pExtiConfig->Trigger));
  80              		.loc 1 167 5 is_stmt 1 view .LVU24
 168:Drivers/STM32U5xx_HAL_Driver/Src/stm32u5xx_hal_exti.c **** 
 169:Drivers/STM32U5xx_HAL_Driver/Src/stm32u5xx_hal_exti.c ****     /* Configure rising trigger */
 170:Drivers/STM32U5xx_HAL_Driver/Src/stm32u5xx_hal_exti.c ****     regaddr = (__IO uint32_t *)(&EXTI->RTSR1 + (EXTI_CONFIG_OFFSET * offset));
  81              		.loc 1 170 5 view .LVU25
  82              		.loc 1 170 15 is_stmt 0 view .LVU26
  83 0022 4FEA431E 		lsl	lr, r3, #5
  84              		.loc 1 170 13 view .LVU27
  85 0026 0EF18C44 		add	r4, lr, #1174405120
  86 002a 04F50834 		add	r4, r4, #139264
  87              	.LVL5:
 171:Drivers/STM32U5xx_HAL_Driver/Src/stm32u5xx_hal_exti.c ****     regval = *regaddr;
  88              		.loc 1 171 5 is_stmt 1 view .LVU28
  89              		.loc 1 171 12 is_stmt 0 view .LVU29
  90 002e 2568     		ldr	r5, [r4]
  91              	.LVL6:
 172:Drivers/STM32U5xx_HAL_Driver/Src/stm32u5xx_hal_exti.c **** 
 173:Drivers/STM32U5xx_HAL_Driver/Src/stm32u5xx_hal_exti.c ****     /* Mask or set line */
 174:Drivers/STM32U5xx_HAL_Driver/Src/stm32u5xx_hal_exti.c ****     if ((pExtiConfig->Trigger & EXTI_TRIGGER_RISING) != 0U)
  92              		.loc 1 174 5 is_stmt 1 view .LVU30
  93              		.loc 1 174 8 is_stmt 0 view .LVU31
  94 0030 8E68     		ldr	r6, [r1, #8]
  95 0032 16F0010F 		tst	r6, #1
  96 0036 24D0     		beq	.L4
 175:Drivers/STM32U5xx_HAL_Driver/Src/stm32u5xx_hal_exti.c ****     {
 176:Drivers/STM32U5xx_HAL_Driver/Src/stm32u5xx_hal_exti.c ****       regval |= maskline;
  97              		.loc 1 176 7 is_stmt 1 view .LVU32
  98              		.loc 1 176 14 is_stmt 0 view .LVU33
  99 0038 0543     		orrs	r5, r5, r0
 100              	.LVL7:
 101              	.L5:
 177:Drivers/STM32U5xx_HAL_Driver/Src/stm32u5xx_hal_exti.c ****     }
 178:Drivers/STM32U5xx_HAL_Driver/Src/stm32u5xx_hal_exti.c ****     else
 179:Drivers/STM32U5xx_HAL_Driver/Src/stm32u5xx_hal_exti.c ****     {
 180:Drivers/STM32U5xx_HAL_Driver/Src/stm32u5xx_hal_exti.c ****       regval &= ~maskline;
 181:Drivers/STM32U5xx_HAL_Driver/Src/stm32u5xx_hal_exti.c ****     }
 182:Drivers/STM32U5xx_HAL_Driver/Src/stm32u5xx_hal_exti.c **** 
 183:Drivers/STM32U5xx_HAL_Driver/Src/stm32u5xx_hal_exti.c ****     /* Store rising trigger mode */
 184:Drivers/STM32U5xx_HAL_Driver/Src/stm32u5xx_hal_exti.c ****     *regaddr = regval;
ARM GAS  C:\Users\Ya\AppData\Local\Temp\ccUtQRqv.s 			page 6


 102              		.loc 1 184 5 is_stmt 1 view .LVU34
 103              		.loc 1 184 14 is_stmt 0 view .LVU35
 104 003a 2560     		str	r5, [r4]
 185:Drivers/STM32U5xx_HAL_Driver/Src/stm32u5xx_hal_exti.c **** 
 186:Drivers/STM32U5xx_HAL_Driver/Src/stm32u5xx_hal_exti.c ****     /* Configure falling trigger */
 187:Drivers/STM32U5xx_HAL_Driver/Src/stm32u5xx_hal_exti.c ****     regaddr = (__IO uint32_t *)(&EXTI->FTSR1 + (EXTI_CONFIG_OFFSET * offset));
 105              		.loc 1 187 5 is_stmt 1 view .LVU36
 106              		.loc 1 187 13 is_stmt 0 view .LVU37
 107 003c 234E     		ldr	r6, .L19
 108              	.LVL8:
 188:Drivers/STM32U5xx_HAL_Driver/Src/stm32u5xx_hal_exti.c ****     regval = *regaddr;
 109              		.loc 1 188 5 is_stmt 1 view .LVU38
 110              		.loc 1 188 12 is_stmt 0 view .LVU39
 111 003e 5EF80640 		ldr	r4, [lr, r6]
 112              	.LVL9:
 189:Drivers/STM32U5xx_HAL_Driver/Src/stm32u5xx_hal_exti.c **** 
 190:Drivers/STM32U5xx_HAL_Driver/Src/stm32u5xx_hal_exti.c ****     /* Mask or set line */
 191:Drivers/STM32U5xx_HAL_Driver/Src/stm32u5xx_hal_exti.c ****     if ((pExtiConfig->Trigger & EXTI_TRIGGER_FALLING) != 0U)
 113              		.loc 1 191 5 is_stmt 1 view .LVU40
 114              		.loc 1 191 21 is_stmt 0 view .LVU41
 115 0042 8D68     		ldr	r5, [r1, #8]
 116              		.loc 1 191 8 view .LVU42
 117 0044 15F0020F 		tst	r5, #2
 118 0048 1ED0     		beq	.L6
 192:Drivers/STM32U5xx_HAL_Driver/Src/stm32u5xx_hal_exti.c ****     {
 193:Drivers/STM32U5xx_HAL_Driver/Src/stm32u5xx_hal_exti.c ****       regval |= maskline;
 119              		.loc 1 193 7 is_stmt 1 view .LVU43
 120              		.loc 1 193 14 is_stmt 0 view .LVU44
 121 004a 0443     		orrs	r4, r4, r0
 122              	.LVL10:
 123              	.L7:
 194:Drivers/STM32U5xx_HAL_Driver/Src/stm32u5xx_hal_exti.c ****     }
 195:Drivers/STM32U5xx_HAL_Driver/Src/stm32u5xx_hal_exti.c ****     else
 196:Drivers/STM32U5xx_HAL_Driver/Src/stm32u5xx_hal_exti.c ****     {
 197:Drivers/STM32U5xx_HAL_Driver/Src/stm32u5xx_hal_exti.c ****       regval &= ~maskline;
 198:Drivers/STM32U5xx_HAL_Driver/Src/stm32u5xx_hal_exti.c ****     }
 199:Drivers/STM32U5xx_HAL_Driver/Src/stm32u5xx_hal_exti.c **** 
 200:Drivers/STM32U5xx_HAL_Driver/Src/stm32u5xx_hal_exti.c ****     /* Store falling trigger mode */
 201:Drivers/STM32U5xx_HAL_Driver/Src/stm32u5xx_hal_exti.c ****     *regaddr = regval;
 124              		.loc 1 201 5 is_stmt 1 view .LVU45
 125              		.loc 1 201 14 is_stmt 0 view .LVU46
 126 004c 4EF80640 		str	r4, [lr, r6]
 202:Drivers/STM32U5xx_HAL_Driver/Src/stm32u5xx_hal_exti.c **** 
 203:Drivers/STM32U5xx_HAL_Driver/Src/stm32u5xx_hal_exti.c ****     /* Configure gpio port selection in case of gpio exti line */
 204:Drivers/STM32U5xx_HAL_Driver/Src/stm32u5xx_hal_exti.c ****     if ((pExtiConfig->Line & EXTI_GPIO) == EXTI_GPIO)
 127              		.loc 1 204 5 is_stmt 1 view .LVU47
 128              		.loc 1 204 21 is_stmt 0 view .LVU48
 129 0050 0C68     		ldr	r4, [r1]
 130              	.LVL11:
 131              		.loc 1 204 28 view .LVU49
 132 0052 04F0C064 		and	r4, r4, #100663296
 133              		.loc 1 204 8 view .LVU50
 134 0056 B4F1C06F 		cmp	r4, #100663296
 135 005a 18D0     		beq	.L18
 136              	.LVL12:
 137              	.L3:
 205:Drivers/STM32U5xx_HAL_Driver/Src/stm32u5xx_hal_exti.c ****     {
ARM GAS  C:\Users\Ya\AppData\Local\Temp\ccUtQRqv.s 			page 7


 206:Drivers/STM32U5xx_HAL_Driver/Src/stm32u5xx_hal_exti.c ****       assert_param(IS_EXTI_GPIO_PORT(pExtiConfig->GPIOSel));
 207:Drivers/STM32U5xx_HAL_Driver/Src/stm32u5xx_hal_exti.c ****       assert_param(IS_EXTI_GPIO_PIN(linepos));
 208:Drivers/STM32U5xx_HAL_Driver/Src/stm32u5xx_hal_exti.c **** 
 209:Drivers/STM32U5xx_HAL_Driver/Src/stm32u5xx_hal_exti.c ****       regval = EXTI->EXTICR[(linepos >> 2U) & 0x03UL];
 210:Drivers/STM32U5xx_HAL_Driver/Src/stm32u5xx_hal_exti.c ****       regval &= ~(EXTI_EXTICR1_EXTI0 << (EXTI_EXTICR1_EXTI1_Pos * (linepos & 0x03U)));
 211:Drivers/STM32U5xx_HAL_Driver/Src/stm32u5xx_hal_exti.c ****       regval |= (pExtiConfig->GPIOSel << (EXTI_EXTICR1_EXTI1_Pos * (linepos & 0x03U)));
 212:Drivers/STM32U5xx_HAL_Driver/Src/stm32u5xx_hal_exti.c ****       EXTI->EXTICR[(linepos >> 2U) & 0x03UL] = regval;
 213:Drivers/STM32U5xx_HAL_Driver/Src/stm32u5xx_hal_exti.c ****     }
 214:Drivers/STM32U5xx_HAL_Driver/Src/stm32u5xx_hal_exti.c ****   }
 215:Drivers/STM32U5xx_HAL_Driver/Src/stm32u5xx_hal_exti.c **** 
 216:Drivers/STM32U5xx_HAL_Driver/Src/stm32u5xx_hal_exti.c ****   /* Configure interrupt mode : read current mode */
 217:Drivers/STM32U5xx_HAL_Driver/Src/stm32u5xx_hal_exti.c ****   regaddr = (__IO uint32_t *)(&EXTI->IMR1 + (EXTI_MODE_OFFSET * offset));
 138              		.loc 1 217 3 is_stmt 1 view .LVU51
 139              		.loc 1 217 13 is_stmt 0 view .LVU52
 140 005c 1B01     		lsls	r3, r3, #4
 141              	.LVL13:
 142              		.loc 1 217 11 view .LVU53
 143 005e 1C4C     		ldr	r4, .L19+4
 144              	.LVL14:
 218:Drivers/STM32U5xx_HAL_Driver/Src/stm32u5xx_hal_exti.c ****   regval = *regaddr;
 145              		.loc 1 218 3 is_stmt 1 view .LVU54
 146              		.loc 1 218 10 is_stmt 0 view .LVU55
 147 0060 1A59     		ldr	r2, [r3, r4]
 148              	.LVL15:
 219:Drivers/STM32U5xx_HAL_Driver/Src/stm32u5xx_hal_exti.c **** 
 220:Drivers/STM32U5xx_HAL_Driver/Src/stm32u5xx_hal_exti.c ****   /* Mask or set line */
 221:Drivers/STM32U5xx_HAL_Driver/Src/stm32u5xx_hal_exti.c ****   if ((pExtiConfig->Mode & EXTI_MODE_INTERRUPT) != 0U)
 149              		.loc 1 221 3 is_stmt 1 view .LVU56
 150              		.loc 1 221 6 is_stmt 0 view .LVU57
 151 0062 4D68     		ldr	r5, [r1, #4]
 152 0064 15F0010F 		tst	r5, #1
 153 0068 25D0     		beq	.L8
 222:Drivers/STM32U5xx_HAL_Driver/Src/stm32u5xx_hal_exti.c ****   {
 223:Drivers/STM32U5xx_HAL_Driver/Src/stm32u5xx_hal_exti.c ****     regval |= maskline;
 154              		.loc 1 223 5 is_stmt 1 view .LVU58
 155              		.loc 1 223 12 is_stmt 0 view .LVU59
 156 006a 0243     		orrs	r2, r2, r0
 157              	.LVL16:
 158              	.L9:
 224:Drivers/STM32U5xx_HAL_Driver/Src/stm32u5xx_hal_exti.c ****   }
 225:Drivers/STM32U5xx_HAL_Driver/Src/stm32u5xx_hal_exti.c ****   else
 226:Drivers/STM32U5xx_HAL_Driver/Src/stm32u5xx_hal_exti.c ****   {
 227:Drivers/STM32U5xx_HAL_Driver/Src/stm32u5xx_hal_exti.c ****     regval &= ~maskline;
 228:Drivers/STM32U5xx_HAL_Driver/Src/stm32u5xx_hal_exti.c ****   }
 229:Drivers/STM32U5xx_HAL_Driver/Src/stm32u5xx_hal_exti.c **** 
 230:Drivers/STM32U5xx_HAL_Driver/Src/stm32u5xx_hal_exti.c ****   /* Store interrupt mode */
 231:Drivers/STM32U5xx_HAL_Driver/Src/stm32u5xx_hal_exti.c ****   *regaddr = regval;
 159              		.loc 1 231 3 is_stmt 1 view .LVU60
 160              		.loc 1 231 12 is_stmt 0 view .LVU61
 161 006c 1A51     		str	r2, [r3, r4]
 232:Drivers/STM32U5xx_HAL_Driver/Src/stm32u5xx_hal_exti.c **** 
 233:Drivers/STM32U5xx_HAL_Driver/Src/stm32u5xx_hal_exti.c ****   /* Configure event mode : read current mode */
 234:Drivers/STM32U5xx_HAL_Driver/Src/stm32u5xx_hal_exti.c ****   regaddr = (__IO uint32_t *)(&EXTI->EMR1 + (EXTI_MODE_OFFSET * offset));
 162              		.loc 1 234 3 is_stmt 1 view .LVU62
 163              		.loc 1 234 11 is_stmt 0 view .LVU63
 164 006e 194C     		ldr	r4, .L19+8
 165              	.LVL17:
ARM GAS  C:\Users\Ya\AppData\Local\Temp\ccUtQRqv.s 			page 8


 235:Drivers/STM32U5xx_HAL_Driver/Src/stm32u5xx_hal_exti.c ****   regval = *regaddr;
 166              		.loc 1 235 3 is_stmt 1 view .LVU64
 167              		.loc 1 235 10 is_stmt 0 view .LVU65
 168 0070 1A59     		ldr	r2, [r3, r4]
 169              	.LVL18:
 236:Drivers/STM32U5xx_HAL_Driver/Src/stm32u5xx_hal_exti.c **** 
 237:Drivers/STM32U5xx_HAL_Driver/Src/stm32u5xx_hal_exti.c ****   /* Mask or set line */
 238:Drivers/STM32U5xx_HAL_Driver/Src/stm32u5xx_hal_exti.c ****   if ((pExtiConfig->Mode & EXTI_MODE_EVENT) != 0U)
 170              		.loc 1 238 3 is_stmt 1 view .LVU66
 171              		.loc 1 238 19 is_stmt 0 view .LVU67
 172 0072 4968     		ldr	r1, [r1, #4]
 173              	.LVL19:
 174              		.loc 1 238 6 view .LVU68
 175 0074 11F0020F 		tst	r1, #2
 176 0078 20D0     		beq	.L10
 239:Drivers/STM32U5xx_HAL_Driver/Src/stm32u5xx_hal_exti.c ****   {
 240:Drivers/STM32U5xx_HAL_Driver/Src/stm32u5xx_hal_exti.c ****     regval |= maskline;
 177              		.loc 1 240 5 is_stmt 1 view .LVU69
 178              		.loc 1 240 12 is_stmt 0 view .LVU70
 179 007a 0243     		orrs	r2, r2, r0
 180              	.LVL20:
 181              	.L11:
 241:Drivers/STM32U5xx_HAL_Driver/Src/stm32u5xx_hal_exti.c ****   }
 242:Drivers/STM32U5xx_HAL_Driver/Src/stm32u5xx_hal_exti.c ****   else
 243:Drivers/STM32U5xx_HAL_Driver/Src/stm32u5xx_hal_exti.c ****   {
 244:Drivers/STM32U5xx_HAL_Driver/Src/stm32u5xx_hal_exti.c ****     regval &= ~maskline;
 245:Drivers/STM32U5xx_HAL_Driver/Src/stm32u5xx_hal_exti.c ****   }
 246:Drivers/STM32U5xx_HAL_Driver/Src/stm32u5xx_hal_exti.c **** 
 247:Drivers/STM32U5xx_HAL_Driver/Src/stm32u5xx_hal_exti.c ****   /* Store event mode */
 248:Drivers/STM32U5xx_HAL_Driver/Src/stm32u5xx_hal_exti.c ****   *regaddr = regval;
 182              		.loc 1 248 3 is_stmt 1 view .LVU71
 183              		.loc 1 248 12 is_stmt 0 view .LVU72
 184 007c 1A51     		str	r2, [r3, r4]
 249:Drivers/STM32U5xx_HAL_Driver/Src/stm32u5xx_hal_exti.c **** 
 250:Drivers/STM32U5xx_HAL_Driver/Src/stm32u5xx_hal_exti.c ****   return HAL_OK;
 185              		.loc 1 250 3 is_stmt 1 view .LVU73
 186              		.loc 1 250 10 is_stmt 0 view .LVU74
 187 007e 0020     		movs	r0, #0
 188              	.LVL21:
 251:Drivers/STM32U5xx_HAL_Driver/Src/stm32u5xx_hal_exti.c **** }
 189              		.loc 1 251 1 view .LVU75
 190 0080 70BD     		pop	{r4, r5, r6, pc}
 191              	.LVL22:
 192              	.L4:
 180:Drivers/STM32U5xx_HAL_Driver/Src/stm32u5xx_hal_exti.c ****     }
 193              		.loc 1 180 7 is_stmt 1 view .LVU76
 180:Drivers/STM32U5xx_HAL_Driver/Src/stm32u5xx_hal_exti.c ****     }
 194              		.loc 1 180 14 is_stmt 0 view .LVU77
 195 0082 25EA0005 		bic	r5, r5, r0
 196              	.LVL23:
 180:Drivers/STM32U5xx_HAL_Driver/Src/stm32u5xx_hal_exti.c ****     }
 197              		.loc 1 180 14 view .LVU78
 198 0086 D8E7     		b	.L5
 199              	.LVL24:
 200              	.L6:
 197:Drivers/STM32U5xx_HAL_Driver/Src/stm32u5xx_hal_exti.c ****     }
 201              		.loc 1 197 7 is_stmt 1 view .LVU79
ARM GAS  C:\Users\Ya\AppData\Local\Temp\ccUtQRqv.s 			page 9


 197:Drivers/STM32U5xx_HAL_Driver/Src/stm32u5xx_hal_exti.c ****     }
 202              		.loc 1 197 14 is_stmt 0 view .LVU80
 203 0088 24EA0004 		bic	r4, r4, r0
 204              	.LVL25:
 197:Drivers/STM32U5xx_HAL_Driver/Src/stm32u5xx_hal_exti.c ****     }
 205              		.loc 1 197 14 view .LVU81
 206 008c DEE7     		b	.L7
 207              	.LVL26:
 208              	.L18:
 206:Drivers/STM32U5xx_HAL_Driver/Src/stm32u5xx_hal_exti.c ****       assert_param(IS_EXTI_GPIO_PIN(linepos));
 209              		.loc 1 206 7 is_stmt 1 view .LVU82
 207:Drivers/STM32U5xx_HAL_Driver/Src/stm32u5xx_hal_exti.c **** 
 210              		.loc 1 207 7 view .LVU83
 209:Drivers/STM32U5xx_HAL_Driver/Src/stm32u5xx_hal_exti.c ****       regval &= ~(EXTI_EXTICR1_EXTI0 << (EXTI_EXTICR1_EXTI1_Pos * (linepos & 0x03U)));
 211              		.loc 1 209 7 view .LVU84
 209:Drivers/STM32U5xx_HAL_Driver/Src/stm32u5xx_hal_exti.c ****       regval &= ~(EXTI_EXTICR1_EXTI0 << (EXTI_EXTICR1_EXTI1_Pos * (linepos & 0x03U)));
 212              		.loc 1 209 45 is_stmt 0 view .LVU85
 213 008e CCF3810C 		ubfx	ip, ip, #2, #2
 214              	.LVL27:
 209:Drivers/STM32U5xx_HAL_Driver/Src/stm32u5xx_hal_exti.c ****       regval &= ~(EXTI_EXTICR1_EXTI0 << (EXTI_EXTICR1_EXTI1_Pos * (linepos & 0x03U)));
 215              		.loc 1 209 14 view .LVU86
 216 0092 114E     		ldr	r6, .L19+12
 217              	.LVL28:
 209:Drivers/STM32U5xx_HAL_Driver/Src/stm32u5xx_hal_exti.c ****       regval &= ~(EXTI_EXTICR1_EXTI0 << (EXTI_EXTICR1_EXTI1_Pos * (linepos & 0x03U)));
 218              		.loc 1 209 14 view .LVU87
 219 0094 0CF1180C 		add	ip, ip, #24
 220 0098 56F82C50 		ldr	r5, [r6, ip, lsl #2]
 221              	.LVL29:
 210:Drivers/STM32U5xx_HAL_Driver/Src/stm32u5xx_hal_exti.c ****       regval |= (pExtiConfig->GPIOSel << (EXTI_EXTICR1_EXTI1_Pos * (linepos & 0x03U)));
 222              		.loc 1 210 7 is_stmt 1 view .LVU88
 210:Drivers/STM32U5xx_HAL_Driver/Src/stm32u5xx_hal_exti.c ****       regval |= (pExtiConfig->GPIOSel << (EXTI_EXTICR1_EXTI1_Pos * (linepos & 0x03U)));
 223              		.loc 1 210 76 is_stmt 0 view .LVU89
 224 009c 02F00302 		and	r2, r2, #3
 225              	.LVL30:
 210:Drivers/STM32U5xx_HAL_Driver/Src/stm32u5xx_hal_exti.c ****       regval |= (pExtiConfig->GPIOSel << (EXTI_EXTICR1_EXTI1_Pos * (linepos & 0x03U)));
 226              		.loc 1 210 65 view .LVU90
 227 00a0 D200     		lsls	r2, r2, #3
 210:Drivers/STM32U5xx_HAL_Driver/Src/stm32u5xx_hal_exti.c ****       regval |= (pExtiConfig->GPIOSel << (EXTI_EXTICR1_EXTI1_Pos * (linepos & 0x03U)));
 228              		.loc 1 210 38 view .LVU91
 229 00a2 0F24     		movs	r4, #15
 230 00a4 9440     		lsls	r4, r4, r2
 210:Drivers/STM32U5xx_HAL_Driver/Src/stm32u5xx_hal_exti.c ****       regval |= (pExtiConfig->GPIOSel << (EXTI_EXTICR1_EXTI1_Pos * (linepos & 0x03U)));
 231              		.loc 1 210 14 view .LVU92
 232 00a6 25EA0405 		bic	r5, r5, r4
 233              	.LVL31:
 211:Drivers/STM32U5xx_HAL_Driver/Src/stm32u5xx_hal_exti.c ****       EXTI->EXTICR[(linepos >> 2U) & 0x03UL] = regval;
 234              		.loc 1 211 7 is_stmt 1 view .LVU93
 211:Drivers/STM32U5xx_HAL_Driver/Src/stm32u5xx_hal_exti.c ****       EXTI->EXTICR[(linepos >> 2U) & 0x03UL] = regval;
 235              		.loc 1 211 29 is_stmt 0 view .LVU94
 236 00aa CC68     		ldr	r4, [r1, #12]
 211:Drivers/STM32U5xx_HAL_Driver/Src/stm32u5xx_hal_exti.c ****       EXTI->EXTICR[(linepos >> 2U) & 0x03UL] = regval;
 237              		.loc 1 211 39 view .LVU95
 238 00ac 9440     		lsls	r4, r4, r2
 211:Drivers/STM32U5xx_HAL_Driver/Src/stm32u5xx_hal_exti.c ****       EXTI->EXTICR[(linepos >> 2U) & 0x03UL] = regval;
 239              		.loc 1 211 14 view .LVU96
 240 00ae 2C43     		orrs	r4, r4, r5
 241              	.LVL32:
ARM GAS  C:\Users\Ya\AppData\Local\Temp\ccUtQRqv.s 			page 10


 212:Drivers/STM32U5xx_HAL_Driver/Src/stm32u5xx_hal_exti.c ****     }
 242              		.loc 1 212 7 is_stmt 1 view .LVU97
 212:Drivers/STM32U5xx_HAL_Driver/Src/stm32u5xx_hal_exti.c ****     }
 243              		.loc 1 212 46 is_stmt 0 view .LVU98
 244 00b0 46F82C40 		str	r4, [r6, ip, lsl #2]
 245 00b4 D2E7     		b	.L3
 246              	.LVL33:
 247              	.L8:
 227:Drivers/STM32U5xx_HAL_Driver/Src/stm32u5xx_hal_exti.c ****   }
 248              		.loc 1 227 5 is_stmt 1 view .LVU99
 227:Drivers/STM32U5xx_HAL_Driver/Src/stm32u5xx_hal_exti.c ****   }
 249              		.loc 1 227 12 is_stmt 0 view .LVU100
 250 00b6 22EA0002 		bic	r2, r2, r0
 251              	.LVL34:
 227:Drivers/STM32U5xx_HAL_Driver/Src/stm32u5xx_hal_exti.c ****   }
 252              		.loc 1 227 12 view .LVU101
 253 00ba D7E7     		b	.L9
 254              	.LVL35:
 255              	.L10:
 244:Drivers/STM32U5xx_HAL_Driver/Src/stm32u5xx_hal_exti.c ****   }
 256              		.loc 1 244 5 is_stmt 1 view .LVU102
 244:Drivers/STM32U5xx_HAL_Driver/Src/stm32u5xx_hal_exti.c ****   }
 257              		.loc 1 244 12 is_stmt 0 view .LVU103
 258 00bc 22EA0002 		bic	r2, r2, r0
 259              	.LVL36:
 244:Drivers/STM32U5xx_HAL_Driver/Src/stm32u5xx_hal_exti.c ****   }
 260              		.loc 1 244 12 view .LVU104
 261 00c0 DCE7     		b	.L11
 262              	.LVL37:
 263              	.L12:
 264              		.cfi_def_cfa_offset 0
 265              		.cfi_restore 4
 266              		.cfi_restore 5
 267              		.cfi_restore 6
 268              		.cfi_restore 14
 149:Drivers/STM32U5xx_HAL_Driver/Src/stm32u5xx_hal_exti.c ****   }
 269              		.loc 1 149 12 view .LVU105
 270 00c2 0120     		movs	r0, #1
 271              	.LVL38:
 149:Drivers/STM32U5xx_HAL_Driver/Src/stm32u5xx_hal_exti.c ****   }
 272              		.loc 1 149 12 view .LVU106
 273 00c4 7047     		bx	lr
 274              	.LVL39:
 275              	.L13:
 149:Drivers/STM32U5xx_HAL_Driver/Src/stm32u5xx_hal_exti.c ****   }
 276              		.loc 1 149 12 view .LVU107
 277 00c6 0120     		movs	r0, #1
 278              	.LVL40:
 279              		.loc 1 251 1 view .LVU108
 280 00c8 7047     		bx	lr
 281              	.L20:
 282 00ca 00BF     		.align	2
 283              	.L19:
 284 00cc 04200246 		.word	1174544388
 285 00d0 80200246 		.word	1174544512
 286 00d4 84200246 		.word	1174544516
 287 00d8 00200246 		.word	1174544384
ARM GAS  C:\Users\Ya\AppData\Local\Temp\ccUtQRqv.s 			page 11


 288              		.cfi_endproc
 289              	.LFE340:
 291              		.section	.text.HAL_EXTI_GetConfigLine,"ax",%progbits
 292              		.align	1
 293              		.global	HAL_EXTI_GetConfigLine
 294              		.syntax unified
 295              		.thumb
 296              		.thumb_func
 298              	HAL_EXTI_GetConfigLine:
 299              	.LVL41:
 300              	.LFB341:
 252:Drivers/STM32U5xx_HAL_Driver/Src/stm32u5xx_hal_exti.c **** 
 253:Drivers/STM32U5xx_HAL_Driver/Src/stm32u5xx_hal_exti.c **** 
 254:Drivers/STM32U5xx_HAL_Driver/Src/stm32u5xx_hal_exti.c **** /**
 255:Drivers/STM32U5xx_HAL_Driver/Src/stm32u5xx_hal_exti.c ****   * @brief  Get configuration of a dedicated Exti line.
 256:Drivers/STM32U5xx_HAL_Driver/Src/stm32u5xx_hal_exti.c ****   * @param  hexti Exti handle.
 257:Drivers/STM32U5xx_HAL_Driver/Src/stm32u5xx_hal_exti.c ****   * @param  pExtiConfig Pointer on structure to store Exti configuration.
 258:Drivers/STM32U5xx_HAL_Driver/Src/stm32u5xx_hal_exti.c ****   * @retval HAL Status.
 259:Drivers/STM32U5xx_HAL_Driver/Src/stm32u5xx_hal_exti.c ****   */
 260:Drivers/STM32U5xx_HAL_Driver/Src/stm32u5xx_hal_exti.c **** HAL_StatusTypeDef HAL_EXTI_GetConfigLine(EXTI_HandleTypeDef *hexti, EXTI_ConfigTypeDef *pExtiConfig
 261:Drivers/STM32U5xx_HAL_Driver/Src/stm32u5xx_hal_exti.c **** {
 301              		.loc 1 261 1 is_stmt 1 view -0
 302              		.cfi_startproc
 303              		@ args = 0, pretend = 0, frame = 0
 304              		@ frame_needed = 0, uses_anonymous_args = 0
 262:Drivers/STM32U5xx_HAL_Driver/Src/stm32u5xx_hal_exti.c ****   const __IO uint32_t *regaddr;
 305              		.loc 1 262 3 view .LVU110
 263:Drivers/STM32U5xx_HAL_Driver/Src/stm32u5xx_hal_exti.c ****   uint32_t regval;
 306              		.loc 1 263 3 view .LVU111
 264:Drivers/STM32U5xx_HAL_Driver/Src/stm32u5xx_hal_exti.c ****   uint32_t linepos;
 307              		.loc 1 264 3 view .LVU112
 265:Drivers/STM32U5xx_HAL_Driver/Src/stm32u5xx_hal_exti.c ****   uint32_t maskline;
 308              		.loc 1 265 3 view .LVU113
 266:Drivers/STM32U5xx_HAL_Driver/Src/stm32u5xx_hal_exti.c ****   uint32_t offset;
 309              		.loc 1 266 3 view .LVU114
 267:Drivers/STM32U5xx_HAL_Driver/Src/stm32u5xx_hal_exti.c **** 
 268:Drivers/STM32U5xx_HAL_Driver/Src/stm32u5xx_hal_exti.c ****   /* Check null pointer */
 269:Drivers/STM32U5xx_HAL_Driver/Src/stm32u5xx_hal_exti.c ****   if ((hexti == NULL) || (pExtiConfig == NULL))
 310              		.loc 1 269 3 view .LVU115
 311              		.loc 1 269 6 is_stmt 0 view .LVU116
 312 0000 0028     		cmp	r0, #0
 313 0002 52D0     		beq	.L28
 314              		.loc 1 269 23 discriminator 1 view .LVU117
 315 0004 0029     		cmp	r1, #0
 316 0006 52D0     		beq	.L29
 261:Drivers/STM32U5xx_HAL_Driver/Src/stm32u5xx_hal_exti.c ****   const __IO uint32_t *regaddr;
 317              		.loc 1 261 1 view .LVU118
 318 0008 30B5     		push	{r4, r5, lr}
 319              		.cfi_def_cfa_offset 12
 320              		.cfi_offset 4, -12
 321              		.cfi_offset 5, -8
 322              		.cfi_offset 14, -4
 270:Drivers/STM32U5xx_HAL_Driver/Src/stm32u5xx_hal_exti.c ****   {
 271:Drivers/STM32U5xx_HAL_Driver/Src/stm32u5xx_hal_exti.c ****     return HAL_ERROR;
 272:Drivers/STM32U5xx_HAL_Driver/Src/stm32u5xx_hal_exti.c ****   }
 273:Drivers/STM32U5xx_HAL_Driver/Src/stm32u5xx_hal_exti.c **** 
 274:Drivers/STM32U5xx_HAL_Driver/Src/stm32u5xx_hal_exti.c ****   /* Check the parameter */
ARM GAS  C:\Users\Ya\AppData\Local\Temp\ccUtQRqv.s 			page 12


 275:Drivers/STM32U5xx_HAL_Driver/Src/stm32u5xx_hal_exti.c ****   assert_param(IS_EXTI_LINE(hexti->Line));
 323              		.loc 1 275 3 is_stmt 1 view .LVU119
 276:Drivers/STM32U5xx_HAL_Driver/Src/stm32u5xx_hal_exti.c **** 
 277:Drivers/STM32U5xx_HAL_Driver/Src/stm32u5xx_hal_exti.c ****   /* Store handle line number to configiguration structure */
 278:Drivers/STM32U5xx_HAL_Driver/Src/stm32u5xx_hal_exti.c ****   pExtiConfig->Line = hexti->Line;
 324              		.loc 1 278 3 view .LVU120
 325              		.loc 1 278 28 is_stmt 0 view .LVU121
 326 000a 0368     		ldr	r3, [r0]
 327              		.loc 1 278 21 view .LVU122
 328 000c 0B60     		str	r3, [r1]
 279:Drivers/STM32U5xx_HAL_Driver/Src/stm32u5xx_hal_exti.c **** 
 280:Drivers/STM32U5xx_HAL_Driver/Src/stm32u5xx_hal_exti.c ****   /* compute line register offset and line mask */
 281:Drivers/STM32U5xx_HAL_Driver/Src/stm32u5xx_hal_exti.c ****   offset = ((pExtiConfig->Line & EXTI_REG_MASK) >> EXTI_REG_SHIFT);
 329              		.loc 1 281 3 is_stmt 1 view .LVU123
 330              		.loc 1 281 10 is_stmt 0 view .LVU124
 331 000e C3F30040 		ubfx	r0, r3, #16, #1
 332              	.LVL42:
 282:Drivers/STM32U5xx_HAL_Driver/Src/stm32u5xx_hal_exti.c ****   linepos = (pExtiConfig->Line & EXTI_PIN_MASK);
 333              		.loc 1 282 3 is_stmt 1 view .LVU125
 334              		.loc 1 282 11 is_stmt 0 view .LVU126
 335 0012 03F01F0C 		and	ip, r3, #31
 336              	.LVL43:
 283:Drivers/STM32U5xx_HAL_Driver/Src/stm32u5xx_hal_exti.c ****   maskline = (1UL << linepos);
 337              		.loc 1 283 3 is_stmt 1 view .LVU127
 338              		.loc 1 283 12 is_stmt 0 view .LVU128
 339 0016 0122     		movs	r2, #1
 340 0018 02FA0CF2 		lsl	r2, r2, ip
 341              	.LVL44:
 284:Drivers/STM32U5xx_HAL_Driver/Src/stm32u5xx_hal_exti.c **** 
 285:Drivers/STM32U5xx_HAL_Driver/Src/stm32u5xx_hal_exti.c ****   /* 1] Get core mode : interrupt */
 286:Drivers/STM32U5xx_HAL_Driver/Src/stm32u5xx_hal_exti.c ****   regaddr = (__IO uint32_t *)(&EXTI->IMR1 + (EXTI_MODE_OFFSET * offset));
 342              		.loc 1 286 3 is_stmt 1 view .LVU129
 343              		.loc 1 286 13 is_stmt 0 view .LVU130
 344 001c 4FEA001E 		lsl	lr, r0, #4
 345              		.loc 1 286 11 view .LVU131
 346 0020 254C     		ldr	r4, .L37
 347              	.LVL45:
 287:Drivers/STM32U5xx_HAL_Driver/Src/stm32u5xx_hal_exti.c ****   regval = *regaddr;
 348              		.loc 1 287 3 is_stmt 1 view .LVU132
 349              		.loc 1 287 10 is_stmt 0 view .LVU133
 350 0022 5EF80440 		ldr	r4, [lr, r4]
 351              	.LVL46:
 288:Drivers/STM32U5xx_HAL_Driver/Src/stm32u5xx_hal_exti.c **** 
 289:Drivers/STM32U5xx_HAL_Driver/Src/stm32u5xx_hal_exti.c ****   /* Check if selected line is enable */
 290:Drivers/STM32U5xx_HAL_Driver/Src/stm32u5xx_hal_exti.c ****   if ((regval & maskline) != 0U)
 352              		.loc 1 290 3 is_stmt 1 view .LVU134
 353              		.loc 1 290 6 is_stmt 0 view .LVU135
 354 0026 2242     		tst	r2, r4
 355 0028 2AD0     		beq	.L23
 291:Drivers/STM32U5xx_HAL_Driver/Src/stm32u5xx_hal_exti.c ****   {
 292:Drivers/STM32U5xx_HAL_Driver/Src/stm32u5xx_hal_exti.c ****     pExtiConfig->Mode = EXTI_MODE_INTERRUPT;
 356              		.loc 1 292 5 is_stmt 1 view .LVU136
 357              		.loc 1 292 23 is_stmt 0 view .LVU137
 358 002a 0124     		movs	r4, #1
 359              	.LVL47:
 360              		.loc 1 292 23 view .LVU138
 361 002c 4C60     		str	r4, [r1, #4]
ARM GAS  C:\Users\Ya\AppData\Local\Temp\ccUtQRqv.s 			page 13


 362              	.L24:
 293:Drivers/STM32U5xx_HAL_Driver/Src/stm32u5xx_hal_exti.c ****   }
 294:Drivers/STM32U5xx_HAL_Driver/Src/stm32u5xx_hal_exti.c ****   else
 295:Drivers/STM32U5xx_HAL_Driver/Src/stm32u5xx_hal_exti.c ****   {
 296:Drivers/STM32U5xx_HAL_Driver/Src/stm32u5xx_hal_exti.c ****     pExtiConfig->Mode = EXTI_MODE_NONE;
 297:Drivers/STM32U5xx_HAL_Driver/Src/stm32u5xx_hal_exti.c ****   }
 298:Drivers/STM32U5xx_HAL_Driver/Src/stm32u5xx_hal_exti.c **** 
 299:Drivers/STM32U5xx_HAL_Driver/Src/stm32u5xx_hal_exti.c ****   /* Get event mode */
 300:Drivers/STM32U5xx_HAL_Driver/Src/stm32u5xx_hal_exti.c ****   regaddr = (__IO uint32_t *)(&EXTI->EMR1 + (EXTI_MODE_OFFSET * offset));
 363              		.loc 1 300 3 is_stmt 1 view .LVU139
 364              		.loc 1 300 11 is_stmt 0 view .LVU140
 365 002e 234C     		ldr	r4, .L37+4
 366              	.LVL48:
 301:Drivers/STM32U5xx_HAL_Driver/Src/stm32u5xx_hal_exti.c ****   regval = *regaddr;
 367              		.loc 1 301 3 is_stmt 1 view .LVU141
 368              		.loc 1 301 10 is_stmt 0 view .LVU142
 369 0030 5EF80440 		ldr	r4, [lr, r4]
 370              	.LVL49:
 302:Drivers/STM32U5xx_HAL_Driver/Src/stm32u5xx_hal_exti.c **** 
 303:Drivers/STM32U5xx_HAL_Driver/Src/stm32u5xx_hal_exti.c ****   /* Check if selected line is enable */
 304:Drivers/STM32U5xx_HAL_Driver/Src/stm32u5xx_hal_exti.c ****   if ((regval & maskline) != 0U)
 371              		.loc 1 304 3 is_stmt 1 view .LVU143
 372              		.loc 1 304 6 is_stmt 0 view .LVU144
 373 0034 2242     		tst	r2, r4
 374 0036 03D0     		beq	.L25
 305:Drivers/STM32U5xx_HAL_Driver/Src/stm32u5xx_hal_exti.c ****   {
 306:Drivers/STM32U5xx_HAL_Driver/Src/stm32u5xx_hal_exti.c ****     pExtiConfig->Mode |= EXTI_MODE_EVENT;
 375              		.loc 1 306 5 is_stmt 1 view .LVU145
 376              		.loc 1 306 16 is_stmt 0 view .LVU146
 377 0038 4C68     		ldr	r4, [r1, #4]
 378              	.LVL50:
 379              		.loc 1 306 23 view .LVU147
 380 003a 44F00204 		orr	r4, r4, #2
 381 003e 4C60     		str	r4, [r1, #4]
 382              	.L25:
 307:Drivers/STM32U5xx_HAL_Driver/Src/stm32u5xx_hal_exti.c ****   }
 308:Drivers/STM32U5xx_HAL_Driver/Src/stm32u5xx_hal_exti.c **** 
 309:Drivers/STM32U5xx_HAL_Driver/Src/stm32u5xx_hal_exti.c ****   /* 2] Get trigger for configurable lines : rising */
 310:Drivers/STM32U5xx_HAL_Driver/Src/stm32u5xx_hal_exti.c ****   if ((pExtiConfig->Line & EXTI_CONFIG) != 0U)
 383              		.loc 1 310 3 is_stmt 1 view .LVU148
 384              		.loc 1 310 6 is_stmt 0 view .LVU149
 385 0040 13F0007F 		tst	r3, #33554432
 386 0044 35D0     		beq	.L30
 311:Drivers/STM32U5xx_HAL_Driver/Src/stm32u5xx_hal_exti.c ****   {
 312:Drivers/STM32U5xx_HAL_Driver/Src/stm32u5xx_hal_exti.c ****     regaddr = (__IO uint32_t *)(&EXTI->RTSR1 + (EXTI_CONFIG_OFFSET * offset));
 387              		.loc 1 312 5 is_stmt 1 view .LVU150
 388              		.loc 1 312 15 is_stmt 0 view .LVU151
 389 0046 4001     		lsls	r0, r0, #5
 390              	.LVL51:
 391              		.loc 1 312 13 view .LVU152
 392 0048 00F18C4E 		add	lr, r0, #1174405120
 393              	.LVL52:
 394              		.loc 1 312 13 view .LVU153
 395 004c 0EF5083E 		add	lr, lr, #139264
 396              	.LVL53:
 313:Drivers/STM32U5xx_HAL_Driver/Src/stm32u5xx_hal_exti.c ****     regval = *regaddr;
 397              		.loc 1 313 5 is_stmt 1 view .LVU154
ARM GAS  C:\Users\Ya\AppData\Local\Temp\ccUtQRqv.s 			page 14


 398              		.loc 1 313 12 is_stmt 0 view .LVU155
 399 0050 DEF80050 		ldr	r5, [lr]
 400              	.LVL54:
 314:Drivers/STM32U5xx_HAL_Driver/Src/stm32u5xx_hal_exti.c **** 
 315:Drivers/STM32U5xx_HAL_Driver/Src/stm32u5xx_hal_exti.c ****     /* Get default Trigger and GPIOSel configuration */
 316:Drivers/STM32U5xx_HAL_Driver/Src/stm32u5xx_hal_exti.c ****     pExtiConfig->Trigger = EXTI_TRIGGER_NONE;
 401              		.loc 1 316 5 is_stmt 1 view .LVU156
 402              		.loc 1 316 26 is_stmt 0 view .LVU157
 403 0054 0024     		movs	r4, #0
 404 0056 8C60     		str	r4, [r1, #8]
 317:Drivers/STM32U5xx_HAL_Driver/Src/stm32u5xx_hal_exti.c ****     pExtiConfig->GPIOSel = 0x00u;
 405              		.loc 1 317 5 is_stmt 1 view .LVU158
 406              		.loc 1 317 26 is_stmt 0 view .LVU159
 407 0058 CC60     		str	r4, [r1, #12]
 318:Drivers/STM32U5xx_HAL_Driver/Src/stm32u5xx_hal_exti.c **** 
 319:Drivers/STM32U5xx_HAL_Driver/Src/stm32u5xx_hal_exti.c ****     /* Check if configuration of selected line is enable */
 320:Drivers/STM32U5xx_HAL_Driver/Src/stm32u5xx_hal_exti.c ****     if ((regval & maskline) != 0U)
 408              		.loc 1 320 5 is_stmt 1 view .LVU160
 409              		.loc 1 320 8 is_stmt 0 view .LVU161
 410 005a 2A42     		tst	r2, r5
 411 005c 01D0     		beq	.L26
 321:Drivers/STM32U5xx_HAL_Driver/Src/stm32u5xx_hal_exti.c ****     {
 322:Drivers/STM32U5xx_HAL_Driver/Src/stm32u5xx_hal_exti.c ****       pExtiConfig->Trigger = EXTI_TRIGGER_RISING;
 412              		.loc 1 322 7 is_stmt 1 view .LVU162
 413              		.loc 1 322 28 is_stmt 0 view .LVU163
 414 005e 0124     		movs	r4, #1
 415 0060 8C60     		str	r4, [r1, #8]
 416              	.L26:
 323:Drivers/STM32U5xx_HAL_Driver/Src/stm32u5xx_hal_exti.c ****     }
 324:Drivers/STM32U5xx_HAL_Driver/Src/stm32u5xx_hal_exti.c **** 
 325:Drivers/STM32U5xx_HAL_Driver/Src/stm32u5xx_hal_exti.c ****     /* Get falling configuration */
 326:Drivers/STM32U5xx_HAL_Driver/Src/stm32u5xx_hal_exti.c ****     regaddr = (__IO uint32_t *)(&EXTI->FTSR1 + (EXTI_CONFIG_OFFSET * offset));
 417              		.loc 1 326 5 is_stmt 1 view .LVU164
 418              		.loc 1 326 13 is_stmt 0 view .LVU165
 419 0062 174C     		ldr	r4, .L37+8
 420              	.LVL55:
 327:Drivers/STM32U5xx_HAL_Driver/Src/stm32u5xx_hal_exti.c ****     regval = *regaddr;
 421              		.loc 1 327 5 is_stmt 1 view .LVU166
 422              		.loc 1 327 12 is_stmt 0 view .LVU167
 423 0064 0059     		ldr	r0, [r0, r4]
 424              	.LVL56:
 328:Drivers/STM32U5xx_HAL_Driver/Src/stm32u5xx_hal_exti.c **** 
 329:Drivers/STM32U5xx_HAL_Driver/Src/stm32u5xx_hal_exti.c ****     /* Check if configuration of selected line is enable */
 330:Drivers/STM32U5xx_HAL_Driver/Src/stm32u5xx_hal_exti.c ****     if ((regval & maskline) != 0U)
 425              		.loc 1 330 5 is_stmt 1 view .LVU168
 426              		.loc 1 330 8 is_stmt 0 view .LVU169
 427 0066 0242     		tst	r2, r0
 428 0068 03D0     		beq	.L27
 331:Drivers/STM32U5xx_HAL_Driver/Src/stm32u5xx_hal_exti.c ****     {
 332:Drivers/STM32U5xx_HAL_Driver/Src/stm32u5xx_hal_exti.c ****       pExtiConfig->Trigger |= EXTI_TRIGGER_FALLING;
 429              		.loc 1 332 7 is_stmt 1 view .LVU170
 430              		.loc 1 332 18 is_stmt 0 view .LVU171
 431 006a 8A68     		ldr	r2, [r1, #8]
 432              	.LVL57:
 433              		.loc 1 332 28 view .LVU172
 434 006c 42F00202 		orr	r2, r2, #2
 435 0070 8A60     		str	r2, [r1, #8]
ARM GAS  C:\Users\Ya\AppData\Local\Temp\ccUtQRqv.s 			page 15


 436              	.L27:
 333:Drivers/STM32U5xx_HAL_Driver/Src/stm32u5xx_hal_exti.c ****     }
 334:Drivers/STM32U5xx_HAL_Driver/Src/stm32u5xx_hal_exti.c **** 
 335:Drivers/STM32U5xx_HAL_Driver/Src/stm32u5xx_hal_exti.c ****     /* Get Gpio port selection for gpio lines */
 336:Drivers/STM32U5xx_HAL_Driver/Src/stm32u5xx_hal_exti.c ****     if ((pExtiConfig->Line & EXTI_GPIO) == EXTI_GPIO)
 437              		.loc 1 336 5 is_stmt 1 view .LVU173
 438              		.loc 1 336 28 is_stmt 0 view .LVU174
 439 0072 03F0C063 		and	r3, r3, #100663296
 440              	.LVL58:
 441              		.loc 1 336 8 view .LVU175
 442 0076 B3F1C06F 		cmp	r3, #100663296
 443 007a 04D0     		beq	.L36
 337:Drivers/STM32U5xx_HAL_Driver/Src/stm32u5xx_hal_exti.c ****     {
 338:Drivers/STM32U5xx_HAL_Driver/Src/stm32u5xx_hal_exti.c ****       assert_param(IS_EXTI_GPIO_PIN(linepos));
 339:Drivers/STM32U5xx_HAL_Driver/Src/stm32u5xx_hal_exti.c **** 
 340:Drivers/STM32U5xx_HAL_Driver/Src/stm32u5xx_hal_exti.c ****       regval = EXTI->EXTICR[(linepos >> 2U) & 0x03UL];
 341:Drivers/STM32U5xx_HAL_Driver/Src/stm32u5xx_hal_exti.c ****       pExtiConfig->GPIOSel = ((regval << (EXTI_EXTICR1_EXTI1_Pos * (3U - (linepos & 0x03U)))) >> 24
 342:Drivers/STM32U5xx_HAL_Driver/Src/stm32u5xx_hal_exti.c ****     }
 343:Drivers/STM32U5xx_HAL_Driver/Src/stm32u5xx_hal_exti.c ****   }
 344:Drivers/STM32U5xx_HAL_Driver/Src/stm32u5xx_hal_exti.c **** 
 345:Drivers/STM32U5xx_HAL_Driver/Src/stm32u5xx_hal_exti.c ****   return HAL_OK;
 444              		.loc 1 345 10 view .LVU176
 445 007c 0020     		movs	r0, #0
 446              	.LVL59:
 447              		.loc 1 345 10 view .LVU177
 448 007e 19E0     		b	.L22
 449              	.LVL60:
 450              	.L23:
 296:Drivers/STM32U5xx_HAL_Driver/Src/stm32u5xx_hal_exti.c ****   }
 451              		.loc 1 296 5 is_stmt 1 view .LVU178
 296:Drivers/STM32U5xx_HAL_Driver/Src/stm32u5xx_hal_exti.c ****   }
 452              		.loc 1 296 23 is_stmt 0 view .LVU179
 453 0080 0024     		movs	r4, #0
 454              	.LVL61:
 296:Drivers/STM32U5xx_HAL_Driver/Src/stm32u5xx_hal_exti.c ****   }
 455              		.loc 1 296 23 view .LVU180
 456 0082 4C60     		str	r4, [r1, #4]
 457 0084 D3E7     		b	.L24
 458              	.LVL62:
 459              	.L36:
 338:Drivers/STM32U5xx_HAL_Driver/Src/stm32u5xx_hal_exti.c **** 
 460              		.loc 1 338 7 is_stmt 1 view .LVU181
 340:Drivers/STM32U5xx_HAL_Driver/Src/stm32u5xx_hal_exti.c ****       pExtiConfig->GPIOSel = ((regval << (EXTI_EXTICR1_EXTI1_Pos * (3U - (linepos & 0x03U)))) >> 24
 461              		.loc 1 340 7 view .LVU182
 340:Drivers/STM32U5xx_HAL_Driver/Src/stm32u5xx_hal_exti.c ****       pExtiConfig->GPIOSel = ((regval << (EXTI_EXTICR1_EXTI1_Pos * (3U - (linepos & 0x03U)))) >> 24
 462              		.loc 1 340 45 is_stmt 0 view .LVU183
 463 0086 CCF38103 		ubfx	r3, ip, #2, #2
 340:Drivers/STM32U5xx_HAL_Driver/Src/stm32u5xx_hal_exti.c ****       pExtiConfig->GPIOSel = ((regval << (EXTI_EXTICR1_EXTI1_Pos * (3U - (linepos & 0x03U)))) >> 24
 464              		.loc 1 340 14 view .LVU184
 465 008a 1833     		adds	r3, r3, #24
 466 008c 0D4A     		ldr	r2, .L37+12
 467 008e 52F82330 		ldr	r3, [r2, r3, lsl #2]
 468              	.LVL63:
 341:Drivers/STM32U5xx_HAL_Driver/Src/stm32u5xx_hal_exti.c ****     }
 469              		.loc 1 341 7 is_stmt 1 view .LVU185
 341:Drivers/STM32U5xx_HAL_Driver/Src/stm32u5xx_hal_exti.c ****     }
 470              		.loc 1 341 72 is_stmt 0 view .LVU186
ARM GAS  C:\Users\Ya\AppData\Local\Temp\ccUtQRqv.s 			page 16


 471 0092 6FEA0C0C 		mvn	ip, ip
 472              	.LVL64:
 341:Drivers/STM32U5xx_HAL_Driver/Src/stm32u5xx_hal_exti.c ****     }
 473              		.loc 1 341 72 view .LVU187
 474 0096 0CF0030C 		and	ip, ip, #3
 475              	.LVL65:
 341:Drivers/STM32U5xx_HAL_Driver/Src/stm32u5xx_hal_exti.c ****     }
 476              		.loc 1 341 66 view .LVU188
 477 009a 4FEACC0C 		lsl	ip, ip, #3
 341:Drivers/STM32U5xx_HAL_Driver/Src/stm32u5xx_hal_exti.c ****     }
 478              		.loc 1 341 39 view .LVU189
 479 009e 03FA0CF3 		lsl	r3, r3, ip
 480              	.LVL66:
 341:Drivers/STM32U5xx_HAL_Driver/Src/stm32u5xx_hal_exti.c ****     }
 481              		.loc 1 341 95 view .LVU190
 482 00a2 1B0E     		lsrs	r3, r3, #24
 341:Drivers/STM32U5xx_HAL_Driver/Src/stm32u5xx_hal_exti.c ****     }
 483              		.loc 1 341 28 view .LVU191
 484 00a4 CB60     		str	r3, [r1, #12]
 485              		.loc 1 345 10 view .LVU192
 486 00a6 0020     		movs	r0, #0
 487 00a8 04E0     		b	.L22
 488              	.LVL67:
 489              	.L28:
 490              		.cfi_def_cfa_offset 0
 491              		.cfi_restore 4
 492              		.cfi_restore 5
 493              		.cfi_restore 14
 271:Drivers/STM32U5xx_HAL_Driver/Src/stm32u5xx_hal_exti.c ****   }
 494              		.loc 1 271 12 view .LVU193
 495 00aa 0120     		movs	r0, #1
 496              	.LVL68:
 271:Drivers/STM32U5xx_HAL_Driver/Src/stm32u5xx_hal_exti.c ****   }
 497              		.loc 1 271 12 view .LVU194
 498 00ac 7047     		bx	lr
 499              	.LVL69:
 500              	.L29:
 271:Drivers/STM32U5xx_HAL_Driver/Src/stm32u5xx_hal_exti.c ****   }
 501              		.loc 1 271 12 view .LVU195
 502 00ae 0120     		movs	r0, #1
 503              	.LVL70:
 346:Drivers/STM32U5xx_HAL_Driver/Src/stm32u5xx_hal_exti.c **** }
 504              		.loc 1 346 1 view .LVU196
 505 00b0 7047     		bx	lr
 506              	.LVL71:
 507              	.L30:
 508              		.cfi_def_cfa_offset 12
 509              		.cfi_offset 4, -12
 510              		.cfi_offset 5, -8
 511              		.cfi_offset 14, -4
 345:Drivers/STM32U5xx_HAL_Driver/Src/stm32u5xx_hal_exti.c **** }
 512              		.loc 1 345 10 view .LVU197
 513 00b2 0020     		movs	r0, #0
 514              	.LVL72:
 515              	.L22:
 516              		.loc 1 346 1 view .LVU198
 517 00b4 30BD     		pop	{r4, r5, pc}
ARM GAS  C:\Users\Ya\AppData\Local\Temp\ccUtQRqv.s 			page 17


 518              	.L38:
 519 00b6 00BF     		.align	2
 520              	.L37:
 521 00b8 80200246 		.word	1174544512
 522 00bc 84200246 		.word	1174544516
 523 00c0 04200246 		.word	1174544388
 524 00c4 00200246 		.word	1174544384
 525              		.cfi_endproc
 526              	.LFE341:
 528              		.section	.text.HAL_EXTI_ClearConfigLine,"ax",%progbits
 529              		.align	1
 530              		.global	HAL_EXTI_ClearConfigLine
 531              		.syntax unified
 532              		.thumb
 533              		.thumb_func
 535              	HAL_EXTI_ClearConfigLine:
 536              	.LVL73:
 537              	.LFB342:
 347:Drivers/STM32U5xx_HAL_Driver/Src/stm32u5xx_hal_exti.c **** 
 348:Drivers/STM32U5xx_HAL_Driver/Src/stm32u5xx_hal_exti.c **** 
 349:Drivers/STM32U5xx_HAL_Driver/Src/stm32u5xx_hal_exti.c **** /**
 350:Drivers/STM32U5xx_HAL_Driver/Src/stm32u5xx_hal_exti.c ****   * @brief  Clear whole configuration of a dedicated Exti line.
 351:Drivers/STM32U5xx_HAL_Driver/Src/stm32u5xx_hal_exti.c ****   * @param  hexti Exti handle.
 352:Drivers/STM32U5xx_HAL_Driver/Src/stm32u5xx_hal_exti.c ****   * @retval HAL Status.
 353:Drivers/STM32U5xx_HAL_Driver/Src/stm32u5xx_hal_exti.c ****   */
 354:Drivers/STM32U5xx_HAL_Driver/Src/stm32u5xx_hal_exti.c **** HAL_StatusTypeDef HAL_EXTI_ClearConfigLine(const EXTI_HandleTypeDef *hexti)
 355:Drivers/STM32U5xx_HAL_Driver/Src/stm32u5xx_hal_exti.c **** {
 538              		.loc 1 355 1 is_stmt 1 view -0
 539              		.cfi_startproc
 540              		@ args = 0, pretend = 0, frame = 0
 541              		@ frame_needed = 0, uses_anonymous_args = 0
 356:Drivers/STM32U5xx_HAL_Driver/Src/stm32u5xx_hal_exti.c ****   __IO uint32_t *regaddr;
 542              		.loc 1 356 3 view .LVU200
 357:Drivers/STM32U5xx_HAL_Driver/Src/stm32u5xx_hal_exti.c ****   uint32_t regval;
 543              		.loc 1 357 3 view .LVU201
 358:Drivers/STM32U5xx_HAL_Driver/Src/stm32u5xx_hal_exti.c ****   uint32_t linepos;
 544              		.loc 1 358 3 view .LVU202
 359:Drivers/STM32U5xx_HAL_Driver/Src/stm32u5xx_hal_exti.c ****   uint32_t maskline;
 545              		.loc 1 359 3 view .LVU203
 360:Drivers/STM32U5xx_HAL_Driver/Src/stm32u5xx_hal_exti.c ****   uint32_t offset;
 546              		.loc 1 360 3 view .LVU204
 361:Drivers/STM32U5xx_HAL_Driver/Src/stm32u5xx_hal_exti.c **** 
 362:Drivers/STM32U5xx_HAL_Driver/Src/stm32u5xx_hal_exti.c ****   /* Check null pointer */
 363:Drivers/STM32U5xx_HAL_Driver/Src/stm32u5xx_hal_exti.c ****   if (hexti == NULL)
 547              		.loc 1 363 3 view .LVU205
 548              		.loc 1 363 6 is_stmt 0 view .LVU206
 549 0000 0028     		cmp	r0, #0
 550 0002 41D0     		beq	.L41
 355:Drivers/STM32U5xx_HAL_Driver/Src/stm32u5xx_hal_exti.c ****   __IO uint32_t *regaddr;
 551              		.loc 1 355 1 view .LVU207
 552 0004 70B5     		push	{r4, r5, r6, lr}
 553              		.cfi_def_cfa_offset 16
 554              		.cfi_offset 4, -16
 555              		.cfi_offset 5, -12
 556              		.cfi_offset 6, -8
 557              		.cfi_offset 14, -4
 558 0006 8446     		mov	ip, r0
ARM GAS  C:\Users\Ya\AppData\Local\Temp\ccUtQRqv.s 			page 18


 364:Drivers/STM32U5xx_HAL_Driver/Src/stm32u5xx_hal_exti.c ****   {
 365:Drivers/STM32U5xx_HAL_Driver/Src/stm32u5xx_hal_exti.c ****     return HAL_ERROR;
 366:Drivers/STM32U5xx_HAL_Driver/Src/stm32u5xx_hal_exti.c ****   }
 367:Drivers/STM32U5xx_HAL_Driver/Src/stm32u5xx_hal_exti.c **** 
 368:Drivers/STM32U5xx_HAL_Driver/Src/stm32u5xx_hal_exti.c ****   /* Check the parameter */
 369:Drivers/STM32U5xx_HAL_Driver/Src/stm32u5xx_hal_exti.c ****   assert_param(IS_EXTI_LINE(hexti->Line));
 559              		.loc 1 369 3 is_stmt 1 view .LVU208
 370:Drivers/STM32U5xx_HAL_Driver/Src/stm32u5xx_hal_exti.c **** 
 371:Drivers/STM32U5xx_HAL_Driver/Src/stm32u5xx_hal_exti.c ****   /* compute line register offset and line mask */
 372:Drivers/STM32U5xx_HAL_Driver/Src/stm32u5xx_hal_exti.c ****   offset = ((hexti->Line & EXTI_REG_MASK) >> EXTI_REG_SHIFT);
 560              		.loc 1 372 3 view .LVU209
 561              		.loc 1 372 19 is_stmt 0 view .LVU210
 562 0008 0468     		ldr	r4, [r0]
 563              		.loc 1 372 10 view .LVU211
 564 000a C4F30041 		ubfx	r1, r4, #16, #1
 565              	.LVL74:
 373:Drivers/STM32U5xx_HAL_Driver/Src/stm32u5xx_hal_exti.c ****   linepos = (hexti->Line & EXTI_PIN_MASK);
 566              		.loc 1 373 3 is_stmt 1 view .LVU212
 567              		.loc 1 373 11 is_stmt 0 view .LVU213
 568 000e 04F01F0E 		and	lr, r4, #31
 569              	.LVL75:
 374:Drivers/STM32U5xx_HAL_Driver/Src/stm32u5xx_hal_exti.c ****   maskline = (1UL << linepos);
 570              		.loc 1 374 3 is_stmt 1 view .LVU214
 571              		.loc 1 374 12 is_stmt 0 view .LVU215
 572 0012 0123     		movs	r3, #1
 573 0014 03FA0EF3 		lsl	r3, r3, lr
 574              	.LVL76:
 375:Drivers/STM32U5xx_HAL_Driver/Src/stm32u5xx_hal_exti.c **** 
 376:Drivers/STM32U5xx_HAL_Driver/Src/stm32u5xx_hal_exti.c ****   /* 1] Clear interrupt mode */
 377:Drivers/STM32U5xx_HAL_Driver/Src/stm32u5xx_hal_exti.c ****   regaddr = (__IO uint32_t *)(&EXTI->IMR1 + (EXTI_MODE_OFFSET * offset));
 575              		.loc 1 377 3 is_stmt 1 view .LVU216
 576              		.loc 1 377 13 is_stmt 0 view .LVU217
 577 0018 0A01     		lsls	r2, r1, #4
 578              		.loc 1 377 11 view .LVU218
 579 001a 1D4D     		ldr	r5, .L49
 580              	.LVL77:
 378:Drivers/STM32U5xx_HAL_Driver/Src/stm32u5xx_hal_exti.c ****   regval = (*regaddr & ~maskline);
 581              		.loc 1 378 3 is_stmt 1 view .LVU219
 582              		.loc 1 378 13 is_stmt 0 view .LVU220
 583 001c 5059     		ldr	r0, [r2, r5]
 584              	.LVL78:
 585              		.loc 1 378 24 view .LVU221
 586 001e DE43     		mvns	r6, r3
 587              		.loc 1 378 10 view .LVU222
 588 0020 20EA0300 		bic	r0, r0, r3
 589              	.LVL79:
 379:Drivers/STM32U5xx_HAL_Driver/Src/stm32u5xx_hal_exti.c ****   *regaddr = regval;
 590              		.loc 1 379 3 is_stmt 1 view .LVU223
 591              		.loc 1 379 12 is_stmt 0 view .LVU224
 592 0024 5051     		str	r0, [r2, r5]
 380:Drivers/STM32U5xx_HAL_Driver/Src/stm32u5xx_hal_exti.c **** 
 381:Drivers/STM32U5xx_HAL_Driver/Src/stm32u5xx_hal_exti.c ****   /* 2] Clear event mode */
 382:Drivers/STM32U5xx_HAL_Driver/Src/stm32u5xx_hal_exti.c ****   regaddr = (__IO uint32_t *)(&EXTI->EMR1 + (EXTI_MODE_OFFSET * offset));
 593              		.loc 1 382 3 is_stmt 1 view .LVU225
 594              		.loc 1 382 11 is_stmt 0 view .LVU226
 595 0026 0435     		adds	r5, r5, #4
 596              	.LVL80:
ARM GAS  C:\Users\Ya\AppData\Local\Temp\ccUtQRqv.s 			page 19


 383:Drivers/STM32U5xx_HAL_Driver/Src/stm32u5xx_hal_exti.c ****   regval = (*regaddr & ~maskline);
 597              		.loc 1 383 3 is_stmt 1 view .LVU227
 598              		.loc 1 383 13 is_stmt 0 view .LVU228
 599 0028 5059     		ldr	r0, [r2, r5]
 600              	.LVL81:
 601              		.loc 1 383 10 view .LVU229
 602 002a 20EA0303 		bic	r3, r0, r3
 603              	.LVL82:
 384:Drivers/STM32U5xx_HAL_Driver/Src/stm32u5xx_hal_exti.c ****   *regaddr = regval;
 604              		.loc 1 384 3 is_stmt 1 view .LVU230
 605              		.loc 1 384 12 is_stmt 0 view .LVU231
 606 002e 5351     		str	r3, [r2, r5]
 385:Drivers/STM32U5xx_HAL_Driver/Src/stm32u5xx_hal_exti.c **** 
 386:Drivers/STM32U5xx_HAL_Driver/Src/stm32u5xx_hal_exti.c ****   /* 3] Clear triggers in case of configurable lines */
 387:Drivers/STM32U5xx_HAL_Driver/Src/stm32u5xx_hal_exti.c ****   if ((hexti->Line & EXTI_CONFIG) != 0U)
 607              		.loc 1 387 3 is_stmt 1 view .LVU232
 608              		.loc 1 387 13 is_stmt 0 view .LVU233
 609 0030 DCF80030 		ldr	r3, [ip]
 610              	.LVL83:
 611              		.loc 1 387 6 view .LVU234
 612 0034 13F0007F 		tst	r3, #33554432
 613 0038 28D0     		beq	.L42
 388:Drivers/STM32U5xx_HAL_Driver/Src/stm32u5xx_hal_exti.c ****   {
 389:Drivers/STM32U5xx_HAL_Driver/Src/stm32u5xx_hal_exti.c ****     regaddr = (__IO uint32_t *)(&EXTI->RTSR1 + (EXTI_CONFIG_OFFSET * offset));
 614              		.loc 1 389 5 is_stmt 1 view .LVU235
 615              		.loc 1 389 15 is_stmt 0 view .LVU236
 616 003a 4901     		lsls	r1, r1, #5
 617              	.LVL84:
 618              		.loc 1 389 13 view .LVU237
 619 003c 01F18C43 		add	r3, r1, #1174405120
 620 0040 03F50833 		add	r3, r3, #139264
 621              	.LVL85:
 390:Drivers/STM32U5xx_HAL_Driver/Src/stm32u5xx_hal_exti.c ****     regval = (*regaddr & ~maskline);
 622              		.loc 1 390 5 is_stmt 1 view .LVU238
 623              		.loc 1 390 15 is_stmt 0 view .LVU239
 624 0044 1A68     		ldr	r2, [r3]
 625              	.LVL86:
 626              		.loc 1 390 12 view .LVU240
 627 0046 3240     		ands	r2, r2, r6
 628              	.LVL87:
 391:Drivers/STM32U5xx_HAL_Driver/Src/stm32u5xx_hal_exti.c ****     *regaddr = regval;
 629              		.loc 1 391 5 is_stmt 1 view .LVU241
 630              		.loc 1 391 14 is_stmt 0 view .LVU242
 631 0048 1A60     		str	r2, [r3]
 392:Drivers/STM32U5xx_HAL_Driver/Src/stm32u5xx_hal_exti.c **** 
 393:Drivers/STM32U5xx_HAL_Driver/Src/stm32u5xx_hal_exti.c ****     regaddr = (__IO uint32_t *)(&EXTI->FTSR1 + (EXTI_CONFIG_OFFSET * offset));
 632              		.loc 1 393 5 is_stmt 1 view .LVU243
 633              		.loc 1 393 13 is_stmt 0 view .LVU244
 634 004a 124B     		ldr	r3, .L49+4
 635              	.LVL88:
 394:Drivers/STM32U5xx_HAL_Driver/Src/stm32u5xx_hal_exti.c ****     regval = (*regaddr & ~maskline);
 636              		.loc 1 394 5 is_stmt 1 view .LVU245
 637              		.loc 1 394 15 is_stmt 0 view .LVU246
 638 004c CA58     		ldr	r2, [r1, r3]
 639              	.LVL89:
 640              		.loc 1 394 12 view .LVU247
 641 004e 1640     		ands	r6, r6, r2
ARM GAS  C:\Users\Ya\AppData\Local\Temp\ccUtQRqv.s 			page 20


 642              	.LVL90:
 395:Drivers/STM32U5xx_HAL_Driver/Src/stm32u5xx_hal_exti.c ****     *regaddr = regval;
 643              		.loc 1 395 5 is_stmt 1 view .LVU248
 644              		.loc 1 395 14 is_stmt 0 view .LVU249
 645 0050 CE50     		str	r6, [r1, r3]
 396:Drivers/STM32U5xx_HAL_Driver/Src/stm32u5xx_hal_exti.c **** 
 397:Drivers/STM32U5xx_HAL_Driver/Src/stm32u5xx_hal_exti.c ****     /* Get Gpio port selection for gpio lines */
 398:Drivers/STM32U5xx_HAL_Driver/Src/stm32u5xx_hal_exti.c ****     if ((hexti->Line & EXTI_GPIO) == EXTI_GPIO)
 646              		.loc 1 398 5 is_stmt 1 view .LVU250
 647              		.loc 1 398 15 is_stmt 0 view .LVU251
 648 0052 DCF80030 		ldr	r3, [ip]
 649              	.LVL91:
 650              		.loc 1 398 22 view .LVU252
 651 0056 03F0C063 		and	r3, r3, #100663296
 652              		.loc 1 398 8 view .LVU253
 653 005a B3F1C06F 		cmp	r3, #100663296
 654 005e 01D0     		beq	.L48
 399:Drivers/STM32U5xx_HAL_Driver/Src/stm32u5xx_hal_exti.c ****     {
 400:Drivers/STM32U5xx_HAL_Driver/Src/stm32u5xx_hal_exti.c ****       assert_param(IS_EXTI_GPIO_PIN(linepos));
 401:Drivers/STM32U5xx_HAL_Driver/Src/stm32u5xx_hal_exti.c **** 
 402:Drivers/STM32U5xx_HAL_Driver/Src/stm32u5xx_hal_exti.c ****       regval = EXTI->EXTICR[(linepos >> 2U) & 0x03UL];
 403:Drivers/STM32U5xx_HAL_Driver/Src/stm32u5xx_hal_exti.c ****       regval &= ~(EXTI_EXTICR1_EXTI0 << (EXTI_EXTICR1_EXTI1_Pos * (linepos & 0x03U)));
 404:Drivers/STM32U5xx_HAL_Driver/Src/stm32u5xx_hal_exti.c ****       EXTI->EXTICR[(linepos >> 2U) & 0x03UL] = regval;
 405:Drivers/STM32U5xx_HAL_Driver/Src/stm32u5xx_hal_exti.c ****     }
 406:Drivers/STM32U5xx_HAL_Driver/Src/stm32u5xx_hal_exti.c ****   }
 407:Drivers/STM32U5xx_HAL_Driver/Src/stm32u5xx_hal_exti.c **** 
 408:Drivers/STM32U5xx_HAL_Driver/Src/stm32u5xx_hal_exti.c ****   return HAL_OK;
 655              		.loc 1 408 10 view .LVU254
 656 0060 0020     		movs	r0, #0
 657 0062 14E0     		b	.L40
 658              	.L48:
 400:Drivers/STM32U5xx_HAL_Driver/Src/stm32u5xx_hal_exti.c **** 
 659              		.loc 1 400 7 is_stmt 1 view .LVU255
 402:Drivers/STM32U5xx_HAL_Driver/Src/stm32u5xx_hal_exti.c ****       regval &= ~(EXTI_EXTICR1_EXTI0 << (EXTI_EXTICR1_EXTI1_Pos * (linepos & 0x03U)));
 660              		.loc 1 402 7 view .LVU256
 402:Drivers/STM32U5xx_HAL_Driver/Src/stm32u5xx_hal_exti.c ****       regval &= ~(EXTI_EXTICR1_EXTI0 << (EXTI_EXTICR1_EXTI1_Pos * (linepos & 0x03U)));
 661              		.loc 1 402 45 is_stmt 0 view .LVU257
 662 0064 CEF3810E 		ubfx	lr, lr, #2, #2
 663              	.LVL92:
 402:Drivers/STM32U5xx_HAL_Driver/Src/stm32u5xx_hal_exti.c ****       regval &= ~(EXTI_EXTICR1_EXTI0 << (EXTI_EXTICR1_EXTI1_Pos * (linepos & 0x03U)));
 664              		.loc 1 402 14 view .LVU258
 665 0068 0B49     		ldr	r1, .L49+8
 666              	.LVL93:
 402:Drivers/STM32U5xx_HAL_Driver/Src/stm32u5xx_hal_exti.c ****       regval &= ~(EXTI_EXTICR1_EXTI0 << (EXTI_EXTICR1_EXTI1_Pos * (linepos & 0x03U)));
 667              		.loc 1 402 14 view .LVU259
 668 006a 0EF1180E 		add	lr, lr, #24
 669 006e 51F82E30 		ldr	r3, [r1, lr, lsl #2]
 670              	.LVL94:
 403:Drivers/STM32U5xx_HAL_Driver/Src/stm32u5xx_hal_exti.c ****       EXTI->EXTICR[(linepos >> 2U) & 0x03UL] = regval;
 671              		.loc 1 403 7 is_stmt 1 view .LVU260
 403:Drivers/STM32U5xx_HAL_Driver/Src/stm32u5xx_hal_exti.c ****       EXTI->EXTICR[(linepos >> 2U) & 0x03UL] = regval;
 672              		.loc 1 403 76 is_stmt 0 view .LVU261
 673 0072 04F00304 		and	r4, r4, #3
 674              	.LVL95:
 403:Drivers/STM32U5xx_HAL_Driver/Src/stm32u5xx_hal_exti.c ****       EXTI->EXTICR[(linepos >> 2U) & 0x03UL] = regval;
 675              		.loc 1 403 65 view .LVU262
 676 0076 E400     		lsls	r4, r4, #3
ARM GAS  C:\Users\Ya\AppData\Local\Temp\ccUtQRqv.s 			page 21


 403:Drivers/STM32U5xx_HAL_Driver/Src/stm32u5xx_hal_exti.c ****       EXTI->EXTICR[(linepos >> 2U) & 0x03UL] = regval;
 677              		.loc 1 403 38 view .LVU263
 678 0078 0F22     		movs	r2, #15
 679 007a A240     		lsls	r2, r2, r4
 403:Drivers/STM32U5xx_HAL_Driver/Src/stm32u5xx_hal_exti.c ****       EXTI->EXTICR[(linepos >> 2U) & 0x03UL] = regval;
 680              		.loc 1 403 14 view .LVU264
 681 007c 23EA0203 		bic	r3, r3, r2
 682              	.LVL96:
 404:Drivers/STM32U5xx_HAL_Driver/Src/stm32u5xx_hal_exti.c ****     }
 683              		.loc 1 404 7 is_stmt 1 view .LVU265
 404:Drivers/STM32U5xx_HAL_Driver/Src/stm32u5xx_hal_exti.c ****     }
 684              		.loc 1 404 46 is_stmt 0 view .LVU266
 685 0080 41F82E30 		str	r3, [r1, lr, lsl #2]
 686              		.loc 1 408 10 view .LVU267
 687 0084 0020     		movs	r0, #0
 688 0086 02E0     		b	.L40
 689              	.LVL97:
 690              	.L41:
 691              		.cfi_def_cfa_offset 0
 692              		.cfi_restore 4
 693              		.cfi_restore 5
 694              		.cfi_restore 6
 695              		.cfi_restore 14
 365:Drivers/STM32U5xx_HAL_Driver/Src/stm32u5xx_hal_exti.c ****   }
 696              		.loc 1 365 12 view .LVU268
 697 0088 0120     		movs	r0, #1
 698              	.LVL98:
 409:Drivers/STM32U5xx_HAL_Driver/Src/stm32u5xx_hal_exti.c **** }
 699              		.loc 1 409 1 view .LVU269
 700 008a 7047     		bx	lr
 701              	.LVL99:
 702              	.L42:
 703              		.cfi_def_cfa_offset 16
 704              		.cfi_offset 4, -16
 705              		.cfi_offset 5, -12
 706              		.cfi_offset 6, -8
 707              		.cfi_offset 14, -4
 408:Drivers/STM32U5xx_HAL_Driver/Src/stm32u5xx_hal_exti.c **** }
 708              		.loc 1 408 10 view .LVU270
 709 008c 0020     		movs	r0, #0
 710              	.LVL100:
 711              	.L40:
 712              		.loc 1 409 1 view .LVU271
 713 008e 70BD     		pop	{r4, r5, r6, pc}
 714              	.L50:
 715              		.align	2
 716              	.L49:
 717 0090 80200246 		.word	1174544512
 718 0094 04200246 		.word	1174544388
 719 0098 00200246 		.word	1174544384
 720              		.cfi_endproc
 721              	.LFE342:
 723              		.section	.text.HAL_EXTI_RegisterCallback,"ax",%progbits
 724              		.align	1
 725              		.global	HAL_EXTI_RegisterCallback
 726              		.syntax unified
 727              		.thumb
ARM GAS  C:\Users\Ya\AppData\Local\Temp\ccUtQRqv.s 			page 22


 728              		.thumb_func
 730              	HAL_EXTI_RegisterCallback:
 731              	.LVL101:
 732              	.LFB343:
 410:Drivers/STM32U5xx_HAL_Driver/Src/stm32u5xx_hal_exti.c **** 
 411:Drivers/STM32U5xx_HAL_Driver/Src/stm32u5xx_hal_exti.c **** 
 412:Drivers/STM32U5xx_HAL_Driver/Src/stm32u5xx_hal_exti.c **** /**
 413:Drivers/STM32U5xx_HAL_Driver/Src/stm32u5xx_hal_exti.c ****   * @brief  Register callback for a dedicaated Exti line.
 414:Drivers/STM32U5xx_HAL_Driver/Src/stm32u5xx_hal_exti.c ****   * @param  hexti Exti handle.
 415:Drivers/STM32U5xx_HAL_Driver/Src/stm32u5xx_hal_exti.c ****   * @param  CallbackID User callback identifier.
 416:Drivers/STM32U5xx_HAL_Driver/Src/stm32u5xx_hal_exti.c ****   *         This parameter can be one of @arg @ref EXTI_CallbackIDTypeDef values.
 417:Drivers/STM32U5xx_HAL_Driver/Src/stm32u5xx_hal_exti.c ****   * @param  pPendingCbfn function pointer to be stored as callback.
 418:Drivers/STM32U5xx_HAL_Driver/Src/stm32u5xx_hal_exti.c ****   * @retval HAL Status.
 419:Drivers/STM32U5xx_HAL_Driver/Src/stm32u5xx_hal_exti.c ****   */
 420:Drivers/STM32U5xx_HAL_Driver/Src/stm32u5xx_hal_exti.c **** HAL_StatusTypeDef HAL_EXTI_RegisterCallback(EXTI_HandleTypeDef *hexti, EXTI_CallbackIDTypeDef Callb
 421:Drivers/STM32U5xx_HAL_Driver/Src/stm32u5xx_hal_exti.c ****                                             void (*pPendingCbfn)(void))
 422:Drivers/STM32U5xx_HAL_Driver/Src/stm32u5xx_hal_exti.c **** {
 733              		.loc 1 422 1 is_stmt 1 view -0
 734              		.cfi_startproc
 735              		@ args = 0, pretend = 0, frame = 0
 736              		@ frame_needed = 0, uses_anonymous_args = 0
 737              		@ link register save eliminated.
 423:Drivers/STM32U5xx_HAL_Driver/Src/stm32u5xx_hal_exti.c ****   HAL_StatusTypeDef status = HAL_OK;
 738              		.loc 1 423 3 view .LVU273
 424:Drivers/STM32U5xx_HAL_Driver/Src/stm32u5xx_hal_exti.c **** 
 425:Drivers/STM32U5xx_HAL_Driver/Src/stm32u5xx_hal_exti.c ****   switch (CallbackID)
 739              		.loc 1 425 3 view .LVU274
 740 0000 0129     		cmp	r1, #1
 741 0002 08D0     		beq	.L52
 742 0004 0229     		cmp	r1, #2
 743 0006 09D0     		beq	.L53
 744 0008 09B1     		cbz	r1, .L56
 745 000a 0120     		movs	r0, #1
 746              	.LVL102:
 426:Drivers/STM32U5xx_HAL_Driver/Src/stm32u5xx_hal_exti.c ****   {
 427:Drivers/STM32U5xx_HAL_Driver/Src/stm32u5xx_hal_exti.c ****     case  HAL_EXTI_COMMON_CB_ID:
 428:Drivers/STM32U5xx_HAL_Driver/Src/stm32u5xx_hal_exti.c ****       hexti->RisingCallback = pPendingCbfn;
 429:Drivers/STM32U5xx_HAL_Driver/Src/stm32u5xx_hal_exti.c ****       hexti->FallingCallback = pPendingCbfn;
 430:Drivers/STM32U5xx_HAL_Driver/Src/stm32u5xx_hal_exti.c ****       break;
 431:Drivers/STM32U5xx_HAL_Driver/Src/stm32u5xx_hal_exti.c **** 
 432:Drivers/STM32U5xx_HAL_Driver/Src/stm32u5xx_hal_exti.c ****     case  HAL_EXTI_RISING_CB_ID:
 433:Drivers/STM32U5xx_HAL_Driver/Src/stm32u5xx_hal_exti.c ****       hexti->RisingCallback = pPendingCbfn;
 434:Drivers/STM32U5xx_HAL_Driver/Src/stm32u5xx_hal_exti.c ****       break;
 435:Drivers/STM32U5xx_HAL_Driver/Src/stm32u5xx_hal_exti.c **** 
 436:Drivers/STM32U5xx_HAL_Driver/Src/stm32u5xx_hal_exti.c ****     case  HAL_EXTI_FALLING_CB_ID:
 437:Drivers/STM32U5xx_HAL_Driver/Src/stm32u5xx_hal_exti.c ****       hexti->FallingCallback = pPendingCbfn;
 438:Drivers/STM32U5xx_HAL_Driver/Src/stm32u5xx_hal_exti.c ****       break;
 439:Drivers/STM32U5xx_HAL_Driver/Src/stm32u5xx_hal_exti.c **** 
 440:Drivers/STM32U5xx_HAL_Driver/Src/stm32u5xx_hal_exti.c ****     default:
 441:Drivers/STM32U5xx_HAL_Driver/Src/stm32u5xx_hal_exti.c ****       status = HAL_ERROR;
 442:Drivers/STM32U5xx_HAL_Driver/Src/stm32u5xx_hal_exti.c ****       break;
 443:Drivers/STM32U5xx_HAL_Driver/Src/stm32u5xx_hal_exti.c ****   }
 444:Drivers/STM32U5xx_HAL_Driver/Src/stm32u5xx_hal_exti.c **** 
 445:Drivers/STM32U5xx_HAL_Driver/Src/stm32u5xx_hal_exti.c ****   return status;
 747              		.loc 1 445 3 view .LVU275
 446:Drivers/STM32U5xx_HAL_Driver/Src/stm32u5xx_hal_exti.c **** }
 748              		.loc 1 446 1 is_stmt 0 view .LVU276
ARM GAS  C:\Users\Ya\AppData\Local\Temp\ccUtQRqv.s 			page 23


 749 000c 7047     		bx	lr
 750              	.LVL103:
 751              	.L56:
 428:Drivers/STM32U5xx_HAL_Driver/Src/stm32u5xx_hal_exti.c ****       hexti->FallingCallback = pPendingCbfn;
 752              		.loc 1 428 7 is_stmt 1 view .LVU277
 428:Drivers/STM32U5xx_HAL_Driver/Src/stm32u5xx_hal_exti.c ****       hexti->FallingCallback = pPendingCbfn;
 753              		.loc 1 428 29 is_stmt 0 view .LVU278
 754 000e 4260     		str	r2, [r0, #4]
 429:Drivers/STM32U5xx_HAL_Driver/Src/stm32u5xx_hal_exti.c ****       break;
 755              		.loc 1 429 7 is_stmt 1 view .LVU279
 429:Drivers/STM32U5xx_HAL_Driver/Src/stm32u5xx_hal_exti.c ****       break;
 756              		.loc 1 429 30 is_stmt 0 view .LVU280
 757 0010 8260     		str	r2, [r0, #8]
 430:Drivers/STM32U5xx_HAL_Driver/Src/stm32u5xx_hal_exti.c **** 
 758              		.loc 1 430 7 is_stmt 1 view .LVU281
 423:Drivers/STM32U5xx_HAL_Driver/Src/stm32u5xx_hal_exti.c **** 
 759              		.loc 1 423 21 is_stmt 0 view .LVU282
 760 0012 0846     		mov	r0, r1
 761              	.LVL104:
 430:Drivers/STM32U5xx_HAL_Driver/Src/stm32u5xx_hal_exti.c **** 
 762              		.loc 1 430 7 view .LVU283
 763 0014 7047     		bx	lr
 764              	.LVL105:
 765              	.L52:
 433:Drivers/STM32U5xx_HAL_Driver/Src/stm32u5xx_hal_exti.c ****       break;
 766              		.loc 1 433 7 is_stmt 1 view .LVU284
 433:Drivers/STM32U5xx_HAL_Driver/Src/stm32u5xx_hal_exti.c ****       break;
 767              		.loc 1 433 29 is_stmt 0 view .LVU285
 768 0016 4260     		str	r2, [r0, #4]
 434:Drivers/STM32U5xx_HAL_Driver/Src/stm32u5xx_hal_exti.c **** 
 769              		.loc 1 434 7 is_stmt 1 view .LVU286
 423:Drivers/STM32U5xx_HAL_Driver/Src/stm32u5xx_hal_exti.c **** 
 770              		.loc 1 423 21 is_stmt 0 view .LVU287
 771 0018 0020     		movs	r0, #0
 772              	.LVL106:
 434:Drivers/STM32U5xx_HAL_Driver/Src/stm32u5xx_hal_exti.c **** 
 773              		.loc 1 434 7 view .LVU288
 774 001a 7047     		bx	lr
 775              	.LVL107:
 776              	.L53:
 437:Drivers/STM32U5xx_HAL_Driver/Src/stm32u5xx_hal_exti.c ****       break;
 777              		.loc 1 437 7 is_stmt 1 view .LVU289
 437:Drivers/STM32U5xx_HAL_Driver/Src/stm32u5xx_hal_exti.c ****       break;
 778              		.loc 1 437 30 is_stmt 0 view .LVU290
 779 001c 8260     		str	r2, [r0, #8]
 438:Drivers/STM32U5xx_HAL_Driver/Src/stm32u5xx_hal_exti.c **** 
 780              		.loc 1 438 7 is_stmt 1 view .LVU291
 423:Drivers/STM32U5xx_HAL_Driver/Src/stm32u5xx_hal_exti.c **** 
 781              		.loc 1 423 21 is_stmt 0 view .LVU292
 782 001e 0020     		movs	r0, #0
 783              	.LVL108:
 438:Drivers/STM32U5xx_HAL_Driver/Src/stm32u5xx_hal_exti.c **** 
 784              		.loc 1 438 7 view .LVU293
 785 0020 7047     		bx	lr
 786              		.cfi_endproc
 787              	.LFE343:
 789              		.section	.text.HAL_EXTI_GetHandle,"ax",%progbits
ARM GAS  C:\Users\Ya\AppData\Local\Temp\ccUtQRqv.s 			page 24


 790              		.align	1
 791              		.global	HAL_EXTI_GetHandle
 792              		.syntax unified
 793              		.thumb
 794              		.thumb_func
 796              	HAL_EXTI_GetHandle:
 797              	.LVL109:
 798              	.LFB344:
 447:Drivers/STM32U5xx_HAL_Driver/Src/stm32u5xx_hal_exti.c **** 
 448:Drivers/STM32U5xx_HAL_Driver/Src/stm32u5xx_hal_exti.c **** 
 449:Drivers/STM32U5xx_HAL_Driver/Src/stm32u5xx_hal_exti.c **** /**
 450:Drivers/STM32U5xx_HAL_Driver/Src/stm32u5xx_hal_exti.c ****   * @brief  Store line number as handle private field.
 451:Drivers/STM32U5xx_HAL_Driver/Src/stm32u5xx_hal_exti.c ****   * @param  hexti Exti handle.
 452:Drivers/STM32U5xx_HAL_Driver/Src/stm32u5xx_hal_exti.c ****   * @param  ExtiLine Exti line number.
 453:Drivers/STM32U5xx_HAL_Driver/Src/stm32u5xx_hal_exti.c ****   *         This parameter can be from 0 to @ref EXTI_LINE_NB.
 454:Drivers/STM32U5xx_HAL_Driver/Src/stm32u5xx_hal_exti.c ****   * @retval HAL Status.
 455:Drivers/STM32U5xx_HAL_Driver/Src/stm32u5xx_hal_exti.c ****   */
 456:Drivers/STM32U5xx_HAL_Driver/Src/stm32u5xx_hal_exti.c **** HAL_StatusTypeDef HAL_EXTI_GetHandle(EXTI_HandleTypeDef *hexti, uint32_t ExtiLine)
 457:Drivers/STM32U5xx_HAL_Driver/Src/stm32u5xx_hal_exti.c **** {
 799              		.loc 1 457 1 is_stmt 1 view -0
 800              		.cfi_startproc
 801              		@ args = 0, pretend = 0, frame = 0
 802              		@ frame_needed = 0, uses_anonymous_args = 0
 803              		@ link register save eliminated.
 458:Drivers/STM32U5xx_HAL_Driver/Src/stm32u5xx_hal_exti.c ****   /* Check the parameters */
 459:Drivers/STM32U5xx_HAL_Driver/Src/stm32u5xx_hal_exti.c ****   assert_param(IS_EXTI_LINE(ExtiLine));
 804              		.loc 1 459 3 view .LVU295
 460:Drivers/STM32U5xx_HAL_Driver/Src/stm32u5xx_hal_exti.c **** 
 461:Drivers/STM32U5xx_HAL_Driver/Src/stm32u5xx_hal_exti.c ****   /* Check null pointer */
 462:Drivers/STM32U5xx_HAL_Driver/Src/stm32u5xx_hal_exti.c ****   if (hexti == NULL)
 805              		.loc 1 462 3 view .LVU296
 806              		.loc 1 462 6 is_stmt 0 view .LVU297
 807 0000 10B1     		cbz	r0, .L59
 463:Drivers/STM32U5xx_HAL_Driver/Src/stm32u5xx_hal_exti.c ****   {
 464:Drivers/STM32U5xx_HAL_Driver/Src/stm32u5xx_hal_exti.c ****     return HAL_ERROR;
 465:Drivers/STM32U5xx_HAL_Driver/Src/stm32u5xx_hal_exti.c ****   }
 466:Drivers/STM32U5xx_HAL_Driver/Src/stm32u5xx_hal_exti.c ****   else
 467:Drivers/STM32U5xx_HAL_Driver/Src/stm32u5xx_hal_exti.c ****   {
 468:Drivers/STM32U5xx_HAL_Driver/Src/stm32u5xx_hal_exti.c ****     /* Store line number as handle private field */
 469:Drivers/STM32U5xx_HAL_Driver/Src/stm32u5xx_hal_exti.c ****     hexti->Line = ExtiLine;
 808              		.loc 1 469 5 is_stmt 1 view .LVU298
 809              		.loc 1 469 17 is_stmt 0 view .LVU299
 810 0002 0160     		str	r1, [r0]
 470:Drivers/STM32U5xx_HAL_Driver/Src/stm32u5xx_hal_exti.c **** 
 471:Drivers/STM32U5xx_HAL_Driver/Src/stm32u5xx_hal_exti.c ****     return HAL_OK;
 811              		.loc 1 471 5 is_stmt 1 view .LVU300
 812              		.loc 1 471 12 is_stmt 0 view .LVU301
 813 0004 0020     		movs	r0, #0
 814              	.LVL110:
 815              		.loc 1 471 12 view .LVU302
 816 0006 7047     		bx	lr
 817              	.LVL111:
 818              	.L59:
 464:Drivers/STM32U5xx_HAL_Driver/Src/stm32u5xx_hal_exti.c ****   }
 819              		.loc 1 464 12 view .LVU303
 820 0008 0120     		movs	r0, #1
 821              	.LVL112:
ARM GAS  C:\Users\Ya\AppData\Local\Temp\ccUtQRqv.s 			page 25


 472:Drivers/STM32U5xx_HAL_Driver/Src/stm32u5xx_hal_exti.c ****   }
 473:Drivers/STM32U5xx_HAL_Driver/Src/stm32u5xx_hal_exti.c **** }
 822              		.loc 1 473 1 view .LVU304
 823 000a 7047     		bx	lr
 824              		.cfi_endproc
 825              	.LFE344:
 827              		.section	.text.HAL_EXTI_IRQHandler,"ax",%progbits
 828              		.align	1
 829              		.global	HAL_EXTI_IRQHandler
 830              		.syntax unified
 831              		.thumb
 832              		.thumb_func
 834              	HAL_EXTI_IRQHandler:
 835              	.LVL113:
 836              	.LFB345:
 474:Drivers/STM32U5xx_HAL_Driver/Src/stm32u5xx_hal_exti.c **** 
 475:Drivers/STM32U5xx_HAL_Driver/Src/stm32u5xx_hal_exti.c **** 
 476:Drivers/STM32U5xx_HAL_Driver/Src/stm32u5xx_hal_exti.c **** /**
 477:Drivers/STM32U5xx_HAL_Driver/Src/stm32u5xx_hal_exti.c ****   * @}
 478:Drivers/STM32U5xx_HAL_Driver/Src/stm32u5xx_hal_exti.c ****   */
 479:Drivers/STM32U5xx_HAL_Driver/Src/stm32u5xx_hal_exti.c **** 
 480:Drivers/STM32U5xx_HAL_Driver/Src/stm32u5xx_hal_exti.c **** /** @addtogroup EXTI_Exported_Functions_Group2
 481:Drivers/STM32U5xx_HAL_Driver/Src/stm32u5xx_hal_exti.c ****   *  @brief EXTI IO functions.
 482:Drivers/STM32U5xx_HAL_Driver/Src/stm32u5xx_hal_exti.c ****   *
 483:Drivers/STM32U5xx_HAL_Driver/Src/stm32u5xx_hal_exti.c **** @verbatim
 484:Drivers/STM32U5xx_HAL_Driver/Src/stm32u5xx_hal_exti.c ****  ===============================================================================
 485:Drivers/STM32U5xx_HAL_Driver/Src/stm32u5xx_hal_exti.c ****                        ##### IO operation functions #####
 486:Drivers/STM32U5xx_HAL_Driver/Src/stm32u5xx_hal_exti.c ****  ===============================================================================
 487:Drivers/STM32U5xx_HAL_Driver/Src/stm32u5xx_hal_exti.c **** 
 488:Drivers/STM32U5xx_HAL_Driver/Src/stm32u5xx_hal_exti.c **** @endverbatim
 489:Drivers/STM32U5xx_HAL_Driver/Src/stm32u5xx_hal_exti.c ****   * @{
 490:Drivers/STM32U5xx_HAL_Driver/Src/stm32u5xx_hal_exti.c ****   */
 491:Drivers/STM32U5xx_HAL_Driver/Src/stm32u5xx_hal_exti.c **** 
 492:Drivers/STM32U5xx_HAL_Driver/Src/stm32u5xx_hal_exti.c **** /**
 493:Drivers/STM32U5xx_HAL_Driver/Src/stm32u5xx_hal_exti.c ****   * @brief  Handle EXTI interrupt request.
 494:Drivers/STM32U5xx_HAL_Driver/Src/stm32u5xx_hal_exti.c ****   * @param  hexti Exti handle.
 495:Drivers/STM32U5xx_HAL_Driver/Src/stm32u5xx_hal_exti.c ****   * @retval none.
 496:Drivers/STM32U5xx_HAL_Driver/Src/stm32u5xx_hal_exti.c ****   */
 497:Drivers/STM32U5xx_HAL_Driver/Src/stm32u5xx_hal_exti.c **** void HAL_EXTI_IRQHandler(const EXTI_HandleTypeDef *hexti)
 498:Drivers/STM32U5xx_HAL_Driver/Src/stm32u5xx_hal_exti.c **** {
 837              		.loc 1 498 1 is_stmt 1 view -0
 838              		.cfi_startproc
 839              		@ args = 0, pretend = 0, frame = 0
 840              		@ frame_needed = 0, uses_anonymous_args = 0
 841              		.loc 1 498 1 is_stmt 0 view .LVU306
 842 0000 70B5     		push	{r4, r5, r6, lr}
 843              		.cfi_def_cfa_offset 16
 844              		.cfi_offset 4, -16
 845              		.cfi_offset 5, -12
 846              		.cfi_offset 6, -8
 847              		.cfi_offset 14, -4
 848 0002 0646     		mov	r6, r0
 499:Drivers/STM32U5xx_HAL_Driver/Src/stm32u5xx_hal_exti.c ****   __IO uint32_t *regaddr;
 849              		.loc 1 499 3 is_stmt 1 view .LVU307
 500:Drivers/STM32U5xx_HAL_Driver/Src/stm32u5xx_hal_exti.c ****   uint32_t regval;
 850              		.loc 1 500 3 view .LVU308
 501:Drivers/STM32U5xx_HAL_Driver/Src/stm32u5xx_hal_exti.c ****   uint32_t maskline;
ARM GAS  C:\Users\Ya\AppData\Local\Temp\ccUtQRqv.s 			page 26


 851              		.loc 1 501 3 view .LVU309
 502:Drivers/STM32U5xx_HAL_Driver/Src/stm32u5xx_hal_exti.c ****   uint32_t offset;
 852              		.loc 1 502 3 view .LVU310
 503:Drivers/STM32U5xx_HAL_Driver/Src/stm32u5xx_hal_exti.c **** 
 504:Drivers/STM32U5xx_HAL_Driver/Src/stm32u5xx_hal_exti.c ****   /* Compute line register offset and line mask */
 505:Drivers/STM32U5xx_HAL_Driver/Src/stm32u5xx_hal_exti.c ****   offset = ((hexti->Line & EXTI_REG_MASK) >> EXTI_REG_SHIFT);
 853              		.loc 1 505 3 view .LVU311
 854              		.loc 1 505 19 is_stmt 0 view .LVU312
 855 0004 0368     		ldr	r3, [r0]
 856              		.loc 1 505 10 view .LVU313
 857 0006 C3F30044 		ubfx	r4, r3, #16, #1
 858              	.LVL114:
 506:Drivers/STM32U5xx_HAL_Driver/Src/stm32u5xx_hal_exti.c ****   maskline = (1UL << (hexti->Line & EXTI_PIN_MASK));
 859              		.loc 1 506 3 is_stmt 1 view .LVU314
 860              		.loc 1 506 35 is_stmt 0 view .LVU315
 861 000a 03F01F03 		and	r3, r3, #31
 862              		.loc 1 506 12 view .LVU316
 863 000e 0125     		movs	r5, #1
 864 0010 9D40     		lsls	r5, r5, r3
 865              	.LVL115:
 507:Drivers/STM32U5xx_HAL_Driver/Src/stm32u5xx_hal_exti.c **** 
 508:Drivers/STM32U5xx_HAL_Driver/Src/stm32u5xx_hal_exti.c ****   /* Get rising edge pending bit  */
 509:Drivers/STM32U5xx_HAL_Driver/Src/stm32u5xx_hal_exti.c ****   regaddr = (__IO uint32_t *)(&EXTI->RPR1 + (EXTI_CONFIG_OFFSET * offset));
 866              		.loc 1 509 3 is_stmt 1 view .LVU317
 867              		.loc 1 509 13 is_stmt 0 view .LVU318
 868 0012 6401     		lsls	r4, r4, #5
 869              	.LVL116:
 870              		.loc 1 509 11 view .LVU319
 871 0014 084B     		ldr	r3, .L64
 872              	.LVL117:
 510:Drivers/STM32U5xx_HAL_Driver/Src/stm32u5xx_hal_exti.c ****   regval = (*regaddr & maskline);
 873              		.loc 1 510 3 is_stmt 1 view .LVU320
 874              		.loc 1 510 13 is_stmt 0 view .LVU321
 875 0016 E258     		ldr	r2, [r4, r3]
 876              	.LVL118:
 511:Drivers/STM32U5xx_HAL_Driver/Src/stm32u5xx_hal_exti.c **** 
 512:Drivers/STM32U5xx_HAL_Driver/Src/stm32u5xx_hal_exti.c ****   if (regval != 0U)
 877              		.loc 1 512 3 is_stmt 1 view .LVU322
 878              		.loc 1 512 6 is_stmt 0 view .LVU323
 879 0018 2A42     		tst	r2, r5
 880 001a 03D0     		beq	.L61
 513:Drivers/STM32U5xx_HAL_Driver/Src/stm32u5xx_hal_exti.c ****   {
 514:Drivers/STM32U5xx_HAL_Driver/Src/stm32u5xx_hal_exti.c ****     /* Clear pending bit */
 515:Drivers/STM32U5xx_HAL_Driver/Src/stm32u5xx_hal_exti.c ****     *regaddr = maskline;
 881              		.loc 1 515 5 is_stmt 1 view .LVU324
 882              		.loc 1 515 14 is_stmt 0 view .LVU325
 883 001c E550     		str	r5, [r4, r3]
 884              	.LVL119:
 516:Drivers/STM32U5xx_HAL_Driver/Src/stm32u5xx_hal_exti.c **** 
 517:Drivers/STM32U5xx_HAL_Driver/Src/stm32u5xx_hal_exti.c ****     /* Call rising callback */
 518:Drivers/STM32U5xx_HAL_Driver/Src/stm32u5xx_hal_exti.c ****     if (hexti->RisingCallback != NULL)
 885              		.loc 1 518 5 is_stmt 1 view .LVU326
 886              		.loc 1 518 14 is_stmt 0 view .LVU327
 887 001e 4368     		ldr	r3, [r0, #4]
 888              	.LVL120:
 889              		.loc 1 518 8 view .LVU328
 890 0020 03B1     		cbz	r3, .L61
ARM GAS  C:\Users\Ya\AppData\Local\Temp\ccUtQRqv.s 			page 27


 519:Drivers/STM32U5xx_HAL_Driver/Src/stm32u5xx_hal_exti.c ****     {
 520:Drivers/STM32U5xx_HAL_Driver/Src/stm32u5xx_hal_exti.c ****       hexti->RisingCallback();
 891              		.loc 1 520 7 is_stmt 1 view .LVU329
 892 0022 9847     		blx	r3
 893              	.LVL121:
 894              	.L61:
 521:Drivers/STM32U5xx_HAL_Driver/Src/stm32u5xx_hal_exti.c ****     }
 522:Drivers/STM32U5xx_HAL_Driver/Src/stm32u5xx_hal_exti.c ****   }
 523:Drivers/STM32U5xx_HAL_Driver/Src/stm32u5xx_hal_exti.c **** 
 524:Drivers/STM32U5xx_HAL_Driver/Src/stm32u5xx_hal_exti.c ****   /* Get falling edge pending bit  */
 525:Drivers/STM32U5xx_HAL_Driver/Src/stm32u5xx_hal_exti.c ****   regaddr = (__IO uint32_t *)(&EXTI->FPR1 + (EXTI_CONFIG_OFFSET * offset));
 895              		.loc 1 525 3 view .LVU330
 896              		.loc 1 525 11 is_stmt 0 view .LVU331
 897 0024 054B     		ldr	r3, .L64+4
 898              	.LVL122:
 526:Drivers/STM32U5xx_HAL_Driver/Src/stm32u5xx_hal_exti.c ****   regval = (*regaddr & maskline);
 899              		.loc 1 526 3 is_stmt 1 view .LVU332
 900              		.loc 1 526 13 is_stmt 0 view .LVU333
 901 0026 E258     		ldr	r2, [r4, r3]
 902              	.LVL123:
 527:Drivers/STM32U5xx_HAL_Driver/Src/stm32u5xx_hal_exti.c **** 
 528:Drivers/STM32U5xx_HAL_Driver/Src/stm32u5xx_hal_exti.c ****   if (regval != 0U)
 903              		.loc 1 528 3 is_stmt 1 view .LVU334
 904              		.loc 1 528 6 is_stmt 0 view .LVU335
 905 0028 2A42     		tst	r2, r5
 906 002a 03D0     		beq	.L60
 529:Drivers/STM32U5xx_HAL_Driver/Src/stm32u5xx_hal_exti.c ****   {
 530:Drivers/STM32U5xx_HAL_Driver/Src/stm32u5xx_hal_exti.c ****     /* Clear pending bit */
 531:Drivers/STM32U5xx_HAL_Driver/Src/stm32u5xx_hal_exti.c ****     *regaddr = maskline;
 907              		.loc 1 531 5 is_stmt 1 view .LVU336
 908              		.loc 1 531 14 is_stmt 0 view .LVU337
 909 002c E550     		str	r5, [r4, r3]
 532:Drivers/STM32U5xx_HAL_Driver/Src/stm32u5xx_hal_exti.c **** 
 533:Drivers/STM32U5xx_HAL_Driver/Src/stm32u5xx_hal_exti.c ****     /* Call rising callback */
 534:Drivers/STM32U5xx_HAL_Driver/Src/stm32u5xx_hal_exti.c ****     if (hexti->FallingCallback != NULL)
 910              		.loc 1 534 5 is_stmt 1 view .LVU338
 911              		.loc 1 534 14 is_stmt 0 view .LVU339
 912 002e B368     		ldr	r3, [r6, #8]
 913              	.LVL124:
 914              		.loc 1 534 8 view .LVU340
 915 0030 03B1     		cbz	r3, .L60
 535:Drivers/STM32U5xx_HAL_Driver/Src/stm32u5xx_hal_exti.c ****     {
 536:Drivers/STM32U5xx_HAL_Driver/Src/stm32u5xx_hal_exti.c ****       hexti->FallingCallback();
 916              		.loc 1 536 7 is_stmt 1 view .LVU341
 917 0032 9847     		blx	r3
 918              	.LVL125:
 919              	.L60:
 537:Drivers/STM32U5xx_HAL_Driver/Src/stm32u5xx_hal_exti.c ****     }
 538:Drivers/STM32U5xx_HAL_Driver/Src/stm32u5xx_hal_exti.c ****   }
 539:Drivers/STM32U5xx_HAL_Driver/Src/stm32u5xx_hal_exti.c **** }
 920              		.loc 1 539 1 is_stmt 0 view .LVU342
 921 0034 70BD     		pop	{r4, r5, r6, pc}
 922              	.LVL126:
 923              	.L65:
 924              		.loc 1 539 1 view .LVU343
 925 0036 00BF     		.align	2
 926              	.L64:
ARM GAS  C:\Users\Ya\AppData\Local\Temp\ccUtQRqv.s 			page 28


 927 0038 0C200246 		.word	1174544396
 928 003c 10200246 		.word	1174544400
 929              		.cfi_endproc
 930              	.LFE345:
 932              		.section	.text.HAL_EXTI_GetPending,"ax",%progbits
 933              		.align	1
 934              		.global	HAL_EXTI_GetPending
 935              		.syntax unified
 936              		.thumb
 937              		.thumb_func
 939              	HAL_EXTI_GetPending:
 940              	.LVL127:
 941              	.LFB346:
 540:Drivers/STM32U5xx_HAL_Driver/Src/stm32u5xx_hal_exti.c **** 
 541:Drivers/STM32U5xx_HAL_Driver/Src/stm32u5xx_hal_exti.c **** 
 542:Drivers/STM32U5xx_HAL_Driver/Src/stm32u5xx_hal_exti.c **** /**
 543:Drivers/STM32U5xx_HAL_Driver/Src/stm32u5xx_hal_exti.c ****   * @brief  Get interrupt pending bit of a dedicated line.
 544:Drivers/STM32U5xx_HAL_Driver/Src/stm32u5xx_hal_exti.c ****   * @param  hexti Exti handle.
 545:Drivers/STM32U5xx_HAL_Driver/Src/stm32u5xx_hal_exti.c ****   * @param  Edge Specify which pending edge as to be checked.
 546:Drivers/STM32U5xx_HAL_Driver/Src/stm32u5xx_hal_exti.c ****   *         This parameter can be one of the following values:
 547:Drivers/STM32U5xx_HAL_Driver/Src/stm32u5xx_hal_exti.c ****   *           @arg @ref EXTI_TRIGGER_RISING
 548:Drivers/STM32U5xx_HAL_Driver/Src/stm32u5xx_hal_exti.c ****   *           @arg @ref EXTI_TRIGGER_FALLING
 549:Drivers/STM32U5xx_HAL_Driver/Src/stm32u5xx_hal_exti.c ****   * @retval 1 if interrupt is pending else 0.
 550:Drivers/STM32U5xx_HAL_Driver/Src/stm32u5xx_hal_exti.c ****   */
 551:Drivers/STM32U5xx_HAL_Driver/Src/stm32u5xx_hal_exti.c **** uint32_t HAL_EXTI_GetPending(const EXTI_HandleTypeDef *hexti, uint32_t Edge)
 552:Drivers/STM32U5xx_HAL_Driver/Src/stm32u5xx_hal_exti.c **** {
 942              		.loc 1 552 1 is_stmt 1 view -0
 943              		.cfi_startproc
 944              		@ args = 0, pretend = 0, frame = 0
 945              		@ frame_needed = 0, uses_anonymous_args = 0
 946              		@ link register save eliminated.
 553:Drivers/STM32U5xx_HAL_Driver/Src/stm32u5xx_hal_exti.c ****   const __IO uint32_t *regaddr;
 947              		.loc 1 553 3 view .LVU345
 554:Drivers/STM32U5xx_HAL_Driver/Src/stm32u5xx_hal_exti.c ****   uint32_t regval;
 948              		.loc 1 554 3 view .LVU346
 555:Drivers/STM32U5xx_HAL_Driver/Src/stm32u5xx_hal_exti.c ****   uint32_t linepos;
 949              		.loc 1 555 3 view .LVU347
 556:Drivers/STM32U5xx_HAL_Driver/Src/stm32u5xx_hal_exti.c ****   uint32_t maskline;
 950              		.loc 1 556 3 view .LVU348
 557:Drivers/STM32U5xx_HAL_Driver/Src/stm32u5xx_hal_exti.c ****   uint32_t offset;
 951              		.loc 1 557 3 view .LVU349
 558:Drivers/STM32U5xx_HAL_Driver/Src/stm32u5xx_hal_exti.c **** 
 559:Drivers/STM32U5xx_HAL_Driver/Src/stm32u5xx_hal_exti.c ****   /* Check the parameters */
 560:Drivers/STM32U5xx_HAL_Driver/Src/stm32u5xx_hal_exti.c ****   assert_param(IS_EXTI_LINE(hexti->Line));
 952              		.loc 1 560 3 view .LVU350
 561:Drivers/STM32U5xx_HAL_Driver/Src/stm32u5xx_hal_exti.c ****   assert_param(IS_EXTI_CONFIG_LINE(hexti->Line));
 953              		.loc 1 561 3 view .LVU351
 562:Drivers/STM32U5xx_HAL_Driver/Src/stm32u5xx_hal_exti.c ****   assert_param(IS_EXTI_PENDING_EDGE(Edge));
 954              		.loc 1 562 3 view .LVU352
 563:Drivers/STM32U5xx_HAL_Driver/Src/stm32u5xx_hal_exti.c **** 
 564:Drivers/STM32U5xx_HAL_Driver/Src/stm32u5xx_hal_exti.c ****   /* compute line register offset and line mask */
 565:Drivers/STM32U5xx_HAL_Driver/Src/stm32u5xx_hal_exti.c ****   offset = ((hexti->Line & EXTI_REG_MASK) >> EXTI_REG_SHIFT);
 955              		.loc 1 565 3 view .LVU353
 956              		.loc 1 565 19 is_stmt 0 view .LVU354
 957 0000 0368     		ldr	r3, [r0]
 958              		.loc 1 565 10 view .LVU355
 959 0002 C3F30040 		ubfx	r0, r3, #16, #1
ARM GAS  C:\Users\Ya\AppData\Local\Temp\ccUtQRqv.s 			page 29


 960              	.LVL128:
 566:Drivers/STM32U5xx_HAL_Driver/Src/stm32u5xx_hal_exti.c ****   linepos = (hexti->Line & EXTI_PIN_MASK);
 961              		.loc 1 566 3 is_stmt 1 view .LVU356
 962              		.loc 1 566 11 is_stmt 0 view .LVU357
 963 0006 03F01F03 		and	r3, r3, #31
 964              	.LVL129:
 567:Drivers/STM32U5xx_HAL_Driver/Src/stm32u5xx_hal_exti.c ****   maskline = (1UL << linepos);
 965              		.loc 1 567 3 is_stmt 1 view .LVU358
 966              		.loc 1 567 12 is_stmt 0 view .LVU359
 967 000a 0122     		movs	r2, #1
 968 000c 9A40     		lsls	r2, r2, r3
 969              	.LVL130:
 568:Drivers/STM32U5xx_HAL_Driver/Src/stm32u5xx_hal_exti.c **** 
 569:Drivers/STM32U5xx_HAL_Driver/Src/stm32u5xx_hal_exti.c ****   if (Edge != EXTI_TRIGGER_RISING)
 970              		.loc 1 569 3 is_stmt 1 view .LVU360
 971              		.loc 1 569 6 is_stmt 0 view .LVU361
 972 000e 0129     		cmp	r1, #1
 973 0010 06D0     		beq	.L67
 570:Drivers/STM32U5xx_HAL_Driver/Src/stm32u5xx_hal_exti.c ****   {
 571:Drivers/STM32U5xx_HAL_Driver/Src/stm32u5xx_hal_exti.c ****     /* Get falling edge pending bit */
 572:Drivers/STM32U5xx_HAL_Driver/Src/stm32u5xx_hal_exti.c ****     regaddr = (__IO uint32_t *)(&EXTI->FPR1 + (EXTI_CONFIG_OFFSET * offset));
 974              		.loc 1 572 5 is_stmt 1 view .LVU362
 975              		.loc 1 572 13 is_stmt 0 view .LVU363
 976 0012 0549     		ldr	r1, .L69
 977              	.LVL131:
 978              		.loc 1 572 13 view .LVU364
 979 0014 01EB4010 		add	r0, r1, r0, lsl #5
 980              	.LVL132:
 981              	.L68:
 573:Drivers/STM32U5xx_HAL_Driver/Src/stm32u5xx_hal_exti.c ****   }
 574:Drivers/STM32U5xx_HAL_Driver/Src/stm32u5xx_hal_exti.c ****   else
 575:Drivers/STM32U5xx_HAL_Driver/Src/stm32u5xx_hal_exti.c ****   {
 576:Drivers/STM32U5xx_HAL_Driver/Src/stm32u5xx_hal_exti.c ****     /* Get rising edge pending bit */
 577:Drivers/STM32U5xx_HAL_Driver/Src/stm32u5xx_hal_exti.c ****     regaddr = (__IO uint32_t *)(&EXTI->RPR1 + (EXTI_CONFIG_OFFSET * offset));
 578:Drivers/STM32U5xx_HAL_Driver/Src/stm32u5xx_hal_exti.c ****   }
 579:Drivers/STM32U5xx_HAL_Driver/Src/stm32u5xx_hal_exti.c **** 
 580:Drivers/STM32U5xx_HAL_Driver/Src/stm32u5xx_hal_exti.c ****   /* return 1 if bit is set else 0 */
 581:Drivers/STM32U5xx_HAL_Driver/Src/stm32u5xx_hal_exti.c ****   regval = ((*regaddr & maskline) >> linepos);
 982              		.loc 1 581 3 is_stmt 1 view .LVU365
 983              		.loc 1 581 14 is_stmt 0 view .LVU366
 984 0018 0068     		ldr	r0, [r0]
 985              	.LVL133:
 986              		.loc 1 581 23 view .LVU367
 987 001a 1040     		ands	r0, r0, r2
 988              	.LVL134:
 582:Drivers/STM32U5xx_HAL_Driver/Src/stm32u5xx_hal_exti.c ****   return regval;
 989              		.loc 1 582 3 is_stmt 1 view .LVU368
 583:Drivers/STM32U5xx_HAL_Driver/Src/stm32u5xx_hal_exti.c **** }
 990              		.loc 1 583 1 is_stmt 0 view .LVU369
 991 001c D840     		lsrs	r0, r0, r3
 992              	.LVL135:
 993              		.loc 1 583 1 view .LVU370
 994 001e 7047     		bx	lr
 995              	.LVL136:
 996              	.L67:
 577:Drivers/STM32U5xx_HAL_Driver/Src/stm32u5xx_hal_exti.c ****   }
 997              		.loc 1 577 5 is_stmt 1 view .LVU371
ARM GAS  C:\Users\Ya\AppData\Local\Temp\ccUtQRqv.s 			page 30


 577:Drivers/STM32U5xx_HAL_Driver/Src/stm32u5xx_hal_exti.c ****   }
 998              		.loc 1 577 13 is_stmt 0 view .LVU372
 999 0020 0249     		ldr	r1, .L69+4
 1000              	.LVL137:
 577:Drivers/STM32U5xx_HAL_Driver/Src/stm32u5xx_hal_exti.c ****   }
 1001              		.loc 1 577 13 view .LVU373
 1002 0022 01EB4010 		add	r0, r1, r0, lsl #5
 1003              	.LVL138:
 577:Drivers/STM32U5xx_HAL_Driver/Src/stm32u5xx_hal_exti.c ****   }
 1004              		.loc 1 577 13 view .LVU374
 1005 0026 F7E7     		b	.L68
 1006              	.L70:
 1007              		.align	2
 1008              	.L69:
 1009 0028 10200246 		.word	1174544400
 1010 002c 0C200246 		.word	1174544396
 1011              		.cfi_endproc
 1012              	.LFE346:
 1014              		.section	.text.HAL_EXTI_ClearPending,"ax",%progbits
 1015              		.align	1
 1016              		.global	HAL_EXTI_ClearPending
 1017              		.syntax unified
 1018              		.thumb
 1019              		.thumb_func
 1021              	HAL_EXTI_ClearPending:
 1022              	.LVL139:
 1023              	.LFB347:
 584:Drivers/STM32U5xx_HAL_Driver/Src/stm32u5xx_hal_exti.c **** 
 585:Drivers/STM32U5xx_HAL_Driver/Src/stm32u5xx_hal_exti.c **** 
 586:Drivers/STM32U5xx_HAL_Driver/Src/stm32u5xx_hal_exti.c **** /**
 587:Drivers/STM32U5xx_HAL_Driver/Src/stm32u5xx_hal_exti.c ****   * @brief  Clear interrupt pending bit of a dedicated line.
 588:Drivers/STM32U5xx_HAL_Driver/Src/stm32u5xx_hal_exti.c ****   * @param  hexti Exti handle.
 589:Drivers/STM32U5xx_HAL_Driver/Src/stm32u5xx_hal_exti.c ****   * @param  Edge Specify which pending edge as to be clear.
 590:Drivers/STM32U5xx_HAL_Driver/Src/stm32u5xx_hal_exti.c ****   *         This parameter can be one of the following values:
 591:Drivers/STM32U5xx_HAL_Driver/Src/stm32u5xx_hal_exti.c ****   *           @arg @ref EXTI_TRIGGER_RISING
 592:Drivers/STM32U5xx_HAL_Driver/Src/stm32u5xx_hal_exti.c ****   *           @arg @ref EXTI_TRIGGER_FALLING
 593:Drivers/STM32U5xx_HAL_Driver/Src/stm32u5xx_hal_exti.c ****   * @retval None.
 594:Drivers/STM32U5xx_HAL_Driver/Src/stm32u5xx_hal_exti.c ****   */
 595:Drivers/STM32U5xx_HAL_Driver/Src/stm32u5xx_hal_exti.c **** void HAL_EXTI_ClearPending(const EXTI_HandleTypeDef *hexti, uint32_t Edge)
 596:Drivers/STM32U5xx_HAL_Driver/Src/stm32u5xx_hal_exti.c **** {
 1024              		.loc 1 596 1 is_stmt 1 view -0
 1025              		.cfi_startproc
 1026              		@ args = 0, pretend = 0, frame = 0
 1027              		@ frame_needed = 0, uses_anonymous_args = 0
 1028              		@ link register save eliminated.
 597:Drivers/STM32U5xx_HAL_Driver/Src/stm32u5xx_hal_exti.c ****   __IO uint32_t *regaddr;
 1029              		.loc 1 597 3 view .LVU376
 598:Drivers/STM32U5xx_HAL_Driver/Src/stm32u5xx_hal_exti.c ****   uint32_t maskline;
 1030              		.loc 1 598 3 view .LVU377
 599:Drivers/STM32U5xx_HAL_Driver/Src/stm32u5xx_hal_exti.c ****   uint32_t offset;
 1031              		.loc 1 599 3 view .LVU378
 600:Drivers/STM32U5xx_HAL_Driver/Src/stm32u5xx_hal_exti.c **** 
 601:Drivers/STM32U5xx_HAL_Driver/Src/stm32u5xx_hal_exti.c ****   /* Check the parameters */
 602:Drivers/STM32U5xx_HAL_Driver/Src/stm32u5xx_hal_exti.c ****   assert_param(IS_EXTI_LINE(hexti->Line));
 1032              		.loc 1 602 3 view .LVU379
 603:Drivers/STM32U5xx_HAL_Driver/Src/stm32u5xx_hal_exti.c ****   assert_param(IS_EXTI_CONFIG_LINE(hexti->Line));
 1033              		.loc 1 603 3 view .LVU380
ARM GAS  C:\Users\Ya\AppData\Local\Temp\ccUtQRqv.s 			page 31


 604:Drivers/STM32U5xx_HAL_Driver/Src/stm32u5xx_hal_exti.c ****   assert_param(IS_EXTI_PENDING_EDGE(Edge));
 1034              		.loc 1 604 3 view .LVU381
 605:Drivers/STM32U5xx_HAL_Driver/Src/stm32u5xx_hal_exti.c **** 
 606:Drivers/STM32U5xx_HAL_Driver/Src/stm32u5xx_hal_exti.c ****   /* compute line register offset and line mask */
 607:Drivers/STM32U5xx_HAL_Driver/Src/stm32u5xx_hal_exti.c ****   offset = ((hexti->Line & EXTI_REG_MASK) >> EXTI_REG_SHIFT);
 1035              		.loc 1 607 3 view .LVU382
 1036              		.loc 1 607 19 is_stmt 0 view .LVU383
 1037 0000 0368     		ldr	r3, [r0]
 1038              		.loc 1 607 10 view .LVU384
 1039 0002 C3F30042 		ubfx	r2, r3, #16, #1
 1040              	.LVL140:
 608:Drivers/STM32U5xx_HAL_Driver/Src/stm32u5xx_hal_exti.c ****   maskline = (1UL << (hexti->Line & EXTI_PIN_MASK));
 1041              		.loc 1 608 3 is_stmt 1 view .LVU385
 1042              		.loc 1 608 35 is_stmt 0 view .LVU386
 1043 0006 03F01F03 		and	r3, r3, #31
 1044              		.loc 1 608 12 view .LVU387
 1045 000a 0120     		movs	r0, #1
 1046              	.LVL141:
 1047              		.loc 1 608 12 view .LVU388
 1048 000c 00FA03F3 		lsl	r3, r0, r3
 1049              	.LVL142:
 609:Drivers/STM32U5xx_HAL_Driver/Src/stm32u5xx_hal_exti.c **** 
 610:Drivers/STM32U5xx_HAL_Driver/Src/stm32u5xx_hal_exti.c ****   if (Edge != EXTI_TRIGGER_RISING)
 1050              		.loc 1 610 3 is_stmt 1 view .LVU389
 1051              		.loc 1 610 6 is_stmt 0 view .LVU390
 1052 0010 8142     		cmp	r1, r0
 1053 0012 04D0     		beq	.L72
 611:Drivers/STM32U5xx_HAL_Driver/Src/stm32u5xx_hal_exti.c ****   {
 612:Drivers/STM32U5xx_HAL_Driver/Src/stm32u5xx_hal_exti.c ****     /* Get falling edge pending register address */
 613:Drivers/STM32U5xx_HAL_Driver/Src/stm32u5xx_hal_exti.c ****     regaddr = (__IO uint32_t *)(&EXTI->FPR1 + (EXTI_CONFIG_OFFSET * offset));
 1054              		.loc 1 613 5 is_stmt 1 view .LVU391
 1055              		.loc 1 613 13 is_stmt 0 view .LVU392
 1056 0014 0449     		ldr	r1, .L74
 1057              	.LVL143:
 1058              		.loc 1 613 13 view .LVU393
 1059 0016 01EB4212 		add	r2, r1, r2, lsl #5
 1060              	.LVL144:
 1061              	.L73:
 614:Drivers/STM32U5xx_HAL_Driver/Src/stm32u5xx_hal_exti.c ****   }
 615:Drivers/STM32U5xx_HAL_Driver/Src/stm32u5xx_hal_exti.c ****   else
 616:Drivers/STM32U5xx_HAL_Driver/Src/stm32u5xx_hal_exti.c ****   {
 617:Drivers/STM32U5xx_HAL_Driver/Src/stm32u5xx_hal_exti.c ****     /* Get falling edge pending register address */
 618:Drivers/STM32U5xx_HAL_Driver/Src/stm32u5xx_hal_exti.c ****     regaddr = (__IO uint32_t *)(&EXTI->RPR1 + (EXTI_CONFIG_OFFSET * offset));
 619:Drivers/STM32U5xx_HAL_Driver/Src/stm32u5xx_hal_exti.c ****   }
 620:Drivers/STM32U5xx_HAL_Driver/Src/stm32u5xx_hal_exti.c **** 
 621:Drivers/STM32U5xx_HAL_Driver/Src/stm32u5xx_hal_exti.c ****   /* Clear Pending bit */
 622:Drivers/STM32U5xx_HAL_Driver/Src/stm32u5xx_hal_exti.c ****   *regaddr =  maskline;
 1062              		.loc 1 622 3 is_stmt 1 view .LVU394
 1063              		.loc 1 622 12 is_stmt 0 view .LVU395
 1064 001a 1360     		str	r3, [r2]
 1065              	.LVL145:
 623:Drivers/STM32U5xx_HAL_Driver/Src/stm32u5xx_hal_exti.c **** }
 1066              		.loc 1 623 1 view .LVU396
 1067 001c 7047     		bx	lr
 1068              	.LVL146:
 1069              	.L72:
 618:Drivers/STM32U5xx_HAL_Driver/Src/stm32u5xx_hal_exti.c ****   }
ARM GAS  C:\Users\Ya\AppData\Local\Temp\ccUtQRqv.s 			page 32


 1070              		.loc 1 618 5 is_stmt 1 view .LVU397
 618:Drivers/STM32U5xx_HAL_Driver/Src/stm32u5xx_hal_exti.c ****   }
 1071              		.loc 1 618 13 is_stmt 0 view .LVU398
 1072 001e 0349     		ldr	r1, .L74+4
 1073              	.LVL147:
 618:Drivers/STM32U5xx_HAL_Driver/Src/stm32u5xx_hal_exti.c ****   }
 1074              		.loc 1 618 13 view .LVU399
 1075 0020 01EB4212 		add	r2, r1, r2, lsl #5
 1076              	.LVL148:
 618:Drivers/STM32U5xx_HAL_Driver/Src/stm32u5xx_hal_exti.c ****   }
 1077              		.loc 1 618 13 view .LVU400
 1078 0024 F9E7     		b	.L73
 1079              	.L75:
 1080 0026 00BF     		.align	2
 1081              	.L74:
 1082 0028 10200246 		.word	1174544400
 1083 002c 0C200246 		.word	1174544396
 1084              		.cfi_endproc
 1085              	.LFE347:
 1087              		.section	.text.HAL_EXTI_GenerateSWI,"ax",%progbits
 1088              		.align	1
 1089              		.global	HAL_EXTI_GenerateSWI
 1090              		.syntax unified
 1091              		.thumb
 1092              		.thumb_func
 1094              	HAL_EXTI_GenerateSWI:
 1095              	.LVL149:
 1096              	.LFB348:
 624:Drivers/STM32U5xx_HAL_Driver/Src/stm32u5xx_hal_exti.c **** 
 625:Drivers/STM32U5xx_HAL_Driver/Src/stm32u5xx_hal_exti.c **** 
 626:Drivers/STM32U5xx_HAL_Driver/Src/stm32u5xx_hal_exti.c **** /**
 627:Drivers/STM32U5xx_HAL_Driver/Src/stm32u5xx_hal_exti.c ****   * @brief  Generate a software interrupt for a dedicated line.
 628:Drivers/STM32U5xx_HAL_Driver/Src/stm32u5xx_hal_exti.c ****   * @param  hexti Exti handle.
 629:Drivers/STM32U5xx_HAL_Driver/Src/stm32u5xx_hal_exti.c ****   * @retval None.
 630:Drivers/STM32U5xx_HAL_Driver/Src/stm32u5xx_hal_exti.c ****   */
 631:Drivers/STM32U5xx_HAL_Driver/Src/stm32u5xx_hal_exti.c **** void HAL_EXTI_GenerateSWI(const EXTI_HandleTypeDef *hexti)
 632:Drivers/STM32U5xx_HAL_Driver/Src/stm32u5xx_hal_exti.c **** {
 1097              		.loc 1 632 1 is_stmt 1 view -0
 1098              		.cfi_startproc
 1099              		@ args = 0, pretend = 0, frame = 0
 1100              		@ frame_needed = 0, uses_anonymous_args = 0
 1101              		@ link register save eliminated.
 633:Drivers/STM32U5xx_HAL_Driver/Src/stm32u5xx_hal_exti.c ****   __IO uint32_t *regaddr;
 1102              		.loc 1 633 3 view .LVU402
 634:Drivers/STM32U5xx_HAL_Driver/Src/stm32u5xx_hal_exti.c ****   uint32_t maskline;
 1103              		.loc 1 634 3 view .LVU403
 635:Drivers/STM32U5xx_HAL_Driver/Src/stm32u5xx_hal_exti.c ****   uint32_t offset;
 1104              		.loc 1 635 3 view .LVU404
 636:Drivers/STM32U5xx_HAL_Driver/Src/stm32u5xx_hal_exti.c **** 
 637:Drivers/STM32U5xx_HAL_Driver/Src/stm32u5xx_hal_exti.c ****   /* Check the parameters */
 638:Drivers/STM32U5xx_HAL_Driver/Src/stm32u5xx_hal_exti.c ****   assert_param(IS_EXTI_LINE(hexti->Line));
 1105              		.loc 1 638 3 view .LVU405
 639:Drivers/STM32U5xx_HAL_Driver/Src/stm32u5xx_hal_exti.c ****   assert_param(IS_EXTI_CONFIG_LINE(hexti->Line));
 1106              		.loc 1 639 3 view .LVU406
 640:Drivers/STM32U5xx_HAL_Driver/Src/stm32u5xx_hal_exti.c **** 
 641:Drivers/STM32U5xx_HAL_Driver/Src/stm32u5xx_hal_exti.c ****   /* compute line register offset and line mask */
 642:Drivers/STM32U5xx_HAL_Driver/Src/stm32u5xx_hal_exti.c ****   offset = ((hexti->Line & EXTI_REG_MASK) >> EXTI_REG_SHIFT);
ARM GAS  C:\Users\Ya\AppData\Local\Temp\ccUtQRqv.s 			page 33


 1107              		.loc 1 642 3 view .LVU407
 1108              		.loc 1 642 19 is_stmt 0 view .LVU408
 1109 0000 0368     		ldr	r3, [r0]
 1110              		.loc 1 642 10 view .LVU409
 1111 0002 C3F30042 		ubfx	r2, r3, #16, #1
 1112              	.LVL150:
 643:Drivers/STM32U5xx_HAL_Driver/Src/stm32u5xx_hal_exti.c ****   maskline = (1UL << (hexti->Line & EXTI_PIN_MASK));
 1113              		.loc 1 643 3 is_stmt 1 view .LVU410
 1114              		.loc 1 643 35 is_stmt 0 view .LVU411
 1115 0006 03F01F03 		and	r3, r3, #31
 1116              		.loc 1 643 12 view .LVU412
 1117 000a 0121     		movs	r1, #1
 1118 000c 9940     		lsls	r1, r1, r3
 1119              	.LVL151:
 644:Drivers/STM32U5xx_HAL_Driver/Src/stm32u5xx_hal_exti.c **** 
 645:Drivers/STM32U5xx_HAL_Driver/Src/stm32u5xx_hal_exti.c ****   regaddr = (__IO uint32_t *)(&EXTI->SWIER1 + (EXTI_CONFIG_OFFSET * offset));
 1120              		.loc 1 645 3 is_stmt 1 view .LVU413
 1121              		.loc 1 645 13 is_stmt 0 view .LVU414
 1122 000e 5301     		lsls	r3, r2, #5
 1123              		.loc 1 645 11 view .LVU415
 1124 0010 014A     		ldr	r2, .L77
 1125              	.LVL152:
 646:Drivers/STM32U5xx_HAL_Driver/Src/stm32u5xx_hal_exti.c ****   *regaddr = maskline;
 1126              		.loc 1 646 3 is_stmt 1 view .LVU416
 1127              		.loc 1 646 12 is_stmt 0 view .LVU417
 1128 0012 9950     		str	r1, [r3, r2]
 1129              	.LVL153:
 647:Drivers/STM32U5xx_HAL_Driver/Src/stm32u5xx_hal_exti.c **** }
 1130              		.loc 1 647 1 view .LVU418
 1131 0014 7047     		bx	lr
 1132              	.L78:
 1133 0016 00BF     		.align	2
 1134              	.L77:
 1135 0018 08200246 		.word	1174544392
 1136              		.cfi_endproc
 1137              	.LFE348:
 1139              		.section	.text.HAL_EXTI_ConfigLineAttributes,"ax",%progbits
 1140              		.align	1
 1141              		.global	HAL_EXTI_ConfigLineAttributes
 1142              		.syntax unified
 1143              		.thumb
 1144              		.thumb_func
 1146              	HAL_EXTI_ConfigLineAttributes:
 1147              	.LVL154:
 1148              	.LFB349:
 648:Drivers/STM32U5xx_HAL_Driver/Src/stm32u5xx_hal_exti.c **** 
 649:Drivers/STM32U5xx_HAL_Driver/Src/stm32u5xx_hal_exti.c **** 
 650:Drivers/STM32U5xx_HAL_Driver/Src/stm32u5xx_hal_exti.c **** /**
 651:Drivers/STM32U5xx_HAL_Driver/Src/stm32u5xx_hal_exti.c ****   * @}
 652:Drivers/STM32U5xx_HAL_Driver/Src/stm32u5xx_hal_exti.c ****   */
 653:Drivers/STM32U5xx_HAL_Driver/Src/stm32u5xx_hal_exti.c **** 
 654:Drivers/STM32U5xx_HAL_Driver/Src/stm32u5xx_hal_exti.c **** /** @defgroup EXTI_Exported_Functions_Group3 EXTI line attributes management functions
 655:Drivers/STM32U5xx_HAL_Driver/Src/stm32u5xx_hal_exti.c ****   *  @brief EXTI attributes management functions.
 656:Drivers/STM32U5xx_HAL_Driver/Src/stm32u5xx_hal_exti.c ****   *
 657:Drivers/STM32U5xx_HAL_Driver/Src/stm32u5xx_hal_exti.c **** @verbatim
 658:Drivers/STM32U5xx_HAL_Driver/Src/stm32u5xx_hal_exti.c ****  ===============================================================================
 659:Drivers/STM32U5xx_HAL_Driver/Src/stm32u5xx_hal_exti.c ****                        ##### EXTI attributes functions #####
ARM GAS  C:\Users\Ya\AppData\Local\Temp\ccUtQRqv.s 			page 34


 660:Drivers/STM32U5xx_HAL_Driver/Src/stm32u5xx_hal_exti.c ****  ===============================================================================
 661:Drivers/STM32U5xx_HAL_Driver/Src/stm32u5xx_hal_exti.c **** 
 662:Drivers/STM32U5xx_HAL_Driver/Src/stm32u5xx_hal_exti.c **** @endverbatim
 663:Drivers/STM32U5xx_HAL_Driver/Src/stm32u5xx_hal_exti.c ****   * @{
 664:Drivers/STM32U5xx_HAL_Driver/Src/stm32u5xx_hal_exti.c ****   */
 665:Drivers/STM32U5xx_HAL_Driver/Src/stm32u5xx_hal_exti.c **** 
 666:Drivers/STM32U5xx_HAL_Driver/Src/stm32u5xx_hal_exti.c **** /**
 667:Drivers/STM32U5xx_HAL_Driver/Src/stm32u5xx_hal_exti.c ****   * @brief  Configure the EXTI line attribute(s).
 668:Drivers/STM32U5xx_HAL_Driver/Src/stm32u5xx_hal_exti.c ****   * @note   Available attributes are to secure EXTI line and set EXT line as privileged.
 669:Drivers/STM32U5xx_HAL_Driver/Src/stm32u5xx_hal_exti.c ****   *         Default state is not secure and unprivileged access allowed.
 670:Drivers/STM32U5xx_HAL_Driver/Src/stm32u5xx_hal_exti.c ****   * @note   Secure and non-secure attributes can only be set from the secure
 671:Drivers/STM32U5xx_HAL_Driver/Src/stm32u5xx_hal_exti.c ****   *         state when the system implements the security (TZEN=1).
 672:Drivers/STM32U5xx_HAL_Driver/Src/stm32u5xx_hal_exti.c ****   * @note   Security and privilege attributes can be set independently.
 673:Drivers/STM32U5xx_HAL_Driver/Src/stm32u5xx_hal_exti.c ****   * @param  ExtiLine Exti line number.
 674:Drivers/STM32U5xx_HAL_Driver/Src/stm32u5xx_hal_exti.c ****   *         This parameter can be from 0 to @ref EXTI_LINE_NB.
 675:Drivers/STM32U5xx_HAL_Driver/Src/stm32u5xx_hal_exti.c ****   * @param  LineAttributes can be one or a combination of the following values:
 676:Drivers/STM32U5xx_HAL_Driver/Src/stm32u5xx_hal_exti.c ****   *            @arg @ref EXTI_LINE_PRIV         Privileged-only access
 677:Drivers/STM32U5xx_HAL_Driver/Src/stm32u5xx_hal_exti.c ****   *            @arg @ref EXTI_LINE_NPRIV        Privileged/Non-privileged access
 678:Drivers/STM32U5xx_HAL_Driver/Src/stm32u5xx_hal_exti.c ****   *            @arg @ref EXTI_LINE_SEC          Secure-only access
 679:Drivers/STM32U5xx_HAL_Driver/Src/stm32u5xx_hal_exti.c ****   *            @arg @ref EXTI_LINE_NSEC         Secure/Non-secure access
 680:Drivers/STM32U5xx_HAL_Driver/Src/stm32u5xx_hal_exti.c ****   * @retval None
 681:Drivers/STM32U5xx_HAL_Driver/Src/stm32u5xx_hal_exti.c ****   */
 682:Drivers/STM32U5xx_HAL_Driver/Src/stm32u5xx_hal_exti.c **** void HAL_EXTI_ConfigLineAttributes(uint32_t ExtiLine, uint32_t LineAttributes)
 683:Drivers/STM32U5xx_HAL_Driver/Src/stm32u5xx_hal_exti.c **** {
 1149              		.loc 1 683 1 is_stmt 1 view -0
 1150              		.cfi_startproc
 1151              		@ args = 0, pretend = 0, frame = 0
 1152              		@ frame_needed = 0, uses_anonymous_args = 0
 1153              		@ link register save eliminated.
 1154              		.loc 1 683 1 is_stmt 0 view .LVU420
 1155 0000 10B4     		push	{r4}
 1156              		.cfi_def_cfa_offset 4
 1157              		.cfi_offset 4, -4
 684:Drivers/STM32U5xx_HAL_Driver/Src/stm32u5xx_hal_exti.c ****   __IO uint32_t *regaddr;
 1158              		.loc 1 684 3 is_stmt 1 view .LVU421
 685:Drivers/STM32U5xx_HAL_Driver/Src/stm32u5xx_hal_exti.c ****   uint32_t regval;
 1159              		.loc 1 685 3 view .LVU422
 686:Drivers/STM32U5xx_HAL_Driver/Src/stm32u5xx_hal_exti.c ****   uint32_t linepos;
 1160              		.loc 1 686 3 view .LVU423
 687:Drivers/STM32U5xx_HAL_Driver/Src/stm32u5xx_hal_exti.c ****   uint32_t maskline;
 1161              		.loc 1 687 3 view .LVU424
 688:Drivers/STM32U5xx_HAL_Driver/Src/stm32u5xx_hal_exti.c ****   uint32_t offset;
 1162              		.loc 1 688 3 view .LVU425
 689:Drivers/STM32U5xx_HAL_Driver/Src/stm32u5xx_hal_exti.c **** 
 690:Drivers/STM32U5xx_HAL_Driver/Src/stm32u5xx_hal_exti.c ****   /* Check the parameters */
 691:Drivers/STM32U5xx_HAL_Driver/Src/stm32u5xx_hal_exti.c ****   assert_param(IS_EXTI_LINE(ExtiLine));
 1163              		.loc 1 691 3 view .LVU426
 692:Drivers/STM32U5xx_HAL_Driver/Src/stm32u5xx_hal_exti.c ****   assert_param(IS_EXTI_LINE_ATTRIBUTES(LineAttributes));
 1164              		.loc 1 692 3 view .LVU427
 693:Drivers/STM32U5xx_HAL_Driver/Src/stm32u5xx_hal_exti.c **** 
 694:Drivers/STM32U5xx_HAL_Driver/Src/stm32u5xx_hal_exti.c ****   /* compute line register offset and line mask */
 695:Drivers/STM32U5xx_HAL_Driver/Src/stm32u5xx_hal_exti.c ****   offset = ((ExtiLine & EXTI_REG_MASK) >> EXTI_REG_SHIFT);
 1165              		.loc 1 695 3 view .LVU428
 1166              		.loc 1 695 10 is_stmt 0 view .LVU429
 1167 0002 C0F30043 		ubfx	r3, r0, #16, #1
 1168              	.LVL155:
 696:Drivers/STM32U5xx_HAL_Driver/Src/stm32u5xx_hal_exti.c ****   linepos = (ExtiLine & EXTI_PIN_MASK);
ARM GAS  C:\Users\Ya\AppData\Local\Temp\ccUtQRqv.s 			page 35


 1169              		.loc 1 696 3 is_stmt 1 view .LVU430
 1170              		.loc 1 696 11 is_stmt 0 view .LVU431
 1171 0006 00F01F00 		and	r0, r0, #31
 1172              	.LVL156:
 697:Drivers/STM32U5xx_HAL_Driver/Src/stm32u5xx_hal_exti.c ****   maskline = (1UL << linepos);
 1173              		.loc 1 697 3 is_stmt 1 view .LVU432
 1174              		.loc 1 697 12 is_stmt 0 view .LVU433
 1175 000a 0122     		movs	r2, #1
 1176 000c 8240     		lsls	r2, r2, r0
 1177              	.LVL157:
 698:Drivers/STM32U5xx_HAL_Driver/Src/stm32u5xx_hal_exti.c **** 
 699:Drivers/STM32U5xx_HAL_Driver/Src/stm32u5xx_hal_exti.c ****   /* Configure privilege or non-privilege attributes */
 700:Drivers/STM32U5xx_HAL_Driver/Src/stm32u5xx_hal_exti.c ****   regaddr = (__IO uint32_t *)(&EXTI->PRIVCFGR1 + (EXTI_PRIVCFGR_OFFSET * offset));
 1178              		.loc 1 700 3 is_stmt 1 view .LVU434
 1179              		.loc 1 700 13 is_stmt 0 view .LVU435
 1180 000e 1B01     		lsls	r3, r3, #4
 1181              	.LVL158:
 1182              		.loc 1 700 11 view .LVU436
 1183 0010 084C     		ldr	r4, .L84
 1184              	.LVL159:
 701:Drivers/STM32U5xx_HAL_Driver/Src/stm32u5xx_hal_exti.c ****   regval = *regaddr;
 1185              		.loc 1 701 3 is_stmt 1 view .LVU437
 1186              		.loc 1 701 10 is_stmt 0 view .LVU438
 1187 0012 1859     		ldr	r0, [r3, r4]
 1188              	.LVL160:
 702:Drivers/STM32U5xx_HAL_Driver/Src/stm32u5xx_hal_exti.c **** 
 703:Drivers/STM32U5xx_HAL_Driver/Src/stm32u5xx_hal_exti.c ****   /* Mask or set line */
 704:Drivers/STM32U5xx_HAL_Driver/Src/stm32u5xx_hal_exti.c ****   if ((LineAttributes & EXTI_LINE_PRIV) == EXTI_LINE_PRIV)
 1189              		.loc 1 704 3 is_stmt 1 view .LVU439
 1190              		.loc 1 704 6 is_stmt 0 view .LVU440
 1191 0014 40F2022C 		movw	ip, #514
 1192 0018 3CEA010C 		bics	ip, ip, r1
 1193 001c 05D0     		beq	.L83
 705:Drivers/STM32U5xx_HAL_Driver/Src/stm32u5xx_hal_exti.c ****   {
 706:Drivers/STM32U5xx_HAL_Driver/Src/stm32u5xx_hal_exti.c ****     regval |= maskline;
 707:Drivers/STM32U5xx_HAL_Driver/Src/stm32u5xx_hal_exti.c ****   }
 708:Drivers/STM32U5xx_HAL_Driver/Src/stm32u5xx_hal_exti.c ****   else if ((LineAttributes & EXTI_LINE_NPRIV) == EXTI_LINE_NPRIV)
 1194              		.loc 1 708 8 is_stmt 1 view .LVU441
 1195              		.loc 1 708 11 is_stmt 0 view .LVU442
 1196 001e 11F4007F 		tst	r1, #512
 1197 0022 03D0     		beq	.L81
 709:Drivers/STM32U5xx_HAL_Driver/Src/stm32u5xx_hal_exti.c ****   {
 710:Drivers/STM32U5xx_HAL_Driver/Src/stm32u5xx_hal_exti.c ****     regval &= ~maskline;
 1198              		.loc 1 710 5 is_stmt 1 view .LVU443
 1199              		.loc 1 710 12 is_stmt 0 view .LVU444
 1200 0024 20EA0200 		bic	r0, r0, r2
 1201              	.LVL161:
 1202              		.loc 1 710 12 view .LVU445
 1203 0028 00E0     		b	.L81
 1204              	.L83:
 706:Drivers/STM32U5xx_HAL_Driver/Src/stm32u5xx_hal_exti.c ****   }
 1205              		.loc 1 706 5 is_stmt 1 view .LVU446
 706:Drivers/STM32U5xx_HAL_Driver/Src/stm32u5xx_hal_exti.c ****   }
 1206              		.loc 1 706 12 is_stmt 0 view .LVU447
 1207 002a 1043     		orrs	r0, r0, r2
 1208              	.LVL162:
 1209              	.L81:
ARM GAS  C:\Users\Ya\AppData\Local\Temp\ccUtQRqv.s 			page 36


 711:Drivers/STM32U5xx_HAL_Driver/Src/stm32u5xx_hal_exti.c ****   }
 712:Drivers/STM32U5xx_HAL_Driver/Src/stm32u5xx_hal_exti.c ****   else
 713:Drivers/STM32U5xx_HAL_Driver/Src/stm32u5xx_hal_exti.c ****   {
 714:Drivers/STM32U5xx_HAL_Driver/Src/stm32u5xx_hal_exti.c ****     /* do nothing */
 715:Drivers/STM32U5xx_HAL_Driver/Src/stm32u5xx_hal_exti.c ****   }
 1210              		.loc 1 715 3 is_stmt 1 view .LVU448
 716:Drivers/STM32U5xx_HAL_Driver/Src/stm32u5xx_hal_exti.c **** 
 717:Drivers/STM32U5xx_HAL_Driver/Src/stm32u5xx_hal_exti.c ****   /* Store privilege or non-privilege attribute */
 718:Drivers/STM32U5xx_HAL_Driver/Src/stm32u5xx_hal_exti.c ****   *regaddr = regval;
 1211              		.loc 1 718 3 view .LVU449
 1212              		.loc 1 718 12 is_stmt 0 view .LVU450
 1213 002c 1851     		str	r0, [r3, r4]
 719:Drivers/STM32U5xx_HAL_Driver/Src/stm32u5xx_hal_exti.c **** 
 720:Drivers/STM32U5xx_HAL_Driver/Src/stm32u5xx_hal_exti.c **** #if defined (__ARM_FEATURE_CMSE) && (__ARM_FEATURE_CMSE == 3U)
 721:Drivers/STM32U5xx_HAL_Driver/Src/stm32u5xx_hal_exti.c **** 
 722:Drivers/STM32U5xx_HAL_Driver/Src/stm32u5xx_hal_exti.c ****   /* Configure secure or non-secure attributes */
 723:Drivers/STM32U5xx_HAL_Driver/Src/stm32u5xx_hal_exti.c ****   regaddr = (__IO uint32_t *)(&EXTI->SECCFGR1 + (EXTI_SECCFGR_OFFSET * offset));
 724:Drivers/STM32U5xx_HAL_Driver/Src/stm32u5xx_hal_exti.c ****   regval = *regaddr;
 725:Drivers/STM32U5xx_HAL_Driver/Src/stm32u5xx_hal_exti.c **** 
 726:Drivers/STM32U5xx_HAL_Driver/Src/stm32u5xx_hal_exti.c ****   /* Mask or set line */
 727:Drivers/STM32U5xx_HAL_Driver/Src/stm32u5xx_hal_exti.c ****   if ((LineAttributes & EXTI_LINE_SEC) == EXTI_LINE_SEC)
 728:Drivers/STM32U5xx_HAL_Driver/Src/stm32u5xx_hal_exti.c ****   {
 729:Drivers/STM32U5xx_HAL_Driver/Src/stm32u5xx_hal_exti.c ****     regval |= maskline;
 730:Drivers/STM32U5xx_HAL_Driver/Src/stm32u5xx_hal_exti.c ****   }
 731:Drivers/STM32U5xx_HAL_Driver/Src/stm32u5xx_hal_exti.c ****   else if ((LineAttributes & EXTI_LINE_NSEC) == EXTI_LINE_NSEC)
 732:Drivers/STM32U5xx_HAL_Driver/Src/stm32u5xx_hal_exti.c ****   {
 733:Drivers/STM32U5xx_HAL_Driver/Src/stm32u5xx_hal_exti.c ****     regval &= ~maskline;
 734:Drivers/STM32U5xx_HAL_Driver/Src/stm32u5xx_hal_exti.c ****   }
 735:Drivers/STM32U5xx_HAL_Driver/Src/stm32u5xx_hal_exti.c ****   else
 736:Drivers/STM32U5xx_HAL_Driver/Src/stm32u5xx_hal_exti.c ****   {
 737:Drivers/STM32U5xx_HAL_Driver/Src/stm32u5xx_hal_exti.c ****     /* do nothing */
 738:Drivers/STM32U5xx_HAL_Driver/Src/stm32u5xx_hal_exti.c ****   }
 739:Drivers/STM32U5xx_HAL_Driver/Src/stm32u5xx_hal_exti.c **** 
 740:Drivers/STM32U5xx_HAL_Driver/Src/stm32u5xx_hal_exti.c ****   /* Store secure or non-secure attribute */
 741:Drivers/STM32U5xx_HAL_Driver/Src/stm32u5xx_hal_exti.c ****   *regaddr = regval;
 742:Drivers/STM32U5xx_HAL_Driver/Src/stm32u5xx_hal_exti.c **** 
 743:Drivers/STM32U5xx_HAL_Driver/Src/stm32u5xx_hal_exti.c **** #endif /* __ARM_FEATURE_CMSE */
 744:Drivers/STM32U5xx_HAL_Driver/Src/stm32u5xx_hal_exti.c **** }
 1214              		.loc 1 744 1 view .LVU451
 1215 002e 5DF8044B 		ldr	r4, [sp], #4
 1216              		.cfi_restore 4
 1217              		.cfi_def_cfa_offset 0
 1218              	.LVL163:
 1219              		.loc 1 744 1 view .LVU452
 1220 0032 7047     		bx	lr
 1221              	.L85:
 1222              		.align	2
 1223              	.L84:
 1224 0034 18200246 		.word	1174544408
 1225              		.cfi_endproc
 1226              	.LFE349:
 1228              		.section	.text.HAL_EXTI_GetConfigLineAttributes,"ax",%progbits
 1229              		.align	1
 1230              		.global	HAL_EXTI_GetConfigLineAttributes
 1231              		.syntax unified
 1232              		.thumb
 1233              		.thumb_func
ARM GAS  C:\Users\Ya\AppData\Local\Temp\ccUtQRqv.s 			page 37


 1235              	HAL_EXTI_GetConfigLineAttributes:
 1236              	.LVL164:
 1237              	.LFB350:
 745:Drivers/STM32U5xx_HAL_Driver/Src/stm32u5xx_hal_exti.c **** 
 746:Drivers/STM32U5xx_HAL_Driver/Src/stm32u5xx_hal_exti.c **** /**
 747:Drivers/STM32U5xx_HAL_Driver/Src/stm32u5xx_hal_exti.c ****   * @brief  Get the EXTI line attribute(s).
 748:Drivers/STM32U5xx_HAL_Driver/Src/stm32u5xx_hal_exti.c ****   * @note   Secure and non-secure attributes are only available from secure state
 749:Drivers/STM32U5xx_HAL_Driver/Src/stm32u5xx_hal_exti.c ****   *         when the system implements the security (TZEN=1)
 750:Drivers/STM32U5xx_HAL_Driver/Src/stm32u5xx_hal_exti.c ****   * @param  ExtiLine Exti line number.
 751:Drivers/STM32U5xx_HAL_Driver/Src/stm32u5xx_hal_exti.c ****   *         This parameter can be from 0 to @ref EXTI_LINE_NB.
 752:Drivers/STM32U5xx_HAL_Driver/Src/stm32u5xx_hal_exti.c ****   * @param  pLineAttributes: pointer to return line attributes.
 753:Drivers/STM32U5xx_HAL_Driver/Src/stm32u5xx_hal_exti.c ****   * @retval HAL Status.
 754:Drivers/STM32U5xx_HAL_Driver/Src/stm32u5xx_hal_exti.c ****   */
 755:Drivers/STM32U5xx_HAL_Driver/Src/stm32u5xx_hal_exti.c **** HAL_StatusTypeDef HAL_EXTI_GetConfigLineAttributes(uint32_t ExtiLine, uint32_t *pLineAttributes)
 756:Drivers/STM32U5xx_HAL_Driver/Src/stm32u5xx_hal_exti.c **** {
 1238              		.loc 1 756 1 is_stmt 1 view -0
 1239              		.cfi_startproc
 1240              		@ args = 0, pretend = 0, frame = 0
 1241              		@ frame_needed = 0, uses_anonymous_args = 0
 1242              		@ link register save eliminated.
 757:Drivers/STM32U5xx_HAL_Driver/Src/stm32u5xx_hal_exti.c ****   const __IO uint32_t *regaddr;
 1243              		.loc 1 757 3 view .LVU454
 758:Drivers/STM32U5xx_HAL_Driver/Src/stm32u5xx_hal_exti.c ****   uint32_t linepos;
 1244              		.loc 1 758 3 view .LVU455
 759:Drivers/STM32U5xx_HAL_Driver/Src/stm32u5xx_hal_exti.c ****   uint32_t maskline;
 1245              		.loc 1 759 3 view .LVU456
 760:Drivers/STM32U5xx_HAL_Driver/Src/stm32u5xx_hal_exti.c ****   uint32_t offset;
 1246              		.loc 1 760 3 view .LVU457
 761:Drivers/STM32U5xx_HAL_Driver/Src/stm32u5xx_hal_exti.c ****   uint32_t attributes;
 1247              		.loc 1 761 3 view .LVU458
 762:Drivers/STM32U5xx_HAL_Driver/Src/stm32u5xx_hal_exti.c **** 
 763:Drivers/STM32U5xx_HAL_Driver/Src/stm32u5xx_hal_exti.c ****   /* Check null pointer */
 764:Drivers/STM32U5xx_HAL_Driver/Src/stm32u5xx_hal_exti.c ****   if (pLineAttributes == NULL)
 1248              		.loc 1 764 3 view .LVU459
 1249              		.loc 1 764 6 is_stmt 0 view .LVU460
 1250 0000 8C46     		mov	ip, r1
 1251 0002 99B1     		cbz	r1, .L89
 765:Drivers/STM32U5xx_HAL_Driver/Src/stm32u5xx_hal_exti.c ****   {
 766:Drivers/STM32U5xx_HAL_Driver/Src/stm32u5xx_hal_exti.c ****     return HAL_ERROR;
 767:Drivers/STM32U5xx_HAL_Driver/Src/stm32u5xx_hal_exti.c ****   }
 768:Drivers/STM32U5xx_HAL_Driver/Src/stm32u5xx_hal_exti.c **** 
 769:Drivers/STM32U5xx_HAL_Driver/Src/stm32u5xx_hal_exti.c ****   /* Check the parameters */
 770:Drivers/STM32U5xx_HAL_Driver/Src/stm32u5xx_hal_exti.c ****   assert_param(IS_EXTI_LINE(ExtiLine));
 1252              		.loc 1 770 3 is_stmt 1 view .LVU461
 771:Drivers/STM32U5xx_HAL_Driver/Src/stm32u5xx_hal_exti.c **** 
 772:Drivers/STM32U5xx_HAL_Driver/Src/stm32u5xx_hal_exti.c ****   /* Compute line register offset and line mask */
 773:Drivers/STM32U5xx_HAL_Driver/Src/stm32u5xx_hal_exti.c ****   offset = ((ExtiLine & EXTI_REG_MASK) >> EXTI_REG_SHIFT);
 1253              		.loc 1 773 3 view .LVU462
 1254              		.loc 1 773 10 is_stmt 0 view .LVU463
 1255 0004 C0F30042 		ubfx	r2, r0, #16, #1
 1256              	.LVL165:
 774:Drivers/STM32U5xx_HAL_Driver/Src/stm32u5xx_hal_exti.c ****   linepos = (ExtiLine & EXTI_PIN_MASK);
 1257              		.loc 1 774 3 is_stmt 1 view .LVU464
 1258              		.loc 1 774 11 is_stmt 0 view .LVU465
 1259 0008 00F01F00 		and	r0, r0, #31
 1260              	.LVL166:
 775:Drivers/STM32U5xx_HAL_Driver/Src/stm32u5xx_hal_exti.c ****   maskline = (1UL << linepos);
ARM GAS  C:\Users\Ya\AppData\Local\Temp\ccUtQRqv.s 			page 38


 1261              		.loc 1 775 3 is_stmt 1 view .LVU466
 1262              		.loc 1 775 12 is_stmt 0 view .LVU467
 1263 000c 0123     		movs	r3, #1
 1264 000e 8340     		lsls	r3, r3, r0
 1265              	.LVL167:
 776:Drivers/STM32U5xx_HAL_Driver/Src/stm32u5xx_hal_exti.c **** 
 777:Drivers/STM32U5xx_HAL_Driver/Src/stm32u5xx_hal_exti.c ****   /* Get privilege or non-privilege attribute */
 778:Drivers/STM32U5xx_HAL_Driver/Src/stm32u5xx_hal_exti.c ****   regaddr = (__IO uint32_t *)(&EXTI->PRIVCFGR1 + (EXTI_PRIVCFGR_OFFSET * offset));
 1266              		.loc 1 778 3 is_stmt 1 view .LVU468
 1267              		.loc 1 778 13 is_stmt 0 view .LVU469
 1268 0010 1201     		lsls	r2, r2, #4
 1269              	.LVL168:
 1270              		.loc 1 778 11 view .LVU470
 1271 0012 0749     		ldr	r1, .L91
 1272              	.LVL169:
 779:Drivers/STM32U5xx_HAL_Driver/Src/stm32u5xx_hal_exti.c **** 
 780:Drivers/STM32U5xx_HAL_Driver/Src/stm32u5xx_hal_exti.c ****   if ((*regaddr & maskline) != 0U)
 1273              		.loc 1 780 3 is_stmt 1 view .LVU471
 1274              		.loc 1 780 8 is_stmt 0 view .LVU472
 1275 0014 5258     		ldr	r2, [r2, r1]
 1276              	.LVL170:
 1277              		.loc 1 780 6 view .LVU473
 1278 0016 1A42     		tst	r2, r3
 1279 0018 05D0     		beq	.L90
 781:Drivers/STM32U5xx_HAL_Driver/Src/stm32u5xx_hal_exti.c ****   {
 782:Drivers/STM32U5xx_HAL_Driver/Src/stm32u5xx_hal_exti.c ****     attributes = EXTI_LINE_PRIV;
 1280              		.loc 1 782 16 view .LVU474
 1281 001a 40F20223 		movw	r3, #514
 1282              	.LVL171:
 1283              	.L88:
 783:Drivers/STM32U5xx_HAL_Driver/Src/stm32u5xx_hal_exti.c ****   }
 784:Drivers/STM32U5xx_HAL_Driver/Src/stm32u5xx_hal_exti.c ****   else
 785:Drivers/STM32U5xx_HAL_Driver/Src/stm32u5xx_hal_exti.c ****   {
 786:Drivers/STM32U5xx_HAL_Driver/Src/stm32u5xx_hal_exti.c ****     attributes = EXTI_LINE_NPRIV;
 787:Drivers/STM32U5xx_HAL_Driver/Src/stm32u5xx_hal_exti.c ****   }
 788:Drivers/STM32U5xx_HAL_Driver/Src/stm32u5xx_hal_exti.c **** 
 789:Drivers/STM32U5xx_HAL_Driver/Src/stm32u5xx_hal_exti.c **** #if defined (__ARM_FEATURE_CMSE) && (__ARM_FEATURE_CMSE == 3U)
 790:Drivers/STM32U5xx_HAL_Driver/Src/stm32u5xx_hal_exti.c **** 
 791:Drivers/STM32U5xx_HAL_Driver/Src/stm32u5xx_hal_exti.c ****   /* Get secure or non-secure attribute */
 792:Drivers/STM32U5xx_HAL_Driver/Src/stm32u5xx_hal_exti.c ****   regaddr = (__IO uint32_t *)(&EXTI->SECCFGR1 + (EXTI_SECCFGR_OFFSET * offset));
 793:Drivers/STM32U5xx_HAL_Driver/Src/stm32u5xx_hal_exti.c **** 
 794:Drivers/STM32U5xx_HAL_Driver/Src/stm32u5xx_hal_exti.c ****   if ((*regaddr & maskline) != 0U)
 795:Drivers/STM32U5xx_HAL_Driver/Src/stm32u5xx_hal_exti.c ****   {
 796:Drivers/STM32U5xx_HAL_Driver/Src/stm32u5xx_hal_exti.c ****     attributes |= EXTI_LINE_SEC;
 797:Drivers/STM32U5xx_HAL_Driver/Src/stm32u5xx_hal_exti.c ****   }
 798:Drivers/STM32U5xx_HAL_Driver/Src/stm32u5xx_hal_exti.c ****   else
 799:Drivers/STM32U5xx_HAL_Driver/Src/stm32u5xx_hal_exti.c ****   {
 800:Drivers/STM32U5xx_HAL_Driver/Src/stm32u5xx_hal_exti.c ****     attributes |= EXTI_LINE_NSEC;
 801:Drivers/STM32U5xx_HAL_Driver/Src/stm32u5xx_hal_exti.c ****   }
 802:Drivers/STM32U5xx_HAL_Driver/Src/stm32u5xx_hal_exti.c **** 
 803:Drivers/STM32U5xx_HAL_Driver/Src/stm32u5xx_hal_exti.c **** #endif /* __ARM_FEATURE_CMSE */
 804:Drivers/STM32U5xx_HAL_Driver/Src/stm32u5xx_hal_exti.c **** 
 805:Drivers/STM32U5xx_HAL_Driver/Src/stm32u5xx_hal_exti.c ****   /* return value */
 806:Drivers/STM32U5xx_HAL_Driver/Src/stm32u5xx_hal_exti.c ****   *pLineAttributes = attributes;
 1284              		.loc 1 806 3 is_stmt 1 view .LVU475
 1285              		.loc 1 806 20 is_stmt 0 view .LVU476
 1286 001e CCF80030 		str	r3, [ip]
ARM GAS  C:\Users\Ya\AppData\Local\Temp\ccUtQRqv.s 			page 39


 807:Drivers/STM32U5xx_HAL_Driver/Src/stm32u5xx_hal_exti.c **** 
 808:Drivers/STM32U5xx_HAL_Driver/Src/stm32u5xx_hal_exti.c ****   return HAL_OK;
 1287              		.loc 1 808 3 is_stmt 1 view .LVU477
 1288              		.loc 1 808 10 is_stmt 0 view .LVU478
 1289 0022 0020     		movs	r0, #0
 1290              	.LVL172:
 1291              		.loc 1 808 10 view .LVU479
 1292 0024 7047     		bx	lr
 1293              	.LVL173:
 1294              	.L90:
 786:Drivers/STM32U5xx_HAL_Driver/Src/stm32u5xx_hal_exti.c ****   }
 1295              		.loc 1 786 16 view .LVU480
 1296 0026 4FF40073 		mov	r3, #512
 1297              	.LVL174:
 786:Drivers/STM32U5xx_HAL_Driver/Src/stm32u5xx_hal_exti.c ****   }
 1298              		.loc 1 786 16 view .LVU481
 1299 002a F8E7     		b	.L88
 1300              	.LVL175:
 1301              	.L89:
 766:Drivers/STM32U5xx_HAL_Driver/Src/stm32u5xx_hal_exti.c ****   }
 1302              		.loc 1 766 12 view .LVU482
 1303 002c 0120     		movs	r0, #1
 1304              	.LVL176:
 809:Drivers/STM32U5xx_HAL_Driver/Src/stm32u5xx_hal_exti.c **** }
 1305              		.loc 1 809 1 view .LVU483
 1306 002e 7047     		bx	lr
 1307              	.L92:
 1308              		.align	2
 1309              	.L91:
 1310 0030 18200246 		.word	1174544408
 1311              		.cfi_endproc
 1312              	.LFE350:
 1314              		.text
 1315              	.Letext0:
 1316              		.file 2 "c:\\users\\ya\\appdata\\roaming\\code\\user\\globalstorage\\bmd.stm32-for-vscode\\@xpack-
 1317              		.file 3 "c:\\users\\ya\\appdata\\roaming\\code\\user\\globalstorage\\bmd.stm32-for-vscode\\@xpack-
 1318              		.file 4 "Drivers/CMSIS/Device/ST/STM32U5xx/Include/stm32u575xx.h"
 1319              		.file 5 "Drivers/STM32U5xx_HAL_Driver/Inc/stm32u5xx_hal_def.h"
 1320              		.file 6 "Drivers/STM32U5xx_HAL_Driver/Inc/stm32u5xx_hal_exti.h"
ARM GAS  C:\Users\Ya\AppData\Local\Temp\ccUtQRqv.s 			page 40

