ARM GAS  C:\Users\Ya\AppData\Local\Temp\ccLrGXJ9.s 			page 1


   1              		.cpu cortex-m33
   2              		.arch armv8-m.main
   3              		.fpu fpv5-sp-d16
   4              		.arch_extension dsp
   5              		.eabi_attribute 27, 1
   6              		.eabi_attribute 28, 1
   7              		.eabi_attribute 20, 1
   8              		.eabi_attribute 21, 1
   9              		.eabi_attribute 23, 3
  10              		.eabi_attribute 24, 1
  11              		.eabi_attribute 25, 1
  12              		.eabi_attribute 26, 1
  13              		.eabi_attribute 30, 1
  14              		.eabi_attribute 34, 1
  15              		.eabi_attribute 18, 4
  16              		.file	"stm32u5xx_hal_pwr_ex.c"
  17              		.text
  18              	.Ltext0:
  19              		.cfi_sections	.debug_frame
  20              		.file 1 "Drivers/STM32U5xx_HAL_Driver/Src/stm32u5xx_hal_pwr_ex.c"
  21              		.section	.text.HAL_PWREx_ControlVoltageScaling,"ax",%progbits
  22              		.align	1
  23              		.global	HAL_PWREx_ControlVoltageScaling
  24              		.syntax unified
  25              		.thumb
  26              		.thumb_func
  28              	HAL_PWREx_ControlVoltageScaling:
  29              	.LVL0:
  30              	.LFB340:
   1:Drivers/STM32U5xx_HAL_Driver/Src/stm32u5xx_hal_pwr_ex.c **** /**
   2:Drivers/STM32U5xx_HAL_Driver/Src/stm32u5xx_hal_pwr_ex.c ****   ******************************************************************************
   3:Drivers/STM32U5xx_HAL_Driver/Src/stm32u5xx_hal_pwr_ex.c ****   * @file    stm32u5xx_hal_pwr_ex.c
   4:Drivers/STM32U5xx_HAL_Driver/Src/stm32u5xx_hal_pwr_ex.c ****   * @author  MCD Application Team
   5:Drivers/STM32U5xx_HAL_Driver/Src/stm32u5xx_hal_pwr_ex.c ****   * @brief   Extended PWR HAL module driver.
   6:Drivers/STM32U5xx_HAL_Driver/Src/stm32u5xx_hal_pwr_ex.c ****   *          This file provides firmware functions to manage the following
   7:Drivers/STM32U5xx_HAL_Driver/Src/stm32u5xx_hal_pwr_ex.c ****   *          functionalities of the Power Controller extension peripheral :
   8:Drivers/STM32U5xx_HAL_Driver/Src/stm32u5xx_hal_pwr_ex.c ****   *           + Power Supply Control Functions
   9:Drivers/STM32U5xx_HAL_Driver/Src/stm32u5xx_hal_pwr_ex.c ****   *           + Low Power Control Functions
  10:Drivers/STM32U5xx_HAL_Driver/Src/stm32u5xx_hal_pwr_ex.c ****   *           + Voltage Monitoring Functions
  11:Drivers/STM32U5xx_HAL_Driver/Src/stm32u5xx_hal_pwr_ex.c ****   *           + Memories Retention Functions
  12:Drivers/STM32U5xx_HAL_Driver/Src/stm32u5xx_hal_pwr_ex.c ****   *           + I/O Pull-Up Pull-Down Configuration Functions
  13:Drivers/STM32U5xx_HAL_Driver/Src/stm32u5xx_hal_pwr_ex.c ****   *
  14:Drivers/STM32U5xx_HAL_Driver/Src/stm32u5xx_hal_pwr_ex.c ****   ******************************************************************************
  15:Drivers/STM32U5xx_HAL_Driver/Src/stm32u5xx_hal_pwr_ex.c ****   * @attention
  16:Drivers/STM32U5xx_HAL_Driver/Src/stm32u5xx_hal_pwr_ex.c ****   *
  17:Drivers/STM32U5xx_HAL_Driver/Src/stm32u5xx_hal_pwr_ex.c ****   * Copyright (c) 2021 STMicroelectronics.
  18:Drivers/STM32U5xx_HAL_Driver/Src/stm32u5xx_hal_pwr_ex.c ****   * All rights reserved.
  19:Drivers/STM32U5xx_HAL_Driver/Src/stm32u5xx_hal_pwr_ex.c ****   *
  20:Drivers/STM32U5xx_HAL_Driver/Src/stm32u5xx_hal_pwr_ex.c ****   * This software is licensed under terms that can be found in the LICENSE file
  21:Drivers/STM32U5xx_HAL_Driver/Src/stm32u5xx_hal_pwr_ex.c ****   * in the root directory of this software component.
  22:Drivers/STM32U5xx_HAL_Driver/Src/stm32u5xx_hal_pwr_ex.c ****   * If no LICENSE file comes with this software, it is provided AS-IS.
  23:Drivers/STM32U5xx_HAL_Driver/Src/stm32u5xx_hal_pwr_ex.c ****   *
  24:Drivers/STM32U5xx_HAL_Driver/Src/stm32u5xx_hal_pwr_ex.c ****   ******************************************************************************
  25:Drivers/STM32U5xx_HAL_Driver/Src/stm32u5xx_hal_pwr_ex.c ****   @verbatim
  26:Drivers/STM32U5xx_HAL_Driver/Src/stm32u5xx_hal_pwr_ex.c ****   ==============================================================================
  27:Drivers/STM32U5xx_HAL_Driver/Src/stm32u5xx_hal_pwr_ex.c ****                         ##### How to use this driver #####
  28:Drivers/STM32U5xx_HAL_Driver/Src/stm32u5xx_hal_pwr_ex.c ****   ==============================================================================
ARM GAS  C:\Users\Ya\AppData\Local\Temp\ccLrGXJ9.s 			page 2


  29:Drivers/STM32U5xx_HAL_Driver/Src/stm32u5xx_hal_pwr_ex.c ****   [..]
  30:Drivers/STM32U5xx_HAL_Driver/Src/stm32u5xx_hal_pwr_ex.c ****    (#) Call HAL_PWREx_ControlVoltageScaling() and HAL_PWREx_GetVoltageRange() to
  31:Drivers/STM32U5xx_HAL_Driver/Src/stm32u5xx_hal_pwr_ex.c ****        set / get the voltage scaling range.
  32:Drivers/STM32U5xx_HAL_Driver/Src/stm32u5xx_hal_pwr_ex.c ****       (+) Voltage scaling can be one of the following values :
  33:Drivers/STM32U5xx_HAL_Driver/Src/stm32u5xx_hal_pwr_ex.c ****              (++) voltage output scale 1 : 1V2
  34:Drivers/STM32U5xx_HAL_Driver/Src/stm32u5xx_hal_pwr_ex.c ****                   => Used when system clock frequency is up to 160 MHz
  35:Drivers/STM32U5xx_HAL_Driver/Src/stm32u5xx_hal_pwr_ex.c ****              (++) voltage output scale 2 : 1V1
  36:Drivers/STM32U5xx_HAL_Driver/Src/stm32u5xx_hal_pwr_ex.c ****                   => Used when system clock frequency is up to 100 MHz
  37:Drivers/STM32U5xx_HAL_Driver/Src/stm32u5xx_hal_pwr_ex.c ****              (++) voltage output scale 3 : 1V0
  38:Drivers/STM32U5xx_HAL_Driver/Src/stm32u5xx_hal_pwr_ex.c ****                   => Used when system clock frequency is up to 50 MHz
  39:Drivers/STM32U5xx_HAL_Driver/Src/stm32u5xx_hal_pwr_ex.c ****              (++) voltage output scale 4 : 0V9
  40:Drivers/STM32U5xx_HAL_Driver/Src/stm32u5xx_hal_pwr_ex.c ****                   => Used when system clock frequency is up to 24 MHz
  41:Drivers/STM32U5xx_HAL_Driver/Src/stm32u5xx_hal_pwr_ex.c **** 
  42:Drivers/STM32U5xx_HAL_Driver/Src/stm32u5xx_hal_pwr_ex.c ****    (#) Call HAL_PWREx_EnableFastSoftStart() and HAL_PWREx_DisableFastSoftStart()
  43:Drivers/STM32U5xx_HAL_Driver/Src/stm32u5xx_hal_pwr_ex.c ****        to enable / disable the fast software startup for the current regulator.
  44:Drivers/STM32U5xx_HAL_Driver/Src/stm32u5xx_hal_pwr_ex.c **** 
  45:Drivers/STM32U5xx_HAL_Driver/Src/stm32u5xx_hal_pwr_ex.c ****    (#) Call HAL_PWREx_EnterSTOP1Mode() function to enter the whole system to
  46:Drivers/STM32U5xx_HAL_Driver/Src/stm32u5xx_hal_pwr_ex.c ****        Stop 1 mode. Wake-up from Stop 1 mode could be following to an event or
  47:Drivers/STM32U5xx_HAL_Driver/Src/stm32u5xx_hal_pwr_ex.c ****        an interrupt according to low power mode intrinsic request called
  48:Drivers/STM32U5xx_HAL_Driver/Src/stm32u5xx_hal_pwr_ex.c ****        (__WFI() or __WFE()). (Regulator state on U5 devices is managed
  49:Drivers/STM32U5xx_HAL_Driver/Src/stm32u5xx_hal_pwr_ex.c ****        internally but regulator parameter is kept for product compatibility).
  50:Drivers/STM32U5xx_HAL_Driver/Src/stm32u5xx_hal_pwr_ex.c **** 
  51:Drivers/STM32U5xx_HAL_Driver/Src/stm32u5xx_hal_pwr_ex.c ****    (#) Call HAL_PWREx_EnterSTOP2Mode() function to enter the whole system to
  52:Drivers/STM32U5xx_HAL_Driver/Src/stm32u5xx_hal_pwr_ex.c ****        Stop 2 mode. Wake-up from Stop 2 mode could be following to an event or
  53:Drivers/STM32U5xx_HAL_Driver/Src/stm32u5xx_hal_pwr_ex.c ****        an interrupt according to low power mode intrinsic request called
  54:Drivers/STM32U5xx_HAL_Driver/Src/stm32u5xx_hal_pwr_ex.c ****        (__WFI() or __WFE()). (Regulator state on U5 devices is managed
  55:Drivers/STM32U5xx_HAL_Driver/Src/stm32u5xx_hal_pwr_ex.c ****        internally but regulator parameter is kept for product compatibility).
  56:Drivers/STM32U5xx_HAL_Driver/Src/stm32u5xx_hal_pwr_ex.c **** 
  57:Drivers/STM32U5xx_HAL_Driver/Src/stm32u5xx_hal_pwr_ex.c ****    (#) Call HAL_PWREx_EnterSTOP3Mode() function to enter the whole system to
  58:Drivers/STM32U5xx_HAL_Driver/Src/stm32u5xx_hal_pwr_ex.c ****        Stop 3 mode. Wake-up from Stop 3 mode could be following to an event or
  59:Drivers/STM32U5xx_HAL_Driver/Src/stm32u5xx_hal_pwr_ex.c ****        an interrupt according to low power mode intrinsic request called
  60:Drivers/STM32U5xx_HAL_Driver/Src/stm32u5xx_hal_pwr_ex.c ****        (__WFI() or __WFE()). (Regulator state on U5 devices is managed
  61:Drivers/STM32U5xx_HAL_Driver/Src/stm32u5xx_hal_pwr_ex.c ****        internally but regulator parameter is kept for product compatibility).
  62:Drivers/STM32U5xx_HAL_Driver/Src/stm32u5xx_hal_pwr_ex.c **** 
  63:Drivers/STM32U5xx_HAL_Driver/Src/stm32u5xx_hal_pwr_ex.c ****    (#) Call HAL_PWREx_EnterSHUTDOWNMode() function to enter the whole system in
  64:Drivers/STM32U5xx_HAL_Driver/Src/stm32u5xx_hal_pwr_ex.c ****        Shutdown mode. Wake-up from Shutdown mode can be following to an external
  65:Drivers/STM32U5xx_HAL_Driver/Src/stm32u5xx_hal_pwr_ex.c ****        reset (NRST pin), a WKUP pin event (configurable rising or falling edge),
  66:Drivers/STM32U5xx_HAL_Driver/Src/stm32u5xx_hal_pwr_ex.c ****        or an RTC event occurs (alarm, periodic wakeup, timestamp), or a tamper
  67:Drivers/STM32U5xx_HAL_Driver/Src/stm32u5xx_hal_pwr_ex.c ****        detection.
  68:Drivers/STM32U5xx_HAL_Driver/Src/stm32u5xx_hal_pwr_ex.c **** 
  69:Drivers/STM32U5xx_HAL_Driver/Src/stm32u5xx_hal_pwr_ex.c ****    (#) Call HAL_PWREx_ConfigSRDDomain() to force in Run mode or to enter in Stop
  70:Drivers/STM32U5xx_HAL_Driver/Src/stm32u5xx_hal_pwr_ex.c ****        mode Smart Run Domain when the system enters Stop mode (Stop 0/1/2).
  71:Drivers/STM32U5xx_HAL_Driver/Src/stm32u5xx_hal_pwr_ex.c **** 
  72:Drivers/STM32U5xx_HAL_Driver/Src/stm32u5xx_hal_pwr_ex.c ****    (#) Call HAL_PWREx_EnableUltraLowPowerMode() and
  73:Drivers/STM32U5xx_HAL_Driver/Src/stm32u5xx_hal_pwr_ex.c ****        HAL_PWREx_DisableUltraLowPowerMode() to enable / disable the BOR ultra
  74:Drivers/STM32U5xx_HAL_Driver/Src/stm32u5xx_hal_pwr_ex.c ****        low power mode.
  75:Drivers/STM32U5xx_HAL_Driver/Src/stm32u5xx_hal_pwr_ex.c **** 
  76:Drivers/STM32U5xx_HAL_Driver/Src/stm32u5xx_hal_pwr_ex.c ****    (#) Call HAL_PWREx_S3WU_IRQHandler() function to handle the PWR Stop 3 wake
  77:Drivers/STM32U5xx_HAL_Driver/Src/stm32u5xx_hal_pwr_ex.c ****        up interrupt request.
  78:Drivers/STM32U5xx_HAL_Driver/Src/stm32u5xx_hal_pwr_ex.c **** 
  79:Drivers/STM32U5xx_HAL_Driver/Src/stm32u5xx_hal_pwr_ex.c ****    (#) Call HAL_PWREx_EnableBatteryCharging() and
  80:Drivers/STM32U5xx_HAL_Driver/Src/stm32u5xx_hal_pwr_ex.c ****        HAL_PWREx_DisableBatteryCharging() to enable / disable the battery
  81:Drivers/STM32U5xx_HAL_Driver/Src/stm32u5xx_hal_pwr_ex.c ****        charging capability when VDD alimentation is available.
  82:Drivers/STM32U5xx_HAL_Driver/Src/stm32u5xx_hal_pwr_ex.c **** 
  83:Drivers/STM32U5xx_HAL_Driver/Src/stm32u5xx_hal_pwr_ex.c ****    (#) Call HAL_PWREx_EnableVddUSB(), HAL_PWREx_EnableVddIO2() and
  84:Drivers/STM32U5xx_HAL_Driver/Src/stm32u5xx_hal_pwr_ex.c ****        HAL_PWREx_EnableVddA() to enable respectively VDDUSB, VDDIO2 and VDDA
  85:Drivers/STM32U5xx_HAL_Driver/Src/stm32u5xx_hal_pwr_ex.c ****        electrical and logical isolation.
ARM GAS  C:\Users\Ya\AppData\Local\Temp\ccLrGXJ9.s 			page 3


  86:Drivers/STM32U5xx_HAL_Driver/Src/stm32u5xx_hal_pwr_ex.c ****        It is recommended to disable VDDUSB, VDDIO2 and VDDA electrical and
  87:Drivers/STM32U5xx_HAL_Driver/Src/stm32u5xx_hal_pwr_ex.c ****        logical isolation through HAL_PWREx_DisableVddUSB(),
  88:Drivers/STM32U5xx_HAL_Driver/Src/stm32u5xx_hal_pwr_ex.c ****        HAL_PWREx_DisableVddIO2() and HAL_PWREx_DisableVddA().
  89:Drivers/STM32U5xx_HAL_Driver/Src/stm32u5xx_hal_pwr_ex.c **** 
  90:Drivers/STM32U5xx_HAL_Driver/Src/stm32u5xx_hal_pwr_ex.c ****    (#) Call HAL_PWREx_ConfigPVM() after setting parameters to be configured
  91:Drivers/STM32U5xx_HAL_Driver/Src/stm32u5xx_hal_pwr_ex.c ****        (event mode and PVD type) in order to set up the Peripheral Voltage
  92:Drivers/STM32U5xx_HAL_Driver/Src/stm32u5xx_hal_pwr_ex.c ****        Monitor, then use HAL_PWREx_EnableUVM(), HAL_PWREx_EnableIO2VM(),
  93:Drivers/STM32U5xx_HAL_Driver/Src/stm32u5xx_hal_pwr_ex.c ****        HAL_PWREx_EnableAVM1() and HAL_PWREx_EnableAVM2() functions to start the
  94:Drivers/STM32U5xx_HAL_Driver/Src/stm32u5xx_hal_pwr_ex.c ****        PVM VDDx monitoring and use HAL_PWREx_DisableUVM(),
  95:Drivers/STM32U5xx_HAL_Driver/Src/stm32u5xx_hal_pwr_ex.c ****        HAL_PWREx_DisableIO2VM(), HAL_PWREx_DisableAVM1() and
  96:Drivers/STM32U5xx_HAL_Driver/Src/stm32u5xx_hal_pwr_ex.c ****        HAL_PWREx_DisableAVM2() to stop the PVM VDDx monitoring.
  97:Drivers/STM32U5xx_HAL_Driver/Src/stm32u5xx_hal_pwr_ex.c ****        (+) PVM monitored voltages are :
  98:Drivers/STM32U5xx_HAL_Driver/Src/stm32u5xx_hal_pwr_ex.c ****              (++) VDDUSB versus 1V2
  99:Drivers/STM32U5xx_HAL_Driver/Src/stm32u5xx_hal_pwr_ex.c ****              (++) VDDIO2 versus 0V9
 100:Drivers/STM32U5xx_HAL_Driver/Src/stm32u5xx_hal_pwr_ex.c ****              (++) VDDA versus 1V6
 101:Drivers/STM32U5xx_HAL_Driver/Src/stm32u5xx_hal_pwr_ex.c ****              (++) VDDA versus 1V8
 102:Drivers/STM32U5xx_HAL_Driver/Src/stm32u5xx_hal_pwr_ex.c **** 
 103:Drivers/STM32U5xx_HAL_Driver/Src/stm32u5xx_hal_pwr_ex.c ****    (#) Call HAL_PWREx_EnableUSBHSTranceiverSupply() and
 104:Drivers/STM32U5xx_HAL_Driver/Src/stm32u5xx_hal_pwr_ex.c ****        HAL_PWREx_DisableUSBHSTranceiverSupply() to enable / disable the internal
 105:Drivers/STM32U5xx_HAL_Driver/Src/stm32u5xx_hal_pwr_ex.c ****        USB HS transceiver supply.
 106:Drivers/STM32U5xx_HAL_Driver/Src/stm32u5xx_hal_pwr_ex.c ****        (+) This feature is available only for STM32U59xxx, STM32U5Axxx, STM32U5Fxxx
 107:Drivers/STM32U5xx_HAL_Driver/Src/stm32u5xx_hal_pwr_ex.c ****            and STM32U5Gxxx devices
 108:Drivers/STM32U5xx_HAL_Driver/Src/stm32u5xx_hal_pwr_ex.c **** 
 109:Drivers/STM32U5xx_HAL_Driver/Src/stm32u5xx_hal_pwr_ex.c ****    (#) Call HAL_PWREx_EnableOTGHSPHYLowPowerRetention() and
 110:Drivers/STM32U5xx_HAL_Driver/Src/stm32u5xx_hal_pwr_ex.c ****        HAL_PWREx_DisableOTGHSPHYLowPowerRetention() to enable / disable OTG_HS PHY power during
 111:Drivers/STM32U5xx_HAL_Driver/Src/stm32u5xx_hal_pwr_ex.c ****        low power modes (Stop2, Stop3 and Standby).
 112:Drivers/STM32U5xx_HAL_Driver/Src/stm32u5xx_hal_pwr_ex.c ****        (+) This feature is available only for STM32U59xxx, STM32U5Axxx, STM32U5Fxxx
 113:Drivers/STM32U5xx_HAL_Driver/Src/stm32u5xx_hal_pwr_ex.c ****            and STM32U5Gxxx devices
 114:Drivers/STM32U5xx_HAL_Driver/Src/stm32u5xx_hal_pwr_ex.c **** 
 115:Drivers/STM32U5xx_HAL_Driver/Src/stm32u5xx_hal_pwr_ex.c ****    (#) Call HAL_PWREx_EnableVDD11USB() and
 116:Drivers/STM32U5xx_HAL_Driver/Src/stm32u5xx_hal_pwr_ex.c ****        HAL_PWREx_DisableVDD11USB() to enable/ disable the VDD11USB.
 117:Drivers/STM32U5xx_HAL_Driver/Src/stm32u5xx_hal_pwr_ex.c ****        (+) This feature is available only for STM32U59xxx, STM32U5Axxx, STM32U5Fxxx
 118:Drivers/STM32U5xx_HAL_Driver/Src/stm32u5xx_hal_pwr_ex.c ****            and STM32U5Gxxx devices
 119:Drivers/STM32U5xx_HAL_Driver/Src/stm32u5xx_hal_pwr_ex.c **** 
 120:Drivers/STM32U5xx_HAL_Driver/Src/stm32u5xx_hal_pwr_ex.c ****    (#) Call HAL_PWREx_EnableMonitoring() and HAL_PWREx_DisableMonitoring() to
 121:Drivers/STM32U5xx_HAL_Driver/Src/stm32u5xx_hal_pwr_ex.c ****        enable / disable the VBAT and temperature monitoring.
 122:Drivers/STM32U5xx_HAL_Driver/Src/stm32u5xx_hal_pwr_ex.c **** 
 123:Drivers/STM32U5xx_HAL_Driver/Src/stm32u5xx_hal_pwr_ex.c ****    (#) Call HAL_PWREx_EnableUCPDStandbyMode() and
 124:Drivers/STM32U5xx_HAL_Driver/Src/stm32u5xx_hal_pwr_ex.c ****        HAL_PWREx_DisableUCPDStandbyMode() to enable / disable the UCPD
 125:Drivers/STM32U5xx_HAL_Driver/Src/stm32u5xx_hal_pwr_ex.c ****        configuration memorization in Standby mode.
 126:Drivers/STM32U5xx_HAL_Driver/Src/stm32u5xx_hal_pwr_ex.c **** 
 127:Drivers/STM32U5xx_HAL_Driver/Src/stm32u5xx_hal_pwr_ex.c ****    (#) Call HAL_PWREx_EnableUCPDDeadBattery() and
 128:Drivers/STM32U5xx_HAL_Driver/Src/stm32u5xx_hal_pwr_ex.c ****        HAL_PWREx_DisableUCPDDeadBattery() to enable / disable the dead battery
 129:Drivers/STM32U5xx_HAL_Driver/Src/stm32u5xx_hal_pwr_ex.c ****        behavior.
 130:Drivers/STM32U5xx_HAL_Driver/Src/stm32u5xx_hal_pwr_ex.c **** 
 131:Drivers/STM32U5xx_HAL_Driver/Src/stm32u5xx_hal_pwr_ex.c ****    (#) Call HAL_PWREx_PVD_PVM_IRQHandler() function to handle the PWR PVD and
 132:Drivers/STM32U5xx_HAL_Driver/Src/stm32u5xx_hal_pwr_ex.c ****        PVM interrupt request.
 133:Drivers/STM32U5xx_HAL_Driver/Src/stm32u5xx_hal_pwr_ex.c **** 
 134:Drivers/STM32U5xx_HAL_Driver/Src/stm32u5xx_hal_pwr_ex.c ****    (#) Call HAL_PWREx_EnableSRAM2ContentStandbyRetention() and
 135:Drivers/STM32U5xx_HAL_Driver/Src/stm32u5xx_hal_pwr_ex.c ****        HAL_PWREx_DisableSRAM2ContentStandbyRetention() to
 136:Drivers/STM32U5xx_HAL_Driver/Src/stm32u5xx_hal_pwr_ex.c ****        enable / disable the SRAM2 content retention in Stop 3 and Standby low
 137:Drivers/STM32U5xx_HAL_Driver/Src/stm32u5xx_hal_pwr_ex.c ****        power modes.
 138:Drivers/STM32U5xx_HAL_Driver/Src/stm32u5xx_hal_pwr_ex.c **** 
 139:Drivers/STM32U5xx_HAL_Driver/Src/stm32u5xx_hal_pwr_ex.c ****    (#) Call HAL_PWREx_EnableRAMsContentStopRetention() and
 140:Drivers/STM32U5xx_HAL_Driver/Src/stm32u5xx_hal_pwr_ex.c ****        HAL_PWREx_DisableRAMsContentStopRetention() to
 141:Drivers/STM32U5xx_HAL_Driver/Src/stm32u5xx_hal_pwr_ex.c ****        enable / disable the RAMs content retention in Stop mode (Stop 0/1/2/3).
 142:Drivers/STM32U5xx_HAL_Driver/Src/stm32u5xx_hal_pwr_ex.c ****        (+) Retained RAM can be one of the following RAMs :
ARM GAS  C:\Users\Ya\AppData\Local\Temp\ccLrGXJ9.s 			page 4


 143:Drivers/STM32U5xx_HAL_Driver/Src/stm32u5xx_hal_pwr_ex.c ****              (++) SRAM1
 144:Drivers/STM32U5xx_HAL_Driver/Src/stm32u5xx_hal_pwr_ex.c ****              (++) SRAM2
 145:Drivers/STM32U5xx_HAL_Driver/Src/stm32u5xx_hal_pwr_ex.c ****              (++) SRAM3 (available only for STM32U575xx, STM32U585xx, STM32U59xxx,
 146:Drivers/STM32U5xx_HAL_Driver/Src/stm32u5xx_hal_pwr_ex.c ****                   STM32U5Axxx, STM32U5Fxxx and STM32U5Gxxx devices)
 147:Drivers/STM32U5xx_HAL_Driver/Src/stm32u5xx_hal_pwr_ex.c ****              (++) SRAM4
 148:Drivers/STM32U5xx_HAL_Driver/Src/stm32u5xx_hal_pwr_ex.c ****              (++) SRAM5 (available only for STM32U59xxx, STM32U5Axxx,
 149:Drivers/STM32U5xx_HAL_Driver/Src/stm32u5xx_hal_pwr_ex.c ****                   STM32U5Fxxx and STM32U5Gxxx devices)
 150:Drivers/STM32U5xx_HAL_Driver/Src/stm32u5xx_hal_pwr_ex.c ****              (++) SRAM6 (available only for STM32U5Fxxx and STM32U5Gxxx devices)
 151:Drivers/STM32U5xx_HAL_Driver/Src/stm32u5xx_hal_pwr_ex.c ****              (++) ICACHE
 152:Drivers/STM32U5xx_HAL_Driver/Src/stm32u5xx_hal_pwr_ex.c ****              (++) DMA2DRAM (available only for STM32U575xx, STM32U585xx, STM32U59xxx,
 153:Drivers/STM32U5xx_HAL_Driver/Src/stm32u5xx_hal_pwr_ex.c ****                   STM32U5Axxx, STM32U5Fxxx and STM32U5Gxxx devices)
 154:Drivers/STM32U5xx_HAL_Driver/Src/stm32u5xx_hal_pwr_ex.c ****              (++) PKA32RAM
 155:Drivers/STM32U5xx_HAL_Driver/Src/stm32u5xx_hal_pwr_ex.c ****              (++) DCACHE1
 156:Drivers/STM32U5xx_HAL_Driver/Src/stm32u5xx_hal_pwr_ex.c ****              (++) FMAC
 157:Drivers/STM32U5xx_HAL_Driver/Src/stm32u5xx_hal_pwr_ex.c ****              (++) FDCAN
 158:Drivers/STM32U5xx_HAL_Driver/Src/stm32u5xx_hal_pwr_ex.c ****              (++) USB
 159:Drivers/STM32U5xx_HAL_Driver/Src/stm32u5xx_hal_pwr_ex.c ****              (++) DCACHE2 (available only for STM32U59xxx, STM32U5Axxx,
 160:Drivers/STM32U5xx_HAL_Driver/Src/stm32u5xx_hal_pwr_ex.c ****                   STM32U5Fxxx and STM32U5Gxxx devices)
 161:Drivers/STM32U5xx_HAL_Driver/Src/stm32u5xx_hal_pwr_ex.c ****              (++) LTDC (available only for STM32U59xxx, STM32U5Axxx,
 162:Drivers/STM32U5xx_HAL_Driver/Src/stm32u5xx_hal_pwr_ex.c ****                   STM32U5Fxxx and STM32U5Gxxx devices)
 163:Drivers/STM32U5xx_HAL_Driver/Src/stm32u5xx_hal_pwr_ex.c ****              (++) GFXMMU (available only for STM32U59xxx, STM32U5Axxx,
 164:Drivers/STM32U5xx_HAL_Driver/Src/stm32u5xx_hal_pwr_ex.c ****                   STM32U5Fxxx and STM32U5Gxxx devices)
 165:Drivers/STM32U5xx_HAL_Driver/Src/stm32u5xx_hal_pwr_ex.c ****              (++) DSI (available only for STM32U59xxx, STM32U5Axxx,
 166:Drivers/STM32U5xx_HAL_Driver/Src/stm32u5xx_hal_pwr_ex.c ****                   STM32U5Fxxx and STM32U5Gxxx devices)
 167:Drivers/STM32U5xx_HAL_Driver/Src/stm32u5xx_hal_pwr_ex.c ****              (++) JPEG (available only for STM32U5Fxxx and STM32U5Gxxx devices)
 168:Drivers/STM32U5xx_HAL_Driver/Src/stm32u5xx_hal_pwr_ex.c **** 
 169:Drivers/STM32U5xx_HAL_Driver/Src/stm32u5xx_hal_pwr_ex.c ****    (#) Call HAL_PWREx_EnableRAMsContentRunRetention() and
 170:Drivers/STM32U5xx_HAL_Driver/Src/stm32u5xx_hal_pwr_ex.c ****        HAL_PWREx_DisableRAMsContentRunRetention() to
 171:Drivers/STM32U5xx_HAL_Driver/Src/stm32u5xx_hal_pwr_ex.c ****        enable / disable the RAMs content retention in Run mode.
 172:Drivers/STM32U5xx_HAL_Driver/Src/stm32u5xx_hal_pwr_ex.c ****        (+) Retained RAM can be one of the following RAMs :
 173:Drivers/STM32U5xx_HAL_Driver/Src/stm32u5xx_hal_pwr_ex.c ****              (++) SRAM1
 174:Drivers/STM32U5xx_HAL_Driver/Src/stm32u5xx_hal_pwr_ex.c ****              (++) SRAM2
 175:Drivers/STM32U5xx_HAL_Driver/Src/stm32u5xx_hal_pwr_ex.c ****              (++) SRAM3 (available only for STM32U575xx, STM32U585xx, STM32U59xxx,
 176:Drivers/STM32U5xx_HAL_Driver/Src/stm32u5xx_hal_pwr_ex.c ****                   STM32U5Axxx, STM32U5Fxxx and STM32U5Gxxx devices)
 177:Drivers/STM32U5xx_HAL_Driver/Src/stm32u5xx_hal_pwr_ex.c ****              (++) SRAM4
 178:Drivers/STM32U5xx_HAL_Driver/Src/stm32u5xx_hal_pwr_ex.c ****              (++) SRAM5 (available only for STM32U59xxx, STM32U5Axxx,
 179:Drivers/STM32U5xx_HAL_Driver/Src/stm32u5xx_hal_pwr_ex.c ****                   STM32U5Fxxx and STM32U5Gxxx devices)
 180:Drivers/STM32U5xx_HAL_Driver/Src/stm32u5xx_hal_pwr_ex.c ****              (++) SRAM6 (available only for STM32U5Fxxx and STM32U5Gxxx devices)
 181:Drivers/STM32U5xx_HAL_Driver/Src/stm32u5xx_hal_pwr_ex.c **** 
 182:Drivers/STM32U5xx_HAL_Driver/Src/stm32u5xx_hal_pwr_ex.c ****    (#) Call HAL_PWREx_EnableFlashFastWakeUp() and
 183:Drivers/STM32U5xx_HAL_Driver/Src/stm32u5xx_hal_pwr_ex.c ****        HAL_PWREx_DisableFlashFastWakeUp() to enable / disable the flash memory
 184:Drivers/STM32U5xx_HAL_Driver/Src/stm32u5xx_hal_pwr_ex.c ****        fast wakeup from Stop mode (Stop 0/1).
 185:Drivers/STM32U5xx_HAL_Driver/Src/stm32u5xx_hal_pwr_ex.c **** 
 186:Drivers/STM32U5xx_HAL_Driver/Src/stm32u5xx_hal_pwr_ex.c ****    (#) Call HAL_PWREx_EnableSRAM4FastWakeUp() and
 187:Drivers/STM32U5xx_HAL_Driver/Src/stm32u5xx_hal_pwr_ex.c ****        HAL_PWREx_DisableSRAM4FastWakeUp() to enable / disable the SRAM4 memory
 188:Drivers/STM32U5xx_HAL_Driver/Src/stm32u5xx_hal_pwr_ex.c ****        fast wakeup from Stop mode (Stop 0/1/2).
 189:Drivers/STM32U5xx_HAL_Driver/Src/stm32u5xx_hal_pwr_ex.c **** 
 190:Drivers/STM32U5xx_HAL_Driver/Src/stm32u5xx_hal_pwr_ex.c ****    (#) Call HAL_PWREx_EnableBkupRAMRetention() and
 191:Drivers/STM32U5xx_HAL_Driver/Src/stm32u5xx_hal_pwr_ex.c ****        HAL_PWREx_DisableBkupRAMRetention() to enable / disable the Backup RAM
 192:Drivers/STM32U5xx_HAL_Driver/Src/stm32u5xx_hal_pwr_ex.c ****        content retention in Standby, Shutdown and VBAT modes.
 193:Drivers/STM32U5xx_HAL_Driver/Src/stm32u5xx_hal_pwr_ex.c **** 
 194:Drivers/STM32U5xx_HAL_Driver/Src/stm32u5xx_hal_pwr_ex.c ****    (#) Call HAL_PWREx_EnablePullUpPullDownConfig() and
 195:Drivers/STM32U5xx_HAL_Driver/Src/stm32u5xx_hal_pwr_ex.c ****        HAL_PWREx_DisablePullUpPullDownConfig() to I/O enable / disable pull-up
 196:Drivers/STM32U5xx_HAL_Driver/Src/stm32u5xx_hal_pwr_ex.c ****        and pull-down configuration.
 197:Drivers/STM32U5xx_HAL_Driver/Src/stm32u5xx_hal_pwr_ex.c **** 
 198:Drivers/STM32U5xx_HAL_Driver/Src/stm32u5xx_hal_pwr_ex.c ****    (#) Call HAL_PWREx_EnableGPIOPullUp() and HAL_PWREx_EnableGPIOPullDown() to
 199:Drivers/STM32U5xx_HAL_Driver/Src/stm32u5xx_hal_pwr_ex.c ****        apply respectively pull-up and pull-down to selected I/O.
ARM GAS  C:\Users\Ya\AppData\Local\Temp\ccLrGXJ9.s 			page 5


 200:Drivers/STM32U5xx_HAL_Driver/Src/stm32u5xx_hal_pwr_ex.c ****        Call HAL_PWREx_DisableGPIOPullUp() and HAL_PWREx_DisableGPIOPullDown() to
 201:Drivers/STM32U5xx_HAL_Driver/Src/stm32u5xx_hal_pwr_ex.c ****        disable applied respectively pull-up and pull-down to selected I/O.
 202:Drivers/STM32U5xx_HAL_Driver/Src/stm32u5xx_hal_pwr_ex.c **** 
 203:Drivers/STM32U5xx_HAL_Driver/Src/stm32u5xx_hal_pwr_ex.c ****   @endverbatim
 204:Drivers/STM32U5xx_HAL_Driver/Src/stm32u5xx_hal_pwr_ex.c ****   ******************************************************************************
 205:Drivers/STM32U5xx_HAL_Driver/Src/stm32u5xx_hal_pwr_ex.c ****   */
 206:Drivers/STM32U5xx_HAL_Driver/Src/stm32u5xx_hal_pwr_ex.c **** 
 207:Drivers/STM32U5xx_HAL_Driver/Src/stm32u5xx_hal_pwr_ex.c **** /* Includes ------------------------------------------------------------------*/
 208:Drivers/STM32U5xx_HAL_Driver/Src/stm32u5xx_hal_pwr_ex.c **** #include "stm32u5xx_hal.h"
 209:Drivers/STM32U5xx_HAL_Driver/Src/stm32u5xx_hal_pwr_ex.c **** 
 210:Drivers/STM32U5xx_HAL_Driver/Src/stm32u5xx_hal_pwr_ex.c **** /** @addtogroup STM32U5xx_HAL_Driver
 211:Drivers/STM32U5xx_HAL_Driver/Src/stm32u5xx_hal_pwr_ex.c ****   * @{
 212:Drivers/STM32U5xx_HAL_Driver/Src/stm32u5xx_hal_pwr_ex.c ****   */
 213:Drivers/STM32U5xx_HAL_Driver/Src/stm32u5xx_hal_pwr_ex.c **** 
 214:Drivers/STM32U5xx_HAL_Driver/Src/stm32u5xx_hal_pwr_ex.c **** /** @defgroup PWREx PWREx
 215:Drivers/STM32U5xx_HAL_Driver/Src/stm32u5xx_hal_pwr_ex.c ****   * @brief    PWR Extended HAL module driver
 216:Drivers/STM32U5xx_HAL_Driver/Src/stm32u5xx_hal_pwr_ex.c ****   * @{
 217:Drivers/STM32U5xx_HAL_Driver/Src/stm32u5xx_hal_pwr_ex.c ****   */
 218:Drivers/STM32U5xx_HAL_Driver/Src/stm32u5xx_hal_pwr_ex.c **** 
 219:Drivers/STM32U5xx_HAL_Driver/Src/stm32u5xx_hal_pwr_ex.c **** #if defined (HAL_PWR_MODULE_ENABLED)
 220:Drivers/STM32U5xx_HAL_Driver/Src/stm32u5xx_hal_pwr_ex.c **** 
 221:Drivers/STM32U5xx_HAL_Driver/Src/stm32u5xx_hal_pwr_ex.c **** /* Private typedef -----------------------------------------------------------*/
 222:Drivers/STM32U5xx_HAL_Driver/Src/stm32u5xx_hal_pwr_ex.c **** /* Private define ------------------------------------------------------------*/
 223:Drivers/STM32U5xx_HAL_Driver/Src/stm32u5xx_hal_pwr_ex.c **** 
 224:Drivers/STM32U5xx_HAL_Driver/Src/stm32u5xx_hal_pwr_ex.c **** /** @defgroup PWR_Extended_Private_Defines PWR Extended Private Defines
 225:Drivers/STM32U5xx_HAL_Driver/Src/stm32u5xx_hal_pwr_ex.c ****   * @{
 226:Drivers/STM32U5xx_HAL_Driver/Src/stm32u5xx_hal_pwr_ex.c ****   */
 227:Drivers/STM32U5xx_HAL_Driver/Src/stm32u5xx_hal_pwr_ex.c **** #if defined (PWR_PUCRJ_PU0)
 228:Drivers/STM32U5xx_HAL_Driver/Src/stm32u5xx_hal_pwr_ex.c **** /* PORTI pins mask */
 229:Drivers/STM32U5xx_HAL_Driver/Src/stm32u5xx_hal_pwr_ex.c **** #define PWR_PORTI_AVAILABLE_PINS  (0xFFFFU)
 230:Drivers/STM32U5xx_HAL_Driver/Src/stm32u5xx_hal_pwr_ex.c **** /* PORTJ pins mask */
 231:Drivers/STM32U5xx_HAL_Driver/Src/stm32u5xx_hal_pwr_ex.c **** #define PWR_PORTJ_AVAILABLE_PINS  (0x0FFFU)
 232:Drivers/STM32U5xx_HAL_Driver/Src/stm32u5xx_hal_pwr_ex.c **** #else
 233:Drivers/STM32U5xx_HAL_Driver/Src/stm32u5xx_hal_pwr_ex.c **** /* PORTI pins mask */
 234:Drivers/STM32U5xx_HAL_Driver/Src/stm32u5xx_hal_pwr_ex.c **** #define PWR_PORTI_AVAILABLE_PINS  (0x00FFU)
 235:Drivers/STM32U5xx_HAL_Driver/Src/stm32u5xx_hal_pwr_ex.c **** #endif /* defined (PWR_PUCRJ_PU0) */
 236:Drivers/STM32U5xx_HAL_Driver/Src/stm32u5xx_hal_pwr_ex.c **** 
 237:Drivers/STM32U5xx_HAL_Driver/Src/stm32u5xx_hal_pwr_ex.c **** /* Time out value of flags setting */
 238:Drivers/STM32U5xx_HAL_Driver/Src/stm32u5xx_hal_pwr_ex.c **** #define PWR_FLAG_SETTING_DELAY    (0x32U)
 239:Drivers/STM32U5xx_HAL_Driver/Src/stm32u5xx_hal_pwr_ex.c **** 
 240:Drivers/STM32U5xx_HAL_Driver/Src/stm32u5xx_hal_pwr_ex.c **** /** @defgroup PWR_PVM_Mode_Mask PWR PVM Mode Mask
 241:Drivers/STM32U5xx_HAL_Driver/Src/stm32u5xx_hal_pwr_ex.c ****   * @{
 242:Drivers/STM32U5xx_HAL_Driver/Src/stm32u5xx_hal_pwr_ex.c ****   */
 243:Drivers/STM32U5xx_HAL_Driver/Src/stm32u5xx_hal_pwr_ex.c **** #define PVM_RISING_EDGE  (0x01U)  /*!< Mask for rising edge set as PVM trigger                 */
 244:Drivers/STM32U5xx_HAL_Driver/Src/stm32u5xx_hal_pwr_ex.c **** #define PVM_FALLING_EDGE (0x02U)  /*!< Mask for falling edge set as PVM trigger                */
 245:Drivers/STM32U5xx_HAL_Driver/Src/stm32u5xx_hal_pwr_ex.c **** #define PVM_MODE_IT      (0x04U)  /*!< Mask for interruption yielded by PVM threshold crossing */
 246:Drivers/STM32U5xx_HAL_Driver/Src/stm32u5xx_hal_pwr_ex.c **** #define PVM_MODE_EVT     (0x08U)  /*!< Mask for event yielded by PVM threshold crossing        */
 247:Drivers/STM32U5xx_HAL_Driver/Src/stm32u5xx_hal_pwr_ex.c **** /**
 248:Drivers/STM32U5xx_HAL_Driver/Src/stm32u5xx_hal_pwr_ex.c ****   * @}
 249:Drivers/STM32U5xx_HAL_Driver/Src/stm32u5xx_hal_pwr_ex.c ****   */
 250:Drivers/STM32U5xx_HAL_Driver/Src/stm32u5xx_hal_pwr_ex.c **** 
 251:Drivers/STM32U5xx_HAL_Driver/Src/stm32u5xx_hal_pwr_ex.c **** /**
 252:Drivers/STM32U5xx_HAL_Driver/Src/stm32u5xx_hal_pwr_ex.c ****   * @}
 253:Drivers/STM32U5xx_HAL_Driver/Src/stm32u5xx_hal_pwr_ex.c ****   */
 254:Drivers/STM32U5xx_HAL_Driver/Src/stm32u5xx_hal_pwr_ex.c **** 
 255:Drivers/STM32U5xx_HAL_Driver/Src/stm32u5xx_hal_pwr_ex.c **** /* Private macro -------------------------------------------------------------*/
 256:Drivers/STM32U5xx_HAL_Driver/Src/stm32u5xx_hal_pwr_ex.c **** /* Private variables ---------------------------------------------------------*/
ARM GAS  C:\Users\Ya\AppData\Local\Temp\ccLrGXJ9.s 			page 6


 257:Drivers/STM32U5xx_HAL_Driver/Src/stm32u5xx_hal_pwr_ex.c **** /* Private function prototypes -----------------------------------------------*/
 258:Drivers/STM32U5xx_HAL_Driver/Src/stm32u5xx_hal_pwr_ex.c **** /* Exported functions --------------------------------------------------------*/
 259:Drivers/STM32U5xx_HAL_Driver/Src/stm32u5xx_hal_pwr_ex.c **** 
 260:Drivers/STM32U5xx_HAL_Driver/Src/stm32u5xx_hal_pwr_ex.c **** /** @defgroup PWREx_Exported_Functions PWR Extended Exported Functions
 261:Drivers/STM32U5xx_HAL_Driver/Src/stm32u5xx_hal_pwr_ex.c ****   * @{
 262:Drivers/STM32U5xx_HAL_Driver/Src/stm32u5xx_hal_pwr_ex.c ****   */
 263:Drivers/STM32U5xx_HAL_Driver/Src/stm32u5xx_hal_pwr_ex.c **** 
 264:Drivers/STM32U5xx_HAL_Driver/Src/stm32u5xx_hal_pwr_ex.c **** /** @defgroup PWREx_Exported_Functions_Group1 Power Supply Control Functions
 265:Drivers/STM32U5xx_HAL_Driver/Src/stm32u5xx_hal_pwr_ex.c ****   * @brief    Power supply control functions
 266:Drivers/STM32U5xx_HAL_Driver/Src/stm32u5xx_hal_pwr_ex.c ****   *
 267:Drivers/STM32U5xx_HAL_Driver/Src/stm32u5xx_hal_pwr_ex.c **** @verbatim
 268:Drivers/STM32U5xx_HAL_Driver/Src/stm32u5xx_hal_pwr_ex.c ****  ===============================================================================
 269:Drivers/STM32U5xx_HAL_Driver/Src/stm32u5xx_hal_pwr_ex.c ****                   ##### Power supply control functions #####
 270:Drivers/STM32U5xx_HAL_Driver/Src/stm32u5xx_hal_pwr_ex.c ****  ===============================================================================
 271:Drivers/STM32U5xx_HAL_Driver/Src/stm32u5xx_hal_pwr_ex.c ****     [..]
 272:Drivers/STM32U5xx_HAL_Driver/Src/stm32u5xx_hal_pwr_ex.c ****       This section provides functions allowing to control power supply.
 273:Drivers/STM32U5xx_HAL_Driver/Src/stm32u5xx_hal_pwr_ex.c **** 
 274:Drivers/STM32U5xx_HAL_Driver/Src/stm32u5xx_hal_pwr_ex.c ****     [..]
 275:Drivers/STM32U5xx_HAL_Driver/Src/stm32u5xx_hal_pwr_ex.c ****       (+) The STM32U5 Series devices embed two regulators : one LDO (linear
 276:Drivers/STM32U5xx_HAL_Driver/Src/stm32u5xx_hal_pwr_ex.c ****           voltage regulator) and one SMPS (step down converter) in parallel to
 277:Drivers/STM32U5xx_HAL_Driver/Src/stm32u5xx_hal_pwr_ex.c ****           provide the VCORE supply for digital peripherals, SRAM1, SRAM2, SRAM3
 278:Drivers/STM32U5xx_HAL_Driver/Src/stm32u5xx_hal_pwr_ex.c ****           and SRAM4 and embedded Flash memory.
 279:Drivers/STM32U5xx_HAL_Driver/Src/stm32u5xx_hal_pwr_ex.c **** 
 280:Drivers/STM32U5xx_HAL_Driver/Src/stm32u5xx_hal_pwr_ex.c ****       (+) The SMPS allows the power consumption to be reduced but some
 281:Drivers/STM32U5xx_HAL_Driver/Src/stm32u5xx_hal_pwr_ex.c ****           peripherals can be perturbed by the noise generated by the SMPS,
 282:Drivers/STM32U5xx_HAL_Driver/Src/stm32u5xx_hal_pwr_ex.c ****           requiring the application to switch to LDO when running this
 283:Drivers/STM32U5xx_HAL_Driver/Src/stm32u5xx_hal_pwr_ex.c ****           peripheral in order to reach the best performances.
 284:Drivers/STM32U5xx_HAL_Driver/Src/stm32u5xx_hal_pwr_ex.c **** 
 285:Drivers/STM32U5xx_HAL_Driver/Src/stm32u5xx_hal_pwr_ex.c ****       (+) The LDO and the SMPS regulators have two modes: Main regulator mode
 286:Drivers/STM32U5xx_HAL_Driver/Src/stm32u5xx_hal_pwr_ex.c ****           (used when performance is needed), and Low-power regulator mode. LDO
 287:Drivers/STM32U5xx_HAL_Driver/Src/stm32u5xx_hal_pwr_ex.c ****           or SMPS can be used in all voltage scaling ranges, and in all Stop
 288:Drivers/STM32U5xx_HAL_Driver/Src/stm32u5xx_hal_pwr_ex.c ****           modes.
 289:Drivers/STM32U5xx_HAL_Driver/Src/stm32u5xx_hal_pwr_ex.c **** 
 290:Drivers/STM32U5xx_HAL_Driver/Src/stm32u5xx_hal_pwr_ex.c ****       (+) After reset, the regulator is the LDO, in Range 4. Switching to SMPS
 291:Drivers/STM32U5xx_HAL_Driver/Src/stm32u5xx_hal_pwr_ex.c ****           provides lower consumption in particular at high VDD voltage. It is
 292:Drivers/STM32U5xx_HAL_Driver/Src/stm32u5xx_hal_pwr_ex.c ****           possible to switch from LDO to SMPS, or from SMPS to LDO on the fly in
 293:Drivers/STM32U5xx_HAL_Driver/Src/stm32u5xx_hal_pwr_ex.c ****           any range, by configuring the REGSEL bit. It is recommended to switch
 294:Drivers/STM32U5xx_HAL_Driver/Src/stm32u5xx_hal_pwr_ex.c ****           first to SMPS before changing the voltage range.
 295:Drivers/STM32U5xx_HAL_Driver/Src/stm32u5xx_hal_pwr_ex.c **** 
 296:Drivers/STM32U5xx_HAL_Driver/Src/stm32u5xx_hal_pwr_ex.c ****       (+) When exiting the Stop or Standby modes, the regulator is the same than
 297:Drivers/STM32U5xx_HAL_Driver/Src/stm32u5xx_hal_pwr_ex.c ****           when entering low power modes. The voltage range is the Range 4.
 298:Drivers/STM32U5xx_HAL_Driver/Src/stm32u5xx_hal_pwr_ex.c **** 
 299:Drivers/STM32U5xx_HAL_Driver/Src/stm32u5xx_hal_pwr_ex.c ****       (+) Both regulators can provide four different voltages (voltage scaling)
 300:Drivers/STM32U5xx_HAL_Driver/Src/stm32u5xx_hal_pwr_ex.c ****           and can operate in Stop modes.
 301:Drivers/STM32U5xx_HAL_Driver/Src/stm32u5xx_hal_pwr_ex.c ****           Voltage scaling ranges can be one of the following values :
 302:Drivers/STM32U5xx_HAL_Driver/Src/stm32u5xx_hal_pwr_ex.c ****              (++) voltage output scale 1 : 1V2
 303:Drivers/STM32U5xx_HAL_Driver/Src/stm32u5xx_hal_pwr_ex.c ****                   => Used when system clock frequency is up to 160 MHz
 304:Drivers/STM32U5xx_HAL_Driver/Src/stm32u5xx_hal_pwr_ex.c ****              (++) voltage output scale 2 : 1V1
 305:Drivers/STM32U5xx_HAL_Driver/Src/stm32u5xx_hal_pwr_ex.c ****                   => Used when system clock frequency is up to 100 MHz
 306:Drivers/STM32U5xx_HAL_Driver/Src/stm32u5xx_hal_pwr_ex.c ****              (++) voltage output scale 3 : 1V0
 307:Drivers/STM32U5xx_HAL_Driver/Src/stm32u5xx_hal_pwr_ex.c ****                   => Used when system clock frequency is up to 50 MHz
 308:Drivers/STM32U5xx_HAL_Driver/Src/stm32u5xx_hal_pwr_ex.c ****              (++) voltage output scale 4 : 0V9
 309:Drivers/STM32U5xx_HAL_Driver/Src/stm32u5xx_hal_pwr_ex.c ****                   => Used when system clock frequency is up to 24 MHz
 310:Drivers/STM32U5xx_HAL_Driver/Src/stm32u5xx_hal_pwr_ex.c **** 
 311:Drivers/STM32U5xx_HAL_Driver/Src/stm32u5xx_hal_pwr_ex.c **** @endverbatim
 312:Drivers/STM32U5xx_HAL_Driver/Src/stm32u5xx_hal_pwr_ex.c ****   * @{
 313:Drivers/STM32U5xx_HAL_Driver/Src/stm32u5xx_hal_pwr_ex.c ****   */
ARM GAS  C:\Users\Ya\AppData\Local\Temp\ccLrGXJ9.s 			page 7


 314:Drivers/STM32U5xx_HAL_Driver/Src/stm32u5xx_hal_pwr_ex.c **** 
 315:Drivers/STM32U5xx_HAL_Driver/Src/stm32u5xx_hal_pwr_ex.c **** /**
 316:Drivers/STM32U5xx_HAL_Driver/Src/stm32u5xx_hal_pwr_ex.c ****   * @brief  Configure the main internal regulator output voltage to achieve
 317:Drivers/STM32U5xx_HAL_Driver/Src/stm32u5xx_hal_pwr_ex.c ****   *         a tradeoff between performance and power consumption.
 318:Drivers/STM32U5xx_HAL_Driver/Src/stm32u5xx_hal_pwr_ex.c ****   * @param  VoltageScaling : Specifies the regulator output voltage scale.
 319:Drivers/STM32U5xx_HAL_Driver/Src/stm32u5xx_hal_pwr_ex.c ****   *                          This parameter can be one of the following values :
 320:Drivers/STM32U5xx_HAL_Driver/Src/stm32u5xx_hal_pwr_ex.c ****   *                          @arg @ref PWR_REGULATOR_VOLTAGE_SCALE1 : Regulator voltage output scal
 321:Drivers/STM32U5xx_HAL_Driver/Src/stm32u5xx_hal_pwr_ex.c ****   *                                                                   Provides a typical output vol
 322:Drivers/STM32U5xx_HAL_Driver/Src/stm32u5xx_hal_pwr_ex.c ****   *                                                                   Used when system clock freque
 323:Drivers/STM32U5xx_HAL_Driver/Src/stm32u5xx_hal_pwr_ex.c ****   *                          @arg @ref PWR_REGULATOR_VOLTAGE_SCALE2 : Regulator voltage output scal
 324:Drivers/STM32U5xx_HAL_Driver/Src/stm32u5xx_hal_pwr_ex.c ****   *                                                                   Provides a typical output vol
 325:Drivers/STM32U5xx_HAL_Driver/Src/stm32u5xx_hal_pwr_ex.c ****   *                                                                   Used when system clock freque
 326:Drivers/STM32U5xx_HAL_Driver/Src/stm32u5xx_hal_pwr_ex.c ****   *                          @arg @ref PWR_REGULATOR_VOLTAGE_SCALE3 : Regulator voltage output scal
 327:Drivers/STM32U5xx_HAL_Driver/Src/stm32u5xx_hal_pwr_ex.c ****   *                                                                   Provides a typical output vol
 328:Drivers/STM32U5xx_HAL_Driver/Src/stm32u5xx_hal_pwr_ex.c ****   *                                                                   Used when system clock freque
 329:Drivers/STM32U5xx_HAL_Driver/Src/stm32u5xx_hal_pwr_ex.c ****   *                          @arg @ref PWR_REGULATOR_VOLTAGE_SCALE4 : Regulator voltage output scal
 330:Drivers/STM32U5xx_HAL_Driver/Src/stm32u5xx_hal_pwr_ex.c ****   *                                                                   Provides a typical output vol
 331:Drivers/STM32U5xx_HAL_Driver/Src/stm32u5xx_hal_pwr_ex.c ****   *                                                                   Used when system clock freque
 332:Drivers/STM32U5xx_HAL_Driver/Src/stm32u5xx_hal_pwr_ex.c ****   * @note  Before moving to voltage scaling 2, it is mandatory to ensure that
 333:Drivers/STM32U5xx_HAL_Driver/Src/stm32u5xx_hal_pwr_ex.c ****   *        the system frequency is between 50 MHz and 100 MHz.
 334:Drivers/STM32U5xx_HAL_Driver/Src/stm32u5xx_hal_pwr_ex.c ****   * @note  Before moving to voltage scaling 3, it is mandatory to ensure that
 335:Drivers/STM32U5xx_HAL_Driver/Src/stm32u5xx_hal_pwr_ex.c ****   *        the system frequency is between 24 MHz and 50 MHz.
 336:Drivers/STM32U5xx_HAL_Driver/Src/stm32u5xx_hal_pwr_ex.c ****   * @note  Before moving to voltage scaling 4, it is mandatory to ensure that
 337:Drivers/STM32U5xx_HAL_Driver/Src/stm32u5xx_hal_pwr_ex.c ****   *        the system frequency is below 24 MHz.
 338:Drivers/STM32U5xx_HAL_Driver/Src/stm32u5xx_hal_pwr_ex.c ****   * @retval HAL Status.
 339:Drivers/STM32U5xx_HAL_Driver/Src/stm32u5xx_hal_pwr_ex.c ****   */
 340:Drivers/STM32U5xx_HAL_Driver/Src/stm32u5xx_hal_pwr_ex.c **** HAL_StatusTypeDef HAL_PWREx_ControlVoltageScaling(uint32_t VoltageScaling)
 341:Drivers/STM32U5xx_HAL_Driver/Src/stm32u5xx_hal_pwr_ex.c **** {
  31              		.loc 1 341 1 view -0
  32              		.cfi_startproc
  33              		@ args = 0, pretend = 0, frame = 0
  34              		@ frame_needed = 0, uses_anonymous_args = 0
  35              		@ link register save eliminated.
 342:Drivers/STM32U5xx_HAL_Driver/Src/stm32u5xx_hal_pwr_ex.c ****   uint32_t timeout;
  36              		.loc 1 342 3 view .LVU1
 343:Drivers/STM32U5xx_HAL_Driver/Src/stm32u5xx_hal_pwr_ex.c ****   uint32_t vos_old;
  37              		.loc 1 343 3 view .LVU2
 344:Drivers/STM32U5xx_HAL_Driver/Src/stm32u5xx_hal_pwr_ex.c **** 
 345:Drivers/STM32U5xx_HAL_Driver/Src/stm32u5xx_hal_pwr_ex.c ****   /* Check the parameter */
 346:Drivers/STM32U5xx_HAL_Driver/Src/stm32u5xx_hal_pwr_ex.c ****   assert_param(IS_PWR_VOLTAGE_SCALING_RANGE(VoltageScaling));
  38              		.loc 1 346 3 view .LVU3
 347:Drivers/STM32U5xx_HAL_Driver/Src/stm32u5xx_hal_pwr_ex.c **** 
 348:Drivers/STM32U5xx_HAL_Driver/Src/stm32u5xx_hal_pwr_ex.c ****   /* Get the current voltage scale applied */
 349:Drivers/STM32U5xx_HAL_Driver/Src/stm32u5xx_hal_pwr_ex.c ****   vos_old = READ_BIT(PWR->SVMSR, PWR_SVMSR_ACTVOS);
  39              		.loc 1 349 3 view .LVU4
  40              		.loc 1 349 13 is_stmt 0 view .LVU5
  41 0000 244B     		ldr	r3, .L15
  42 0002 DB6B     		ldr	r3, [r3, #60]
  43              		.loc 1 349 11 view .LVU6
  44 0004 03F44033 		and	r3, r3, #196608
  45              	.LVL1:
 350:Drivers/STM32U5xx_HAL_Driver/Src/stm32u5xx_hal_pwr_ex.c **** 
 351:Drivers/STM32U5xx_HAL_Driver/Src/stm32u5xx_hal_pwr_ex.c ****   /* No change, nothing to do */
 352:Drivers/STM32U5xx_HAL_Driver/Src/stm32u5xx_hal_pwr_ex.c ****   if (vos_old == VoltageScaling)
  46              		.loc 1 352 3 is_stmt 1 view .LVU7
  47              		.loc 1 352 6 is_stmt 0 view .LVU8
  48 0008 8342     		cmp	r3, r0
ARM GAS  C:\Users\Ya\AppData\Local\Temp\ccLrGXJ9.s 			page 8


  49 000a 19D0     		beq	.L14
 353:Drivers/STM32U5xx_HAL_Driver/Src/stm32u5xx_hal_pwr_ex.c ****   {
 354:Drivers/STM32U5xx_HAL_Driver/Src/stm32u5xx_hal_pwr_ex.c ****     /* Enable USB BOOST after wake up from Stop mode */
 355:Drivers/STM32U5xx_HAL_Driver/Src/stm32u5xx_hal_pwr_ex.c ****     if (VoltageScaling > PWR_REGULATOR_VOLTAGE_SCALE3)
 356:Drivers/STM32U5xx_HAL_Driver/Src/stm32u5xx_hal_pwr_ex.c ****     {
 357:Drivers/STM32U5xx_HAL_Driver/Src/stm32u5xx_hal_pwr_ex.c ****       /* Enable USB BOOST */
 358:Drivers/STM32U5xx_HAL_Driver/Src/stm32u5xx_hal_pwr_ex.c ****       SET_BIT(PWR->VOSR, PWR_VOSR_BOOSTEN);
 359:Drivers/STM32U5xx_HAL_Driver/Src/stm32u5xx_hal_pwr_ex.c ****     }
 360:Drivers/STM32U5xx_HAL_Driver/Src/stm32u5xx_hal_pwr_ex.c **** 
 361:Drivers/STM32U5xx_HAL_Driver/Src/stm32u5xx_hal_pwr_ex.c ****     return HAL_OK;
 362:Drivers/STM32U5xx_HAL_Driver/Src/stm32u5xx_hal_pwr_ex.c ****   }
 363:Drivers/STM32U5xx_HAL_Driver/Src/stm32u5xx_hal_pwr_ex.c **** 
 364:Drivers/STM32U5xx_HAL_Driver/Src/stm32u5xx_hal_pwr_ex.c ****   /* Check voltage scaling level */
 365:Drivers/STM32U5xx_HAL_Driver/Src/stm32u5xx_hal_pwr_ex.c ****   /*
 366:Drivers/STM32U5xx_HAL_Driver/Src/stm32u5xx_hal_pwr_ex.c ****    *  The Embedded power distribution (EPOD) must be enabled before switching to
 367:Drivers/STM32U5xx_HAL_Driver/Src/stm32u5xx_hal_pwr_ex.c ****    *  voltage scale 1 / 2 from voltage scale lower.
 368:Drivers/STM32U5xx_HAL_Driver/Src/stm32u5xx_hal_pwr_ex.c ****    */
 369:Drivers/STM32U5xx_HAL_Driver/Src/stm32u5xx_hal_pwr_ex.c ****   if (VoltageScaling > PWR_REGULATOR_VOLTAGE_SCALE3)
  50              		.loc 1 369 3 is_stmt 1 view .LVU9
  51              		.loc 1 369 6 is_stmt 0 view .LVU10
  52 000c B0F5803F 		cmp	r0, #65536
  53 0010 20D9     		bls	.L5
 370:Drivers/STM32U5xx_HAL_Driver/Src/stm32u5xx_hal_pwr_ex.c ****   {
 371:Drivers/STM32U5xx_HAL_Driver/Src/stm32u5xx_hal_pwr_ex.c ****     MODIFY_REG(PWR->VOSR, (PWR_VOSR_VOS | PWR_VOSR_BOOSTEN), (VoltageScaling | PWR_VOSR_BOOSTEN));
  54              		.loc 1 371 5 is_stmt 1 view .LVU11
  55 0012 204A     		ldr	r2, .L15
  56 0014 D368     		ldr	r3, [r2, #12]
  57              	.LVL2:
  58              		.loc 1 371 5 is_stmt 0 view .LVU12
  59 0016 23F4E023 		bic	r3, r3, #458752
  60 001a 0343     		orrs	r3, r3, r0
  61 001c 43F48023 		orr	r3, r3, #262144
  62 0020 D360     		str	r3, [r2, #12]
  63              	.L6:
 372:Drivers/STM32U5xx_HAL_Driver/Src/stm32u5xx_hal_pwr_ex.c ****   }
 373:Drivers/STM32U5xx_HAL_Driver/Src/stm32u5xx_hal_pwr_ex.c ****   else
 374:Drivers/STM32U5xx_HAL_Driver/Src/stm32u5xx_hal_pwr_ex.c ****   {
 375:Drivers/STM32U5xx_HAL_Driver/Src/stm32u5xx_hal_pwr_ex.c ****     MODIFY_REG(PWR->VOSR, (PWR_VOSR_VOS | PWR_VOSR_BOOSTEN), VoltageScaling);
 376:Drivers/STM32U5xx_HAL_Driver/Src/stm32u5xx_hal_pwr_ex.c ****   }
 377:Drivers/STM32U5xx_HAL_Driver/Src/stm32u5xx_hal_pwr_ex.c **** 
 378:Drivers/STM32U5xx_HAL_Driver/Src/stm32u5xx_hal_pwr_ex.c ****   /* Wait until VOSRDY is raised */
 379:Drivers/STM32U5xx_HAL_Driver/Src/stm32u5xx_hal_pwr_ex.c ****   timeout = ((PWR_FLAG_SETTING_DELAY * (SystemCoreClock / 1000U)) / 1000U) + 1U;
  64              		.loc 1 379 3 is_stmt 1 view .LVU13
  65              		.loc 1 379 57 is_stmt 0 view .LVU14
  66 0022 1D4B     		ldr	r3, .L15+4
  67 0024 1B68     		ldr	r3, [r3]
  68 0026 1D4A     		ldr	r2, .L15+8
  69 0028 A2FB0313 		umull	r1, r3, r2, r3
  70 002c 9B09     		lsrs	r3, r3, #6
  71              		.loc 1 379 38 view .LVU15
  72 002e 3221     		movs	r1, #50
  73 0030 01FB03F3 		mul	r3, r1, r3
  74              		.loc 1 379 67 view .LVU16
  75 0034 A2FB0323 		umull	r2, r3, r2, r3
  76 0038 9B09     		lsrs	r3, r3, #6
  77              		.loc 1 379 11 view .LVU17
  78 003a 0133     		adds	r3, r3, #1
ARM GAS  C:\Users\Ya\AppData\Local\Temp\ccLrGXJ9.s 			page 9


  79              	.LVL3:
 380:Drivers/STM32U5xx_HAL_Driver/Src/stm32u5xx_hal_pwr_ex.c ****   while (HAL_IS_BIT_CLR(PWR->VOSR, PWR_VOSR_VOSRDY) && (timeout != 0U))
  80              		.loc 1 380 3 is_stmt 1 view .LVU18
 379:Drivers/STM32U5xx_HAL_Driver/Src/stm32u5xx_hal_pwr_ex.c ****   while (HAL_IS_BIT_CLR(PWR->VOSR, PWR_VOSR_VOSRDY) && (timeout != 0U))
  81              		.loc 1 379 11 is_stmt 0 view .LVU19
  82 003c 1A46     		mov	r2, r3
  83              		.loc 1 380 9 view .LVU20
  84 003e 11E0     		b	.L7
  85              	.LVL4:
  86              	.L14:
 355:Drivers/STM32U5xx_HAL_Driver/Src/stm32u5xx_hal_pwr_ex.c ****     {
  87              		.loc 1 355 5 is_stmt 1 view .LVU21
 355:Drivers/STM32U5xx_HAL_Driver/Src/stm32u5xx_hal_pwr_ex.c ****     {
  88              		.loc 1 355 8 is_stmt 0 view .LVU22
  89 0040 B0F5803F 		cmp	r0, #65536
  90 0044 04D9     		bls	.L3
 358:Drivers/STM32U5xx_HAL_Driver/Src/stm32u5xx_hal_pwr_ex.c ****     }
  91              		.loc 1 358 7 is_stmt 1 view .LVU23
  92 0046 134A     		ldr	r2, .L15
  93 0048 D368     		ldr	r3, [r2, #12]
  94              	.LVL5:
 358:Drivers/STM32U5xx_HAL_Driver/Src/stm32u5xx_hal_pwr_ex.c ****     }
  95              		.loc 1 358 7 is_stmt 0 view .LVU24
  96 004a 43F48023 		orr	r3, r3, #262144
  97 004e D360     		str	r3, [r2, #12]
  98              	.L3:
 361:Drivers/STM32U5xx_HAL_Driver/Src/stm32u5xx_hal_pwr_ex.c ****   }
  99              		.loc 1 361 5 is_stmt 1 view .LVU25
 361:Drivers/STM32U5xx_HAL_Driver/Src/stm32u5xx_hal_pwr_ex.c ****   }
 100              		.loc 1 361 12 is_stmt 0 view .LVU26
 101 0050 0020     		movs	r0, #0
 102              	.LVL6:
 361:Drivers/STM32U5xx_HAL_Driver/Src/stm32u5xx_hal_pwr_ex.c ****   }
 103              		.loc 1 361 12 view .LVU27
 104 0052 7047     		bx	lr
 105              	.LVL7:
 106              	.L5:
 375:Drivers/STM32U5xx_HAL_Driver/Src/stm32u5xx_hal_pwr_ex.c ****   }
 107              		.loc 1 375 5 is_stmt 1 view .LVU28
 108 0054 0F4A     		ldr	r2, .L15
 109 0056 D368     		ldr	r3, [r2, #12]
 110              	.LVL8:
 375:Drivers/STM32U5xx_HAL_Driver/Src/stm32u5xx_hal_pwr_ex.c ****   }
 111              		.loc 1 375 5 is_stmt 0 view .LVU29
 112 0058 23F4E023 		bic	r3, r3, #458752
 113 005c 0343     		orrs	r3, r3, r0
 114 005e D360     		str	r3, [r2, #12]
 115 0060 DFE7     		b	.L6
 116              	.LVL9:
 117              	.L9:
 381:Drivers/STM32U5xx_HAL_Driver/Src/stm32u5xx_hal_pwr_ex.c ****   {
 382:Drivers/STM32U5xx_HAL_Driver/Src/stm32u5xx_hal_pwr_ex.c ****     timeout--;
 118              		.loc 1 382 5 is_stmt 1 view .LVU30
 119              		.loc 1 382 12 is_stmt 0 view .LVU31
 120 0062 013A     		subs	r2, r2, #1
 121              	.LVL10:
 122              	.L7:
ARM GAS  C:\Users\Ya\AppData\Local\Temp\ccLrGXJ9.s 			page 10


 380:Drivers/STM32U5xx_HAL_Driver/Src/stm32u5xx_hal_pwr_ex.c ****   {
 123              		.loc 1 380 53 is_stmt 1 view .LVU32
 380:Drivers/STM32U5xx_HAL_Driver/Src/stm32u5xx_hal_pwr_ex.c ****   {
 124              		.loc 1 380 10 is_stmt 0 view .LVU33
 125 0064 0B49     		ldr	r1, .L15
 126 0066 C968     		ldr	r1, [r1, #12]
 380:Drivers/STM32U5xx_HAL_Driver/Src/stm32u5xx_hal_pwr_ex.c ****   {
 127              		.loc 1 380 53 view .LVU34
 128 0068 11F4004F 		tst	r1, #32768
 129 006c 01D1     		bne	.L8
 380:Drivers/STM32U5xx_HAL_Driver/Src/stm32u5xx_hal_pwr_ex.c ****   {
 130              		.loc 1 380 53 discriminator 1 view .LVU35
 131 006e 002A     		cmp	r2, #0
 132 0070 F7D1     		bne	.L9
 133              	.L8:
 383:Drivers/STM32U5xx_HAL_Driver/Src/stm32u5xx_hal_pwr_ex.c ****   }
 384:Drivers/STM32U5xx_HAL_Driver/Src/stm32u5xx_hal_pwr_ex.c **** 
 385:Drivers/STM32U5xx_HAL_Driver/Src/stm32u5xx_hal_pwr_ex.c ****   /* Check time out */
 386:Drivers/STM32U5xx_HAL_Driver/Src/stm32u5xx_hal_pwr_ex.c ****   if (timeout != 0U)
 134              		.loc 1 386 3 is_stmt 1 view .LVU36
 135              		.loc 1 386 6 is_stmt 0 view .LVU37
 136 0072 12B9     		cbnz	r2, .L10
 387:Drivers/STM32U5xx_HAL_Driver/Src/stm32u5xx_hal_pwr_ex.c ****   {
 388:Drivers/STM32U5xx_HAL_Driver/Src/stm32u5xx_hal_pwr_ex.c ****     /* Wait until ACTVOSRDY is raised */
 389:Drivers/STM32U5xx_HAL_Driver/Src/stm32u5xx_hal_pwr_ex.c ****     timeout = ((PWR_FLAG_SETTING_DELAY * (SystemCoreClock / 1000U)) / 1000U) + 1U;
 390:Drivers/STM32U5xx_HAL_Driver/Src/stm32u5xx_hal_pwr_ex.c ****     while ((HAL_IS_BIT_CLR(PWR->SVMSR, PWR_SVMSR_ACTVOSRDY)) && (timeout != 0U))
 391:Drivers/STM32U5xx_HAL_Driver/Src/stm32u5xx_hal_pwr_ex.c ****     {
 392:Drivers/STM32U5xx_HAL_Driver/Src/stm32u5xx_hal_pwr_ex.c ****       timeout--;
 393:Drivers/STM32U5xx_HAL_Driver/Src/stm32u5xx_hal_pwr_ex.c ****     }
 394:Drivers/STM32U5xx_HAL_Driver/Src/stm32u5xx_hal_pwr_ex.c ****   }
 395:Drivers/STM32U5xx_HAL_Driver/Src/stm32u5xx_hal_pwr_ex.c **** 
 396:Drivers/STM32U5xx_HAL_Driver/Src/stm32u5xx_hal_pwr_ex.c ****   /* Check time out */
 397:Drivers/STM32U5xx_HAL_Driver/Src/stm32u5xx_hal_pwr_ex.c ****   if (timeout == 0U)
 398:Drivers/STM32U5xx_HAL_Driver/Src/stm32u5xx_hal_pwr_ex.c ****   {
 399:Drivers/STM32U5xx_HAL_Driver/Src/stm32u5xx_hal_pwr_ex.c ****     return HAL_TIMEOUT;
 137              		.loc 1 399 12 view .LVU38
 138 0074 0320     		movs	r0, #3
 139              	.LVL11:
 140              		.loc 1 399 12 view .LVU39
 141 0076 7047     		bx	lr
 142              	.LVL12:
 143              	.L12:
 392:Drivers/STM32U5xx_HAL_Driver/Src/stm32u5xx_hal_pwr_ex.c ****     }
 144              		.loc 1 392 7 is_stmt 1 view .LVU40
 392:Drivers/STM32U5xx_HAL_Driver/Src/stm32u5xx_hal_pwr_ex.c ****     }
 145              		.loc 1 392 14 is_stmt 0 view .LVU41
 146 0078 013B     		subs	r3, r3, #1
 147              	.LVL13:
 148              	.L10:
 390:Drivers/STM32U5xx_HAL_Driver/Src/stm32u5xx_hal_pwr_ex.c ****     {
 149              		.loc 1 390 62 is_stmt 1 view .LVU42
 390:Drivers/STM32U5xx_HAL_Driver/Src/stm32u5xx_hal_pwr_ex.c ****     {
 150              		.loc 1 390 13 is_stmt 0 view .LVU43
 151 007a 064A     		ldr	r2, .L15
 152 007c D26B     		ldr	r2, [r2, #60]
 390:Drivers/STM32U5xx_HAL_Driver/Src/stm32u5xx_hal_pwr_ex.c ****     {
 153              		.loc 1 390 62 view .LVU44
ARM GAS  C:\Users\Ya\AppData\Local\Temp\ccLrGXJ9.s 			page 11


 154 007e 12F4004F 		tst	r2, #32768
 155 0082 01D1     		bne	.L11
 390:Drivers/STM32U5xx_HAL_Driver/Src/stm32u5xx_hal_pwr_ex.c ****     {
 156              		.loc 1 390 62 discriminator 1 view .LVU45
 157 0084 002B     		cmp	r3, #0
 158 0086 F7D1     		bne	.L12
 159              	.L11:
 397:Drivers/STM32U5xx_HAL_Driver/Src/stm32u5xx_hal_pwr_ex.c ****   {
 160              		.loc 1 397 3 is_stmt 1 view .LVU46
 397:Drivers/STM32U5xx_HAL_Driver/Src/stm32u5xx_hal_pwr_ex.c ****   {
 161              		.loc 1 397 6 is_stmt 0 view .LVU47
 162 0088 0BB1     		cbz	r3, .L13
 400:Drivers/STM32U5xx_HAL_Driver/Src/stm32u5xx_hal_pwr_ex.c ****   }
 401:Drivers/STM32U5xx_HAL_Driver/Src/stm32u5xx_hal_pwr_ex.c **** 
 402:Drivers/STM32U5xx_HAL_Driver/Src/stm32u5xx_hal_pwr_ex.c ****   return HAL_OK;
 163              		.loc 1 402 10 view .LVU48
 164 008a 0020     		movs	r0, #0
 165              	.LVL14:
 166              		.loc 1 402 10 view .LVU49
 167 008c 7047     		bx	lr
 168              	.LVL15:
 169              	.L13:
 399:Drivers/STM32U5xx_HAL_Driver/Src/stm32u5xx_hal_pwr_ex.c ****   }
 170              		.loc 1 399 12 view .LVU50
 171 008e 0320     		movs	r0, #3
 172              	.LVL16:
 403:Drivers/STM32U5xx_HAL_Driver/Src/stm32u5xx_hal_pwr_ex.c **** }
 173              		.loc 1 403 1 view .LVU51
 174 0090 7047     		bx	lr
 175              	.L16:
 176 0092 00BF     		.align	2
 177              	.L15:
 178 0094 00080246 		.word	1174538240
 179 0098 00000000 		.word	SystemCoreClock
 180 009c D34D6210 		.word	274877907
 181              		.cfi_endproc
 182              	.LFE340:
 184              		.section	.text.HAL_PWREx_GetVoltageRange,"ax",%progbits
 185              		.align	1
 186              		.global	HAL_PWREx_GetVoltageRange
 187              		.syntax unified
 188              		.thumb
 189              		.thumb_func
 191              	HAL_PWREx_GetVoltageRange:
 192              	.LFB341:
 404:Drivers/STM32U5xx_HAL_Driver/Src/stm32u5xx_hal_pwr_ex.c **** 
 405:Drivers/STM32U5xx_HAL_Driver/Src/stm32u5xx_hal_pwr_ex.c **** /**
 406:Drivers/STM32U5xx_HAL_Driver/Src/stm32u5xx_hal_pwr_ex.c ****   * @brief  Return Voltage Scaling Range.
 407:Drivers/STM32U5xx_HAL_Driver/Src/stm32u5xx_hal_pwr_ex.c ****   * @retval Applied voltage scaling value.
 408:Drivers/STM32U5xx_HAL_Driver/Src/stm32u5xx_hal_pwr_ex.c ****   */
 409:Drivers/STM32U5xx_HAL_Driver/Src/stm32u5xx_hal_pwr_ex.c **** uint32_t HAL_PWREx_GetVoltageRange(void)
 410:Drivers/STM32U5xx_HAL_Driver/Src/stm32u5xx_hal_pwr_ex.c **** {
 193              		.loc 1 410 1 is_stmt 1 view -0
 194              		.cfi_startproc
 195              		@ args = 0, pretend = 0, frame = 0
 196              		@ frame_needed = 0, uses_anonymous_args = 0
 197              		@ link register save eliminated.
ARM GAS  C:\Users\Ya\AppData\Local\Temp\ccLrGXJ9.s 			page 12


 411:Drivers/STM32U5xx_HAL_Driver/Src/stm32u5xx_hal_pwr_ex.c ****   return (PWR->SVMSR & PWR_SVMSR_ACTVOS);
 198              		.loc 1 411 3 view .LVU53
 199              		.loc 1 411 14 is_stmt 0 view .LVU54
 200 0000 024B     		ldr	r3, .L18
 201 0002 D86B     		ldr	r0, [r3, #60]
 412:Drivers/STM32U5xx_HAL_Driver/Src/stm32u5xx_hal_pwr_ex.c **** }
 202              		.loc 1 412 1 view .LVU55
 203 0004 00F44030 		and	r0, r0, #196608
 204 0008 7047     		bx	lr
 205              	.L19:
 206 000a 00BF     		.align	2
 207              	.L18:
 208 000c 00080246 		.word	1174538240
 209              		.cfi_endproc
 210              	.LFE341:
 212              		.section	.text.HAL_PWREx_ConfigSupply,"ax",%progbits
 213              		.align	1
 214              		.global	HAL_PWREx_ConfigSupply
 215              		.syntax unified
 216              		.thumb
 217              		.thumb_func
 219              	HAL_PWREx_ConfigSupply:
 220              	.LVL17:
 221              	.LFB342:
 413:Drivers/STM32U5xx_HAL_Driver/Src/stm32u5xx_hal_pwr_ex.c **** 
 414:Drivers/STM32U5xx_HAL_Driver/Src/stm32u5xx_hal_pwr_ex.c **** /**
 415:Drivers/STM32U5xx_HAL_Driver/Src/stm32u5xx_hal_pwr_ex.c ****   * @brief  Configure the system Power Supply.
 416:Drivers/STM32U5xx_HAL_Driver/Src/stm32u5xx_hal_pwr_ex.c ****   * @param  SupplySource : Specifies the Power Supply source to set after a
 417:Drivers/STM32U5xx_HAL_Driver/Src/stm32u5xx_hal_pwr_ex.c ****   *                        system startup.
 418:Drivers/STM32U5xx_HAL_Driver/Src/stm32u5xx_hal_pwr_ex.c ****   *                        This parameter can be one of the following values :
 419:Drivers/STM32U5xx_HAL_Driver/Src/stm32u5xx_hal_pwr_ex.c ****   *                        @arg PWR_LDO_SUPPLY  : The LDO regulator supplies the Vcore Power Domain
 420:Drivers/STM32U5xx_HAL_Driver/Src/stm32u5xx_hal_pwr_ex.c ****   *                        @arg PWR_SMPS_SUPPLY : The SMPS regulator supplies the Vcore Power Domai
 421:Drivers/STM32U5xx_HAL_Driver/Src/stm32u5xx_hal_pwr_ex.c ****   * @retval HAL Status.
 422:Drivers/STM32U5xx_HAL_Driver/Src/stm32u5xx_hal_pwr_ex.c ****   */
 423:Drivers/STM32U5xx_HAL_Driver/Src/stm32u5xx_hal_pwr_ex.c **** HAL_StatusTypeDef HAL_PWREx_ConfigSupply(uint32_t SupplySource)
 424:Drivers/STM32U5xx_HAL_Driver/Src/stm32u5xx_hal_pwr_ex.c **** {
 222              		.loc 1 424 1 is_stmt 1 view -0
 223              		.cfi_startproc
 224              		@ args = 0, pretend = 0, frame = 0
 225              		@ frame_needed = 0, uses_anonymous_args = 0
 226              		@ link register save eliminated.
 425:Drivers/STM32U5xx_HAL_Driver/Src/stm32u5xx_hal_pwr_ex.c ****   uint32_t timeout;
 227              		.loc 1 425 3 view .LVU57
 426:Drivers/STM32U5xx_HAL_Driver/Src/stm32u5xx_hal_pwr_ex.c **** 
 427:Drivers/STM32U5xx_HAL_Driver/Src/stm32u5xx_hal_pwr_ex.c ****   /* Check the parameter */
 428:Drivers/STM32U5xx_HAL_Driver/Src/stm32u5xx_hal_pwr_ex.c ****   assert_param(IS_PWR_SUPPLY(SupplySource));
 228              		.loc 1 428 3 view .LVU58
 429:Drivers/STM32U5xx_HAL_Driver/Src/stm32u5xx_hal_pwr_ex.c **** 
 430:Drivers/STM32U5xx_HAL_Driver/Src/stm32u5xx_hal_pwr_ex.c ****   /* Set maximum time out */
 431:Drivers/STM32U5xx_HAL_Driver/Src/stm32u5xx_hal_pwr_ex.c ****   timeout = ((PWR_FLAG_SETTING_DELAY * (SystemCoreClock / 1000U)) / 1000U) + 1U;
 229              		.loc 1 431 3 view .LVU59
 230              		.loc 1 431 57 is_stmt 0 view .LVU60
 231 0000 174B     		ldr	r3, .L29
 232 0002 1B68     		ldr	r3, [r3]
 233 0004 174A     		ldr	r2, .L29+4
 234 0006 A2FB0313 		umull	r1, r3, r2, r3
 235 000a 9B09     		lsrs	r3, r3, #6
ARM GAS  C:\Users\Ya\AppData\Local\Temp\ccLrGXJ9.s 			page 13


 236              		.loc 1 431 38 view .LVU61
 237 000c 3221     		movs	r1, #50
 238 000e 01FB03F3 		mul	r3, r1, r3
 239              		.loc 1 431 67 view .LVU62
 240 0012 A2FB0323 		umull	r2, r3, r2, r3
 241 0016 9B09     		lsrs	r3, r3, #6
 242              		.loc 1 431 11 view .LVU63
 243 0018 0133     		adds	r3, r3, #1
 244              	.LVL18:
 432:Drivers/STM32U5xx_HAL_Driver/Src/stm32u5xx_hal_pwr_ex.c **** 
 433:Drivers/STM32U5xx_HAL_Driver/Src/stm32u5xx_hal_pwr_ex.c ****   /* Configure the LDO as system regulator supply */
 434:Drivers/STM32U5xx_HAL_Driver/Src/stm32u5xx_hal_pwr_ex.c ****   if (SupplySource == PWR_LDO_SUPPLY)
 245              		.loc 1 434 3 is_stmt 1 view .LVU64
 246              		.loc 1 434 6 is_stmt 0 view .LVU65
 247 001a 80B9     		cbnz	r0, .L21
 435:Drivers/STM32U5xx_HAL_Driver/Src/stm32u5xx_hal_pwr_ex.c ****   {
 436:Drivers/STM32U5xx_HAL_Driver/Src/stm32u5xx_hal_pwr_ex.c ****     /* Set the power supply configuration */
 437:Drivers/STM32U5xx_HAL_Driver/Src/stm32u5xx_hal_pwr_ex.c ****     CLEAR_BIT(PWR->CR3, PWR_CR3_REGSEL);
 248              		.loc 1 437 5 is_stmt 1 view .LVU66
 249 001c 1249     		ldr	r1, .L29+8
 250 001e 8A68     		ldr	r2, [r1, #8]
 251 0020 22F00202 		bic	r2, r2, #2
 252 0024 8A60     		str	r2, [r1, #8]
 438:Drivers/STM32U5xx_HAL_Driver/Src/stm32u5xx_hal_pwr_ex.c **** 
 439:Drivers/STM32U5xx_HAL_Driver/Src/stm32u5xx_hal_pwr_ex.c ****     /* Wait until system switch on new regulator */
 440:Drivers/STM32U5xx_HAL_Driver/Src/stm32u5xx_hal_pwr_ex.c ****     while (HAL_IS_BIT_SET(PWR->SVMSR, PWR_SVMSR_REGS) && (timeout != 0U))
 253              		.loc 1 440 5 view .LVU67
 254              		.loc 1 440 11 is_stmt 0 view .LVU68
 255 0026 00E0     		b	.L22
 256              	.L24:
 441:Drivers/STM32U5xx_HAL_Driver/Src/stm32u5xx_hal_pwr_ex.c ****     {
 442:Drivers/STM32U5xx_HAL_Driver/Src/stm32u5xx_hal_pwr_ex.c ****       timeout--;
 257              		.loc 1 442 7 is_stmt 1 view .LVU69
 258              		.loc 1 442 14 is_stmt 0 view .LVU70
 259 0028 013B     		subs	r3, r3, #1
 260              	.LVL19:
 261              	.L22:
 440:Drivers/STM32U5xx_HAL_Driver/Src/stm32u5xx_hal_pwr_ex.c ****     {
 262              		.loc 1 440 55 is_stmt 1 view .LVU71
 440:Drivers/STM32U5xx_HAL_Driver/Src/stm32u5xx_hal_pwr_ex.c ****     {
 263              		.loc 1 440 12 is_stmt 0 view .LVU72
 264 002a 0F4A     		ldr	r2, .L29+8
 265 002c D26B     		ldr	r2, [r2, #60]
 440:Drivers/STM32U5xx_HAL_Driver/Src/stm32u5xx_hal_pwr_ex.c ****     {
 266              		.loc 1 440 55 view .LVU73
 267 002e 12F0020F 		tst	r2, #2
 268 0032 01D0     		beq	.L23
 440:Drivers/STM32U5xx_HAL_Driver/Src/stm32u5xx_hal_pwr_ex.c ****     {
 269              		.loc 1 440 55 discriminator 1 view .LVU74
 270 0034 002B     		cmp	r3, #0
 271 0036 F7D1     		bne	.L24
 272              	.L23:
 443:Drivers/STM32U5xx_HAL_Driver/Src/stm32u5xx_hal_pwr_ex.c ****     }
 444:Drivers/STM32U5xx_HAL_Driver/Src/stm32u5xx_hal_pwr_ex.c ****   }
 445:Drivers/STM32U5xx_HAL_Driver/Src/stm32u5xx_hal_pwr_ex.c ****   /* Configure the SMPS as system regulator supply */
 446:Drivers/STM32U5xx_HAL_Driver/Src/stm32u5xx_hal_pwr_ex.c ****   else
 447:Drivers/STM32U5xx_HAL_Driver/Src/stm32u5xx_hal_pwr_ex.c ****   {
ARM GAS  C:\Users\Ya\AppData\Local\Temp\ccLrGXJ9.s 			page 14


 448:Drivers/STM32U5xx_HAL_Driver/Src/stm32u5xx_hal_pwr_ex.c ****     /* Set the power supply configuration */
 449:Drivers/STM32U5xx_HAL_Driver/Src/stm32u5xx_hal_pwr_ex.c ****     SET_BIT(PWR->CR3, PWR_CR3_REGSEL);
 450:Drivers/STM32U5xx_HAL_Driver/Src/stm32u5xx_hal_pwr_ex.c **** 
 451:Drivers/STM32U5xx_HAL_Driver/Src/stm32u5xx_hal_pwr_ex.c ****     /* Wait until system switch on new regulator */
 452:Drivers/STM32U5xx_HAL_Driver/Src/stm32u5xx_hal_pwr_ex.c ****     while (HAL_IS_BIT_CLR(PWR->SVMSR, PWR_SVMSR_REGS) && (timeout != 0U))
 453:Drivers/STM32U5xx_HAL_Driver/Src/stm32u5xx_hal_pwr_ex.c ****     {
 454:Drivers/STM32U5xx_HAL_Driver/Src/stm32u5xx_hal_pwr_ex.c ****       timeout--;
 455:Drivers/STM32U5xx_HAL_Driver/Src/stm32u5xx_hal_pwr_ex.c ****     }
 456:Drivers/STM32U5xx_HAL_Driver/Src/stm32u5xx_hal_pwr_ex.c ****   }
 457:Drivers/STM32U5xx_HAL_Driver/Src/stm32u5xx_hal_pwr_ex.c **** 
 458:Drivers/STM32U5xx_HAL_Driver/Src/stm32u5xx_hal_pwr_ex.c ****   /* Check time out */
 459:Drivers/STM32U5xx_HAL_Driver/Src/stm32u5xx_hal_pwr_ex.c ****   if (timeout == 0U)
 273              		.loc 1 459 3 is_stmt 1 view .LVU75
 274              		.loc 1 459 6 is_stmt 0 view .LVU76
 275 0038 83B1     		cbz	r3, .L28
 460:Drivers/STM32U5xx_HAL_Driver/Src/stm32u5xx_hal_pwr_ex.c ****   {
 461:Drivers/STM32U5xx_HAL_Driver/Src/stm32u5xx_hal_pwr_ex.c ****     return HAL_TIMEOUT;
 462:Drivers/STM32U5xx_HAL_Driver/Src/stm32u5xx_hal_pwr_ex.c ****   }
 463:Drivers/STM32U5xx_HAL_Driver/Src/stm32u5xx_hal_pwr_ex.c **** 
 464:Drivers/STM32U5xx_HAL_Driver/Src/stm32u5xx_hal_pwr_ex.c ****   return HAL_OK;
 276              		.loc 1 464 10 view .LVU77
 277 003a 0020     		movs	r0, #0
 278              	.LVL20:
 279              		.loc 1 464 10 view .LVU78
 280 003c 7047     		bx	lr
 281              	.LVL21:
 282              	.L21:
 449:Drivers/STM32U5xx_HAL_Driver/Src/stm32u5xx_hal_pwr_ex.c **** 
 283              		.loc 1 449 5 is_stmt 1 view .LVU79
 284 003e 0A49     		ldr	r1, .L29+8
 285 0040 8A68     		ldr	r2, [r1, #8]
 286 0042 42F00202 		orr	r2, r2, #2
 287 0046 8A60     		str	r2, [r1, #8]
 452:Drivers/STM32U5xx_HAL_Driver/Src/stm32u5xx_hal_pwr_ex.c ****     {
 288              		.loc 1 452 5 view .LVU80
 452:Drivers/STM32U5xx_HAL_Driver/Src/stm32u5xx_hal_pwr_ex.c ****     {
 289              		.loc 1 452 11 is_stmt 0 view .LVU81
 290 0048 00E0     		b	.L25
 291              	.L26:
 454:Drivers/STM32U5xx_HAL_Driver/Src/stm32u5xx_hal_pwr_ex.c ****     }
 292              		.loc 1 454 7 is_stmt 1 view .LVU82
 454:Drivers/STM32U5xx_HAL_Driver/Src/stm32u5xx_hal_pwr_ex.c ****     }
 293              		.loc 1 454 14 is_stmt 0 view .LVU83
 294 004a 013B     		subs	r3, r3, #1
 295              	.LVL22:
 296              	.L25:
 452:Drivers/STM32U5xx_HAL_Driver/Src/stm32u5xx_hal_pwr_ex.c ****     {
 297              		.loc 1 452 55 is_stmt 1 view .LVU84
 452:Drivers/STM32U5xx_HAL_Driver/Src/stm32u5xx_hal_pwr_ex.c ****     {
 298              		.loc 1 452 12 is_stmt 0 view .LVU85
 299 004c 064A     		ldr	r2, .L29+8
 300 004e D26B     		ldr	r2, [r2, #60]
 452:Drivers/STM32U5xx_HAL_Driver/Src/stm32u5xx_hal_pwr_ex.c ****     {
 301              		.loc 1 452 55 view .LVU86
 302 0050 12F0020F 		tst	r2, #2
 303 0054 F0D1     		bne	.L23
 452:Drivers/STM32U5xx_HAL_Driver/Src/stm32u5xx_hal_pwr_ex.c ****     {
ARM GAS  C:\Users\Ya\AppData\Local\Temp\ccLrGXJ9.s 			page 15


 304              		.loc 1 452 55 discriminator 1 view .LVU87
 305 0056 002B     		cmp	r3, #0
 306 0058 F7D1     		bne	.L26
 307 005a EDE7     		b	.L23
 308              	.L28:
 461:Drivers/STM32U5xx_HAL_Driver/Src/stm32u5xx_hal_pwr_ex.c ****   }
 309              		.loc 1 461 12 view .LVU88
 310 005c 0320     		movs	r0, #3
 311              	.LVL23:
 465:Drivers/STM32U5xx_HAL_Driver/Src/stm32u5xx_hal_pwr_ex.c **** }
 312              		.loc 1 465 1 view .LVU89
 313 005e 7047     		bx	lr
 314              	.L30:
 315              		.align	2
 316              	.L29:
 317 0060 00000000 		.word	SystemCoreClock
 318 0064 D34D6210 		.word	274877907
 319 0068 00080246 		.word	1174538240
 320              		.cfi_endproc
 321              	.LFE342:
 323              		.section	.text.HAL_PWREx_GetSupplyConfig,"ax",%progbits
 324              		.align	1
 325              		.global	HAL_PWREx_GetSupplyConfig
 326              		.syntax unified
 327              		.thumb
 328              		.thumb_func
 330              	HAL_PWREx_GetSupplyConfig:
 331              	.LFB343:
 466:Drivers/STM32U5xx_HAL_Driver/Src/stm32u5xx_hal_pwr_ex.c **** 
 467:Drivers/STM32U5xx_HAL_Driver/Src/stm32u5xx_hal_pwr_ex.c **** /**
 468:Drivers/STM32U5xx_HAL_Driver/Src/stm32u5xx_hal_pwr_ex.c ****   * @brief  Get the power supply configuration.
 469:Drivers/STM32U5xx_HAL_Driver/Src/stm32u5xx_hal_pwr_ex.c ****   * @retval The supply configured.
 470:Drivers/STM32U5xx_HAL_Driver/Src/stm32u5xx_hal_pwr_ex.c ****   */
 471:Drivers/STM32U5xx_HAL_Driver/Src/stm32u5xx_hal_pwr_ex.c **** uint32_t  HAL_PWREx_GetSupplyConfig(void)
 472:Drivers/STM32U5xx_HAL_Driver/Src/stm32u5xx_hal_pwr_ex.c **** {
 332              		.loc 1 472 1 is_stmt 1 view -0
 333              		.cfi_startproc
 334              		@ args = 0, pretend = 0, frame = 0
 335              		@ frame_needed = 0, uses_anonymous_args = 0
 336              		@ link register save eliminated.
 473:Drivers/STM32U5xx_HAL_Driver/Src/stm32u5xx_hal_pwr_ex.c ****   return (PWR->SVMSR & PWR_SVMSR_REGS);
 337              		.loc 1 473 3 view .LVU91
 338              		.loc 1 473 14 is_stmt 0 view .LVU92
 339 0000 024B     		ldr	r3, .L32
 340 0002 D86B     		ldr	r0, [r3, #60]
 474:Drivers/STM32U5xx_HAL_Driver/Src/stm32u5xx_hal_pwr_ex.c **** }
 341              		.loc 1 474 1 view .LVU93
 342 0004 00F00200 		and	r0, r0, #2
 343 0008 7047     		bx	lr
 344              	.L33:
 345 000a 00BF     		.align	2
 346              	.L32:
 347 000c 00080246 		.word	1174538240
 348              		.cfi_endproc
 349              	.LFE343:
 351              		.section	.text.HAL_PWREx_EnableFastSoftStart,"ax",%progbits
 352              		.align	1
ARM GAS  C:\Users\Ya\AppData\Local\Temp\ccLrGXJ9.s 			page 16


 353              		.global	HAL_PWREx_EnableFastSoftStart
 354              		.syntax unified
 355              		.thumb
 356              		.thumb_func
 358              	HAL_PWREx_EnableFastSoftStart:
 359              	.LFB344:
 475:Drivers/STM32U5xx_HAL_Driver/Src/stm32u5xx_hal_pwr_ex.c **** 
 476:Drivers/STM32U5xx_HAL_Driver/Src/stm32u5xx_hal_pwr_ex.c **** /**
 477:Drivers/STM32U5xx_HAL_Driver/Src/stm32u5xx_hal_pwr_ex.c ****   * @brief  Enable fast soft start for the current regulator.
 478:Drivers/STM32U5xx_HAL_Driver/Src/stm32u5xx_hal_pwr_ex.c ****   * @retval None.
 479:Drivers/STM32U5xx_HAL_Driver/Src/stm32u5xx_hal_pwr_ex.c ****   */
 480:Drivers/STM32U5xx_HAL_Driver/Src/stm32u5xx_hal_pwr_ex.c **** void HAL_PWREx_EnableFastSoftStart(void)
 481:Drivers/STM32U5xx_HAL_Driver/Src/stm32u5xx_hal_pwr_ex.c **** {
 360              		.loc 1 481 1 is_stmt 1 view -0
 361              		.cfi_startproc
 362              		@ args = 0, pretend = 0, frame = 0
 363              		@ frame_needed = 0, uses_anonymous_args = 0
 364              		@ link register save eliminated.
 482:Drivers/STM32U5xx_HAL_Driver/Src/stm32u5xx_hal_pwr_ex.c ****   SET_BIT(PWR->CR3, PWR_CR3_FSTEN);
 365              		.loc 1 482 3 view .LVU95
 366 0000 024A     		ldr	r2, .L35
 367 0002 9368     		ldr	r3, [r2, #8]
 368 0004 43F00403 		orr	r3, r3, #4
 369 0008 9360     		str	r3, [r2, #8]
 483:Drivers/STM32U5xx_HAL_Driver/Src/stm32u5xx_hal_pwr_ex.c **** }
 370              		.loc 1 483 1 is_stmt 0 view .LVU96
 371 000a 7047     		bx	lr
 372              	.L36:
 373              		.align	2
 374              	.L35:
 375 000c 00080246 		.word	1174538240
 376              		.cfi_endproc
 377              	.LFE344:
 379              		.section	.text.HAL_PWREx_DisableFastSoftStart,"ax",%progbits
 380              		.align	1
 381              		.global	HAL_PWREx_DisableFastSoftStart
 382              		.syntax unified
 383              		.thumb
 384              		.thumb_func
 386              	HAL_PWREx_DisableFastSoftStart:
 387              	.LFB345:
 484:Drivers/STM32U5xx_HAL_Driver/Src/stm32u5xx_hal_pwr_ex.c **** 
 485:Drivers/STM32U5xx_HAL_Driver/Src/stm32u5xx_hal_pwr_ex.c **** /**
 486:Drivers/STM32U5xx_HAL_Driver/Src/stm32u5xx_hal_pwr_ex.c ****   * @brief  Disable fast soft start for the current regulator.
 487:Drivers/STM32U5xx_HAL_Driver/Src/stm32u5xx_hal_pwr_ex.c ****   * @retval None.
 488:Drivers/STM32U5xx_HAL_Driver/Src/stm32u5xx_hal_pwr_ex.c ****   */
 489:Drivers/STM32U5xx_HAL_Driver/Src/stm32u5xx_hal_pwr_ex.c **** void HAL_PWREx_DisableFastSoftStart(void)
 490:Drivers/STM32U5xx_HAL_Driver/Src/stm32u5xx_hal_pwr_ex.c **** {
 388              		.loc 1 490 1 is_stmt 1 view -0
 389              		.cfi_startproc
 390              		@ args = 0, pretend = 0, frame = 0
 391              		@ frame_needed = 0, uses_anonymous_args = 0
 392              		@ link register save eliminated.
 491:Drivers/STM32U5xx_HAL_Driver/Src/stm32u5xx_hal_pwr_ex.c ****   CLEAR_BIT(PWR->CR3, PWR_CR3_FSTEN);
 393              		.loc 1 491 3 view .LVU98
 394 0000 024A     		ldr	r2, .L38
 395 0002 9368     		ldr	r3, [r2, #8]
ARM GAS  C:\Users\Ya\AppData\Local\Temp\ccLrGXJ9.s 			page 17


 396 0004 23F00403 		bic	r3, r3, #4
 397 0008 9360     		str	r3, [r2, #8]
 492:Drivers/STM32U5xx_HAL_Driver/Src/stm32u5xx_hal_pwr_ex.c **** }
 398              		.loc 1 492 1 is_stmt 0 view .LVU99
 399 000a 7047     		bx	lr
 400              	.L39:
 401              		.align	2
 402              	.L38:
 403 000c 00080246 		.word	1174538240
 404              		.cfi_endproc
 405              	.LFE345:
 407              		.section	.text.HAL_PWREx_EnterSTOP1Mode,"ax",%progbits
 408              		.align	1
 409              		.global	HAL_PWREx_EnterSTOP1Mode
 410              		.syntax unified
 411              		.thumb
 412              		.thumb_func
 414              	HAL_PWREx_EnterSTOP1Mode:
 415              	.LVL24:
 416              	.LFB346:
 493:Drivers/STM32U5xx_HAL_Driver/Src/stm32u5xx_hal_pwr_ex.c **** /**
 494:Drivers/STM32U5xx_HAL_Driver/Src/stm32u5xx_hal_pwr_ex.c ****   * @}
 495:Drivers/STM32U5xx_HAL_Driver/Src/stm32u5xx_hal_pwr_ex.c ****   */
 496:Drivers/STM32U5xx_HAL_Driver/Src/stm32u5xx_hal_pwr_ex.c **** 
 497:Drivers/STM32U5xx_HAL_Driver/Src/stm32u5xx_hal_pwr_ex.c **** 
 498:Drivers/STM32U5xx_HAL_Driver/Src/stm32u5xx_hal_pwr_ex.c **** /** @defgroup PWREx_Exported_Functions_Group2 Low Power Control Functions
 499:Drivers/STM32U5xx_HAL_Driver/Src/stm32u5xx_hal_pwr_ex.c ****   * @brief    Low power control functions
 500:Drivers/STM32U5xx_HAL_Driver/Src/stm32u5xx_hal_pwr_ex.c ****   *
 501:Drivers/STM32U5xx_HAL_Driver/Src/stm32u5xx_hal_pwr_ex.c **** @verbatim
 502:Drivers/STM32U5xx_HAL_Driver/Src/stm32u5xx_hal_pwr_ex.c ****  ===============================================================================
 503:Drivers/STM32U5xx_HAL_Driver/Src/stm32u5xx_hal_pwr_ex.c ****                      ##### Low power control functions #####
 504:Drivers/STM32U5xx_HAL_Driver/Src/stm32u5xx_hal_pwr_ex.c ****  ===============================================================================
 505:Drivers/STM32U5xx_HAL_Driver/Src/stm32u5xx_hal_pwr_ex.c ****     [..]
 506:Drivers/STM32U5xx_HAL_Driver/Src/stm32u5xx_hal_pwr_ex.c ****       This section provides functions allowing to control low power modes.
 507:Drivers/STM32U5xx_HAL_Driver/Src/stm32u5xx_hal_pwr_ex.c **** 
 508:Drivers/STM32U5xx_HAL_Driver/Src/stm32u5xx_hal_pwr_ex.c ****     *** Low Power modes configuration ***
 509:Drivers/STM32U5xx_HAL_Driver/Src/stm32u5xx_hal_pwr_ex.c ****     =====================================
 510:Drivers/STM32U5xx_HAL_Driver/Src/stm32u5xx_hal_pwr_ex.c ****     [..]
 511:Drivers/STM32U5xx_HAL_Driver/Src/stm32u5xx_hal_pwr_ex.c ****       This section presents 4 principles low power modes :
 512:Drivers/STM32U5xx_HAL_Driver/Src/stm32u5xx_hal_pwr_ex.c ****       (+) Stop 1 mode   : Cortex-M33 is stopped, clocks are stopped and the
 513:Drivers/STM32U5xx_HAL_Driver/Src/stm32u5xx_hal_pwr_ex.c ****                           regulator is in low power mode. Several peripheral can
 514:Drivers/STM32U5xx_HAL_Driver/Src/stm32u5xx_hal_pwr_ex.c ****                           operate in this mode.
 515:Drivers/STM32U5xx_HAL_Driver/Src/stm32u5xx_hal_pwr_ex.c **** 
 516:Drivers/STM32U5xx_HAL_Driver/Src/stm32u5xx_hal_pwr_ex.c ****       (+) Stop 2 mode   : Cortex-M33 is stopped, clocks are stopped and the
 517:Drivers/STM32U5xx_HAL_Driver/Src/stm32u5xx_hal_pwr_ex.c ****                           regulator is in low power mode. Only autonomous
 518:Drivers/STM32U5xx_HAL_Driver/Src/stm32u5xx_hal_pwr_ex.c ****                           peripherals can operate in this mode.
 519:Drivers/STM32U5xx_HAL_Driver/Src/stm32u5xx_hal_pwr_ex.c **** 
 520:Drivers/STM32U5xx_HAL_Driver/Src/stm32u5xx_hal_pwr_ex.c ****       (+) Stop 3 mode   : Cortex-M33 is stopped, clocks are stopped and the
 521:Drivers/STM32U5xx_HAL_Driver/Src/stm32u5xx_hal_pwr_ex.c ****                           regulator is in low power mode. No peripheral can
 522:Drivers/STM32U5xx_HAL_Driver/Src/stm32u5xx_hal_pwr_ex.c ****                           operate in this mode. Only RAMs content is preserved.
 523:Drivers/STM32U5xx_HAL_Driver/Src/stm32u5xx_hal_pwr_ex.c **** 
 524:Drivers/STM32U5xx_HAL_Driver/Src/stm32u5xx_hal_pwr_ex.c ****       (+) Shutdown mode : All PWR domains enter Shutdown mode and the VCORE
 525:Drivers/STM32U5xx_HAL_Driver/Src/stm32u5xx_hal_pwr_ex.c ****                           supply regulator is powered off. The SRAMs and
 526:Drivers/STM32U5xx_HAL_Driver/Src/stm32u5xx_hal_pwr_ex.c ****                           register contents are lost except for registers in the
 527:Drivers/STM32U5xx_HAL_Driver/Src/stm32u5xx_hal_pwr_ex.c ****                           Backup domain.
 528:Drivers/STM32U5xx_HAL_Driver/Src/stm32u5xx_hal_pwr_ex.c **** 
 529:Drivers/STM32U5xx_HAL_Driver/Src/stm32u5xx_hal_pwr_ex.c ****    *** Stop 1 mode ***
ARM GAS  C:\Users\Ya\AppData\Local\Temp\ccLrGXJ9.s 			page 18


 530:Drivers/STM32U5xx_HAL_Driver/Src/stm32u5xx_hal_pwr_ex.c ****    ===================
 531:Drivers/STM32U5xx_HAL_Driver/Src/stm32u5xx_hal_pwr_ex.c ****     [..]
 532:Drivers/STM32U5xx_HAL_Driver/Src/stm32u5xx_hal_pwr_ex.c ****       The Stop 1 mode is based on the Cortex-M33 Deepsleep mode combined with
 533:Drivers/STM32U5xx_HAL_Driver/Src/stm32u5xx_hal_pwr_ex.c ****       the peripheral clock gating. The voltage regulator is configured in low
 534:Drivers/STM32U5xx_HAL_Driver/Src/stm32u5xx_hal_pwr_ex.c ****       power mode. In Stop 1 mode, all clocks in the VCORE domain are stopped.
 535:Drivers/STM32U5xx_HAL_Driver/Src/stm32u5xx_hal_pwr_ex.c ****       The PLL, MSIS, MSIK, HSI16 and HSE oscillators are disabled.
 536:Drivers/STM32U5xx_HAL_Driver/Src/stm32u5xx_hal_pwr_ex.c ****       Some peripherals with the LPBAM capability can switch on HSI16 or MSIS or
 537:Drivers/STM32U5xx_HAL_Driver/Src/stm32u5xx_hal_pwr_ex.c ****       MSIK for transferring data. All SRAMs and register contents are preserved,
 538:Drivers/STM32U5xx_HAL_Driver/Src/stm32u5xx_hal_pwr_ex.c ****       but the SRAMs can be totally or partially switched off to further reduced
 539:Drivers/STM32U5xx_HAL_Driver/Src/stm32u5xx_hal_pwr_ex.c ****       consumption.
 540:Drivers/STM32U5xx_HAL_Driver/Src/stm32u5xx_hal_pwr_ex.c ****       The BOR is always available in Stop 1 mode.
 541:Drivers/STM32U5xx_HAL_Driver/Src/stm32u5xx_hal_pwr_ex.c **** 
 542:Drivers/STM32U5xx_HAL_Driver/Src/stm32u5xx_hal_pwr_ex.c ****       (+) Entry:
 543:Drivers/STM32U5xx_HAL_Driver/Src/stm32u5xx_hal_pwr_ex.c ****           The Stop 1 mode is entered by using the HAL_PWREx_EnterSTOP1Mode()
 544:Drivers/STM32U5xx_HAL_Driver/Src/stm32u5xx_hal_pwr_ex.c ****           function.
 545:Drivers/STM32U5xx_HAL_Driver/Src/stm32u5xx_hal_pwr_ex.c **** 
 546:Drivers/STM32U5xx_HAL_Driver/Src/stm32u5xx_hal_pwr_ex.c ****           (++) PWR_STOPENTRY_WFI: enter Stop 1 mode with WFI instruction.
 547:Drivers/STM32U5xx_HAL_Driver/Src/stm32u5xx_hal_pwr_ex.c ****           (++) PWR_STOPENTRY_WFE: enter Stop 1 mode with WFE instruction.
 548:Drivers/STM32U5xx_HAL_Driver/Src/stm32u5xx_hal_pwr_ex.c **** 
 549:Drivers/STM32U5xx_HAL_Driver/Src/stm32u5xx_hal_pwr_ex.c ****       (+) Exit:
 550:Drivers/STM32U5xx_HAL_Driver/Src/stm32u5xx_hal_pwr_ex.c ****           Any EXTI line configured in interrupt mode (the corresponding EXTI
 551:Drivers/STM32U5xx_HAL_Driver/Src/stm32u5xx_hal_pwr_ex.c ****           interrupt vector must be enabled in the NVIC). The interrupt source
 552:Drivers/STM32U5xx_HAL_Driver/Src/stm32u5xx_hal_pwr_ex.c ****           can be external interrupts or peripherals with wakeup capability.
 553:Drivers/STM32U5xx_HAL_Driver/Src/stm32u5xx_hal_pwr_ex.c ****           Any peripheral interrupt occurring when the AHB/APB clocks are present
 554:Drivers/STM32U5xx_HAL_Driver/Src/stm32u5xx_hal_pwr_ex.c ****           due to an autonomous peripheral clock request (the peripheral vector
 555:Drivers/STM32U5xx_HAL_Driver/Src/stm32u5xx_hal_pwr_ex.c ****           must be enabled in the NVIC)
 556:Drivers/STM32U5xx_HAL_Driver/Src/stm32u5xx_hal_pwr_ex.c ****           Any EXTI line configured in event mode.
 557:Drivers/STM32U5xx_HAL_Driver/Src/stm32u5xx_hal_pwr_ex.c **** 
 558:Drivers/STM32U5xx_HAL_Driver/Src/stm32u5xx_hal_pwr_ex.c ****    *** Stop 2 mode ***
 559:Drivers/STM32U5xx_HAL_Driver/Src/stm32u5xx_hal_pwr_ex.c ****    ===================
 560:Drivers/STM32U5xx_HAL_Driver/Src/stm32u5xx_hal_pwr_ex.c ****     [..]
 561:Drivers/STM32U5xx_HAL_Driver/Src/stm32u5xx_hal_pwr_ex.c ****       The Stop 2 mode is based on the Cortex-M33 Deepsleep mode combined with
 562:Drivers/STM32U5xx_HAL_Driver/Src/stm32u5xx_hal_pwr_ex.c ****       peripheral clock gating. In Stop 2 mode, all clocks in the VCORE domain
 563:Drivers/STM32U5xx_HAL_Driver/Src/stm32u5xx_hal_pwr_ex.c ****       are stopped.
 564:Drivers/STM32U5xx_HAL_Driver/Src/stm32u5xx_hal_pwr_ex.c ****       The PLL, MSIS, MSIK, HSI16 and HSE oscillators are disabled.
 565:Drivers/STM32U5xx_HAL_Driver/Src/stm32u5xx_hal_pwr_ex.c ****       Some peripherals with the LPBAM capability can switch on HSI16 or MSIS or
 566:Drivers/STM32U5xx_HAL_Driver/Src/stm32u5xx_hal_pwr_ex.c ****       MSIK for transferring data. All SRAMs and register contents are preserved,
 567:Drivers/STM32U5xx_HAL_Driver/Src/stm32u5xx_hal_pwr_ex.c ****       but the SRAMs can be totally or partially switched off to further reduce
 568:Drivers/STM32U5xx_HAL_Driver/Src/stm32u5xx_hal_pwr_ex.c ****       consumption.
 569:Drivers/STM32U5xx_HAL_Driver/Src/stm32u5xx_hal_pwr_ex.c ****       The BOR is always available in Stop 2 mode.
 570:Drivers/STM32U5xx_HAL_Driver/Src/stm32u5xx_hal_pwr_ex.c **** 
 571:Drivers/STM32U5xx_HAL_Driver/Src/stm32u5xx_hal_pwr_ex.c ****       (+) Entry:
 572:Drivers/STM32U5xx_HAL_Driver/Src/stm32u5xx_hal_pwr_ex.c ****           The Stop 2 mode is entered by using the HAL_PWREx_EnterSTOP2Mode()
 573:Drivers/STM32U5xx_HAL_Driver/Src/stm32u5xx_hal_pwr_ex.c ****           function.
 574:Drivers/STM32U5xx_HAL_Driver/Src/stm32u5xx_hal_pwr_ex.c **** 
 575:Drivers/STM32U5xx_HAL_Driver/Src/stm32u5xx_hal_pwr_ex.c ****           (++) PWR_STOPENTRY_WFI: enter Stop 2 mode with WFI instruction.
 576:Drivers/STM32U5xx_HAL_Driver/Src/stm32u5xx_hal_pwr_ex.c ****           (++) PWR_STOPENTRY_WFE: enter Stop 2 mode with WFE instruction.
 577:Drivers/STM32U5xx_HAL_Driver/Src/stm32u5xx_hal_pwr_ex.c **** 
 578:Drivers/STM32U5xx_HAL_Driver/Src/stm32u5xx_hal_pwr_ex.c ****       (+) Exit:
 579:Drivers/STM32U5xx_HAL_Driver/Src/stm32u5xx_hal_pwr_ex.c ****           Any EXTI line configured in interrupt mode (the corresponding EXTI
 580:Drivers/STM32U5xx_HAL_Driver/Src/stm32u5xx_hal_pwr_ex.c ****           interrupt vector must be enabled in the NVIC). The interrupt source
 581:Drivers/STM32U5xx_HAL_Driver/Src/stm32u5xx_hal_pwr_ex.c ****           can be external interrupts or peripherals with wakeup capability.
 582:Drivers/STM32U5xx_HAL_Driver/Src/stm32u5xx_hal_pwr_ex.c ****           Any peripheral interrupt occurring when the AHB/APB clocks are present
 583:Drivers/STM32U5xx_HAL_Driver/Src/stm32u5xx_hal_pwr_ex.c ****           due to an autonomous peripheral clock request (the peripheral vector
 584:Drivers/STM32U5xx_HAL_Driver/Src/stm32u5xx_hal_pwr_ex.c ****           must be enabled in the NVIC)
 585:Drivers/STM32U5xx_HAL_Driver/Src/stm32u5xx_hal_pwr_ex.c ****           Any EXTI line configured in event mode.
 586:Drivers/STM32U5xx_HAL_Driver/Src/stm32u5xx_hal_pwr_ex.c **** 
ARM GAS  C:\Users\Ya\AppData\Local\Temp\ccLrGXJ9.s 			page 19


 587:Drivers/STM32U5xx_HAL_Driver/Src/stm32u5xx_hal_pwr_ex.c ****    *** Stop 3 mode ***
 588:Drivers/STM32U5xx_HAL_Driver/Src/stm32u5xx_hal_pwr_ex.c ****    ===================
 589:Drivers/STM32U5xx_HAL_Driver/Src/stm32u5xx_hal_pwr_ex.c ****     [..]
 590:Drivers/STM32U5xx_HAL_Driver/Src/stm32u5xx_hal_pwr_ex.c ****       The Stop 3 mode is based on the Cortex-M33 Deepsleep mode combined with
 591:Drivers/STM32U5xx_HAL_Driver/Src/stm32u5xx_hal_pwr_ex.c ****       peripheral clock gating. In Stop 3 mode, all clocks in the VCORE domain
 592:Drivers/STM32U5xx_HAL_Driver/Src/stm32u5xx_hal_pwr_ex.c ****       are stopped.
 593:Drivers/STM32U5xx_HAL_Driver/Src/stm32u5xx_hal_pwr_ex.c ****       The PLL, MSIS, MSIK, HSI16 and HSE oscillators are disabled.
 594:Drivers/STM32U5xx_HAL_Driver/Src/stm32u5xx_hal_pwr_ex.c ****       All SRAMs and register contents are preserved, but the SRAMs can be
 595:Drivers/STM32U5xx_HAL_Driver/Src/stm32u5xx_hal_pwr_ex.c ****       totally or partially switched off to further reduce consumption.
 596:Drivers/STM32U5xx_HAL_Driver/Src/stm32u5xx_hal_pwr_ex.c ****       The BOR is always available in Stop 3 mode.
 597:Drivers/STM32U5xx_HAL_Driver/Src/stm32u5xx_hal_pwr_ex.c **** 
 598:Drivers/STM32U5xx_HAL_Driver/Src/stm32u5xx_hal_pwr_ex.c ****       (+) Entry:
 599:Drivers/STM32U5xx_HAL_Driver/Src/stm32u5xx_hal_pwr_ex.c ****           The Stop 3 mode is entered by using the HAL_PWREx_EnterSTOP3Mode()
 600:Drivers/STM32U5xx_HAL_Driver/Src/stm32u5xx_hal_pwr_ex.c ****           function.
 601:Drivers/STM32U5xx_HAL_Driver/Src/stm32u5xx_hal_pwr_ex.c **** 
 602:Drivers/STM32U5xx_HAL_Driver/Src/stm32u5xx_hal_pwr_ex.c ****           (++) PWR_STOPENTRY_WFI: enter Stop 3 mode with WFI instruction.
 603:Drivers/STM32U5xx_HAL_Driver/Src/stm32u5xx_hal_pwr_ex.c ****           (++) PWR_STOPENTRY_WFE: enter Stop 3 mode with WFE instruction.
 604:Drivers/STM32U5xx_HAL_Driver/Src/stm32u5xx_hal_pwr_ex.c **** 
 605:Drivers/STM32U5xx_HAL_Driver/Src/stm32u5xx_hal_pwr_ex.c ****       (+) Exit:
 606:Drivers/STM32U5xx_HAL_Driver/Src/stm32u5xx_hal_pwr_ex.c ****           WKUPx pin edge, RTC or TAMP event, external Reset in NRST pin, IWDG
 607:Drivers/STM32U5xx_HAL_Driver/Src/stm32u5xx_hal_pwr_ex.c ****           Reset, BOR reset.
 608:Drivers/STM32U5xx_HAL_Driver/Src/stm32u5xx_hal_pwr_ex.c **** 
 609:Drivers/STM32U5xx_HAL_Driver/Src/stm32u5xx_hal_pwr_ex.c ****   *** Shutdown mode ***
 610:Drivers/STM32U5xx_HAL_Driver/Src/stm32u5xx_hal_pwr_ex.c ****    ====================
 611:Drivers/STM32U5xx_HAL_Driver/Src/stm32u5xx_hal_pwr_ex.c ****     [..]
 612:Drivers/STM32U5xx_HAL_Driver/Src/stm32u5xx_hal_pwr_ex.c ****       The lowest power consumption is reached in Shutdown mode. It is based on
 613:Drivers/STM32U5xx_HAL_Driver/Src/stm32u5xx_hal_pwr_ex.c ****       the Deepsleep mode with the voltage regulator disabled. The VCORE domain
 614:Drivers/STM32U5xx_HAL_Driver/Src/stm32u5xx_hal_pwr_ex.c ****       is consequently powered off.
 615:Drivers/STM32U5xx_HAL_Driver/Src/stm32u5xx_hal_pwr_ex.c ****       The PLL, HSI16, MSIS, MSIK and HSE oscillators are also switched off.
 616:Drivers/STM32U5xx_HAL_Driver/Src/stm32u5xx_hal_pwr_ex.c ****       The SRAMs and register contents are lost except for registers in the
 617:Drivers/STM32U5xx_HAL_Driver/Src/stm32u5xx_hal_pwr_ex.c ****       Backup domain.
 618:Drivers/STM32U5xx_HAL_Driver/Src/stm32u5xx_hal_pwr_ex.c ****       The BOR is not available in Shutdown mode.
 619:Drivers/STM32U5xx_HAL_Driver/Src/stm32u5xx_hal_pwr_ex.c ****       No power voltage monitoring is possible in this mode, therefore the switch
 620:Drivers/STM32U5xx_HAL_Driver/Src/stm32u5xx_hal_pwr_ex.c ****       to Backup domain is not supported.
 621:Drivers/STM32U5xx_HAL_Driver/Src/stm32u5xx_hal_pwr_ex.c **** 
 622:Drivers/STM32U5xx_HAL_Driver/Src/stm32u5xx_hal_pwr_ex.c ****       (+) Entry:
 623:Drivers/STM32U5xx_HAL_Driver/Src/stm32u5xx_hal_pwr_ex.c ****           The Shutdown mode is entered by using the HAL_PWREx_EnterSHUTDOWNMode()
 624:Drivers/STM32U5xx_HAL_Driver/Src/stm32u5xx_hal_pwr_ex.c ****           function.
 625:Drivers/STM32U5xx_HAL_Driver/Src/stm32u5xx_hal_pwr_ex.c **** 
 626:Drivers/STM32U5xx_HAL_Driver/Src/stm32u5xx_hal_pwr_ex.c ****       (+) Exit:
 627:Drivers/STM32U5xx_HAL_Driver/Src/stm32u5xx_hal_pwr_ex.c ****           WKUPx pin edge, RTC/TAMP event, external Reset in NRST pin.
 628:Drivers/STM32U5xx_HAL_Driver/Src/stm32u5xx_hal_pwr_ex.c **** 
 629:Drivers/STM32U5xx_HAL_Driver/Src/stm32u5xx_hal_pwr_ex.c **** @endverbatim
 630:Drivers/STM32U5xx_HAL_Driver/Src/stm32u5xx_hal_pwr_ex.c ****   * @{
 631:Drivers/STM32U5xx_HAL_Driver/Src/stm32u5xx_hal_pwr_ex.c ****   */
 632:Drivers/STM32U5xx_HAL_Driver/Src/stm32u5xx_hal_pwr_ex.c **** 
 633:Drivers/STM32U5xx_HAL_Driver/Src/stm32u5xx_hal_pwr_ex.c **** /**
 634:Drivers/STM32U5xx_HAL_Driver/Src/stm32u5xx_hal_pwr_ex.c ****   * @brief  Enter the whole system to Stop 1 mode.
 635:Drivers/STM32U5xx_HAL_Driver/Src/stm32u5xx_hal_pwr_ex.c ****   * @note   Stop 1 offers the largest number of active peripherals and wakeup
 636:Drivers/STM32U5xx_HAL_Driver/Src/stm32u5xx_hal_pwr_ex.c ****   *         sources, a smaller wakeup time but a higher consumption.
 637:Drivers/STM32U5xx_HAL_Driver/Src/stm32u5xx_hal_pwr_ex.c ****   * @note   Stop mode achieves the lowest power consumption while retaining
 638:Drivers/STM32U5xx_HAL_Driver/Src/stm32u5xx_hal_pwr_ex.c ****   *         the content of SRAM and registers. All clocks in the VCORE domain
 639:Drivers/STM32U5xx_HAL_Driver/Src/stm32u5xx_hal_pwr_ex.c ****   *         are stopped. The PLL, the MSI (MSIS and MSIK) RC, the HSI16 RC and
 640:Drivers/STM32U5xx_HAL_Driver/Src/stm32u5xx_hal_pwr_ex.c ****   *         the HSE crystal oscillators are disabled. The LSE or LSI is still
 641:Drivers/STM32U5xx_HAL_Driver/Src/stm32u5xx_hal_pwr_ex.c ****   *         running.
 642:Drivers/STM32U5xx_HAL_Driver/Src/stm32u5xx_hal_pwr_ex.c ****   * @note   The system clock when exiting from Stop mode can be either MSIS up
 643:Drivers/STM32U5xx_HAL_Driver/Src/stm32u5xx_hal_pwr_ex.c ****   *         to 24 MHz or HSI16, depending on software configuration.
ARM GAS  C:\Users\Ya\AppData\Local\Temp\ccLrGXJ9.s 			page 20


 644:Drivers/STM32U5xx_HAL_Driver/Src/stm32u5xx_hal_pwr_ex.c ****   * @param  STOPEntry : Specifies if Stop mode is entered with WFI or WFE
 645:Drivers/STM32U5xx_HAL_Driver/Src/stm32u5xx_hal_pwr_ex.c ****   *                     instruction.
 646:Drivers/STM32U5xx_HAL_Driver/Src/stm32u5xx_hal_pwr_ex.c ****   *                     This parameter can be one of the following values :
 647:Drivers/STM32U5xx_HAL_Driver/Src/stm32u5xx_hal_pwr_ex.c ****   *                     @arg @ref PWR_STOPENTRY_WFI enter Stop mode with Wait
 648:Drivers/STM32U5xx_HAL_Driver/Src/stm32u5xx_hal_pwr_ex.c ****   *                               For Interrupt request.
 649:Drivers/STM32U5xx_HAL_Driver/Src/stm32u5xx_hal_pwr_ex.c ****   *                     @arg @ref PWR_STOPENTRY_WFE enter Stop mode with Wait
 650:Drivers/STM32U5xx_HAL_Driver/Src/stm32u5xx_hal_pwr_ex.c ****   *                               For Event request.
 651:Drivers/STM32U5xx_HAL_Driver/Src/stm32u5xx_hal_pwr_ex.c ****   * @retval None.
 652:Drivers/STM32U5xx_HAL_Driver/Src/stm32u5xx_hal_pwr_ex.c ****   */
 653:Drivers/STM32U5xx_HAL_Driver/Src/stm32u5xx_hal_pwr_ex.c **** void HAL_PWREx_EnterSTOP1Mode(uint8_t STOPEntry)
 654:Drivers/STM32U5xx_HAL_Driver/Src/stm32u5xx_hal_pwr_ex.c **** {
 417              		.loc 1 654 1 is_stmt 1 view -0
 418              		.cfi_startproc
 419              		@ args = 0, pretend = 0, frame = 0
 420              		@ frame_needed = 0, uses_anonymous_args = 0
 421              		@ link register save eliminated.
 655:Drivers/STM32U5xx_HAL_Driver/Src/stm32u5xx_hal_pwr_ex.c ****   /* Check the parameters */
 656:Drivers/STM32U5xx_HAL_Driver/Src/stm32u5xx_hal_pwr_ex.c ****   assert_param(IS_PWR_STOP_ENTRY(STOPEntry));
 422              		.loc 1 656 3 view .LVU101
 657:Drivers/STM32U5xx_HAL_Driver/Src/stm32u5xx_hal_pwr_ex.c **** 
 658:Drivers/STM32U5xx_HAL_Driver/Src/stm32u5xx_hal_pwr_ex.c ****   /* Stop 1 mode */
 659:Drivers/STM32U5xx_HAL_Driver/Src/stm32u5xx_hal_pwr_ex.c ****   MODIFY_REG(PWR->CR1, PWR_CR1_LPMS, PWR_CR1_LPMS_0);
 423              		.loc 1 659 3 view .LVU102
 424 0000 0C4A     		ldr	r2, .L44
 425 0002 1368     		ldr	r3, [r2]
 426 0004 23F00703 		bic	r3, r3, #7
 427 0008 43F00103 		orr	r3, r3, #1
 428 000c 1360     		str	r3, [r2]
 660:Drivers/STM32U5xx_HAL_Driver/Src/stm32u5xx_hal_pwr_ex.c **** 
 661:Drivers/STM32U5xx_HAL_Driver/Src/stm32u5xx_hal_pwr_ex.c ****   /* Set SLEEPDEEP bit of Cortex System Control Register */
 662:Drivers/STM32U5xx_HAL_Driver/Src/stm32u5xx_hal_pwr_ex.c ****   SET_BIT(SCB->SCR, ((uint32_t)SCB_SCR_SLEEPDEEP_Msk));
 429              		.loc 1 662 3 view .LVU103
 430 000e 0A4A     		ldr	r2, .L44+4
 431 0010 1369     		ldr	r3, [r2, #16]
 432 0012 43F00403 		orr	r3, r3, #4
 433 0016 1361     		str	r3, [r2, #16]
 663:Drivers/STM32U5xx_HAL_Driver/Src/stm32u5xx_hal_pwr_ex.c **** 
 664:Drivers/STM32U5xx_HAL_Driver/Src/stm32u5xx_hal_pwr_ex.c ****   /* Select Stop mode entry */
 665:Drivers/STM32U5xx_HAL_Driver/Src/stm32u5xx_hal_pwr_ex.c ****   if (STOPEntry == PWR_STOPENTRY_WFI)
 434              		.loc 1 665 3 view .LVU104
 435              		.loc 1 665 6 is_stmt 0 view .LVU105
 436 0018 0128     		cmp	r0, #1
 437 001a 08D0     		beq	.L43
 666:Drivers/STM32U5xx_HAL_Driver/Src/stm32u5xx_hal_pwr_ex.c ****   {
 667:Drivers/STM32U5xx_HAL_Driver/Src/stm32u5xx_hal_pwr_ex.c ****     /* Request Wait For Interrupt */
 668:Drivers/STM32U5xx_HAL_Driver/Src/stm32u5xx_hal_pwr_ex.c ****     __WFI();
 669:Drivers/STM32U5xx_HAL_Driver/Src/stm32u5xx_hal_pwr_ex.c ****   }
 670:Drivers/STM32U5xx_HAL_Driver/Src/stm32u5xx_hal_pwr_ex.c ****   else
 671:Drivers/STM32U5xx_HAL_Driver/Src/stm32u5xx_hal_pwr_ex.c ****   {
 672:Drivers/STM32U5xx_HAL_Driver/Src/stm32u5xx_hal_pwr_ex.c ****     /* Request Wait For Event */
 673:Drivers/STM32U5xx_HAL_Driver/Src/stm32u5xx_hal_pwr_ex.c ****     __SEV();
 438              		.loc 1 673 5 is_stmt 1 view .LVU106
 439              		.syntax unified
 440              	@ 673 "Drivers/STM32U5xx_HAL_Driver/Src/stm32u5xx_hal_pwr_ex.c" 1
 441 001c 40BF     		sev
 442              	@ 0 "" 2
 674:Drivers/STM32U5xx_HAL_Driver/Src/stm32u5xx_hal_pwr_ex.c ****     __WFE();
ARM GAS  C:\Users\Ya\AppData\Local\Temp\ccLrGXJ9.s 			page 21


 443              		.loc 1 674 5 view .LVU107
 444              	@ 674 "Drivers/STM32U5xx_HAL_Driver/Src/stm32u5xx_hal_pwr_ex.c" 1
 445 001e 20BF     		wfe
 446              	@ 0 "" 2
 675:Drivers/STM32U5xx_HAL_Driver/Src/stm32u5xx_hal_pwr_ex.c ****     __WFE();
 447              		.loc 1 675 5 view .LVU108
 448              	@ 675 "Drivers/STM32U5xx_HAL_Driver/Src/stm32u5xx_hal_pwr_ex.c" 1
 449 0020 20BF     		wfe
 450              	@ 0 "" 2
 451              		.thumb
 452              		.syntax unified
 453              	.L42:
 676:Drivers/STM32U5xx_HAL_Driver/Src/stm32u5xx_hal_pwr_ex.c ****   }
 677:Drivers/STM32U5xx_HAL_Driver/Src/stm32u5xx_hal_pwr_ex.c **** 
 678:Drivers/STM32U5xx_HAL_Driver/Src/stm32u5xx_hal_pwr_ex.c ****   /* Reset SLEEPDEEP bit of Cortex System Control Register */
 679:Drivers/STM32U5xx_HAL_Driver/Src/stm32u5xx_hal_pwr_ex.c ****   CLEAR_BIT(SCB->SCR, ((uint32_t)SCB_SCR_SLEEPDEEP_Msk));
 454              		.loc 1 679 3 view .LVU109
 455 0022 054A     		ldr	r2, .L44+4
 456 0024 1369     		ldr	r3, [r2, #16]
 457 0026 23F00403 		bic	r3, r3, #4
 458 002a 1361     		str	r3, [r2, #16]
 680:Drivers/STM32U5xx_HAL_Driver/Src/stm32u5xx_hal_pwr_ex.c **** }
 459              		.loc 1 680 1 is_stmt 0 view .LVU110
 460 002c 7047     		bx	lr
 461              	.L43:
 668:Drivers/STM32U5xx_HAL_Driver/Src/stm32u5xx_hal_pwr_ex.c ****   }
 462              		.loc 1 668 5 is_stmt 1 view .LVU111
 463              		.syntax unified
 464              	@ 668 "Drivers/STM32U5xx_HAL_Driver/Src/stm32u5xx_hal_pwr_ex.c" 1
 465 002e 30BF     		wfi
 466              	@ 0 "" 2
 467              		.thumb
 468              		.syntax unified
 469 0030 F7E7     		b	.L42
 470              	.L45:
 471 0032 00BF     		.align	2
 472              	.L44:
 473 0034 00080246 		.word	1174538240
 474 0038 00ED00E0 		.word	-536810240
 475              		.cfi_endproc
 476              	.LFE346:
 478              		.section	.text.HAL_PWREx_EnterSTOP2Mode,"ax",%progbits
 479              		.align	1
 480              		.global	HAL_PWREx_EnterSTOP2Mode
 481              		.syntax unified
 482              		.thumb
 483              		.thumb_func
 485              	HAL_PWREx_EnterSTOP2Mode:
 486              	.LVL25:
 487              	.LFB347:
 681:Drivers/STM32U5xx_HAL_Driver/Src/stm32u5xx_hal_pwr_ex.c **** 
 682:Drivers/STM32U5xx_HAL_Driver/Src/stm32u5xx_hal_pwr_ex.c **** /**
 683:Drivers/STM32U5xx_HAL_Driver/Src/stm32u5xx_hal_pwr_ex.c ****   * @brief  Enter the whole system to Stop 2 mode.
 684:Drivers/STM32U5xx_HAL_Driver/Src/stm32u5xx_hal_pwr_ex.c ****   * @note   In Stop 2 mode, all clocks in the VCORE domain are stopped. The PLL,
 685:Drivers/STM32U5xx_HAL_Driver/Src/stm32u5xx_hal_pwr_ex.c ****   *         MSIS, MSIK, HSI16 and HSE oscillators are disabled.
 686:Drivers/STM32U5xx_HAL_Driver/Src/stm32u5xx_hal_pwr_ex.c ****   * @note   Stop mode achieves the lowest power consumption while retaining
 687:Drivers/STM32U5xx_HAL_Driver/Src/stm32u5xx_hal_pwr_ex.c ****   *         the content of SRAM and registers. All clocks in the VCORE domain
ARM GAS  C:\Users\Ya\AppData\Local\Temp\ccLrGXJ9.s 			page 22


 688:Drivers/STM32U5xx_HAL_Driver/Src/stm32u5xx_hal_pwr_ex.c ****   *         are stopped. The PLL, the MSI (MSIS and MSIK) RC, the HSI16 RC and
 689:Drivers/STM32U5xx_HAL_Driver/Src/stm32u5xx_hal_pwr_ex.c ****   *         the HSE crystal oscillators are disabled. The LSE or LSI is still
 690:Drivers/STM32U5xx_HAL_Driver/Src/stm32u5xx_hal_pwr_ex.c ****   *         running.
 691:Drivers/STM32U5xx_HAL_Driver/Src/stm32u5xx_hal_pwr_ex.c ****   * @note   The system clock when exiting from Stop mode can be either MSIS up
 692:Drivers/STM32U5xx_HAL_Driver/Src/stm32u5xx_hal_pwr_ex.c ****   *         to 24 MHz or HSI16, depending on software configuration.
 693:Drivers/STM32U5xx_HAL_Driver/Src/stm32u5xx_hal_pwr_ex.c ****   * @param  STOPEntry : Specifies if Stop mode is entered with WFI or WFE
 694:Drivers/STM32U5xx_HAL_Driver/Src/stm32u5xx_hal_pwr_ex.c ****   *                     instruction.
 695:Drivers/STM32U5xx_HAL_Driver/Src/stm32u5xx_hal_pwr_ex.c ****   *                     This parameter can be one of the following values :
 696:Drivers/STM32U5xx_HAL_Driver/Src/stm32u5xx_hal_pwr_ex.c ****   *                     @arg @ref PWR_STOPENTRY_WFI enter Stop mode with Wait
 697:Drivers/STM32U5xx_HAL_Driver/Src/stm32u5xx_hal_pwr_ex.c ****   *                               For Interrupt request.
 698:Drivers/STM32U5xx_HAL_Driver/Src/stm32u5xx_hal_pwr_ex.c ****   *                     @arg @ref PWR_STOPENTRY_WFE enter Stop mode with Wait
 699:Drivers/STM32U5xx_HAL_Driver/Src/stm32u5xx_hal_pwr_ex.c ****   *                               For Event request.
 700:Drivers/STM32U5xx_HAL_Driver/Src/stm32u5xx_hal_pwr_ex.c ****   * @retval None.
 701:Drivers/STM32U5xx_HAL_Driver/Src/stm32u5xx_hal_pwr_ex.c ****   */
 702:Drivers/STM32U5xx_HAL_Driver/Src/stm32u5xx_hal_pwr_ex.c **** void HAL_PWREx_EnterSTOP2Mode(uint8_t STOPEntry)
 703:Drivers/STM32U5xx_HAL_Driver/Src/stm32u5xx_hal_pwr_ex.c **** {
 488              		.loc 1 703 1 view -0
 489              		.cfi_startproc
 490              		@ args = 0, pretend = 0, frame = 0
 491              		@ frame_needed = 0, uses_anonymous_args = 0
 492              		@ link register save eliminated.
 704:Drivers/STM32U5xx_HAL_Driver/Src/stm32u5xx_hal_pwr_ex.c ****   /* Check the parameters */
 705:Drivers/STM32U5xx_HAL_Driver/Src/stm32u5xx_hal_pwr_ex.c ****   assert_param(IS_PWR_STOP_ENTRY(STOPEntry));
 493              		.loc 1 705 3 view .LVU113
 706:Drivers/STM32U5xx_HAL_Driver/Src/stm32u5xx_hal_pwr_ex.c **** 
 707:Drivers/STM32U5xx_HAL_Driver/Src/stm32u5xx_hal_pwr_ex.c ****   /* Stop 2 mode */
 708:Drivers/STM32U5xx_HAL_Driver/Src/stm32u5xx_hal_pwr_ex.c ****   MODIFY_REG(PWR->CR1, PWR_CR1_LPMS, PWR_CR1_LPMS_1);
 494              		.loc 1 708 3 view .LVU114
 495 0000 0C4A     		ldr	r2, .L50
 496 0002 1368     		ldr	r3, [r2]
 497 0004 23F00703 		bic	r3, r3, #7
 498 0008 43F00203 		orr	r3, r3, #2
 499 000c 1360     		str	r3, [r2]
 709:Drivers/STM32U5xx_HAL_Driver/Src/stm32u5xx_hal_pwr_ex.c **** 
 710:Drivers/STM32U5xx_HAL_Driver/Src/stm32u5xx_hal_pwr_ex.c ****   /* Set SLEEPDEEP bit of Cortex System Control Register */
 711:Drivers/STM32U5xx_HAL_Driver/Src/stm32u5xx_hal_pwr_ex.c ****   SET_BIT(SCB->SCR, ((uint32_t)SCB_SCR_SLEEPDEEP_Msk));
 500              		.loc 1 711 3 view .LVU115
 501 000e 0A4A     		ldr	r2, .L50+4
 502 0010 1369     		ldr	r3, [r2, #16]
 503 0012 43F00403 		orr	r3, r3, #4
 504 0016 1361     		str	r3, [r2, #16]
 712:Drivers/STM32U5xx_HAL_Driver/Src/stm32u5xx_hal_pwr_ex.c **** 
 713:Drivers/STM32U5xx_HAL_Driver/Src/stm32u5xx_hal_pwr_ex.c ****   /* Select Stop mode entry */
 714:Drivers/STM32U5xx_HAL_Driver/Src/stm32u5xx_hal_pwr_ex.c ****   if (STOPEntry == PWR_STOPENTRY_WFI)
 505              		.loc 1 714 3 view .LVU116
 506              		.loc 1 714 6 is_stmt 0 view .LVU117
 507 0018 0128     		cmp	r0, #1
 508 001a 08D0     		beq	.L49
 715:Drivers/STM32U5xx_HAL_Driver/Src/stm32u5xx_hal_pwr_ex.c ****   {
 716:Drivers/STM32U5xx_HAL_Driver/Src/stm32u5xx_hal_pwr_ex.c ****     /* Request Wait For Interrupt */
 717:Drivers/STM32U5xx_HAL_Driver/Src/stm32u5xx_hal_pwr_ex.c ****     __WFI();
 718:Drivers/STM32U5xx_HAL_Driver/Src/stm32u5xx_hal_pwr_ex.c ****   }
 719:Drivers/STM32U5xx_HAL_Driver/Src/stm32u5xx_hal_pwr_ex.c ****   else
 720:Drivers/STM32U5xx_HAL_Driver/Src/stm32u5xx_hal_pwr_ex.c ****   {
 721:Drivers/STM32U5xx_HAL_Driver/Src/stm32u5xx_hal_pwr_ex.c ****     /* Request Wait For Event */
 722:Drivers/STM32U5xx_HAL_Driver/Src/stm32u5xx_hal_pwr_ex.c ****     __SEV();
 509              		.loc 1 722 5 is_stmt 1 view .LVU118
ARM GAS  C:\Users\Ya\AppData\Local\Temp\ccLrGXJ9.s 			page 23


 510              		.syntax unified
 511              	@ 722 "Drivers/STM32U5xx_HAL_Driver/Src/stm32u5xx_hal_pwr_ex.c" 1
 512 001c 40BF     		sev
 513              	@ 0 "" 2
 723:Drivers/STM32U5xx_HAL_Driver/Src/stm32u5xx_hal_pwr_ex.c ****     __WFE();
 514              		.loc 1 723 5 view .LVU119
 515              	@ 723 "Drivers/STM32U5xx_HAL_Driver/Src/stm32u5xx_hal_pwr_ex.c" 1
 516 001e 20BF     		wfe
 517              	@ 0 "" 2
 724:Drivers/STM32U5xx_HAL_Driver/Src/stm32u5xx_hal_pwr_ex.c ****     __WFE();
 518              		.loc 1 724 5 view .LVU120
 519              	@ 724 "Drivers/STM32U5xx_HAL_Driver/Src/stm32u5xx_hal_pwr_ex.c" 1
 520 0020 20BF     		wfe
 521              	@ 0 "" 2
 522              		.thumb
 523              		.syntax unified
 524              	.L48:
 725:Drivers/STM32U5xx_HAL_Driver/Src/stm32u5xx_hal_pwr_ex.c ****   }
 726:Drivers/STM32U5xx_HAL_Driver/Src/stm32u5xx_hal_pwr_ex.c **** 
 727:Drivers/STM32U5xx_HAL_Driver/Src/stm32u5xx_hal_pwr_ex.c ****   /* Reset SLEEPDEEP bit of Cortex System Control Register */
 728:Drivers/STM32U5xx_HAL_Driver/Src/stm32u5xx_hal_pwr_ex.c ****   CLEAR_BIT(SCB->SCR, ((uint32_t)SCB_SCR_SLEEPDEEP_Msk));
 525              		.loc 1 728 3 view .LVU121
 526 0022 054A     		ldr	r2, .L50+4
 527 0024 1369     		ldr	r3, [r2, #16]
 528 0026 23F00403 		bic	r3, r3, #4
 529 002a 1361     		str	r3, [r2, #16]
 729:Drivers/STM32U5xx_HAL_Driver/Src/stm32u5xx_hal_pwr_ex.c **** }
 530              		.loc 1 729 1 is_stmt 0 view .LVU122
 531 002c 7047     		bx	lr
 532              	.L49:
 717:Drivers/STM32U5xx_HAL_Driver/Src/stm32u5xx_hal_pwr_ex.c ****   }
 533              		.loc 1 717 5 is_stmt 1 view .LVU123
 534              		.syntax unified
 535              	@ 717 "Drivers/STM32U5xx_HAL_Driver/Src/stm32u5xx_hal_pwr_ex.c" 1
 536 002e 30BF     		wfi
 537              	@ 0 "" 2
 538              		.thumb
 539              		.syntax unified
 540 0030 F7E7     		b	.L48
 541              	.L51:
 542 0032 00BF     		.align	2
 543              	.L50:
 544 0034 00080246 		.word	1174538240
 545 0038 00ED00E0 		.word	-536810240
 546              		.cfi_endproc
 547              	.LFE347:
 549              		.section	.text.HAL_PWREx_EnterSTOP3Mode,"ax",%progbits
 550              		.align	1
 551              		.global	HAL_PWREx_EnterSTOP3Mode
 552              		.syntax unified
 553              		.thumb
 554              		.thumb_func
 556              	HAL_PWREx_EnterSTOP3Mode:
 557              	.LVL26:
 558              	.LFB348:
 730:Drivers/STM32U5xx_HAL_Driver/Src/stm32u5xx_hal_pwr_ex.c **** 
 731:Drivers/STM32U5xx_HAL_Driver/Src/stm32u5xx_hal_pwr_ex.c **** /**
ARM GAS  C:\Users\Ya\AppData\Local\Temp\ccLrGXJ9.s 			page 24


 732:Drivers/STM32U5xx_HAL_Driver/Src/stm32u5xx_hal_pwr_ex.c ****   * @brief  Enter the whole system to Stop 3 mode.
 733:Drivers/STM32U5xx_HAL_Driver/Src/stm32u5xx_hal_pwr_ex.c ****   * @note   Stop 3 is the lowest power mode with full retention, but the
 734:Drivers/STM32U5xx_HAL_Driver/Src/stm32u5xx_hal_pwr_ex.c ****   *         functional peripherals and sources of wakeup are reduced to the same
 735:Drivers/STM32U5xx_HAL_Driver/Src/stm32u5xx_hal_pwr_ex.c ****   *         ones than in Standby mode.
 736:Drivers/STM32U5xx_HAL_Driver/Src/stm32u5xx_hal_pwr_ex.c ****   * @note   Stop mode achieves the lowest power consumption while retaining
 737:Drivers/STM32U5xx_HAL_Driver/Src/stm32u5xx_hal_pwr_ex.c ****   *         the content of SRAM and registers. All clocks in the VCORE domain
 738:Drivers/STM32U5xx_HAL_Driver/Src/stm32u5xx_hal_pwr_ex.c ****   *         are stopped. The PLL, the MSI (MSIS and MSIK) RC, the HSI16 RC and
 739:Drivers/STM32U5xx_HAL_Driver/Src/stm32u5xx_hal_pwr_ex.c ****   *         the HSE crystal oscillators are disabled. The LSE or LSI is still
 740:Drivers/STM32U5xx_HAL_Driver/Src/stm32u5xx_hal_pwr_ex.c ****   *         running.
 741:Drivers/STM32U5xx_HAL_Driver/Src/stm32u5xx_hal_pwr_ex.c ****   * @note   The system clock when exiting from Stop mode can be either MSIS up
 742:Drivers/STM32U5xx_HAL_Driver/Src/stm32u5xx_hal_pwr_ex.c ****   *         to 24 MHz or HSI16, depending on software configuration.
 743:Drivers/STM32U5xx_HAL_Driver/Src/stm32u5xx_hal_pwr_ex.c ****   * @param  STOPEntry : Specifies if Stop mode is entered with WFI or WFE
 744:Drivers/STM32U5xx_HAL_Driver/Src/stm32u5xx_hal_pwr_ex.c ****   *                     instruction.
 745:Drivers/STM32U5xx_HAL_Driver/Src/stm32u5xx_hal_pwr_ex.c ****   *                     This parameter can be one of the following values :
 746:Drivers/STM32U5xx_HAL_Driver/Src/stm32u5xx_hal_pwr_ex.c ****   *                     @arg @ref PWR_STOPENTRY_WFI enter Stop mode with Wait
 747:Drivers/STM32U5xx_HAL_Driver/Src/stm32u5xx_hal_pwr_ex.c ****   *                               For Interrupt request.
 748:Drivers/STM32U5xx_HAL_Driver/Src/stm32u5xx_hal_pwr_ex.c ****   *                     @arg @ref PWR_STOPENTRY_WFE enter Stop mode with Wait
 749:Drivers/STM32U5xx_HAL_Driver/Src/stm32u5xx_hal_pwr_ex.c ****   *                               For Event request.
 750:Drivers/STM32U5xx_HAL_Driver/Src/stm32u5xx_hal_pwr_ex.c ****   * @retval None.
 751:Drivers/STM32U5xx_HAL_Driver/Src/stm32u5xx_hal_pwr_ex.c ****   */
 752:Drivers/STM32U5xx_HAL_Driver/Src/stm32u5xx_hal_pwr_ex.c **** void HAL_PWREx_EnterSTOP3Mode(uint8_t STOPEntry)
 753:Drivers/STM32U5xx_HAL_Driver/Src/stm32u5xx_hal_pwr_ex.c **** {
 559              		.loc 1 753 1 view -0
 560              		.cfi_startproc
 561              		@ args = 0, pretend = 0, frame = 0
 562              		@ frame_needed = 0, uses_anonymous_args = 0
 563              		@ link register save eliminated.
 754:Drivers/STM32U5xx_HAL_Driver/Src/stm32u5xx_hal_pwr_ex.c ****   /* Check the parameter */
 755:Drivers/STM32U5xx_HAL_Driver/Src/stm32u5xx_hal_pwr_ex.c ****   assert_param(IS_PWR_STOP_ENTRY(STOPEntry));
 564              		.loc 1 755 3 view .LVU125
 756:Drivers/STM32U5xx_HAL_Driver/Src/stm32u5xx_hal_pwr_ex.c **** 
 757:Drivers/STM32U5xx_HAL_Driver/Src/stm32u5xx_hal_pwr_ex.c ****   /* Set Stop mode 3 */
 758:Drivers/STM32U5xx_HAL_Driver/Src/stm32u5xx_hal_pwr_ex.c ****   MODIFY_REG(PWR->CR1, PWR_CR1_LPMS, (PWR_CR1_LPMS_0 | PWR_CR1_LPMS_1));
 565              		.loc 1 758 3 view .LVU126
 566 0000 0C4A     		ldr	r2, .L56
 567 0002 1368     		ldr	r3, [r2]
 568 0004 23F00703 		bic	r3, r3, #7
 569 0008 43F00303 		orr	r3, r3, #3
 570 000c 1360     		str	r3, [r2]
 759:Drivers/STM32U5xx_HAL_Driver/Src/stm32u5xx_hal_pwr_ex.c **** 
 760:Drivers/STM32U5xx_HAL_Driver/Src/stm32u5xx_hal_pwr_ex.c ****   /* Set SLEEPDEEP bit of Cortex System Control Register */
 761:Drivers/STM32U5xx_HAL_Driver/Src/stm32u5xx_hal_pwr_ex.c ****   SET_BIT(SCB->SCR, ((uint32_t)SCB_SCR_SLEEPDEEP_Msk));
 571              		.loc 1 761 3 view .LVU127
 572 000e 0A4A     		ldr	r2, .L56+4
 573 0010 1369     		ldr	r3, [r2, #16]
 574 0012 43F00403 		orr	r3, r3, #4
 575 0016 1361     		str	r3, [r2, #16]
 762:Drivers/STM32U5xx_HAL_Driver/Src/stm32u5xx_hal_pwr_ex.c **** 
 763:Drivers/STM32U5xx_HAL_Driver/Src/stm32u5xx_hal_pwr_ex.c ****   /* Select Stop mode entry */
 764:Drivers/STM32U5xx_HAL_Driver/Src/stm32u5xx_hal_pwr_ex.c ****   if (STOPEntry == PWR_STOPENTRY_WFI)
 576              		.loc 1 764 3 view .LVU128
 577              		.loc 1 764 6 is_stmt 0 view .LVU129
 578 0018 0128     		cmp	r0, #1
 579 001a 08D0     		beq	.L55
 765:Drivers/STM32U5xx_HAL_Driver/Src/stm32u5xx_hal_pwr_ex.c ****   {
 766:Drivers/STM32U5xx_HAL_Driver/Src/stm32u5xx_hal_pwr_ex.c ****     /* Request Wait For Interrupt */
 767:Drivers/STM32U5xx_HAL_Driver/Src/stm32u5xx_hal_pwr_ex.c ****     __WFI();
ARM GAS  C:\Users\Ya\AppData\Local\Temp\ccLrGXJ9.s 			page 25


 768:Drivers/STM32U5xx_HAL_Driver/Src/stm32u5xx_hal_pwr_ex.c ****   }
 769:Drivers/STM32U5xx_HAL_Driver/Src/stm32u5xx_hal_pwr_ex.c ****   else
 770:Drivers/STM32U5xx_HAL_Driver/Src/stm32u5xx_hal_pwr_ex.c ****   {
 771:Drivers/STM32U5xx_HAL_Driver/Src/stm32u5xx_hal_pwr_ex.c ****     /* Request Wait For Event */
 772:Drivers/STM32U5xx_HAL_Driver/Src/stm32u5xx_hal_pwr_ex.c ****     __SEV();
 580              		.loc 1 772 5 is_stmt 1 view .LVU130
 581              		.syntax unified
 582              	@ 772 "Drivers/STM32U5xx_HAL_Driver/Src/stm32u5xx_hal_pwr_ex.c" 1
 583 001c 40BF     		sev
 584              	@ 0 "" 2
 773:Drivers/STM32U5xx_HAL_Driver/Src/stm32u5xx_hal_pwr_ex.c ****     __WFE();
 585              		.loc 1 773 5 view .LVU131
 586              	@ 773 "Drivers/STM32U5xx_HAL_Driver/Src/stm32u5xx_hal_pwr_ex.c" 1
 587 001e 20BF     		wfe
 588              	@ 0 "" 2
 774:Drivers/STM32U5xx_HAL_Driver/Src/stm32u5xx_hal_pwr_ex.c ****     __WFE();
 589              		.loc 1 774 5 view .LVU132
 590              	@ 774 "Drivers/STM32U5xx_HAL_Driver/Src/stm32u5xx_hal_pwr_ex.c" 1
 591 0020 20BF     		wfe
 592              	@ 0 "" 2
 593              		.thumb
 594              		.syntax unified
 595              	.L54:
 775:Drivers/STM32U5xx_HAL_Driver/Src/stm32u5xx_hal_pwr_ex.c ****   }
 776:Drivers/STM32U5xx_HAL_Driver/Src/stm32u5xx_hal_pwr_ex.c **** 
 777:Drivers/STM32U5xx_HAL_Driver/Src/stm32u5xx_hal_pwr_ex.c ****   /* Reset SLEEPDEEP bit of Cortex System Control Register */
 778:Drivers/STM32U5xx_HAL_Driver/Src/stm32u5xx_hal_pwr_ex.c ****   CLEAR_BIT(SCB->SCR, ((uint32_t)SCB_SCR_SLEEPDEEP_Msk));
 596              		.loc 1 778 3 view .LVU133
 597 0022 054A     		ldr	r2, .L56+4
 598 0024 1369     		ldr	r3, [r2, #16]
 599 0026 23F00403 		bic	r3, r3, #4
 600 002a 1361     		str	r3, [r2, #16]
 779:Drivers/STM32U5xx_HAL_Driver/Src/stm32u5xx_hal_pwr_ex.c **** }
 601              		.loc 1 779 1 is_stmt 0 view .LVU134
 602 002c 7047     		bx	lr
 603              	.L55:
 767:Drivers/STM32U5xx_HAL_Driver/Src/stm32u5xx_hal_pwr_ex.c ****   }
 604              		.loc 1 767 5 is_stmt 1 view .LVU135
 605              		.syntax unified
 606              	@ 767 "Drivers/STM32U5xx_HAL_Driver/Src/stm32u5xx_hal_pwr_ex.c" 1
 607 002e 30BF     		wfi
 608              	@ 0 "" 2
 609              		.thumb
 610              		.syntax unified
 611 0030 F7E7     		b	.L54
 612              	.L57:
 613 0032 00BF     		.align	2
 614              	.L56:
 615 0034 00080246 		.word	1174538240
 616 0038 00ED00E0 		.word	-536810240
 617              		.cfi_endproc
 618              	.LFE348:
 620              		.section	.text.HAL_PWREx_EnterSHUTDOWNMode,"ax",%progbits
 621              		.align	1
 622              		.global	HAL_PWREx_EnterSHUTDOWNMode
 623              		.syntax unified
 624              		.thumb
ARM GAS  C:\Users\Ya\AppData\Local\Temp\ccLrGXJ9.s 			page 26


 625              		.thumb_func
 627              	HAL_PWREx_EnterSHUTDOWNMode:
 628              	.LFB349:
 780:Drivers/STM32U5xx_HAL_Driver/Src/stm32u5xx_hal_pwr_ex.c **** 
 781:Drivers/STM32U5xx_HAL_Driver/Src/stm32u5xx_hal_pwr_ex.c **** /**
 782:Drivers/STM32U5xx_HAL_Driver/Src/stm32u5xx_hal_pwr_ex.c ****   * @brief  Enter the whole system to Shutdown mode.
 783:Drivers/STM32U5xx_HAL_Driver/Src/stm32u5xx_hal_pwr_ex.c ****   * @note   Shutdown mode allows the lowest power consumption. The internal
 784:Drivers/STM32U5xx_HAL_Driver/Src/stm32u5xx_hal_pwr_ex.c ****   *         regulator is switched off so that the VCORE domain is powered off.
 785:Drivers/STM32U5xx_HAL_Driver/Src/stm32u5xx_hal_pwr_ex.c ****   *         The PLL, the HSI16, the MSI (MSIS and MSIK), the LSI and the HSE
 786:Drivers/STM32U5xx_HAL_Driver/Src/stm32u5xx_hal_pwr_ex.c ****   *         oscillators are also switched off.
 787:Drivers/STM32U5xx_HAL_Driver/Src/stm32u5xx_hal_pwr_ex.c ****   * @note   The SRAMs and register contents are lost except for registers in the
 788:Drivers/STM32U5xx_HAL_Driver/Src/stm32u5xx_hal_pwr_ex.c ****   *         Backup domain. The BOR is not available in Shutdown mode. No power
 789:Drivers/STM32U5xx_HAL_Driver/Src/stm32u5xx_hal_pwr_ex.c ****   *         voltage monitoring is possible in this mode, therefore the switch to
 790:Drivers/STM32U5xx_HAL_Driver/Src/stm32u5xx_hal_pwr_ex.c ****   *         Backup domain is not supported.
 791:Drivers/STM32U5xx_HAL_Driver/Src/stm32u5xx_hal_pwr_ex.c ****   * @retval None.
 792:Drivers/STM32U5xx_HAL_Driver/Src/stm32u5xx_hal_pwr_ex.c ****   */
 793:Drivers/STM32U5xx_HAL_Driver/Src/stm32u5xx_hal_pwr_ex.c **** void HAL_PWREx_EnterSHUTDOWNMode(void)
 794:Drivers/STM32U5xx_HAL_Driver/Src/stm32u5xx_hal_pwr_ex.c **** {
 629              		.loc 1 794 1 view -0
 630              		.cfi_startproc
 631              		@ args = 0, pretend = 0, frame = 0
 632              		@ frame_needed = 0, uses_anonymous_args = 0
 633              		@ link register save eliminated.
 795:Drivers/STM32U5xx_HAL_Driver/Src/stm32u5xx_hal_pwr_ex.c ****   /* Set Shutdown mode */
 796:Drivers/STM32U5xx_HAL_Driver/Src/stm32u5xx_hal_pwr_ex.c ****   MODIFY_REG(PWR->CR1, PWR_CR1_LPMS, (PWR_CR1_LPMS_1 | PWR_CR1_LPMS_2));
 634              		.loc 1 796 3 view .LVU137
 635 0000 064A     		ldr	r2, .L59
 636 0002 1368     		ldr	r3, [r2]
 637 0004 23F00703 		bic	r3, r3, #7
 638 0008 43F00603 		orr	r3, r3, #6
 639 000c 1360     		str	r3, [r2]
 797:Drivers/STM32U5xx_HAL_Driver/Src/stm32u5xx_hal_pwr_ex.c **** 
 798:Drivers/STM32U5xx_HAL_Driver/Src/stm32u5xx_hal_pwr_ex.c ****   /* Set SLEEPDEEP bit of Cortex System Control Register */
 799:Drivers/STM32U5xx_HAL_Driver/Src/stm32u5xx_hal_pwr_ex.c ****   SET_BIT(SCB->SCR, ((uint32_t)SCB_SCR_SLEEPDEEP_Msk));
 640              		.loc 1 799 3 view .LVU138
 641 000e 044A     		ldr	r2, .L59+4
 642 0010 1369     		ldr	r3, [r2, #16]
 643 0012 43F00403 		orr	r3, r3, #4
 644 0016 1361     		str	r3, [r2, #16]
 800:Drivers/STM32U5xx_HAL_Driver/Src/stm32u5xx_hal_pwr_ex.c **** 
 801:Drivers/STM32U5xx_HAL_Driver/Src/stm32u5xx_hal_pwr_ex.c ****   /* This option is used to ensure that store operations are completed */
 802:Drivers/STM32U5xx_HAL_Driver/Src/stm32u5xx_hal_pwr_ex.c **** #if defined (__CC_ARM)
 803:Drivers/STM32U5xx_HAL_Driver/Src/stm32u5xx_hal_pwr_ex.c ****   __force_stores();
 804:Drivers/STM32U5xx_HAL_Driver/Src/stm32u5xx_hal_pwr_ex.c **** #endif /* (__CC_ARM)*/
 805:Drivers/STM32U5xx_HAL_Driver/Src/stm32u5xx_hal_pwr_ex.c ****   /* Request Wait For Interrupt */
 806:Drivers/STM32U5xx_HAL_Driver/Src/stm32u5xx_hal_pwr_ex.c ****   __WFI();
 645              		.loc 1 806 3 view .LVU139
 646              		.syntax unified
 647              	@ 806 "Drivers/STM32U5xx_HAL_Driver/Src/stm32u5xx_hal_pwr_ex.c" 1
 648 0018 30BF     		wfi
 649              	@ 0 "" 2
 807:Drivers/STM32U5xx_HAL_Driver/Src/stm32u5xx_hal_pwr_ex.c **** }
 650              		.loc 1 807 1 is_stmt 0 view .LVU140
 651              		.thumb
 652              		.syntax unified
 653 001a 7047     		bx	lr
 654              	.L60:
ARM GAS  C:\Users\Ya\AppData\Local\Temp\ccLrGXJ9.s 			page 27


 655              		.align	2
 656              	.L59:
 657 001c 00080246 		.word	1174538240
 658 0020 00ED00E0 		.word	-536810240
 659              		.cfi_endproc
 660              	.LFE349:
 662              		.section	.text.HAL_PWREx_ConfigSRDDomain,"ax",%progbits
 663              		.align	1
 664              		.global	HAL_PWREx_ConfigSRDDomain
 665              		.syntax unified
 666              		.thumb
 667              		.thumb_func
 669              	HAL_PWREx_ConfigSRDDomain:
 670              	.LVL27:
 671              	.LFB350:
 808:Drivers/STM32U5xx_HAL_Driver/Src/stm32u5xx_hal_pwr_ex.c **** 
 809:Drivers/STM32U5xx_HAL_Driver/Src/stm32u5xx_hal_pwr_ex.c **** /**
 810:Drivers/STM32U5xx_HAL_Driver/Src/stm32u5xx_hal_pwr_ex.c ****   * @brief  Configure the SRD domain when the System in Stop 0/1/2 mode.
 811:Drivers/STM32U5xx_HAL_Driver/Src/stm32u5xx_hal_pwr_ex.c ****   * @param  SRDState : Specifies the SRD state.
 812:Drivers/STM32U5xx_HAL_Driver/Src/stm32u5xx_hal_pwr_ex.c ****   *                    This parameter can be one of the following values :
 813:Drivers/STM32U5xx_HAL_Driver/Src/stm32u5xx_hal_pwr_ex.c ****   *                    @arg PWR_SRD_DOMAIN_STOP : SRD in Stop mode when system
 814:Drivers/STM32U5xx_HAL_Driver/Src/stm32u5xx_hal_pwr_ex.c ****   *                                               goes to Stop 0/1/2 mode
 815:Drivers/STM32U5xx_HAL_Driver/Src/stm32u5xx_hal_pwr_ex.c ****   *                    @arg PWR_SRD_DOMAIN_RUN  : SRD in Run mode when system
 816:Drivers/STM32U5xx_HAL_Driver/Src/stm32u5xx_hal_pwr_ex.c ****   *                                               goes to Stop 0/1/2 mode
 817:Drivers/STM32U5xx_HAL_Driver/Src/stm32u5xx_hal_pwr_ex.c ****   * @retval None.
 818:Drivers/STM32U5xx_HAL_Driver/Src/stm32u5xx_hal_pwr_ex.c ****   */
 819:Drivers/STM32U5xx_HAL_Driver/Src/stm32u5xx_hal_pwr_ex.c **** void HAL_PWREx_ConfigSRDDomain(uint32_t SRDState)
 820:Drivers/STM32U5xx_HAL_Driver/Src/stm32u5xx_hal_pwr_ex.c **** {
 672              		.loc 1 820 1 is_stmt 1 view -0
 673              		.cfi_startproc
 674              		@ args = 0, pretend = 0, frame = 0
 675              		@ frame_needed = 0, uses_anonymous_args = 0
 676              		@ link register save eliminated.
 821:Drivers/STM32U5xx_HAL_Driver/Src/stm32u5xx_hal_pwr_ex.c ****   /* Check the parameter */
 822:Drivers/STM32U5xx_HAL_Driver/Src/stm32u5xx_hal_pwr_ex.c ****   assert_param(IS_PWR_SRD_STATE(SRDState));
 677              		.loc 1 822 3 view .LVU142
 823:Drivers/STM32U5xx_HAL_Driver/Src/stm32u5xx_hal_pwr_ex.c **** 
 824:Drivers/STM32U5xx_HAL_Driver/Src/stm32u5xx_hal_pwr_ex.c ****   /* Config the SRD domain */
 825:Drivers/STM32U5xx_HAL_Driver/Src/stm32u5xx_hal_pwr_ex.c ****   MODIFY_REG(PWR->CR2, PWR_CR2_SRDRUN, SRDState);
 678              		.loc 1 825 3 view .LVU143
 679 0000 034A     		ldr	r2, .L62
 680 0002 5368     		ldr	r3, [r2, #4]
 681 0004 23F00043 		bic	r3, r3, #-2147483648
 682 0008 0343     		orrs	r3, r3, r0
 683 000a 5360     		str	r3, [r2, #4]
 826:Drivers/STM32U5xx_HAL_Driver/Src/stm32u5xx_hal_pwr_ex.c **** }
 684              		.loc 1 826 1 is_stmt 0 view .LVU144
 685 000c 7047     		bx	lr
 686              	.L63:
 687 000e 00BF     		.align	2
 688              	.L62:
 689 0010 00080246 		.word	1174538240
 690              		.cfi_endproc
 691              	.LFE350:
 693              		.section	.text.HAL_PWREx_EnableUltraLowPowerMode,"ax",%progbits
 694              		.align	1
 695              		.global	HAL_PWREx_EnableUltraLowPowerMode
ARM GAS  C:\Users\Ya\AppData\Local\Temp\ccLrGXJ9.s 			page 28


 696              		.syntax unified
 697              		.thumb
 698              		.thumb_func
 700              	HAL_PWREx_EnableUltraLowPowerMode:
 701              	.LFB351:
 827:Drivers/STM32U5xx_HAL_Driver/Src/stm32u5xx_hal_pwr_ex.c **** 
 828:Drivers/STM32U5xx_HAL_Driver/Src/stm32u5xx_hal_pwr_ex.c **** /**
 829:Drivers/STM32U5xx_HAL_Driver/Src/stm32u5xx_hal_pwr_ex.c ****   * @brief  Enable BOR ultra-low power mode.
 830:Drivers/STM32U5xx_HAL_Driver/Src/stm32u5xx_hal_pwr_ex.c ****   * @note   BOR operating can be in discontinuous (ultra-low power) mode in
 831:Drivers/STM32U5xx_HAL_Driver/Src/stm32u5xx_hal_pwr_ex.c ****   *         Stop 1, Stop 2, Stop 3 and Standby modes and when the regulator is
 832:Drivers/STM32U5xx_HAL_Driver/Src/stm32u5xx_hal_pwr_ex.c ****   *         in Range 4 (Run, Sleep or Stop 0 mode).
 833:Drivers/STM32U5xx_HAL_Driver/Src/stm32u5xx_hal_pwr_ex.c ****   * @retval None.
 834:Drivers/STM32U5xx_HAL_Driver/Src/stm32u5xx_hal_pwr_ex.c ****   */
 835:Drivers/STM32U5xx_HAL_Driver/Src/stm32u5xx_hal_pwr_ex.c **** void HAL_PWREx_EnableUltraLowPowerMode(void)
 836:Drivers/STM32U5xx_HAL_Driver/Src/stm32u5xx_hal_pwr_ex.c **** {
 702              		.loc 1 836 1 is_stmt 1 view -0
 703              		.cfi_startproc
 704              		@ args = 0, pretend = 0, frame = 0
 705              		@ frame_needed = 0, uses_anonymous_args = 0
 706              		@ link register save eliminated.
 837:Drivers/STM32U5xx_HAL_Driver/Src/stm32u5xx_hal_pwr_ex.c ****   SET_BIT(PWR->CR1, PWR_CR1_ULPMEN);
 707              		.loc 1 837 3 view .LVU146
 708 0000 024A     		ldr	r2, .L65
 709 0002 1368     		ldr	r3, [r2]
 710 0004 43F08003 		orr	r3, r3, #128
 711 0008 1360     		str	r3, [r2]
 838:Drivers/STM32U5xx_HAL_Driver/Src/stm32u5xx_hal_pwr_ex.c **** }
 712              		.loc 1 838 1 is_stmt 0 view .LVU147
 713 000a 7047     		bx	lr
 714              	.L66:
 715              		.align	2
 716              	.L65:
 717 000c 00080246 		.word	1174538240
 718              		.cfi_endproc
 719              	.LFE351:
 721              		.section	.text.HAL_PWREx_DisableUltraLowPowerMode,"ax",%progbits
 722              		.align	1
 723              		.global	HAL_PWREx_DisableUltraLowPowerMode
 724              		.syntax unified
 725              		.thumb
 726              		.thumb_func
 728              	HAL_PWREx_DisableUltraLowPowerMode:
 729              	.LFB352:
 839:Drivers/STM32U5xx_HAL_Driver/Src/stm32u5xx_hal_pwr_ex.c **** 
 840:Drivers/STM32U5xx_HAL_Driver/Src/stm32u5xx_hal_pwr_ex.c **** /**
 841:Drivers/STM32U5xx_HAL_Driver/Src/stm32u5xx_hal_pwr_ex.c ****   * @brief  Disable BOR ultra-low power mode.
 842:Drivers/STM32U5xx_HAL_Driver/Src/stm32u5xx_hal_pwr_ex.c ****   * @retval None.
 843:Drivers/STM32U5xx_HAL_Driver/Src/stm32u5xx_hal_pwr_ex.c ****   */
 844:Drivers/STM32U5xx_HAL_Driver/Src/stm32u5xx_hal_pwr_ex.c **** void HAL_PWREx_DisableUltraLowPowerMode(void)
 845:Drivers/STM32U5xx_HAL_Driver/Src/stm32u5xx_hal_pwr_ex.c **** {
 730              		.loc 1 845 1 is_stmt 1 view -0
 731              		.cfi_startproc
 732              		@ args = 0, pretend = 0, frame = 0
 733              		@ frame_needed = 0, uses_anonymous_args = 0
 734              		@ link register save eliminated.
 846:Drivers/STM32U5xx_HAL_Driver/Src/stm32u5xx_hal_pwr_ex.c ****   CLEAR_BIT(PWR->CR1, PWR_CR1_ULPMEN);
 735              		.loc 1 846 3 view .LVU149
ARM GAS  C:\Users\Ya\AppData\Local\Temp\ccLrGXJ9.s 			page 29


 736 0000 024A     		ldr	r2, .L68
 737 0002 1368     		ldr	r3, [r2]
 738 0004 23F08003 		bic	r3, r3, #128
 739 0008 1360     		str	r3, [r2]
 847:Drivers/STM32U5xx_HAL_Driver/Src/stm32u5xx_hal_pwr_ex.c **** }
 740              		.loc 1 847 1 is_stmt 0 view .LVU150
 741 000a 7047     		bx	lr
 742              	.L69:
 743              		.align	2
 744              	.L68:
 745 000c 00080246 		.word	1174538240
 746              		.cfi_endproc
 747              	.LFE352:
 749              		.section	.text.HAL_PWREx_S3WUCallback,"ax",%progbits
 750              		.align	1
 751              		.weak	HAL_PWREx_S3WUCallback
 752              		.syntax unified
 753              		.thumb
 754              		.thumb_func
 756              	HAL_PWREx_S3WUCallback:
 757              	.LVL28:
 758              	.LFB354:
 848:Drivers/STM32U5xx_HAL_Driver/Src/stm32u5xx_hal_pwr_ex.c **** 
 849:Drivers/STM32U5xx_HAL_Driver/Src/stm32u5xx_hal_pwr_ex.c **** /**
 850:Drivers/STM32U5xx_HAL_Driver/Src/stm32u5xx_hal_pwr_ex.c ****   * @brief  This function handles the PWR Wake up from Stop 3 interrupt request.
 851:Drivers/STM32U5xx_HAL_Driver/Src/stm32u5xx_hal_pwr_ex.c ****   * @note   This API should be called under the PWR_S3WU_IRQHandler().
 852:Drivers/STM32U5xx_HAL_Driver/Src/stm32u5xx_hal_pwr_ex.c ****   * @param  WakeUpPin : Specifies the wakeup pin interrupt to be handled.
 853:Drivers/STM32U5xx_HAL_Driver/Src/stm32u5xx_hal_pwr_ex.c ****   *                     This parameter can be a combination of @ref PWR_WakeUp_Pins.
 854:Drivers/STM32U5xx_HAL_Driver/Src/stm32u5xx_hal_pwr_ex.c ****   * @retval None.
 855:Drivers/STM32U5xx_HAL_Driver/Src/stm32u5xx_hal_pwr_ex.c ****   */
 856:Drivers/STM32U5xx_HAL_Driver/Src/stm32u5xx_hal_pwr_ex.c **** void HAL_PWREx_S3WU_IRQHandler(uint32_t WakeUpPin)
 857:Drivers/STM32U5xx_HAL_Driver/Src/stm32u5xx_hal_pwr_ex.c **** {
 858:Drivers/STM32U5xx_HAL_Driver/Src/stm32u5xx_hal_pwr_ex.c ****   /* Check PWR wake up line 1 */
 859:Drivers/STM32U5xx_HAL_Driver/Src/stm32u5xx_hal_pwr_ex.c ****   if ((WakeUpPin & PWR_WAKEUP_PIN1) != 0U)
 860:Drivers/STM32U5xx_HAL_Driver/Src/stm32u5xx_hal_pwr_ex.c ****   {
 861:Drivers/STM32U5xx_HAL_Driver/Src/stm32u5xx_hal_pwr_ex.c ****     if (READ_BIT(PWR->WUSR, PWR_WUSR_WUF1) != 0U)
 862:Drivers/STM32U5xx_HAL_Driver/Src/stm32u5xx_hal_pwr_ex.c ****     {
 863:Drivers/STM32U5xx_HAL_Driver/Src/stm32u5xx_hal_pwr_ex.c ****       /* Clear PWR wake up flag line 1 */
 864:Drivers/STM32U5xx_HAL_Driver/Src/stm32u5xx_hal_pwr_ex.c ****       SET_BIT(PWR->WUSCR, PWR_WUSCR_CWUF1);
 865:Drivers/STM32U5xx_HAL_Driver/Src/stm32u5xx_hal_pwr_ex.c **** 
 866:Drivers/STM32U5xx_HAL_Driver/Src/stm32u5xx_hal_pwr_ex.c ****       /* PWR S3WU interrupt user callback */
 867:Drivers/STM32U5xx_HAL_Driver/Src/stm32u5xx_hal_pwr_ex.c ****       HAL_PWREx_S3WUCallback(WakeUpPin);
 868:Drivers/STM32U5xx_HAL_Driver/Src/stm32u5xx_hal_pwr_ex.c ****     }
 869:Drivers/STM32U5xx_HAL_Driver/Src/stm32u5xx_hal_pwr_ex.c ****   }
 870:Drivers/STM32U5xx_HAL_Driver/Src/stm32u5xx_hal_pwr_ex.c **** 
 871:Drivers/STM32U5xx_HAL_Driver/Src/stm32u5xx_hal_pwr_ex.c ****   /* Check PWR wake up line 2 */
 872:Drivers/STM32U5xx_HAL_Driver/Src/stm32u5xx_hal_pwr_ex.c ****   if ((WakeUpPin & PWR_WAKEUP_PIN2) != 0U)
 873:Drivers/STM32U5xx_HAL_Driver/Src/stm32u5xx_hal_pwr_ex.c ****   {
 874:Drivers/STM32U5xx_HAL_Driver/Src/stm32u5xx_hal_pwr_ex.c ****     if (READ_BIT(PWR->WUSR, PWR_WUSR_WUF2) != 0U)
 875:Drivers/STM32U5xx_HAL_Driver/Src/stm32u5xx_hal_pwr_ex.c ****     {
 876:Drivers/STM32U5xx_HAL_Driver/Src/stm32u5xx_hal_pwr_ex.c ****       /* Clear PWR wake up flag line 2 */
 877:Drivers/STM32U5xx_HAL_Driver/Src/stm32u5xx_hal_pwr_ex.c ****       SET_BIT(PWR->WUSCR, PWR_WUSCR_CWUF2);
 878:Drivers/STM32U5xx_HAL_Driver/Src/stm32u5xx_hal_pwr_ex.c **** 
 879:Drivers/STM32U5xx_HAL_Driver/Src/stm32u5xx_hal_pwr_ex.c ****       /* PWR S3WU interrupt user callback */
 880:Drivers/STM32U5xx_HAL_Driver/Src/stm32u5xx_hal_pwr_ex.c ****       HAL_PWREx_S3WUCallback(WakeUpPin);
 881:Drivers/STM32U5xx_HAL_Driver/Src/stm32u5xx_hal_pwr_ex.c ****     }
 882:Drivers/STM32U5xx_HAL_Driver/Src/stm32u5xx_hal_pwr_ex.c ****   }
ARM GAS  C:\Users\Ya\AppData\Local\Temp\ccLrGXJ9.s 			page 30


 883:Drivers/STM32U5xx_HAL_Driver/Src/stm32u5xx_hal_pwr_ex.c **** 
 884:Drivers/STM32U5xx_HAL_Driver/Src/stm32u5xx_hal_pwr_ex.c ****   /* Check PWR wake up line 3 */
 885:Drivers/STM32U5xx_HAL_Driver/Src/stm32u5xx_hal_pwr_ex.c ****   if ((WakeUpPin & PWR_WAKEUP_PIN3) != 0U)
 886:Drivers/STM32U5xx_HAL_Driver/Src/stm32u5xx_hal_pwr_ex.c ****   {
 887:Drivers/STM32U5xx_HAL_Driver/Src/stm32u5xx_hal_pwr_ex.c ****     if (READ_BIT(PWR->WUSR, PWR_WUSR_WUF3) != 0U)
 888:Drivers/STM32U5xx_HAL_Driver/Src/stm32u5xx_hal_pwr_ex.c ****     {
 889:Drivers/STM32U5xx_HAL_Driver/Src/stm32u5xx_hal_pwr_ex.c ****       /* Clear PWR wake up flag line 3 */
 890:Drivers/STM32U5xx_HAL_Driver/Src/stm32u5xx_hal_pwr_ex.c ****       SET_BIT(PWR->WUSCR, PWR_WUSCR_CWUF3);
 891:Drivers/STM32U5xx_HAL_Driver/Src/stm32u5xx_hal_pwr_ex.c **** 
 892:Drivers/STM32U5xx_HAL_Driver/Src/stm32u5xx_hal_pwr_ex.c ****       /* PWR S3WU interrupt user callback */
 893:Drivers/STM32U5xx_HAL_Driver/Src/stm32u5xx_hal_pwr_ex.c ****       HAL_PWREx_S3WUCallback(WakeUpPin);
 894:Drivers/STM32U5xx_HAL_Driver/Src/stm32u5xx_hal_pwr_ex.c ****     }
 895:Drivers/STM32U5xx_HAL_Driver/Src/stm32u5xx_hal_pwr_ex.c ****   }
 896:Drivers/STM32U5xx_HAL_Driver/Src/stm32u5xx_hal_pwr_ex.c **** 
 897:Drivers/STM32U5xx_HAL_Driver/Src/stm32u5xx_hal_pwr_ex.c ****   /* Check PWR wake up line 4 */
 898:Drivers/STM32U5xx_HAL_Driver/Src/stm32u5xx_hal_pwr_ex.c ****   if ((WakeUpPin & PWR_WAKEUP_PIN4) != 0U)
 899:Drivers/STM32U5xx_HAL_Driver/Src/stm32u5xx_hal_pwr_ex.c ****   {
 900:Drivers/STM32U5xx_HAL_Driver/Src/stm32u5xx_hal_pwr_ex.c ****     if (READ_BIT(PWR->WUSR, PWR_WUSR_WUF4) != 0U)
 901:Drivers/STM32U5xx_HAL_Driver/Src/stm32u5xx_hal_pwr_ex.c ****     {
 902:Drivers/STM32U5xx_HAL_Driver/Src/stm32u5xx_hal_pwr_ex.c ****       /* Clear PWR wake up flag line 4 */
 903:Drivers/STM32U5xx_HAL_Driver/Src/stm32u5xx_hal_pwr_ex.c ****       SET_BIT(PWR->WUSCR, PWR_WUSCR_CWUF4);
 904:Drivers/STM32U5xx_HAL_Driver/Src/stm32u5xx_hal_pwr_ex.c **** 
 905:Drivers/STM32U5xx_HAL_Driver/Src/stm32u5xx_hal_pwr_ex.c ****       /* PWR S3WU interrupt user callback */
 906:Drivers/STM32U5xx_HAL_Driver/Src/stm32u5xx_hal_pwr_ex.c ****       HAL_PWREx_S3WUCallback(WakeUpPin);
 907:Drivers/STM32U5xx_HAL_Driver/Src/stm32u5xx_hal_pwr_ex.c ****     }
 908:Drivers/STM32U5xx_HAL_Driver/Src/stm32u5xx_hal_pwr_ex.c ****   }
 909:Drivers/STM32U5xx_HAL_Driver/Src/stm32u5xx_hal_pwr_ex.c **** 
 910:Drivers/STM32U5xx_HAL_Driver/Src/stm32u5xx_hal_pwr_ex.c ****   /* Check PWR wake up line 5 */
 911:Drivers/STM32U5xx_HAL_Driver/Src/stm32u5xx_hal_pwr_ex.c ****   if ((WakeUpPin & PWR_WAKEUP_PIN5) != 0U)
 912:Drivers/STM32U5xx_HAL_Driver/Src/stm32u5xx_hal_pwr_ex.c ****   {
 913:Drivers/STM32U5xx_HAL_Driver/Src/stm32u5xx_hal_pwr_ex.c ****     if (READ_BIT(PWR->WUSR, PWR_WUSR_WUF5) != 0U)
 914:Drivers/STM32U5xx_HAL_Driver/Src/stm32u5xx_hal_pwr_ex.c ****     {
 915:Drivers/STM32U5xx_HAL_Driver/Src/stm32u5xx_hal_pwr_ex.c ****       /* Clear PWR wake up flag line 5 */
 916:Drivers/STM32U5xx_HAL_Driver/Src/stm32u5xx_hal_pwr_ex.c ****       SET_BIT(PWR->WUSCR, PWR_WUSCR_CWUF5);
 917:Drivers/STM32U5xx_HAL_Driver/Src/stm32u5xx_hal_pwr_ex.c **** 
 918:Drivers/STM32U5xx_HAL_Driver/Src/stm32u5xx_hal_pwr_ex.c ****       /* PWR S3WU interrupt user callback */
 919:Drivers/STM32U5xx_HAL_Driver/Src/stm32u5xx_hal_pwr_ex.c ****       HAL_PWREx_S3WUCallback(WakeUpPin);
 920:Drivers/STM32U5xx_HAL_Driver/Src/stm32u5xx_hal_pwr_ex.c ****     }
 921:Drivers/STM32U5xx_HAL_Driver/Src/stm32u5xx_hal_pwr_ex.c ****   }
 922:Drivers/STM32U5xx_HAL_Driver/Src/stm32u5xx_hal_pwr_ex.c **** 
 923:Drivers/STM32U5xx_HAL_Driver/Src/stm32u5xx_hal_pwr_ex.c ****   /* Check PWR wake up line 6 */
 924:Drivers/STM32U5xx_HAL_Driver/Src/stm32u5xx_hal_pwr_ex.c ****   if ((WakeUpPin & PWR_WAKEUP_PIN6) != 0U)
 925:Drivers/STM32U5xx_HAL_Driver/Src/stm32u5xx_hal_pwr_ex.c ****   {
 926:Drivers/STM32U5xx_HAL_Driver/Src/stm32u5xx_hal_pwr_ex.c ****     if (READ_BIT(PWR->WUSR, PWR_WUSR_WUF6) != 0U)
 927:Drivers/STM32U5xx_HAL_Driver/Src/stm32u5xx_hal_pwr_ex.c ****     {
 928:Drivers/STM32U5xx_HAL_Driver/Src/stm32u5xx_hal_pwr_ex.c ****       /* Clear PWR wake up flag line 6 */
 929:Drivers/STM32U5xx_HAL_Driver/Src/stm32u5xx_hal_pwr_ex.c ****       SET_BIT(PWR->WUSCR, PWR_WUSCR_CWUF6);
 930:Drivers/STM32U5xx_HAL_Driver/Src/stm32u5xx_hal_pwr_ex.c **** 
 931:Drivers/STM32U5xx_HAL_Driver/Src/stm32u5xx_hal_pwr_ex.c ****       /* PWR S3WU interrupt user callback */
 932:Drivers/STM32U5xx_HAL_Driver/Src/stm32u5xx_hal_pwr_ex.c ****       HAL_PWREx_S3WUCallback(WakeUpPin);
 933:Drivers/STM32U5xx_HAL_Driver/Src/stm32u5xx_hal_pwr_ex.c ****     }
 934:Drivers/STM32U5xx_HAL_Driver/Src/stm32u5xx_hal_pwr_ex.c ****   }
 935:Drivers/STM32U5xx_HAL_Driver/Src/stm32u5xx_hal_pwr_ex.c **** 
 936:Drivers/STM32U5xx_HAL_Driver/Src/stm32u5xx_hal_pwr_ex.c ****   /* Check PWR wake up line 7 */
 937:Drivers/STM32U5xx_HAL_Driver/Src/stm32u5xx_hal_pwr_ex.c ****   if ((WakeUpPin & PWR_WAKEUP_PIN7) != 0U)
 938:Drivers/STM32U5xx_HAL_Driver/Src/stm32u5xx_hal_pwr_ex.c ****   {
 939:Drivers/STM32U5xx_HAL_Driver/Src/stm32u5xx_hal_pwr_ex.c ****     if (READ_BIT(PWR->WUSR, PWR_WUSR_WUF7) != 0U)
ARM GAS  C:\Users\Ya\AppData\Local\Temp\ccLrGXJ9.s 			page 31


 940:Drivers/STM32U5xx_HAL_Driver/Src/stm32u5xx_hal_pwr_ex.c ****     {
 941:Drivers/STM32U5xx_HAL_Driver/Src/stm32u5xx_hal_pwr_ex.c ****       /* Clear PWR wake up flag line 7 */
 942:Drivers/STM32U5xx_HAL_Driver/Src/stm32u5xx_hal_pwr_ex.c ****       SET_BIT(PWR->WUSCR, PWR_WUSCR_CWUF7);
 943:Drivers/STM32U5xx_HAL_Driver/Src/stm32u5xx_hal_pwr_ex.c **** 
 944:Drivers/STM32U5xx_HAL_Driver/Src/stm32u5xx_hal_pwr_ex.c ****       /* PWR S3WU interrupt user callback */
 945:Drivers/STM32U5xx_HAL_Driver/Src/stm32u5xx_hal_pwr_ex.c ****       HAL_PWREx_S3WUCallback(WakeUpPin);
 946:Drivers/STM32U5xx_HAL_Driver/Src/stm32u5xx_hal_pwr_ex.c ****     }
 947:Drivers/STM32U5xx_HAL_Driver/Src/stm32u5xx_hal_pwr_ex.c ****   }
 948:Drivers/STM32U5xx_HAL_Driver/Src/stm32u5xx_hal_pwr_ex.c **** 
 949:Drivers/STM32U5xx_HAL_Driver/Src/stm32u5xx_hal_pwr_ex.c ****   /* Check PWR wake up line 8 */
 950:Drivers/STM32U5xx_HAL_Driver/Src/stm32u5xx_hal_pwr_ex.c ****   if ((WakeUpPin & PWR_WAKEUP_PIN8) != 0U)
 951:Drivers/STM32U5xx_HAL_Driver/Src/stm32u5xx_hal_pwr_ex.c ****   {
 952:Drivers/STM32U5xx_HAL_Driver/Src/stm32u5xx_hal_pwr_ex.c ****     if (READ_BIT(PWR->WUSR, PWR_WUSR_WUF8) != 0U)
 953:Drivers/STM32U5xx_HAL_Driver/Src/stm32u5xx_hal_pwr_ex.c ****     {
 954:Drivers/STM32U5xx_HAL_Driver/Src/stm32u5xx_hal_pwr_ex.c ****       /* Clear PWR wake up flag line 8 */
 955:Drivers/STM32U5xx_HAL_Driver/Src/stm32u5xx_hal_pwr_ex.c ****       SET_BIT(PWR->WUSCR, PWR_WUSCR_CWUF8);
 956:Drivers/STM32U5xx_HAL_Driver/Src/stm32u5xx_hal_pwr_ex.c **** 
 957:Drivers/STM32U5xx_HAL_Driver/Src/stm32u5xx_hal_pwr_ex.c ****       /* PWR S3WU interrupt user callback */
 958:Drivers/STM32U5xx_HAL_Driver/Src/stm32u5xx_hal_pwr_ex.c ****       HAL_PWREx_S3WUCallback(WakeUpPin);
 959:Drivers/STM32U5xx_HAL_Driver/Src/stm32u5xx_hal_pwr_ex.c ****     }
 960:Drivers/STM32U5xx_HAL_Driver/Src/stm32u5xx_hal_pwr_ex.c ****   }
 961:Drivers/STM32U5xx_HAL_Driver/Src/stm32u5xx_hal_pwr_ex.c **** }
 962:Drivers/STM32U5xx_HAL_Driver/Src/stm32u5xx_hal_pwr_ex.c **** 
 963:Drivers/STM32U5xx_HAL_Driver/Src/stm32u5xx_hal_pwr_ex.c **** /**
 964:Drivers/STM32U5xx_HAL_Driver/Src/stm32u5xx_hal_pwr_ex.c ****   * @brief  PWR S3WU interrupt callback.
 965:Drivers/STM32U5xx_HAL_Driver/Src/stm32u5xx_hal_pwr_ex.c ****   * @param  WakeUpPin : Specifies the wakeup pin interrupt to be handled.
 966:Drivers/STM32U5xx_HAL_Driver/Src/stm32u5xx_hal_pwr_ex.c ****   *                     This parameter can be a combination of @ref PWR_WakeUp_Pins.
 967:Drivers/STM32U5xx_HAL_Driver/Src/stm32u5xx_hal_pwr_ex.c ****   * @retval None.
 968:Drivers/STM32U5xx_HAL_Driver/Src/stm32u5xx_hal_pwr_ex.c ****   */
 969:Drivers/STM32U5xx_HAL_Driver/Src/stm32u5xx_hal_pwr_ex.c **** __weak void HAL_PWREx_S3WUCallback(uint32_t WakeUpPin)
 970:Drivers/STM32U5xx_HAL_Driver/Src/stm32u5xx_hal_pwr_ex.c **** {
 759              		.loc 1 970 1 is_stmt 1 view -0
 760              		.cfi_startproc
 761              		@ args = 0, pretend = 0, frame = 0
 762              		@ frame_needed = 0, uses_anonymous_args = 0
 763              		@ link register save eliminated.
 971:Drivers/STM32U5xx_HAL_Driver/Src/stm32u5xx_hal_pwr_ex.c ****   /* Prevent unused argument(s) compilation warning */
 972:Drivers/STM32U5xx_HAL_Driver/Src/stm32u5xx_hal_pwr_ex.c ****   UNUSED(WakeUpPin);
 764              		.loc 1 972 3 view .LVU152
 973:Drivers/STM32U5xx_HAL_Driver/Src/stm32u5xx_hal_pwr_ex.c **** 
 974:Drivers/STM32U5xx_HAL_Driver/Src/stm32u5xx_hal_pwr_ex.c ****   /* NOTE : This function should not be modified; when the callback is needed,
 975:Drivers/STM32U5xx_HAL_Driver/Src/stm32u5xx_hal_pwr_ex.c ****             HAL_PWREx_S3WU_IRQHandler() API can be implemented in the user file
 976:Drivers/STM32U5xx_HAL_Driver/Src/stm32u5xx_hal_pwr_ex.c ****    */
 977:Drivers/STM32U5xx_HAL_Driver/Src/stm32u5xx_hal_pwr_ex.c **** }
 765              		.loc 1 977 1 is_stmt 0 view .LVU153
 766 0000 7047     		bx	lr
 767              		.cfi_endproc
 768              	.LFE354:
 770              		.section	.text.HAL_PWREx_S3WU_IRQHandler,"ax",%progbits
 771              		.align	1
 772              		.global	HAL_PWREx_S3WU_IRQHandler
 773              		.syntax unified
 774              		.thumb
 775              		.thumb_func
 777              	HAL_PWREx_S3WU_IRQHandler:
 778              	.LVL29:
 779              	.LFB353:
ARM GAS  C:\Users\Ya\AppData\Local\Temp\ccLrGXJ9.s 			page 32


 857:Drivers/STM32U5xx_HAL_Driver/Src/stm32u5xx_hal_pwr_ex.c ****   /* Check PWR wake up line 1 */
 780              		.loc 1 857 1 is_stmt 1 view -0
 781              		.cfi_startproc
 782              		@ args = 0, pretend = 0, frame = 0
 783              		@ frame_needed = 0, uses_anonymous_args = 0
 857:Drivers/STM32U5xx_HAL_Driver/Src/stm32u5xx_hal_pwr_ex.c ****   /* Check PWR wake up line 1 */
 784              		.loc 1 857 1 is_stmt 0 view .LVU155
 785 0000 10B5     		push	{r4, lr}
 786              		.cfi_def_cfa_offset 8
 787              		.cfi_offset 4, -8
 788              		.cfi_offset 14, -4
 789 0002 0446     		mov	r4, r0
 859:Drivers/STM32U5xx_HAL_Driver/Src/stm32u5xx_hal_pwr_ex.c ****   {
 790              		.loc 1 859 3 is_stmt 1 view .LVU156
 859:Drivers/STM32U5xx_HAL_Driver/Src/stm32u5xx_hal_pwr_ex.c ****   {
 791              		.loc 1 859 6 is_stmt 0 view .LVU157
 792 0004 10F0010F 		tst	r0, #1
 793 0008 04D0     		beq	.L72
 861:Drivers/STM32U5xx_HAL_Driver/Src/stm32u5xx_hal_pwr_ex.c ****     {
 794              		.loc 1 861 5 is_stmt 1 view .LVU158
 861:Drivers/STM32U5xx_HAL_Driver/Src/stm32u5xx_hal_pwr_ex.c ****     {
 795              		.loc 1 861 9 is_stmt 0 view .LVU159
 796 000a 424B     		ldr	r3, .L89
 797 000c 5B6C     		ldr	r3, [r3, #68]
 861:Drivers/STM32U5xx_HAL_Driver/Src/stm32u5xx_hal_pwr_ex.c ****     {
 798              		.loc 1 861 8 view .LVU160
 799 000e 13F0010F 		tst	r3, #1
 800 0012 38D1     		bne	.L81
 801              	.LVL30:
 802              	.L72:
 872:Drivers/STM32U5xx_HAL_Driver/Src/stm32u5xx_hal_pwr_ex.c ****   {
 803              		.loc 1 872 3 is_stmt 1 view .LVU161
 872:Drivers/STM32U5xx_HAL_Driver/Src/stm32u5xx_hal_pwr_ex.c ****   {
 804              		.loc 1 872 6 is_stmt 0 view .LVU162
 805 0014 14F0020F 		tst	r4, #2
 806 0018 04D0     		beq	.L73
 874:Drivers/STM32U5xx_HAL_Driver/Src/stm32u5xx_hal_pwr_ex.c ****     {
 807              		.loc 1 874 5 is_stmt 1 view .LVU163
 874:Drivers/STM32U5xx_HAL_Driver/Src/stm32u5xx_hal_pwr_ex.c ****     {
 808              		.loc 1 874 9 is_stmt 0 view .LVU164
 809 001a 3E4B     		ldr	r3, .L89
 810 001c 5B6C     		ldr	r3, [r3, #68]
 874:Drivers/STM32U5xx_HAL_Driver/Src/stm32u5xx_hal_pwr_ex.c ****     {
 811              		.loc 1 874 8 view .LVU165
 812 001e 13F0020F 		tst	r3, #2
 813 0022 38D1     		bne	.L82
 814              	.L73:
 885:Drivers/STM32U5xx_HAL_Driver/Src/stm32u5xx_hal_pwr_ex.c ****   {
 815              		.loc 1 885 3 is_stmt 1 view .LVU166
 885:Drivers/STM32U5xx_HAL_Driver/Src/stm32u5xx_hal_pwr_ex.c ****   {
 816              		.loc 1 885 6 is_stmt 0 view .LVU167
 817 0024 14F0040F 		tst	r4, #4
 818 0028 04D0     		beq	.L74
 887:Drivers/STM32U5xx_HAL_Driver/Src/stm32u5xx_hal_pwr_ex.c ****     {
 819              		.loc 1 887 5 is_stmt 1 view .LVU168
 887:Drivers/STM32U5xx_HAL_Driver/Src/stm32u5xx_hal_pwr_ex.c ****     {
 820              		.loc 1 887 9 is_stmt 0 view .LVU169
ARM GAS  C:\Users\Ya\AppData\Local\Temp\ccLrGXJ9.s 			page 33


 821 002a 3A4B     		ldr	r3, .L89
 822 002c 5B6C     		ldr	r3, [r3, #68]
 887:Drivers/STM32U5xx_HAL_Driver/Src/stm32u5xx_hal_pwr_ex.c ****     {
 823              		.loc 1 887 8 view .LVU170
 824 002e 13F0040F 		tst	r3, #4
 825 0032 39D1     		bne	.L83
 826              	.L74:
 898:Drivers/STM32U5xx_HAL_Driver/Src/stm32u5xx_hal_pwr_ex.c ****   {
 827              		.loc 1 898 3 is_stmt 1 view .LVU171
 898:Drivers/STM32U5xx_HAL_Driver/Src/stm32u5xx_hal_pwr_ex.c ****   {
 828              		.loc 1 898 6 is_stmt 0 view .LVU172
 829 0034 14F0080F 		tst	r4, #8
 830 0038 04D0     		beq	.L75
 900:Drivers/STM32U5xx_HAL_Driver/Src/stm32u5xx_hal_pwr_ex.c ****     {
 831              		.loc 1 900 5 is_stmt 1 view .LVU173
 900:Drivers/STM32U5xx_HAL_Driver/Src/stm32u5xx_hal_pwr_ex.c ****     {
 832              		.loc 1 900 9 is_stmt 0 view .LVU174
 833 003a 364B     		ldr	r3, .L89
 834 003c 5B6C     		ldr	r3, [r3, #68]
 900:Drivers/STM32U5xx_HAL_Driver/Src/stm32u5xx_hal_pwr_ex.c ****     {
 835              		.loc 1 900 8 view .LVU175
 836 003e 13F0080F 		tst	r3, #8
 837 0042 3AD1     		bne	.L84
 838              	.L75:
 911:Drivers/STM32U5xx_HAL_Driver/Src/stm32u5xx_hal_pwr_ex.c ****   {
 839              		.loc 1 911 3 is_stmt 1 view .LVU176
 911:Drivers/STM32U5xx_HAL_Driver/Src/stm32u5xx_hal_pwr_ex.c ****   {
 840              		.loc 1 911 6 is_stmt 0 view .LVU177
 841 0044 14F0100F 		tst	r4, #16
 842 0048 04D0     		beq	.L76
 913:Drivers/STM32U5xx_HAL_Driver/Src/stm32u5xx_hal_pwr_ex.c ****     {
 843              		.loc 1 913 5 is_stmt 1 view .LVU178
 913:Drivers/STM32U5xx_HAL_Driver/Src/stm32u5xx_hal_pwr_ex.c ****     {
 844              		.loc 1 913 9 is_stmt 0 view .LVU179
 845 004a 324B     		ldr	r3, .L89
 846 004c 5B6C     		ldr	r3, [r3, #68]
 913:Drivers/STM32U5xx_HAL_Driver/Src/stm32u5xx_hal_pwr_ex.c ****     {
 847              		.loc 1 913 8 view .LVU180
 848 004e 13F0100F 		tst	r3, #16
 849 0052 3BD1     		bne	.L85
 850              	.L76:
 924:Drivers/STM32U5xx_HAL_Driver/Src/stm32u5xx_hal_pwr_ex.c ****   {
 851              		.loc 1 924 3 is_stmt 1 view .LVU181
 924:Drivers/STM32U5xx_HAL_Driver/Src/stm32u5xx_hal_pwr_ex.c ****   {
 852              		.loc 1 924 6 is_stmt 0 view .LVU182
 853 0054 14F0200F 		tst	r4, #32
 854 0058 04D0     		beq	.L77
 926:Drivers/STM32U5xx_HAL_Driver/Src/stm32u5xx_hal_pwr_ex.c ****     {
 855              		.loc 1 926 5 is_stmt 1 view .LVU183
 926:Drivers/STM32U5xx_HAL_Driver/Src/stm32u5xx_hal_pwr_ex.c ****     {
 856              		.loc 1 926 9 is_stmt 0 view .LVU184
 857 005a 2E4B     		ldr	r3, .L89
 858 005c 5B6C     		ldr	r3, [r3, #68]
 926:Drivers/STM32U5xx_HAL_Driver/Src/stm32u5xx_hal_pwr_ex.c ****     {
 859              		.loc 1 926 8 view .LVU185
 860 005e 13F0200F 		tst	r3, #32
 861 0062 3CD1     		bne	.L86
ARM GAS  C:\Users\Ya\AppData\Local\Temp\ccLrGXJ9.s 			page 34


 862              	.L77:
 937:Drivers/STM32U5xx_HAL_Driver/Src/stm32u5xx_hal_pwr_ex.c ****   {
 863              		.loc 1 937 3 is_stmt 1 view .LVU186
 937:Drivers/STM32U5xx_HAL_Driver/Src/stm32u5xx_hal_pwr_ex.c ****   {
 864              		.loc 1 937 6 is_stmt 0 view .LVU187
 865 0064 14F0400F 		tst	r4, #64
 866 0068 04D0     		beq	.L78
 939:Drivers/STM32U5xx_HAL_Driver/Src/stm32u5xx_hal_pwr_ex.c ****     {
 867              		.loc 1 939 5 is_stmt 1 view .LVU188
 939:Drivers/STM32U5xx_HAL_Driver/Src/stm32u5xx_hal_pwr_ex.c ****     {
 868              		.loc 1 939 9 is_stmt 0 view .LVU189
 869 006a 2A4B     		ldr	r3, .L89
 870 006c 5B6C     		ldr	r3, [r3, #68]
 939:Drivers/STM32U5xx_HAL_Driver/Src/stm32u5xx_hal_pwr_ex.c ****     {
 871              		.loc 1 939 8 view .LVU190
 872 006e 13F0400F 		tst	r3, #64
 873 0072 3DD1     		bne	.L87
 874              	.L78:
 950:Drivers/STM32U5xx_HAL_Driver/Src/stm32u5xx_hal_pwr_ex.c ****   {
 875              		.loc 1 950 3 is_stmt 1 view .LVU191
 950:Drivers/STM32U5xx_HAL_Driver/Src/stm32u5xx_hal_pwr_ex.c ****   {
 876              		.loc 1 950 6 is_stmt 0 view .LVU192
 877 0074 14F0800F 		tst	r4, #128
 878 0078 04D0     		beq	.L71
 952:Drivers/STM32U5xx_HAL_Driver/Src/stm32u5xx_hal_pwr_ex.c ****     {
 879              		.loc 1 952 5 is_stmt 1 view .LVU193
 952:Drivers/STM32U5xx_HAL_Driver/Src/stm32u5xx_hal_pwr_ex.c ****     {
 880              		.loc 1 952 9 is_stmt 0 view .LVU194
 881 007a 264B     		ldr	r3, .L89
 882 007c 5B6C     		ldr	r3, [r3, #68]
 952:Drivers/STM32U5xx_HAL_Driver/Src/stm32u5xx_hal_pwr_ex.c ****     {
 883              		.loc 1 952 8 view .LVU195
 884 007e 13F0800F 		tst	r3, #128
 885 0082 3ED1     		bne	.L88
 886              	.L71:
 961:Drivers/STM32U5xx_HAL_Driver/Src/stm32u5xx_hal_pwr_ex.c **** 
 887              		.loc 1 961 1 view .LVU196
 888 0084 10BD     		pop	{r4, pc}
 889              	.LVL31:
 890              	.L81:
 864:Drivers/STM32U5xx_HAL_Driver/Src/stm32u5xx_hal_pwr_ex.c **** 
 891              		.loc 1 864 7 is_stmt 1 view .LVU197
 892 0086 234A     		ldr	r2, .L89
 893 0088 936C     		ldr	r3, [r2, #72]
 894 008a 43F00103 		orr	r3, r3, #1
 895 008e 9364     		str	r3, [r2, #72]
 867:Drivers/STM32U5xx_HAL_Driver/Src/stm32u5xx_hal_pwr_ex.c ****     }
 896              		.loc 1 867 7 view .LVU198
 897 0090 FFF7FEFF 		bl	HAL_PWREx_S3WUCallback
 898              	.LVL32:
 867:Drivers/STM32U5xx_HAL_Driver/Src/stm32u5xx_hal_pwr_ex.c ****     }
 899              		.loc 1 867 7 is_stmt 0 view .LVU199
 900 0094 BEE7     		b	.L72
 901              	.L82:
 877:Drivers/STM32U5xx_HAL_Driver/Src/stm32u5xx_hal_pwr_ex.c **** 
 902              		.loc 1 877 7 is_stmt 1 view .LVU200
 903 0096 1F4A     		ldr	r2, .L89
ARM GAS  C:\Users\Ya\AppData\Local\Temp\ccLrGXJ9.s 			page 35


 904 0098 936C     		ldr	r3, [r2, #72]
 905 009a 43F00203 		orr	r3, r3, #2
 906 009e 9364     		str	r3, [r2, #72]
 880:Drivers/STM32U5xx_HAL_Driver/Src/stm32u5xx_hal_pwr_ex.c ****     }
 907              		.loc 1 880 7 view .LVU201
 908 00a0 2046     		mov	r0, r4
 909 00a2 FFF7FEFF 		bl	HAL_PWREx_S3WUCallback
 910              	.LVL33:
 911 00a6 BDE7     		b	.L73
 912              	.L83:
 890:Drivers/STM32U5xx_HAL_Driver/Src/stm32u5xx_hal_pwr_ex.c **** 
 913              		.loc 1 890 7 view .LVU202
 914 00a8 1A4A     		ldr	r2, .L89
 915 00aa 936C     		ldr	r3, [r2, #72]
 916 00ac 43F00403 		orr	r3, r3, #4
 917 00b0 9364     		str	r3, [r2, #72]
 893:Drivers/STM32U5xx_HAL_Driver/Src/stm32u5xx_hal_pwr_ex.c ****     }
 918              		.loc 1 893 7 view .LVU203
 919 00b2 2046     		mov	r0, r4
 920 00b4 FFF7FEFF 		bl	HAL_PWREx_S3WUCallback
 921              	.LVL34:
 922 00b8 BCE7     		b	.L74
 923              	.L84:
 903:Drivers/STM32U5xx_HAL_Driver/Src/stm32u5xx_hal_pwr_ex.c **** 
 924              		.loc 1 903 7 view .LVU204
 925 00ba 164A     		ldr	r2, .L89
 926 00bc 936C     		ldr	r3, [r2, #72]
 927 00be 43F00803 		orr	r3, r3, #8
 928 00c2 9364     		str	r3, [r2, #72]
 906:Drivers/STM32U5xx_HAL_Driver/Src/stm32u5xx_hal_pwr_ex.c ****     }
 929              		.loc 1 906 7 view .LVU205
 930 00c4 2046     		mov	r0, r4
 931 00c6 FFF7FEFF 		bl	HAL_PWREx_S3WUCallback
 932              	.LVL35:
 933 00ca BBE7     		b	.L75
 934              	.L85:
 916:Drivers/STM32U5xx_HAL_Driver/Src/stm32u5xx_hal_pwr_ex.c **** 
 935              		.loc 1 916 7 view .LVU206
 936 00cc 114A     		ldr	r2, .L89
 937 00ce 936C     		ldr	r3, [r2, #72]
 938 00d0 43F01003 		orr	r3, r3, #16
 939 00d4 9364     		str	r3, [r2, #72]
 919:Drivers/STM32U5xx_HAL_Driver/Src/stm32u5xx_hal_pwr_ex.c ****     }
 940              		.loc 1 919 7 view .LVU207
 941 00d6 2046     		mov	r0, r4
 942 00d8 FFF7FEFF 		bl	HAL_PWREx_S3WUCallback
 943              	.LVL36:
 944 00dc BAE7     		b	.L76
 945              	.L86:
 929:Drivers/STM32U5xx_HAL_Driver/Src/stm32u5xx_hal_pwr_ex.c **** 
 946              		.loc 1 929 7 view .LVU208
 947 00de 0D4A     		ldr	r2, .L89
 948 00e0 936C     		ldr	r3, [r2, #72]
 949 00e2 43F02003 		orr	r3, r3, #32
 950 00e6 9364     		str	r3, [r2, #72]
 932:Drivers/STM32U5xx_HAL_Driver/Src/stm32u5xx_hal_pwr_ex.c ****     }
 951              		.loc 1 932 7 view .LVU209
ARM GAS  C:\Users\Ya\AppData\Local\Temp\ccLrGXJ9.s 			page 36


 952 00e8 2046     		mov	r0, r4
 953 00ea FFF7FEFF 		bl	HAL_PWREx_S3WUCallback
 954              	.LVL37:
 955 00ee B9E7     		b	.L77
 956              	.L87:
 942:Drivers/STM32U5xx_HAL_Driver/Src/stm32u5xx_hal_pwr_ex.c **** 
 957              		.loc 1 942 7 view .LVU210
 958 00f0 084A     		ldr	r2, .L89
 959 00f2 936C     		ldr	r3, [r2, #72]
 960 00f4 43F04003 		orr	r3, r3, #64
 961 00f8 9364     		str	r3, [r2, #72]
 945:Drivers/STM32U5xx_HAL_Driver/Src/stm32u5xx_hal_pwr_ex.c ****     }
 962              		.loc 1 945 7 view .LVU211
 963 00fa 2046     		mov	r0, r4
 964 00fc FFF7FEFF 		bl	HAL_PWREx_S3WUCallback
 965              	.LVL38:
 966 0100 B8E7     		b	.L78
 967              	.L88:
 955:Drivers/STM32U5xx_HAL_Driver/Src/stm32u5xx_hal_pwr_ex.c **** 
 968              		.loc 1 955 7 view .LVU212
 969 0102 044A     		ldr	r2, .L89
 970 0104 936C     		ldr	r3, [r2, #72]
 971 0106 43F08003 		orr	r3, r3, #128
 972 010a 9364     		str	r3, [r2, #72]
 958:Drivers/STM32U5xx_HAL_Driver/Src/stm32u5xx_hal_pwr_ex.c ****     }
 973              		.loc 1 958 7 view .LVU213
 974 010c 2046     		mov	r0, r4
 975 010e FFF7FEFF 		bl	HAL_PWREx_S3WUCallback
 976              	.LVL39:
 961:Drivers/STM32U5xx_HAL_Driver/Src/stm32u5xx_hal_pwr_ex.c **** 
 977              		.loc 1 961 1 is_stmt 0 view .LVU214
 978 0112 B7E7     		b	.L71
 979              	.L90:
 980              		.align	2
 981              	.L89:
 982 0114 00080246 		.word	1174538240
 983              		.cfi_endproc
 984              	.LFE353:
 986              		.section	.text.HAL_PWREx_ConfigPVM,"ax",%progbits
 987              		.align	1
 988              		.global	HAL_PWREx_ConfigPVM
 989              		.syntax unified
 990              		.thumb
 991              		.thumb_func
 993              	HAL_PWREx_ConfigPVM:
 994              	.LVL40:
 995              	.LFB355:
 978:Drivers/STM32U5xx_HAL_Driver/Src/stm32u5xx_hal_pwr_ex.c **** /**
 979:Drivers/STM32U5xx_HAL_Driver/Src/stm32u5xx_hal_pwr_ex.c ****   * @}
 980:Drivers/STM32U5xx_HAL_Driver/Src/stm32u5xx_hal_pwr_ex.c ****   */
 981:Drivers/STM32U5xx_HAL_Driver/Src/stm32u5xx_hal_pwr_ex.c **** 
 982:Drivers/STM32U5xx_HAL_Driver/Src/stm32u5xx_hal_pwr_ex.c **** /** @defgroup PWREx_Exported_Functions_Group3 Voltage Monitoring Functions
 983:Drivers/STM32U5xx_HAL_Driver/Src/stm32u5xx_hal_pwr_ex.c ****   * @brief    Voltage monitoring functions
 984:Drivers/STM32U5xx_HAL_Driver/Src/stm32u5xx_hal_pwr_ex.c ****   *
 985:Drivers/STM32U5xx_HAL_Driver/Src/stm32u5xx_hal_pwr_ex.c **** @verbatim
 986:Drivers/STM32U5xx_HAL_Driver/Src/stm32u5xx_hal_pwr_ex.c ****  ===============================================================================
 987:Drivers/STM32U5xx_HAL_Driver/Src/stm32u5xx_hal_pwr_ex.c ****                      ##### Voltage Monitoring Functions #####
ARM GAS  C:\Users\Ya\AppData\Local\Temp\ccLrGXJ9.s 			page 37


 988:Drivers/STM32U5xx_HAL_Driver/Src/stm32u5xx_hal_pwr_ex.c ****  ===============================================================================
 989:Drivers/STM32U5xx_HAL_Driver/Src/stm32u5xx_hal_pwr_ex.c ****     [..]
 990:Drivers/STM32U5xx_HAL_Driver/Src/stm32u5xx_hal_pwr_ex.c ****       This section provides functions allowing voltage monitoring.
 991:Drivers/STM32U5xx_HAL_Driver/Src/stm32u5xx_hal_pwr_ex.c **** 
 992:Drivers/STM32U5xx_HAL_Driver/Src/stm32u5xx_hal_pwr_ex.c ****     *** PVM configuration ***
 993:Drivers/STM32U5xx_HAL_Driver/Src/stm32u5xx_hal_pwr_ex.c ****     =========================
 994:Drivers/STM32U5xx_HAL_Driver/Src/stm32u5xx_hal_pwr_ex.c ****     [..]
 995:Drivers/STM32U5xx_HAL_Driver/Src/stm32u5xx_hal_pwr_ex.c ****       (+) The supplies (VDDA, VDDIO2 and VDDUSB) can be independent from VDD and
 996:Drivers/STM32U5xx_HAL_Driver/Src/stm32u5xx_hal_pwr_ex.c ****           can be monitored with four peripheral voltage monitoring (PVM):
 997:Drivers/STM32U5xx_HAL_Driver/Src/stm32u5xx_hal_pwr_ex.c **** 
 998:Drivers/STM32U5xx_HAL_Driver/Src/stm32u5xx_hal_pwr_ex.c ****           (++) The UVM monitors the USB supply VDDUSB. VDDUSBRDY indicates if
 999:Drivers/STM32U5xx_HAL_Driver/Src/stm32u5xx_hal_pwr_ex.c ****                the VDDUSB independent power supply is higher or lower than the
1000:Drivers/STM32U5xx_HAL_Driver/Src/stm32u5xx_hal_pwr_ex.c ****                VUVM threshold.
1001:Drivers/STM32U5xx_HAL_Driver/Src/stm32u5xx_hal_pwr_ex.c ****           (++) The IO2VM monitors the PG[15:2] supply VDDIO2. VDDIO2RDY
1002:Drivers/STM32U5xx_HAL_Driver/Src/stm32u5xx_hal_pwr_ex.c ****                indicates if the VDDIO2 independent power supply is higher or
1003:Drivers/STM32U5xx_HAL_Driver/Src/stm32u5xx_hal_pwr_ex.c ****                lower than the VIO2VM threshold.
1004:Drivers/STM32U5xx_HAL_Driver/Src/stm32u5xx_hal_pwr_ex.c ****           (++) The AVM1 monitors the analog supply VDDA. VDDA1RDY indicates if
1005:Drivers/STM32U5xx_HAL_Driver/Src/stm32u5xx_hal_pwr_ex.c ****                the VDDA independent power supply is higher or lower than the
1006:Drivers/STM32U5xx_HAL_Driver/Src/stm32u5xx_hal_pwr_ex.c ****                VAVM1 threshold.
1007:Drivers/STM32U5xx_HAL_Driver/Src/stm32u5xx_hal_pwr_ex.c ****           (++) The AVM2 monitors the analog supply VDDA. VDDA2RDY indicates if
1008:Drivers/STM32U5xx_HAL_Driver/Src/stm32u5xx_hal_pwr_ex.c ****                the VDDA independent power supply is higher or lower than the
1009:Drivers/STM32U5xx_HAL_Driver/Src/stm32u5xx_hal_pwr_ex.c ****                VAVM2 threshold.
1010:Drivers/STM32U5xx_HAL_Driver/Src/stm32u5xx_hal_pwr_ex.c **** 
1011:Drivers/STM32U5xx_HAL_Driver/Src/stm32u5xx_hal_pwr_ex.c ****       (+) Each PVM output is connected to an EXTI line and can generate an
1012:Drivers/STM32U5xx_HAL_Driver/Src/stm32u5xx_hal_pwr_ex.c ****           interrupt if enabled through the EXTI registers. The PVMx output
1013:Drivers/STM32U5xx_HAL_Driver/Src/stm32u5xx_hal_pwr_ex.c ****           interrupt is generated when the independent power supply drops below
1014:Drivers/STM32U5xx_HAL_Driver/Src/stm32u5xx_hal_pwr_ex.c ****           the PVM threshold and/or when it rises above the PVM threshold,
1015:Drivers/STM32U5xx_HAL_Driver/Src/stm32u5xx_hal_pwr_ex.c ****           depending on EXTI line rising/falling edge configuration.
1016:Drivers/STM32U5xx_HAL_Driver/Src/stm32u5xx_hal_pwr_ex.c **** 
1017:Drivers/STM32U5xx_HAL_Driver/Src/stm32u5xx_hal_pwr_ex.c ****       (+) Each PVM can remain active in Stop 0, Stop 1, Stop 2 modes, and the
1018:Drivers/STM32U5xx_HAL_Driver/Src/stm32u5xx_hal_pwr_ex.c ****           PVM interrupt can wake up from the Stop mode. The PVM is not
1019:Drivers/STM32U5xx_HAL_Driver/Src/stm32u5xx_hal_pwr_ex.c ****           functional in Stop 3 mode.
1020:Drivers/STM32U5xx_HAL_Driver/Src/stm32u5xx_hal_pwr_ex.c **** 
1021:Drivers/STM32U5xx_HAL_Driver/Src/stm32u5xx_hal_pwr_ex.c ****     *** VBAT charging ***
1022:Drivers/STM32U5xx_HAL_Driver/Src/stm32u5xx_hal_pwr_ex.c ****     =====================
1023:Drivers/STM32U5xx_HAL_Driver/Src/stm32u5xx_hal_pwr_ex.c ****     [..]
1024:Drivers/STM32U5xx_HAL_Driver/Src/stm32u5xx_hal_pwr_ex.c ****       When VDD is present, it is possible to charge the external battery on VBAT
1025:Drivers/STM32U5xx_HAL_Driver/Src/stm32u5xx_hal_pwr_ex.c ****       through an internal resistance.
1026:Drivers/STM32U5xx_HAL_Driver/Src/stm32u5xx_hal_pwr_ex.c ****       The VBAT charging is done either through a 5 kOhm resistor or through a 1.5
1027:Drivers/STM32U5xx_HAL_Driver/Src/stm32u5xx_hal_pwr_ex.c ****       kOhm resistor depending on the VBRS bit value in the PWR_BDCR2 register.
1028:Drivers/STM32U5xx_HAL_Driver/Src/stm32u5xx_hal_pwr_ex.c ****       The battery charging is enabled by setting VBE bit in the PWR_BDCR2
1029:Drivers/STM32U5xx_HAL_Driver/Src/stm32u5xx_hal_pwr_ex.c ****       register. It is automatically disabled in VBAT mode.
1030:Drivers/STM32U5xx_HAL_Driver/Src/stm32u5xx_hal_pwr_ex.c **** 
1031:Drivers/STM32U5xx_HAL_Driver/Src/stm32u5xx_hal_pwr_ex.c ****     *** Backup domain monitoring ***
1032:Drivers/STM32U5xx_HAL_Driver/Src/stm32u5xx_hal_pwr_ex.c ****     ================================
1033:Drivers/STM32U5xx_HAL_Driver/Src/stm32u5xx_hal_pwr_ex.c ****     [..]
1034:Drivers/STM32U5xx_HAL_Driver/Src/stm32u5xx_hal_pwr_ex.c ****       When the Backup domain voltage and temperature monitoring is enabled
1035:Drivers/STM32U5xx_HAL_Driver/Src/stm32u5xx_hal_pwr_ex.c ****       (MONEN = 1 in the PWR_BDCR1 register), the Backup domain voltage and the
1036:Drivers/STM32U5xx_HAL_Driver/Src/stm32u5xx_hal_pwr_ex.c ****       temperature are monitored.
1037:Drivers/STM32U5xx_HAL_Driver/Src/stm32u5xx_hal_pwr_ex.c ****       If the Backup domain voltage monitoring internal tamper is enabled in the
1038:Drivers/STM32U5xx_HAL_Driver/Src/stm32u5xx_hal_pwr_ex.c ****       TAMP peripheral (ITAMP1E = 1 in the TAMP_CR1 register), a tamper event is
1039:Drivers/STM32U5xx_HAL_Driver/Src/stm32u5xx_hal_pwr_ex.c ****       generated when the Backup domain voltage is above the functional range.
1040:Drivers/STM32U5xx_HAL_Driver/Src/stm32u5xx_hal_pwr_ex.c ****       In case the Backup domain voltage is below the functional range,
1041:Drivers/STM32U5xx_HAL_Driver/Src/stm32u5xx_hal_pwr_ex.c ****       a Brownout reset is generated, erasing all device including Backup domain.
1042:Drivers/STM32U5xx_HAL_Driver/Src/stm32u5xx_hal_pwr_ex.c **** 
1043:Drivers/STM32U5xx_HAL_Driver/Src/stm32u5xx_hal_pwr_ex.c ****     *** Backup domain battery ***
1044:Drivers/STM32U5xx_HAL_Driver/Src/stm32u5xx_hal_pwr_ex.c ****     =============================
ARM GAS  C:\Users\Ya\AppData\Local\Temp\ccLrGXJ9.s 			page 38


1045:Drivers/STM32U5xx_HAL_Driver/Src/stm32u5xx_hal_pwr_ex.c ****     [..]
1046:Drivers/STM32U5xx_HAL_Driver/Src/stm32u5xx_hal_pwr_ex.c ****       (+) To retain the content of the backup registers and supply the RTC
1047:Drivers/STM32U5xx_HAL_Driver/Src/stm32u5xx_hal_pwr_ex.c ****           function when VDD is turned off, the VBAT pin can be connected to an
1048:Drivers/STM32U5xx_HAL_Driver/Src/stm32u5xx_hal_pwr_ex.c ****           optional backup voltage supplied by a battery or by another source.
1049:Drivers/STM32U5xx_HAL_Driver/Src/stm32u5xx_hal_pwr_ex.c ****           The VBAT pin powers the RTC unit, the LSE oscillator and the PC13 to
1050:Drivers/STM32U5xx_HAL_Driver/Src/stm32u5xx_hal_pwr_ex.c ****           PC15 I/Os, allowing the RTC to operate even when the main power supply
1051:Drivers/STM32U5xx_HAL_Driver/Src/stm32u5xx_hal_pwr_ex.c ****           is turned off. The backup SRAM is optionally powered by VBAT pin when
1052:Drivers/STM32U5xx_HAL_Driver/Src/stm32u5xx_hal_pwr_ex.c ****           the BREN bit is set in the PWR Backup domain control register 1
1053:Drivers/STM32U5xx_HAL_Driver/Src/stm32u5xx_hal_pwr_ex.c ****           (PWR_BDCR1).
1054:Drivers/STM32U5xx_HAL_Driver/Src/stm32u5xx_hal_pwr_ex.c ****           The switch to the VBAT supply is controlled by the power down reset
1055:Drivers/STM32U5xx_HAL_Driver/Src/stm32u5xx_hal_pwr_ex.c ****           embedded in the Reset block.
1056:Drivers/STM32U5xx_HAL_Driver/Src/stm32u5xx_hal_pwr_ex.c **** 
1057:Drivers/STM32U5xx_HAL_Driver/Src/stm32u5xx_hal_pwr_ex.c ****       (+) After exiting reset, the USB Type-C (dead battery) behavior is enabled,
1058:Drivers/STM32U5xx_HAL_Driver/Src/stm32u5xx_hal_pwr_ex.c ****           which may have a pull-down effect on CC1 and CC2 pins. It is
1059:Drivers/STM32U5xx_HAL_Driver/Src/stm32u5xx_hal_pwr_ex.c ****           recommended to disable it in all cases, either to stop this pull-down
1060:Drivers/STM32U5xx_HAL_Driver/Src/stm32u5xx_hal_pwr_ex.c ****           or to handover control to the UCPD (the UCPD must be initialized
1061:Drivers/STM32U5xx_HAL_Driver/Src/stm32u5xx_hal_pwr_ex.c ****           before doing the disable).
1062:Drivers/STM32U5xx_HAL_Driver/Src/stm32u5xx_hal_pwr_ex.c **** 
1063:Drivers/STM32U5xx_HAL_Driver/Src/stm32u5xx_hal_pwr_ex.c **** @endverbatim
1064:Drivers/STM32U5xx_HAL_Driver/Src/stm32u5xx_hal_pwr_ex.c ****   * @{
1065:Drivers/STM32U5xx_HAL_Driver/Src/stm32u5xx_hal_pwr_ex.c ****   */
1066:Drivers/STM32U5xx_HAL_Driver/Src/stm32u5xx_hal_pwr_ex.c **** 
1067:Drivers/STM32U5xx_HAL_Driver/Src/stm32u5xx_hal_pwr_ex.c **** /**
1068:Drivers/STM32U5xx_HAL_Driver/Src/stm32u5xx_hal_pwr_ex.c ****   * @brief  Configure the voltage monitor threshold detected by the Peripheral
1069:Drivers/STM32U5xx_HAL_Driver/Src/stm32u5xx_hal_pwr_ex.c ****   *         voltage monitoring (PVM).
1070:Drivers/STM32U5xx_HAL_Driver/Src/stm32u5xx_hal_pwr_ex.c ****   * @param  pConfigPVM : Pointer to a PWR_PVMTypeDef structure that contains the
1071:Drivers/STM32U5xx_HAL_Driver/Src/stm32u5xx_hal_pwr_ex.c ****   *                      PVM configuration information (PVMType and EventMode).
1072:Drivers/STM32U5xx_HAL_Driver/Src/stm32u5xx_hal_pwr_ex.c ****   * @retval HAL Status.
1073:Drivers/STM32U5xx_HAL_Driver/Src/stm32u5xx_hal_pwr_ex.c ****   */
1074:Drivers/STM32U5xx_HAL_Driver/Src/stm32u5xx_hal_pwr_ex.c **** HAL_StatusTypeDef HAL_PWREx_ConfigPVM(PWR_PVMTypeDef *pConfigPVM)
1075:Drivers/STM32U5xx_HAL_Driver/Src/stm32u5xx_hal_pwr_ex.c **** {
 996              		.loc 1 1075 1 is_stmt 1 view -0
 997              		.cfi_startproc
 998              		@ args = 0, pretend = 0, frame = 0
 999              		@ frame_needed = 0, uses_anonymous_args = 0
 1000              		@ link register save eliminated.
1076:Drivers/STM32U5xx_HAL_Driver/Src/stm32u5xx_hal_pwr_ex.c ****   /* Check the PVM parameter */
1077:Drivers/STM32U5xx_HAL_Driver/Src/stm32u5xx_hal_pwr_ex.c ****   if (pConfigPVM == NULL)
 1001              		.loc 1 1077 3 view .LVU216
 1002              		.loc 1 1077 6 is_stmt 0 view .LVU217
 1003 0000 0246     		mov	r2, r0
 1004 0002 0028     		cmp	r0, #0
 1005 0004 00F01281 		beq	.L110
1078:Drivers/STM32U5xx_HAL_Driver/Src/stm32u5xx_hal_pwr_ex.c ****   {
1079:Drivers/STM32U5xx_HAL_Driver/Src/stm32u5xx_hal_pwr_ex.c ****     return HAL_ERROR;
1080:Drivers/STM32U5xx_HAL_Driver/Src/stm32u5xx_hal_pwr_ex.c ****   }
1081:Drivers/STM32U5xx_HAL_Driver/Src/stm32u5xx_hal_pwr_ex.c **** 
1082:Drivers/STM32U5xx_HAL_Driver/Src/stm32u5xx_hal_pwr_ex.c ****   /* Check the parameters */
1083:Drivers/STM32U5xx_HAL_Driver/Src/stm32u5xx_hal_pwr_ex.c ****   assert_param(IS_PWR_PVM_TYPE(pConfigPVM->PVMType));
 1006              		.loc 1 1083 3 is_stmt 1 view .LVU218
1084:Drivers/STM32U5xx_HAL_Driver/Src/stm32u5xx_hal_pwr_ex.c ****   assert_param(IS_PWR_PVM_MODE(pConfigPVM->Mode));
 1007              		.loc 1 1084 3 view .LVU219
1085:Drivers/STM32U5xx_HAL_Driver/Src/stm32u5xx_hal_pwr_ex.c **** 
1086:Drivers/STM32U5xx_HAL_Driver/Src/stm32u5xx_hal_pwr_ex.c ****   /* Check the peripheral voltage monitor type */
1087:Drivers/STM32U5xx_HAL_Driver/Src/stm32u5xx_hal_pwr_ex.c ****   switch (pConfigPVM->PVMType)
 1008              		.loc 1 1087 3 view .LVU220
 1009              		.loc 1 1087 21 is_stmt 0 view .LVU221
ARM GAS  C:\Users\Ya\AppData\Local\Temp\ccLrGXJ9.s 			page 39


 1010 0008 0368     		ldr	r3, [r0]
 1011              		.loc 1 1087 3 view .LVU222
 1012 000a B3F1806F 		cmp	r3, #67108864
 1013 000e 00F0CE80 		beq	.L93
 1014 0012 48D8     		bhi	.L94
 1015 0014 B3F1807F 		cmp	r3, #16777216
 1016 0018 00F08A80 		beq	.L95
 1017 001c B3F1007F 		cmp	r3, #33554432
 1018 0020 3FD1     		bne	.L115
1088:Drivers/STM32U5xx_HAL_Driver/Src/stm32u5xx_hal_pwr_ex.c ****   {
1089:Drivers/STM32U5xx_HAL_Driver/Src/stm32u5xx_hal_pwr_ex.c ****     case PWR_UVM: /* Independent USB voltage monitor */
1090:Drivers/STM32U5xx_HAL_Driver/Src/stm32u5xx_hal_pwr_ex.c **** 
1091:Drivers/STM32U5xx_HAL_Driver/Src/stm32u5xx_hal_pwr_ex.c ****       /* Disable EXTI UVM event and interrupt */
1092:Drivers/STM32U5xx_HAL_Driver/Src/stm32u5xx_hal_pwr_ex.c ****       __HAL_PWR_UVM_EXTI_DISABLE_EVENT();
1093:Drivers/STM32U5xx_HAL_Driver/Src/stm32u5xx_hal_pwr_ex.c ****       __HAL_PWR_UVM_EXTI_DISABLE_IT();
1094:Drivers/STM32U5xx_HAL_Driver/Src/stm32u5xx_hal_pwr_ex.c ****       __HAL_PWR_UVM_EXTI_DISABLE_RISING_EDGE();
1095:Drivers/STM32U5xx_HAL_Driver/Src/stm32u5xx_hal_pwr_ex.c ****       __HAL_PWR_UVM_EXTI_DISABLE_FALLING_EDGE();
1096:Drivers/STM32U5xx_HAL_Driver/Src/stm32u5xx_hal_pwr_ex.c **** 
1097:Drivers/STM32U5xx_HAL_Driver/Src/stm32u5xx_hal_pwr_ex.c ****       /* Configure the UVM in interrupt mode */
1098:Drivers/STM32U5xx_HAL_Driver/Src/stm32u5xx_hal_pwr_ex.c ****       if ((pConfigPVM->Mode & PVM_MODE_IT) == PVM_MODE_IT)
1099:Drivers/STM32U5xx_HAL_Driver/Src/stm32u5xx_hal_pwr_ex.c ****       {
1100:Drivers/STM32U5xx_HAL_Driver/Src/stm32u5xx_hal_pwr_ex.c ****         __HAL_PWR_UVM_EXTI_ENABLE_IT();
1101:Drivers/STM32U5xx_HAL_Driver/Src/stm32u5xx_hal_pwr_ex.c ****       }
1102:Drivers/STM32U5xx_HAL_Driver/Src/stm32u5xx_hal_pwr_ex.c **** 
1103:Drivers/STM32U5xx_HAL_Driver/Src/stm32u5xx_hal_pwr_ex.c ****       /* Configure the UVM in event mode */
1104:Drivers/STM32U5xx_HAL_Driver/Src/stm32u5xx_hal_pwr_ex.c ****       if ((pConfigPVM->Mode & PVM_MODE_EVT) == PVM_MODE_EVT)
1105:Drivers/STM32U5xx_HAL_Driver/Src/stm32u5xx_hal_pwr_ex.c ****       {
1106:Drivers/STM32U5xx_HAL_Driver/Src/stm32u5xx_hal_pwr_ex.c ****         __HAL_PWR_UVM_EXTI_ENABLE_EVENT();
1107:Drivers/STM32U5xx_HAL_Driver/Src/stm32u5xx_hal_pwr_ex.c ****       }
1108:Drivers/STM32U5xx_HAL_Driver/Src/stm32u5xx_hal_pwr_ex.c **** 
1109:Drivers/STM32U5xx_HAL_Driver/Src/stm32u5xx_hal_pwr_ex.c ****       /* Configure the UVM in rising edge */
1110:Drivers/STM32U5xx_HAL_Driver/Src/stm32u5xx_hal_pwr_ex.c ****       if ((pConfigPVM->Mode & PVM_RISING_EDGE) == PVM_RISING_EDGE)
1111:Drivers/STM32U5xx_HAL_Driver/Src/stm32u5xx_hal_pwr_ex.c ****       {
1112:Drivers/STM32U5xx_HAL_Driver/Src/stm32u5xx_hal_pwr_ex.c ****         __HAL_PWR_UVM_EXTI_ENABLE_RISING_EDGE();
1113:Drivers/STM32U5xx_HAL_Driver/Src/stm32u5xx_hal_pwr_ex.c ****       }
1114:Drivers/STM32U5xx_HAL_Driver/Src/stm32u5xx_hal_pwr_ex.c **** 
1115:Drivers/STM32U5xx_HAL_Driver/Src/stm32u5xx_hal_pwr_ex.c ****       /* Configure the UVM in falling edge */
1116:Drivers/STM32U5xx_HAL_Driver/Src/stm32u5xx_hal_pwr_ex.c ****       if ((pConfigPVM->Mode & PVM_FALLING_EDGE) == PVM_FALLING_EDGE)
1117:Drivers/STM32U5xx_HAL_Driver/Src/stm32u5xx_hal_pwr_ex.c ****       {
1118:Drivers/STM32U5xx_HAL_Driver/Src/stm32u5xx_hal_pwr_ex.c ****         __HAL_PWR_UVM_EXTI_ENABLE_FALLING_EDGE();
1119:Drivers/STM32U5xx_HAL_Driver/Src/stm32u5xx_hal_pwr_ex.c ****       }
1120:Drivers/STM32U5xx_HAL_Driver/Src/stm32u5xx_hal_pwr_ex.c **** 
1121:Drivers/STM32U5xx_HAL_Driver/Src/stm32u5xx_hal_pwr_ex.c ****       break;
1122:Drivers/STM32U5xx_HAL_Driver/Src/stm32u5xx_hal_pwr_ex.c **** 
1123:Drivers/STM32U5xx_HAL_Driver/Src/stm32u5xx_hal_pwr_ex.c ****     case PWR_IO2VM: /* Independent I/Os voltage monitor */
1124:Drivers/STM32U5xx_HAL_Driver/Src/stm32u5xx_hal_pwr_ex.c **** 
1125:Drivers/STM32U5xx_HAL_Driver/Src/stm32u5xx_hal_pwr_ex.c ****       /* Disable EXTI IO2VM event and interrupt */
1126:Drivers/STM32U5xx_HAL_Driver/Src/stm32u5xx_hal_pwr_ex.c ****       __HAL_PWR_IO2VM_EXTI_DISABLE_EVENT();
 1019              		.loc 1 1126 7 is_stmt 1 view .LVU223
 1020 0022 874B     		ldr	r3, .L117
 1021 0024 D3F88410 		ldr	r1, [r3, #132]
 1022 0028 21F48011 		bic	r1, r1, #1048576
 1023 002c C3F88410 		str	r1, [r3, #132]
1127:Drivers/STM32U5xx_HAL_Driver/Src/stm32u5xx_hal_pwr_ex.c ****       __HAL_PWR_IO2VM_EXTI_DISABLE_IT();
 1024              		.loc 1 1127 7 view .LVU224
 1025 0030 D3F88010 		ldr	r1, [r3, #128]
 1026 0034 21F48011 		bic	r1, r1, #1048576
ARM GAS  C:\Users\Ya\AppData\Local\Temp\ccLrGXJ9.s 			page 40


 1027 0038 C3F88010 		str	r1, [r3, #128]
1128:Drivers/STM32U5xx_HAL_Driver/Src/stm32u5xx_hal_pwr_ex.c ****       __HAL_PWR_IO2VM_EXTI_DISABLE_RISING_EDGE();
 1028              		.loc 1 1128 7 view .LVU225
 1029 003c 1968     		ldr	r1, [r3]
 1030 003e 21F48011 		bic	r1, r1, #1048576
 1031 0042 1960     		str	r1, [r3]
1129:Drivers/STM32U5xx_HAL_Driver/Src/stm32u5xx_hal_pwr_ex.c ****       __HAL_PWR_IO2VM_EXTI_DISABLE_FALLING_EDGE();
 1032              		.loc 1 1129 7 view .LVU226
 1033 0044 5968     		ldr	r1, [r3, #4]
 1034 0046 21F48011 		bic	r1, r1, #1048576
 1035 004a 5960     		str	r1, [r3, #4]
1130:Drivers/STM32U5xx_HAL_Driver/Src/stm32u5xx_hal_pwr_ex.c **** 
1131:Drivers/STM32U5xx_HAL_Driver/Src/stm32u5xx_hal_pwr_ex.c ****       /* Configure the IO2VM in interrupt mode */
1132:Drivers/STM32U5xx_HAL_Driver/Src/stm32u5xx_hal_pwr_ex.c ****       if ((pConfigPVM->Mode & PVM_MODE_IT) == PVM_MODE_IT)
 1036              		.loc 1 1132 7 view .LVU227
 1037              		.loc 1 1132 22 is_stmt 0 view .LVU228
 1038 004c 4368     		ldr	r3, [r0, #4]
 1039              		.loc 1 1132 10 view .LVU229
 1040 004e 13F0040F 		tst	r3, #4
 1041 0052 06D0     		beq	.L101
1133:Drivers/STM32U5xx_HAL_Driver/Src/stm32u5xx_hal_pwr_ex.c ****       {
1134:Drivers/STM32U5xx_HAL_Driver/Src/stm32u5xx_hal_pwr_ex.c ****         __HAL_PWR_IO2VM_EXTI_ENABLE_IT();
 1042              		.loc 1 1134 9 is_stmt 1 view .LVU230
 1043 0054 7A49     		ldr	r1, .L117
 1044 0056 D1F88030 		ldr	r3, [r1, #128]
 1045 005a 43F48013 		orr	r3, r3, #1048576
 1046 005e C1F88030 		str	r3, [r1, #128]
 1047              	.L101:
1135:Drivers/STM32U5xx_HAL_Driver/Src/stm32u5xx_hal_pwr_ex.c ****       }
1136:Drivers/STM32U5xx_HAL_Driver/Src/stm32u5xx_hal_pwr_ex.c **** 
1137:Drivers/STM32U5xx_HAL_Driver/Src/stm32u5xx_hal_pwr_ex.c ****       /* Configure the IO2VM in event mode */
1138:Drivers/STM32U5xx_HAL_Driver/Src/stm32u5xx_hal_pwr_ex.c ****       if ((pConfigPVM->Mode & PVM_MODE_EVT) == PVM_MODE_EVT)
 1048              		.loc 1 1138 7 view .LVU231
 1049              		.loc 1 1138 22 is_stmt 0 view .LVU232
 1050 0062 5368     		ldr	r3, [r2, #4]
 1051              		.loc 1 1138 10 view .LVU233
 1052 0064 13F0080F 		tst	r3, #8
 1053 0068 06D0     		beq	.L102
1139:Drivers/STM32U5xx_HAL_Driver/Src/stm32u5xx_hal_pwr_ex.c ****       {
1140:Drivers/STM32U5xx_HAL_Driver/Src/stm32u5xx_hal_pwr_ex.c ****         __HAL_PWR_IO2VM_EXTI_ENABLE_EVENT();
 1054              		.loc 1 1140 9 is_stmt 1 view .LVU234
 1055 006a 7549     		ldr	r1, .L117
 1056 006c D1F88430 		ldr	r3, [r1, #132]
 1057 0070 43F48013 		orr	r3, r3, #1048576
 1058 0074 C1F88430 		str	r3, [r1, #132]
 1059              	.L102:
1141:Drivers/STM32U5xx_HAL_Driver/Src/stm32u5xx_hal_pwr_ex.c ****       }
1142:Drivers/STM32U5xx_HAL_Driver/Src/stm32u5xx_hal_pwr_ex.c **** 
1143:Drivers/STM32U5xx_HAL_Driver/Src/stm32u5xx_hal_pwr_ex.c ****       /* Configure the IO2VM in rising edge */
1144:Drivers/STM32U5xx_HAL_Driver/Src/stm32u5xx_hal_pwr_ex.c ****       if ((pConfigPVM->Mode & PVM_RISING_EDGE) == PVM_RISING_EDGE)
 1060              		.loc 1 1144 7 view .LVU235
 1061              		.loc 1 1144 22 is_stmt 0 view .LVU236
 1062 0078 5368     		ldr	r3, [r2, #4]
 1063              		.loc 1 1144 10 view .LVU237
 1064 007a 13F0010F 		tst	r3, #1
 1065 007e 04D0     		beq	.L103
1145:Drivers/STM32U5xx_HAL_Driver/Src/stm32u5xx_hal_pwr_ex.c ****       {
ARM GAS  C:\Users\Ya\AppData\Local\Temp\ccLrGXJ9.s 			page 41


1146:Drivers/STM32U5xx_HAL_Driver/Src/stm32u5xx_hal_pwr_ex.c ****         __HAL_PWR_IO2VM_EXTI_ENABLE_RISING_EDGE();
 1066              		.loc 1 1146 9 is_stmt 1 view .LVU238
 1067 0080 6F49     		ldr	r1, .L117
 1068 0082 0B68     		ldr	r3, [r1]
 1069 0084 43F48013 		orr	r3, r3, #1048576
 1070 0088 0B60     		str	r3, [r1]
 1071              	.L103:
1147:Drivers/STM32U5xx_HAL_Driver/Src/stm32u5xx_hal_pwr_ex.c ****       }
1148:Drivers/STM32U5xx_HAL_Driver/Src/stm32u5xx_hal_pwr_ex.c **** 
1149:Drivers/STM32U5xx_HAL_Driver/Src/stm32u5xx_hal_pwr_ex.c ****       /* Configure the IO2VM in falling edge */
1150:Drivers/STM32U5xx_HAL_Driver/Src/stm32u5xx_hal_pwr_ex.c ****       if ((pConfigPVM->Mode & PVM_FALLING_EDGE) == PVM_FALLING_EDGE)
 1072              		.loc 1 1150 7 view .LVU239
 1073              		.loc 1 1150 22 is_stmt 0 view .LVU240
 1074 008a 5368     		ldr	r3, [r2, #4]
 1075              		.loc 1 1150 10 view .LVU241
 1076 008c 13F0020F 		tst	r3, #2
 1077 0090 00F0D080 		beq	.L112
1151:Drivers/STM32U5xx_HAL_Driver/Src/stm32u5xx_hal_pwr_ex.c ****       {
1152:Drivers/STM32U5xx_HAL_Driver/Src/stm32u5xx_hal_pwr_ex.c ****         __HAL_PWR_IO2VM_EXTI_ENABLE_FALLING_EDGE();
 1078              		.loc 1 1152 9 is_stmt 1 view .LVU242
 1079 0094 6A4A     		ldr	r2, .L117
 1080 0096 5368     		ldr	r3, [r2, #4]
 1081 0098 43F48013 		orr	r3, r3, #1048576
 1082 009c 5360     		str	r3, [r2, #4]
1153:Drivers/STM32U5xx_HAL_Driver/Src/stm32u5xx_hal_pwr_ex.c ****       }
1154:Drivers/STM32U5xx_HAL_Driver/Src/stm32u5xx_hal_pwr_ex.c **** 
1155:Drivers/STM32U5xx_HAL_Driver/Src/stm32u5xx_hal_pwr_ex.c ****       break;
1156:Drivers/STM32U5xx_HAL_Driver/Src/stm32u5xx_hal_pwr_ex.c **** 
1157:Drivers/STM32U5xx_HAL_Driver/Src/stm32u5xx_hal_pwr_ex.c ****     case PWR_AVM1: /* VDDA Independent analog supply voltage monitor 1 (1.6V threshold) */
1158:Drivers/STM32U5xx_HAL_Driver/Src/stm32u5xx_hal_pwr_ex.c **** 
1159:Drivers/STM32U5xx_HAL_Driver/Src/stm32u5xx_hal_pwr_ex.c ****       /* Disable EXTI AVM1 event and interrupt */
1160:Drivers/STM32U5xx_HAL_Driver/Src/stm32u5xx_hal_pwr_ex.c ****       __HAL_PWR_AVM1_EXTI_DISABLE_EVENT();
1161:Drivers/STM32U5xx_HAL_Driver/Src/stm32u5xx_hal_pwr_ex.c ****       __HAL_PWR_AVM1_EXTI_DISABLE_IT();
1162:Drivers/STM32U5xx_HAL_Driver/Src/stm32u5xx_hal_pwr_ex.c ****       __HAL_PWR_AVM1_EXTI_DISABLE_RISING_EDGE();
1163:Drivers/STM32U5xx_HAL_Driver/Src/stm32u5xx_hal_pwr_ex.c ****       __HAL_PWR_AVM1_EXTI_DISABLE_FALLING_EDGE();
1164:Drivers/STM32U5xx_HAL_Driver/Src/stm32u5xx_hal_pwr_ex.c **** 
1165:Drivers/STM32U5xx_HAL_Driver/Src/stm32u5xx_hal_pwr_ex.c ****       /* Configure the AVM1 in interrupt mode */
1166:Drivers/STM32U5xx_HAL_Driver/Src/stm32u5xx_hal_pwr_ex.c ****       if ((pConfigPVM->Mode & PVM_MODE_IT) == PVM_MODE_IT)
1167:Drivers/STM32U5xx_HAL_Driver/Src/stm32u5xx_hal_pwr_ex.c ****       {
1168:Drivers/STM32U5xx_HAL_Driver/Src/stm32u5xx_hal_pwr_ex.c ****         __HAL_PWR_AVM1_EXTI_ENABLE_IT();
1169:Drivers/STM32U5xx_HAL_Driver/Src/stm32u5xx_hal_pwr_ex.c ****       }
1170:Drivers/STM32U5xx_HAL_Driver/Src/stm32u5xx_hal_pwr_ex.c **** 
1171:Drivers/STM32U5xx_HAL_Driver/Src/stm32u5xx_hal_pwr_ex.c ****       /* Configure the AVM1 in event mode */
1172:Drivers/STM32U5xx_HAL_Driver/Src/stm32u5xx_hal_pwr_ex.c ****       if ((pConfigPVM->Mode & PVM_MODE_EVT) == PVM_MODE_EVT)
1173:Drivers/STM32U5xx_HAL_Driver/Src/stm32u5xx_hal_pwr_ex.c ****       {
1174:Drivers/STM32U5xx_HAL_Driver/Src/stm32u5xx_hal_pwr_ex.c ****         __HAL_PWR_AVM1_EXTI_ENABLE_EVENT();
1175:Drivers/STM32U5xx_HAL_Driver/Src/stm32u5xx_hal_pwr_ex.c ****       }
1176:Drivers/STM32U5xx_HAL_Driver/Src/stm32u5xx_hal_pwr_ex.c **** 
1177:Drivers/STM32U5xx_HAL_Driver/Src/stm32u5xx_hal_pwr_ex.c ****       /* Configure the AVM1 in rising edge */
1178:Drivers/STM32U5xx_HAL_Driver/Src/stm32u5xx_hal_pwr_ex.c ****       if ((pConfigPVM->Mode & PVM_RISING_EDGE) == PVM_RISING_EDGE)
1179:Drivers/STM32U5xx_HAL_Driver/Src/stm32u5xx_hal_pwr_ex.c ****       {
1180:Drivers/STM32U5xx_HAL_Driver/Src/stm32u5xx_hal_pwr_ex.c ****         __HAL_PWR_AVM1_EXTI_ENABLE_RISING_EDGE();
1181:Drivers/STM32U5xx_HAL_Driver/Src/stm32u5xx_hal_pwr_ex.c ****       }
1182:Drivers/STM32U5xx_HAL_Driver/Src/stm32u5xx_hal_pwr_ex.c **** 
1183:Drivers/STM32U5xx_HAL_Driver/Src/stm32u5xx_hal_pwr_ex.c ****       /* Configure the AVM1 in falling edge */
1184:Drivers/STM32U5xx_HAL_Driver/Src/stm32u5xx_hal_pwr_ex.c ****       if ((pConfigPVM->Mode & PVM_FALLING_EDGE) == PVM_FALLING_EDGE)
1185:Drivers/STM32U5xx_HAL_Driver/Src/stm32u5xx_hal_pwr_ex.c ****       {
ARM GAS  C:\Users\Ya\AppData\Local\Temp\ccLrGXJ9.s 			page 42


1186:Drivers/STM32U5xx_HAL_Driver/Src/stm32u5xx_hal_pwr_ex.c ****         __HAL_PWR_AVM1_EXTI_ENABLE_FALLING_EDGE();
1187:Drivers/STM32U5xx_HAL_Driver/Src/stm32u5xx_hal_pwr_ex.c ****       }
1188:Drivers/STM32U5xx_HAL_Driver/Src/stm32u5xx_hal_pwr_ex.c **** 
1189:Drivers/STM32U5xx_HAL_Driver/Src/stm32u5xx_hal_pwr_ex.c ****       break;
1190:Drivers/STM32U5xx_HAL_Driver/Src/stm32u5xx_hal_pwr_ex.c **** 
1191:Drivers/STM32U5xx_HAL_Driver/Src/stm32u5xx_hal_pwr_ex.c ****     case PWR_AVM2: /* VDDA Independent analog supply voltage monitor 2 (1.8V threshold) */
1192:Drivers/STM32U5xx_HAL_Driver/Src/stm32u5xx_hal_pwr_ex.c **** 
1193:Drivers/STM32U5xx_HAL_Driver/Src/stm32u5xx_hal_pwr_ex.c ****       /* Disable EXTI AVM2 event and interrupt */
1194:Drivers/STM32U5xx_HAL_Driver/Src/stm32u5xx_hal_pwr_ex.c ****       __HAL_PWR_AVM2_EXTI_DISABLE_EVENT();
1195:Drivers/STM32U5xx_HAL_Driver/Src/stm32u5xx_hal_pwr_ex.c ****       __HAL_PWR_AVM2_EXTI_DISABLE_IT();
1196:Drivers/STM32U5xx_HAL_Driver/Src/stm32u5xx_hal_pwr_ex.c ****       __HAL_PWR_AVM2_EXTI_DISABLE_RISING_EDGE();
1197:Drivers/STM32U5xx_HAL_Driver/Src/stm32u5xx_hal_pwr_ex.c ****       __HAL_PWR_AVM2_EXTI_DISABLE_FALLING_EDGE();
1198:Drivers/STM32U5xx_HAL_Driver/Src/stm32u5xx_hal_pwr_ex.c **** 
1199:Drivers/STM32U5xx_HAL_Driver/Src/stm32u5xx_hal_pwr_ex.c ****       /* Configure the AVM2 in interrupt mode */
1200:Drivers/STM32U5xx_HAL_Driver/Src/stm32u5xx_hal_pwr_ex.c ****       if ((pConfigPVM->Mode & PVM_MODE_IT) == PVM_MODE_IT)
1201:Drivers/STM32U5xx_HAL_Driver/Src/stm32u5xx_hal_pwr_ex.c ****       {
1202:Drivers/STM32U5xx_HAL_Driver/Src/stm32u5xx_hal_pwr_ex.c ****         __HAL_PWR_AVM2_EXTI_ENABLE_IT();
1203:Drivers/STM32U5xx_HAL_Driver/Src/stm32u5xx_hal_pwr_ex.c ****       }
1204:Drivers/STM32U5xx_HAL_Driver/Src/stm32u5xx_hal_pwr_ex.c **** 
1205:Drivers/STM32U5xx_HAL_Driver/Src/stm32u5xx_hal_pwr_ex.c ****       /* Configure the AVM2 in event mode */
1206:Drivers/STM32U5xx_HAL_Driver/Src/stm32u5xx_hal_pwr_ex.c ****       if ((pConfigPVM->Mode & PVM_MODE_EVT) == PVM_MODE_EVT)
1207:Drivers/STM32U5xx_HAL_Driver/Src/stm32u5xx_hal_pwr_ex.c ****       {
1208:Drivers/STM32U5xx_HAL_Driver/Src/stm32u5xx_hal_pwr_ex.c ****         __HAL_PWR_AVM2_EXTI_ENABLE_EVENT();
1209:Drivers/STM32U5xx_HAL_Driver/Src/stm32u5xx_hal_pwr_ex.c ****       }
1210:Drivers/STM32U5xx_HAL_Driver/Src/stm32u5xx_hal_pwr_ex.c **** 
1211:Drivers/STM32U5xx_HAL_Driver/Src/stm32u5xx_hal_pwr_ex.c ****       /* Configure the AVM2 in rising edge */
1212:Drivers/STM32U5xx_HAL_Driver/Src/stm32u5xx_hal_pwr_ex.c ****       if ((pConfigPVM->Mode & PVM_RISING_EDGE) == PVM_RISING_EDGE)
1213:Drivers/STM32U5xx_HAL_Driver/Src/stm32u5xx_hal_pwr_ex.c ****       {
1214:Drivers/STM32U5xx_HAL_Driver/Src/stm32u5xx_hal_pwr_ex.c ****         __HAL_PWR_AVM2_EXTI_ENABLE_RISING_EDGE();
1215:Drivers/STM32U5xx_HAL_Driver/Src/stm32u5xx_hal_pwr_ex.c ****       }
1216:Drivers/STM32U5xx_HAL_Driver/Src/stm32u5xx_hal_pwr_ex.c **** 
1217:Drivers/STM32U5xx_HAL_Driver/Src/stm32u5xx_hal_pwr_ex.c ****       /* Configure the AVM2 in falling edge */
1218:Drivers/STM32U5xx_HAL_Driver/Src/stm32u5xx_hal_pwr_ex.c ****       if ((pConfigPVM->Mode & PVM_FALLING_EDGE) == PVM_FALLING_EDGE)
1219:Drivers/STM32U5xx_HAL_Driver/Src/stm32u5xx_hal_pwr_ex.c ****       {
1220:Drivers/STM32U5xx_HAL_Driver/Src/stm32u5xx_hal_pwr_ex.c ****         __HAL_PWR_AVM2_EXTI_ENABLE_FALLING_EDGE();
1221:Drivers/STM32U5xx_HAL_Driver/Src/stm32u5xx_hal_pwr_ex.c ****       }
1222:Drivers/STM32U5xx_HAL_Driver/Src/stm32u5xx_hal_pwr_ex.c **** 
1223:Drivers/STM32U5xx_HAL_Driver/Src/stm32u5xx_hal_pwr_ex.c ****       break;
1224:Drivers/STM32U5xx_HAL_Driver/Src/stm32u5xx_hal_pwr_ex.c **** 
1225:Drivers/STM32U5xx_HAL_Driver/Src/stm32u5xx_hal_pwr_ex.c ****     default: /* No valid voltage monitor selected */
1226:Drivers/STM32U5xx_HAL_Driver/Src/stm32u5xx_hal_pwr_ex.c ****       return HAL_ERROR;
1227:Drivers/STM32U5xx_HAL_Driver/Src/stm32u5xx_hal_pwr_ex.c ****       break;
1228:Drivers/STM32U5xx_HAL_Driver/Src/stm32u5xx_hal_pwr_ex.c ****   }
1229:Drivers/STM32U5xx_HAL_Driver/Src/stm32u5xx_hal_pwr_ex.c **** 
1230:Drivers/STM32U5xx_HAL_Driver/Src/stm32u5xx_hal_pwr_ex.c ****   return HAL_OK;
 1083              		.loc 1 1230 10 is_stmt 0 view .LVU243
 1084 009e 0020     		movs	r0, #0
 1085              	.LVL41:
 1086              		.loc 1 1230 10 view .LVU244
 1087 00a0 7047     		bx	lr
 1088              	.LVL42:
 1089              	.L115:
1087:Drivers/STM32U5xx_HAL_Driver/Src/stm32u5xx_hal_pwr_ex.c ****   {
 1090              		.loc 1 1087 3 view .LVU245
 1091 00a2 0120     		movs	r0, #1
 1092              	.LVL43:
1087:Drivers/STM32U5xx_HAL_Driver/Src/stm32u5xx_hal_pwr_ex.c ****   {
ARM GAS  C:\Users\Ya\AppData\Local\Temp\ccLrGXJ9.s 			page 43


 1093              		.loc 1 1087 3 view .LVU246
 1094 00a4 7047     		bx	lr
 1095              	.LVL44:
 1096              	.L94:
1087:Drivers/STM32U5xx_HAL_Driver/Src/stm32u5xx_hal_pwr_ex.c ****   {
 1097              		.loc 1 1087 3 view .LVU247
 1098 00a6 B3F1006F 		cmp	r3, #134217728
 1099 00aa 3FD1     		bne	.L116
1194:Drivers/STM32U5xx_HAL_Driver/Src/stm32u5xx_hal_pwr_ex.c ****       __HAL_PWR_AVM2_EXTI_DISABLE_IT();
 1100              		.loc 1 1194 7 is_stmt 1 view .LVU248
 1101 00ac 644B     		ldr	r3, .L117
 1102 00ae D3F88410 		ldr	r1, [r3, #132]
 1103 00b2 21F48001 		bic	r1, r1, #4194304
 1104 00b6 C3F88410 		str	r1, [r3, #132]
1195:Drivers/STM32U5xx_HAL_Driver/Src/stm32u5xx_hal_pwr_ex.c ****       __HAL_PWR_AVM2_EXTI_DISABLE_RISING_EDGE();
 1105              		.loc 1 1195 7 view .LVU249
 1106 00ba D3F88010 		ldr	r1, [r3, #128]
 1107 00be 21F48001 		bic	r1, r1, #4194304
 1108 00c2 C3F88010 		str	r1, [r3, #128]
1196:Drivers/STM32U5xx_HAL_Driver/Src/stm32u5xx_hal_pwr_ex.c ****       __HAL_PWR_AVM2_EXTI_DISABLE_FALLING_EDGE();
 1109              		.loc 1 1196 7 view .LVU250
 1110 00c6 1968     		ldr	r1, [r3]
 1111 00c8 21F48001 		bic	r1, r1, #4194304
 1112 00cc 1960     		str	r1, [r3]
1197:Drivers/STM32U5xx_HAL_Driver/Src/stm32u5xx_hal_pwr_ex.c **** 
 1113              		.loc 1 1197 7 view .LVU251
 1114 00ce 5968     		ldr	r1, [r3, #4]
 1115 00d0 21F48001 		bic	r1, r1, #4194304
 1116 00d4 5960     		str	r1, [r3, #4]
1200:Drivers/STM32U5xx_HAL_Driver/Src/stm32u5xx_hal_pwr_ex.c ****       {
 1117              		.loc 1 1200 7 view .LVU252
1200:Drivers/STM32U5xx_HAL_Driver/Src/stm32u5xx_hal_pwr_ex.c ****       {
 1118              		.loc 1 1200 22 is_stmt 0 view .LVU253
 1119 00d6 4368     		ldr	r3, [r0, #4]
1200:Drivers/STM32U5xx_HAL_Driver/Src/stm32u5xx_hal_pwr_ex.c ****       {
 1120              		.loc 1 1200 10 view .LVU254
 1121 00d8 13F0040F 		tst	r3, #4
 1122 00dc 06D0     		beq	.L107
1202:Drivers/STM32U5xx_HAL_Driver/Src/stm32u5xx_hal_pwr_ex.c ****       }
 1123              		.loc 1 1202 9 is_stmt 1 view .LVU255
 1124 00de 5849     		ldr	r1, .L117
 1125 00e0 D1F88030 		ldr	r3, [r1, #128]
 1126 00e4 43F48003 		orr	r3, r3, #4194304
 1127 00e8 C1F88030 		str	r3, [r1, #128]
 1128              	.L107:
1206:Drivers/STM32U5xx_HAL_Driver/Src/stm32u5xx_hal_pwr_ex.c ****       {
 1129              		.loc 1 1206 7 view .LVU256
1206:Drivers/STM32U5xx_HAL_Driver/Src/stm32u5xx_hal_pwr_ex.c ****       {
 1130              		.loc 1 1206 22 is_stmt 0 view .LVU257
 1131 00ec 5368     		ldr	r3, [r2, #4]
1206:Drivers/STM32U5xx_HAL_Driver/Src/stm32u5xx_hal_pwr_ex.c ****       {
 1132              		.loc 1 1206 10 view .LVU258
 1133 00ee 13F0080F 		tst	r3, #8
 1134 00f2 06D0     		beq	.L108
1208:Drivers/STM32U5xx_HAL_Driver/Src/stm32u5xx_hal_pwr_ex.c ****       }
 1135              		.loc 1 1208 9 is_stmt 1 view .LVU259
 1136 00f4 5249     		ldr	r1, .L117
ARM GAS  C:\Users\Ya\AppData\Local\Temp\ccLrGXJ9.s 			page 44


 1137 00f6 D1F88430 		ldr	r3, [r1, #132]
 1138 00fa 43F48003 		orr	r3, r3, #4194304
 1139 00fe C1F88430 		str	r3, [r1, #132]
 1140              	.L108:
1212:Drivers/STM32U5xx_HAL_Driver/Src/stm32u5xx_hal_pwr_ex.c ****       {
 1141              		.loc 1 1212 7 view .LVU260
1212:Drivers/STM32U5xx_HAL_Driver/Src/stm32u5xx_hal_pwr_ex.c ****       {
 1142              		.loc 1 1212 22 is_stmt 0 view .LVU261
 1143 0102 5368     		ldr	r3, [r2, #4]
1212:Drivers/STM32U5xx_HAL_Driver/Src/stm32u5xx_hal_pwr_ex.c ****       {
 1144              		.loc 1 1212 10 view .LVU262
 1145 0104 13F0010F 		tst	r3, #1
 1146 0108 04D0     		beq	.L109
1214:Drivers/STM32U5xx_HAL_Driver/Src/stm32u5xx_hal_pwr_ex.c ****       }
 1147              		.loc 1 1214 9 is_stmt 1 view .LVU263
 1148 010a 4D49     		ldr	r1, .L117
 1149 010c 0B68     		ldr	r3, [r1]
 1150 010e 43F48003 		orr	r3, r3, #4194304
 1151 0112 0B60     		str	r3, [r1]
 1152              	.L109:
1218:Drivers/STM32U5xx_HAL_Driver/Src/stm32u5xx_hal_pwr_ex.c ****       {
 1153              		.loc 1 1218 7 view .LVU264
1218:Drivers/STM32U5xx_HAL_Driver/Src/stm32u5xx_hal_pwr_ex.c ****       {
 1154              		.loc 1 1218 22 is_stmt 0 view .LVU265
 1155 0114 5368     		ldr	r3, [r2, #4]
1218:Drivers/STM32U5xx_HAL_Driver/Src/stm32u5xx_hal_pwr_ex.c ****       {
 1156              		.loc 1 1218 10 view .LVU266
 1157 0116 13F0020F 		tst	r3, #2
 1158 011a 00F08F80 		beq	.L114
1220:Drivers/STM32U5xx_HAL_Driver/Src/stm32u5xx_hal_pwr_ex.c ****       }
 1159              		.loc 1 1220 9 is_stmt 1 view .LVU267
 1160 011e 484A     		ldr	r2, .L117
 1161 0120 5368     		ldr	r3, [r2, #4]
 1162 0122 43F48003 		orr	r3, r3, #4194304
 1163 0126 5360     		str	r3, [r2, #4]
 1164              		.loc 1 1230 10 is_stmt 0 view .LVU268
 1165 0128 0020     		movs	r0, #0
 1166              	.LVL45:
 1167              		.loc 1 1230 10 view .LVU269
 1168 012a 7047     		bx	lr
 1169              	.LVL46:
 1170              	.L116:
1087:Drivers/STM32U5xx_HAL_Driver/Src/stm32u5xx_hal_pwr_ex.c ****   {
 1171              		.loc 1 1087 3 view .LVU270
 1172 012c 0120     		movs	r0, #1
 1173              	.LVL47:
1087:Drivers/STM32U5xx_HAL_Driver/Src/stm32u5xx_hal_pwr_ex.c ****   {
 1174              		.loc 1 1087 3 view .LVU271
 1175 012e 7047     		bx	lr
 1176              	.LVL48:
 1177              	.L95:
1092:Drivers/STM32U5xx_HAL_Driver/Src/stm32u5xx_hal_pwr_ex.c ****       __HAL_PWR_UVM_EXTI_DISABLE_IT();
 1178              		.loc 1 1092 7 is_stmt 1 view .LVU272
 1179 0130 434B     		ldr	r3, .L117
 1180 0132 D3F88410 		ldr	r1, [r3, #132]
 1181 0136 21F40021 		bic	r1, r1, #524288
 1182 013a C3F88410 		str	r1, [r3, #132]
ARM GAS  C:\Users\Ya\AppData\Local\Temp\ccLrGXJ9.s 			page 45


1093:Drivers/STM32U5xx_HAL_Driver/Src/stm32u5xx_hal_pwr_ex.c ****       __HAL_PWR_UVM_EXTI_DISABLE_RISING_EDGE();
 1183              		.loc 1 1093 7 view .LVU273
 1184 013e D3F88010 		ldr	r1, [r3, #128]
 1185 0142 21F40021 		bic	r1, r1, #524288
 1186 0146 C3F88010 		str	r1, [r3, #128]
1094:Drivers/STM32U5xx_HAL_Driver/Src/stm32u5xx_hal_pwr_ex.c ****       __HAL_PWR_UVM_EXTI_DISABLE_FALLING_EDGE();
 1187              		.loc 1 1094 7 view .LVU274
 1188 014a 1968     		ldr	r1, [r3]
 1189 014c 21F40021 		bic	r1, r1, #524288
 1190 0150 1960     		str	r1, [r3]
1095:Drivers/STM32U5xx_HAL_Driver/Src/stm32u5xx_hal_pwr_ex.c **** 
 1191              		.loc 1 1095 7 view .LVU275
 1192 0152 5968     		ldr	r1, [r3, #4]
 1193 0154 21F40021 		bic	r1, r1, #524288
 1194 0158 5960     		str	r1, [r3, #4]
1098:Drivers/STM32U5xx_HAL_Driver/Src/stm32u5xx_hal_pwr_ex.c ****       {
 1195              		.loc 1 1098 7 view .LVU276
1098:Drivers/STM32U5xx_HAL_Driver/Src/stm32u5xx_hal_pwr_ex.c ****       {
 1196              		.loc 1 1098 22 is_stmt 0 view .LVU277
 1197 015a 4368     		ldr	r3, [r0, #4]
1098:Drivers/STM32U5xx_HAL_Driver/Src/stm32u5xx_hal_pwr_ex.c ****       {
 1198              		.loc 1 1098 10 view .LVU278
 1199 015c 13F0040F 		tst	r3, #4
 1200 0160 06D0     		beq	.L98
1100:Drivers/STM32U5xx_HAL_Driver/Src/stm32u5xx_hal_pwr_ex.c ****       }
 1201              		.loc 1 1100 9 is_stmt 1 view .LVU279
 1202 0162 3749     		ldr	r1, .L117
 1203 0164 D1F88030 		ldr	r3, [r1, #128]
 1204 0168 43F40023 		orr	r3, r3, #524288
 1205 016c C1F88030 		str	r3, [r1, #128]
 1206              	.L98:
1104:Drivers/STM32U5xx_HAL_Driver/Src/stm32u5xx_hal_pwr_ex.c ****       {
 1207              		.loc 1 1104 7 view .LVU280
1104:Drivers/STM32U5xx_HAL_Driver/Src/stm32u5xx_hal_pwr_ex.c ****       {
 1208              		.loc 1 1104 22 is_stmt 0 view .LVU281
 1209 0170 5368     		ldr	r3, [r2, #4]
1104:Drivers/STM32U5xx_HAL_Driver/Src/stm32u5xx_hal_pwr_ex.c ****       {
 1210              		.loc 1 1104 10 view .LVU282
 1211 0172 13F0080F 		tst	r3, #8
 1212 0176 06D0     		beq	.L99
1106:Drivers/STM32U5xx_HAL_Driver/Src/stm32u5xx_hal_pwr_ex.c ****       }
 1213              		.loc 1 1106 9 is_stmt 1 view .LVU283
 1214 0178 3149     		ldr	r1, .L117
 1215 017a D1F88430 		ldr	r3, [r1, #132]
 1216 017e 43F40023 		orr	r3, r3, #524288
 1217 0182 C1F88430 		str	r3, [r1, #132]
 1218              	.L99:
1110:Drivers/STM32U5xx_HAL_Driver/Src/stm32u5xx_hal_pwr_ex.c ****       {
 1219              		.loc 1 1110 7 view .LVU284
1110:Drivers/STM32U5xx_HAL_Driver/Src/stm32u5xx_hal_pwr_ex.c ****       {
 1220              		.loc 1 1110 22 is_stmt 0 view .LVU285
 1221 0186 5368     		ldr	r3, [r2, #4]
1110:Drivers/STM32U5xx_HAL_Driver/Src/stm32u5xx_hal_pwr_ex.c ****       {
 1222              		.loc 1 1110 10 view .LVU286
 1223 0188 13F0010F 		tst	r3, #1
 1224 018c 04D0     		beq	.L100
1112:Drivers/STM32U5xx_HAL_Driver/Src/stm32u5xx_hal_pwr_ex.c ****       }
ARM GAS  C:\Users\Ya\AppData\Local\Temp\ccLrGXJ9.s 			page 46


 1225              		.loc 1 1112 9 is_stmt 1 view .LVU287
 1226 018e 2C49     		ldr	r1, .L117
 1227 0190 0B68     		ldr	r3, [r1]
 1228 0192 43F40023 		orr	r3, r3, #524288
 1229 0196 0B60     		str	r3, [r1]
 1230              	.L100:
1116:Drivers/STM32U5xx_HAL_Driver/Src/stm32u5xx_hal_pwr_ex.c ****       {
 1231              		.loc 1 1116 7 view .LVU288
1116:Drivers/STM32U5xx_HAL_Driver/Src/stm32u5xx_hal_pwr_ex.c ****       {
 1232              		.loc 1 1116 22 is_stmt 0 view .LVU289
 1233 0198 5368     		ldr	r3, [r2, #4]
1116:Drivers/STM32U5xx_HAL_Driver/Src/stm32u5xx_hal_pwr_ex.c ****       {
 1234              		.loc 1 1116 10 view .LVU290
 1235 019a 13F0020F 		tst	r3, #2
 1236 019e 47D0     		beq	.L111
1118:Drivers/STM32U5xx_HAL_Driver/Src/stm32u5xx_hal_pwr_ex.c ****       }
 1237              		.loc 1 1118 9 is_stmt 1 view .LVU291
 1238 01a0 274A     		ldr	r2, .L117
 1239 01a2 5368     		ldr	r3, [r2, #4]
 1240 01a4 43F40023 		orr	r3, r3, #524288
 1241 01a8 5360     		str	r3, [r2, #4]
 1242              		.loc 1 1230 10 is_stmt 0 view .LVU292
 1243 01aa 0020     		movs	r0, #0
 1244              	.LVL49:
 1245              		.loc 1 1230 10 view .LVU293
 1246 01ac 7047     		bx	lr
 1247              	.LVL50:
 1248              	.L93:
1160:Drivers/STM32U5xx_HAL_Driver/Src/stm32u5xx_hal_pwr_ex.c ****       __HAL_PWR_AVM1_EXTI_DISABLE_IT();
 1249              		.loc 1 1160 7 is_stmt 1 view .LVU294
 1250 01ae 244B     		ldr	r3, .L117
 1251 01b0 D3F88410 		ldr	r1, [r3, #132]
 1252 01b4 21F40011 		bic	r1, r1, #2097152
 1253 01b8 C3F88410 		str	r1, [r3, #132]
1161:Drivers/STM32U5xx_HAL_Driver/Src/stm32u5xx_hal_pwr_ex.c ****       __HAL_PWR_AVM1_EXTI_DISABLE_RISING_EDGE();
 1254              		.loc 1 1161 7 view .LVU295
 1255 01bc D3F88010 		ldr	r1, [r3, #128]
 1256 01c0 21F40011 		bic	r1, r1, #2097152
 1257 01c4 C3F88010 		str	r1, [r3, #128]
1162:Drivers/STM32U5xx_HAL_Driver/Src/stm32u5xx_hal_pwr_ex.c ****       __HAL_PWR_AVM1_EXTI_DISABLE_FALLING_EDGE();
 1258              		.loc 1 1162 7 view .LVU296
 1259 01c8 1968     		ldr	r1, [r3]
 1260 01ca 21F40011 		bic	r1, r1, #2097152
 1261 01ce 1960     		str	r1, [r3]
1163:Drivers/STM32U5xx_HAL_Driver/Src/stm32u5xx_hal_pwr_ex.c **** 
 1262              		.loc 1 1163 7 view .LVU297
 1263 01d0 5968     		ldr	r1, [r3, #4]
 1264 01d2 21F40011 		bic	r1, r1, #2097152
 1265 01d6 5960     		str	r1, [r3, #4]
1166:Drivers/STM32U5xx_HAL_Driver/Src/stm32u5xx_hal_pwr_ex.c ****       {
 1266              		.loc 1 1166 7 view .LVU298
1166:Drivers/STM32U5xx_HAL_Driver/Src/stm32u5xx_hal_pwr_ex.c ****       {
 1267              		.loc 1 1166 22 is_stmt 0 view .LVU299
 1268 01d8 4368     		ldr	r3, [r0, #4]
1166:Drivers/STM32U5xx_HAL_Driver/Src/stm32u5xx_hal_pwr_ex.c ****       {
 1269              		.loc 1 1166 10 view .LVU300
 1270 01da 13F0040F 		tst	r3, #4
ARM GAS  C:\Users\Ya\AppData\Local\Temp\ccLrGXJ9.s 			page 47


 1271 01de 06D0     		beq	.L104
1168:Drivers/STM32U5xx_HAL_Driver/Src/stm32u5xx_hal_pwr_ex.c ****       }
 1272              		.loc 1 1168 9 is_stmt 1 view .LVU301
 1273 01e0 1749     		ldr	r1, .L117
 1274 01e2 D1F88030 		ldr	r3, [r1, #128]
 1275 01e6 43F40013 		orr	r3, r3, #2097152
 1276 01ea C1F88030 		str	r3, [r1, #128]
 1277              	.L104:
1172:Drivers/STM32U5xx_HAL_Driver/Src/stm32u5xx_hal_pwr_ex.c ****       {
 1278              		.loc 1 1172 7 view .LVU302
1172:Drivers/STM32U5xx_HAL_Driver/Src/stm32u5xx_hal_pwr_ex.c ****       {
 1279              		.loc 1 1172 22 is_stmt 0 view .LVU303
 1280 01ee 5368     		ldr	r3, [r2, #4]
1172:Drivers/STM32U5xx_HAL_Driver/Src/stm32u5xx_hal_pwr_ex.c ****       {
 1281              		.loc 1 1172 10 view .LVU304
 1282 01f0 13F0080F 		tst	r3, #8
 1283 01f4 06D0     		beq	.L105
1174:Drivers/STM32U5xx_HAL_Driver/Src/stm32u5xx_hal_pwr_ex.c ****       }
 1284              		.loc 1 1174 9 is_stmt 1 view .LVU305
 1285 01f6 1249     		ldr	r1, .L117
 1286 01f8 D1F88430 		ldr	r3, [r1, #132]
 1287 01fc 43F40013 		orr	r3, r3, #2097152
 1288 0200 C1F88430 		str	r3, [r1, #132]
 1289              	.L105:
1178:Drivers/STM32U5xx_HAL_Driver/Src/stm32u5xx_hal_pwr_ex.c ****       {
 1290              		.loc 1 1178 7 view .LVU306
1178:Drivers/STM32U5xx_HAL_Driver/Src/stm32u5xx_hal_pwr_ex.c ****       {
 1291              		.loc 1 1178 22 is_stmt 0 view .LVU307
 1292 0204 5368     		ldr	r3, [r2, #4]
1178:Drivers/STM32U5xx_HAL_Driver/Src/stm32u5xx_hal_pwr_ex.c ****       {
 1293              		.loc 1 1178 10 view .LVU308
 1294 0206 13F0010F 		tst	r3, #1
 1295 020a 04D0     		beq	.L106
1180:Drivers/STM32U5xx_HAL_Driver/Src/stm32u5xx_hal_pwr_ex.c ****       }
 1296              		.loc 1 1180 9 is_stmt 1 view .LVU309
 1297 020c 0C49     		ldr	r1, .L117
 1298 020e 0B68     		ldr	r3, [r1]
 1299 0210 43F40013 		orr	r3, r3, #2097152
 1300 0214 0B60     		str	r3, [r1]
 1301              	.L106:
1184:Drivers/STM32U5xx_HAL_Driver/Src/stm32u5xx_hal_pwr_ex.c ****       {
 1302              		.loc 1 1184 7 view .LVU310
1184:Drivers/STM32U5xx_HAL_Driver/Src/stm32u5xx_hal_pwr_ex.c ****       {
 1303              		.loc 1 1184 22 is_stmt 0 view .LVU311
 1304 0216 5368     		ldr	r3, [r2, #4]
1184:Drivers/STM32U5xx_HAL_Driver/Src/stm32u5xx_hal_pwr_ex.c ****       {
 1305              		.loc 1 1184 10 view .LVU312
 1306 0218 13F0020F 		tst	r3, #2
 1307 021c 0CD0     		beq	.L113
1186:Drivers/STM32U5xx_HAL_Driver/Src/stm32u5xx_hal_pwr_ex.c ****       }
 1308              		.loc 1 1186 9 is_stmt 1 view .LVU313
 1309 021e 084A     		ldr	r2, .L117
 1310 0220 5368     		ldr	r3, [r2, #4]
 1311 0222 43F40013 		orr	r3, r3, #2097152
 1312 0226 5360     		str	r3, [r2, #4]
 1313              		.loc 1 1230 10 is_stmt 0 view .LVU314
 1314 0228 0020     		movs	r0, #0
ARM GAS  C:\Users\Ya\AppData\Local\Temp\ccLrGXJ9.s 			page 48


 1315              	.LVL51:
 1316              		.loc 1 1230 10 view .LVU315
 1317 022a 7047     		bx	lr
 1318              	.LVL52:
 1319              	.L110:
1079:Drivers/STM32U5xx_HAL_Driver/Src/stm32u5xx_hal_pwr_ex.c ****   }
 1320              		.loc 1 1079 12 view .LVU316
 1321 022c 0120     		movs	r0, #1
 1322              	.LVL53:
1079:Drivers/STM32U5xx_HAL_Driver/Src/stm32u5xx_hal_pwr_ex.c ****   }
 1323              		.loc 1 1079 12 view .LVU317
 1324 022e 7047     		bx	lr
 1325              	.LVL54:
 1326              	.L111:
 1327              		.loc 1 1230 10 view .LVU318
 1328 0230 0020     		movs	r0, #0
 1329              	.LVL55:
 1330              		.loc 1 1230 10 view .LVU319
 1331 0232 7047     		bx	lr
 1332              	.LVL56:
 1333              	.L112:
 1334              		.loc 1 1230 10 view .LVU320
 1335 0234 0020     		movs	r0, #0
 1336              	.LVL57:
 1337              		.loc 1 1230 10 view .LVU321
 1338 0236 7047     		bx	lr
 1339              	.LVL58:
 1340              	.L113:
 1341              		.loc 1 1230 10 view .LVU322
 1342 0238 0020     		movs	r0, #0
 1343              	.LVL59:
 1344              		.loc 1 1230 10 view .LVU323
 1345 023a 7047     		bx	lr
 1346              	.LVL60:
 1347              	.L114:
 1348              		.loc 1 1230 10 view .LVU324
 1349 023c 0020     		movs	r0, #0
 1350              	.LVL61:
1231:Drivers/STM32U5xx_HAL_Driver/Src/stm32u5xx_hal_pwr_ex.c **** }
 1351              		.loc 1 1231 1 view .LVU325
 1352 023e 7047     		bx	lr
 1353              	.L118:
 1354              		.align	2
 1355              	.L117:
 1356 0240 00200246 		.word	1174544384
 1357              		.cfi_endproc
 1358              	.LFE355:
 1360              		.section	.text.HAL_PWREx_EnableVddUSB,"ax",%progbits
 1361              		.align	1
 1362              		.global	HAL_PWREx_EnableVddUSB
 1363              		.syntax unified
 1364              		.thumb
 1365              		.thumb_func
 1367              	HAL_PWREx_EnableVddUSB:
 1368              	.LFB356:
1232:Drivers/STM32U5xx_HAL_Driver/Src/stm32u5xx_hal_pwr_ex.c **** 
1233:Drivers/STM32U5xx_HAL_Driver/Src/stm32u5xx_hal_pwr_ex.c **** /**
ARM GAS  C:\Users\Ya\AppData\Local\Temp\ccLrGXJ9.s 			page 49


1234:Drivers/STM32U5xx_HAL_Driver/Src/stm32u5xx_hal_pwr_ex.c ****   * @brief  Enable VDDUSB supply.
1235:Drivers/STM32U5xx_HAL_Driver/Src/stm32u5xx_hal_pwr_ex.c ****   * @note   Remove VDDUSB electrical and logical isolation, once VDDUSB supply
1236:Drivers/STM32U5xx_HAL_Driver/Src/stm32u5xx_hal_pwr_ex.c ****   *         is present for consumption saving.
1237:Drivers/STM32U5xx_HAL_Driver/Src/stm32u5xx_hal_pwr_ex.c ****   * @retval None.
1238:Drivers/STM32U5xx_HAL_Driver/Src/stm32u5xx_hal_pwr_ex.c ****   */
1239:Drivers/STM32U5xx_HAL_Driver/Src/stm32u5xx_hal_pwr_ex.c **** void HAL_PWREx_EnableVddUSB(void)
1240:Drivers/STM32U5xx_HAL_Driver/Src/stm32u5xx_hal_pwr_ex.c **** {
 1369              		.loc 1 1240 1 is_stmt 1 view -0
 1370              		.cfi_startproc
 1371              		@ args = 0, pretend = 0, frame = 0
 1372              		@ frame_needed = 0, uses_anonymous_args = 0
 1373              		@ link register save eliminated.
1241:Drivers/STM32U5xx_HAL_Driver/Src/stm32u5xx_hal_pwr_ex.c ****   SET_BIT(PWR->SVMCR, PWR_SVMCR_USV);
 1374              		.loc 1 1241 3 view .LVU327
 1375 0000 024A     		ldr	r2, .L120
 1376 0002 1369     		ldr	r3, [r2, #16]
 1377 0004 43F08053 		orr	r3, r3, #268435456
 1378 0008 1361     		str	r3, [r2, #16]
1242:Drivers/STM32U5xx_HAL_Driver/Src/stm32u5xx_hal_pwr_ex.c **** }
 1379              		.loc 1 1242 1 is_stmt 0 view .LVU328
 1380 000a 7047     		bx	lr
 1381              	.L121:
 1382              		.align	2
 1383              	.L120:
 1384 000c 00080246 		.word	1174538240
 1385              		.cfi_endproc
 1386              	.LFE356:
 1388              		.section	.text.HAL_PWREx_DisableVddUSB,"ax",%progbits
 1389              		.align	1
 1390              		.global	HAL_PWREx_DisableVddUSB
 1391              		.syntax unified
 1392              		.thumb
 1393              		.thumb_func
 1395              	HAL_PWREx_DisableVddUSB:
 1396              	.LFB357:
1243:Drivers/STM32U5xx_HAL_Driver/Src/stm32u5xx_hal_pwr_ex.c **** 
1244:Drivers/STM32U5xx_HAL_Driver/Src/stm32u5xx_hal_pwr_ex.c **** /**
1245:Drivers/STM32U5xx_HAL_Driver/Src/stm32u5xx_hal_pwr_ex.c ****   * @brief  Disable VDDUSB supply.
1246:Drivers/STM32U5xx_HAL_Driver/Src/stm32u5xx_hal_pwr_ex.c ****   * @retval None.
1247:Drivers/STM32U5xx_HAL_Driver/Src/stm32u5xx_hal_pwr_ex.c ****   */
1248:Drivers/STM32U5xx_HAL_Driver/Src/stm32u5xx_hal_pwr_ex.c **** void HAL_PWREx_DisableVddUSB(void)
1249:Drivers/STM32U5xx_HAL_Driver/Src/stm32u5xx_hal_pwr_ex.c **** {
 1397              		.loc 1 1249 1 is_stmt 1 view -0
 1398              		.cfi_startproc
 1399              		@ args = 0, pretend = 0, frame = 0
 1400              		@ frame_needed = 0, uses_anonymous_args = 0
 1401              		@ link register save eliminated.
1250:Drivers/STM32U5xx_HAL_Driver/Src/stm32u5xx_hal_pwr_ex.c ****   CLEAR_BIT(PWR->SVMCR, PWR_SVMCR_USV);
 1402              		.loc 1 1250 3 view .LVU330
 1403 0000 024A     		ldr	r2, .L123
 1404 0002 1369     		ldr	r3, [r2, #16]
 1405 0004 23F08053 		bic	r3, r3, #268435456
 1406 0008 1361     		str	r3, [r2, #16]
1251:Drivers/STM32U5xx_HAL_Driver/Src/stm32u5xx_hal_pwr_ex.c **** }
 1407              		.loc 1 1251 1 is_stmt 0 view .LVU331
 1408 000a 7047     		bx	lr
 1409              	.L124:
ARM GAS  C:\Users\Ya\AppData\Local\Temp\ccLrGXJ9.s 			page 50


 1410              		.align	2
 1411              	.L123:
 1412 000c 00080246 		.word	1174538240
 1413              		.cfi_endproc
 1414              	.LFE357:
 1416              		.section	.text.HAL_PWREx_EnableVddIO2,"ax",%progbits
 1417              		.align	1
 1418              		.global	HAL_PWREx_EnableVddIO2
 1419              		.syntax unified
 1420              		.thumb
 1421              		.thumb_func
 1423              	HAL_PWREx_EnableVddIO2:
 1424              	.LFB358:
1252:Drivers/STM32U5xx_HAL_Driver/Src/stm32u5xx_hal_pwr_ex.c **** 
1253:Drivers/STM32U5xx_HAL_Driver/Src/stm32u5xx_hal_pwr_ex.c **** /**
1254:Drivers/STM32U5xx_HAL_Driver/Src/stm32u5xx_hal_pwr_ex.c ****   * @brief  Enable VDDIO2 supply.
1255:Drivers/STM32U5xx_HAL_Driver/Src/stm32u5xx_hal_pwr_ex.c ****   * @note   Remove VDDIO2 electrical and logical isolation, once VDDIO2 supply
1256:Drivers/STM32U5xx_HAL_Driver/Src/stm32u5xx_hal_pwr_ex.c ****   *         is present for consumption saving.
1257:Drivers/STM32U5xx_HAL_Driver/Src/stm32u5xx_hal_pwr_ex.c ****   * @retval None.
1258:Drivers/STM32U5xx_HAL_Driver/Src/stm32u5xx_hal_pwr_ex.c ****   */
1259:Drivers/STM32U5xx_HAL_Driver/Src/stm32u5xx_hal_pwr_ex.c **** void HAL_PWREx_EnableVddIO2(void)
1260:Drivers/STM32U5xx_HAL_Driver/Src/stm32u5xx_hal_pwr_ex.c **** {
 1425              		.loc 1 1260 1 is_stmt 1 view -0
 1426              		.cfi_startproc
 1427              		@ args = 0, pretend = 0, frame = 0
 1428              		@ frame_needed = 0, uses_anonymous_args = 0
 1429              		@ link register save eliminated.
1261:Drivers/STM32U5xx_HAL_Driver/Src/stm32u5xx_hal_pwr_ex.c ****   SET_BIT(PWR->SVMCR, PWR_SVMCR_IO2SV);
 1430              		.loc 1 1261 3 view .LVU333
 1431 0000 024A     		ldr	r2, .L126
 1432 0002 1369     		ldr	r3, [r2, #16]
 1433 0004 43F00053 		orr	r3, r3, #536870912
 1434 0008 1361     		str	r3, [r2, #16]
1262:Drivers/STM32U5xx_HAL_Driver/Src/stm32u5xx_hal_pwr_ex.c **** }
 1435              		.loc 1 1262 1 is_stmt 0 view .LVU334
 1436 000a 7047     		bx	lr
 1437              	.L127:
 1438              		.align	2
 1439              	.L126:
 1440 000c 00080246 		.word	1174538240
 1441              		.cfi_endproc
 1442              	.LFE358:
 1444              		.section	.text.HAL_PWREx_DisableVddIO2,"ax",%progbits
 1445              		.align	1
 1446              		.global	HAL_PWREx_DisableVddIO2
 1447              		.syntax unified
 1448              		.thumb
 1449              		.thumb_func
 1451              	HAL_PWREx_DisableVddIO2:
 1452              	.LFB359:
1263:Drivers/STM32U5xx_HAL_Driver/Src/stm32u5xx_hal_pwr_ex.c **** 
1264:Drivers/STM32U5xx_HAL_Driver/Src/stm32u5xx_hal_pwr_ex.c **** /**
1265:Drivers/STM32U5xx_HAL_Driver/Src/stm32u5xx_hal_pwr_ex.c ****   * @brief  Disable VDDIO2 supply.
1266:Drivers/STM32U5xx_HAL_Driver/Src/stm32u5xx_hal_pwr_ex.c ****   * @retval None.
1267:Drivers/STM32U5xx_HAL_Driver/Src/stm32u5xx_hal_pwr_ex.c ****   */
1268:Drivers/STM32U5xx_HAL_Driver/Src/stm32u5xx_hal_pwr_ex.c **** void HAL_PWREx_DisableVddIO2(void)
1269:Drivers/STM32U5xx_HAL_Driver/Src/stm32u5xx_hal_pwr_ex.c **** {
ARM GAS  C:\Users\Ya\AppData\Local\Temp\ccLrGXJ9.s 			page 51


 1453              		.loc 1 1269 1 is_stmt 1 view -0
 1454              		.cfi_startproc
 1455              		@ args = 0, pretend = 0, frame = 0
 1456              		@ frame_needed = 0, uses_anonymous_args = 0
 1457              		@ link register save eliminated.
1270:Drivers/STM32U5xx_HAL_Driver/Src/stm32u5xx_hal_pwr_ex.c ****   CLEAR_BIT(PWR->SVMCR, PWR_SVMCR_IO2SV);
 1458              		.loc 1 1270 3 view .LVU336
 1459 0000 024A     		ldr	r2, .L129
 1460 0002 1369     		ldr	r3, [r2, #16]
 1461 0004 23F00053 		bic	r3, r3, #536870912
 1462 0008 1361     		str	r3, [r2, #16]
1271:Drivers/STM32U5xx_HAL_Driver/Src/stm32u5xx_hal_pwr_ex.c **** }
 1463              		.loc 1 1271 1 is_stmt 0 view .LVU337
 1464 000a 7047     		bx	lr
 1465              	.L130:
 1466              		.align	2
 1467              	.L129:
 1468 000c 00080246 		.word	1174538240
 1469              		.cfi_endproc
 1470              	.LFE359:
 1472              		.section	.text.HAL_PWREx_EnableVddA,"ax",%progbits
 1473              		.align	1
 1474              		.global	HAL_PWREx_EnableVddA
 1475              		.syntax unified
 1476              		.thumb
 1477              		.thumb_func
 1479              	HAL_PWREx_EnableVddA:
 1480              	.LFB360:
1272:Drivers/STM32U5xx_HAL_Driver/Src/stm32u5xx_hal_pwr_ex.c **** 
1273:Drivers/STM32U5xx_HAL_Driver/Src/stm32u5xx_hal_pwr_ex.c **** /**
1274:Drivers/STM32U5xx_HAL_Driver/Src/stm32u5xx_hal_pwr_ex.c ****   * @brief  Enable VDDA supply.
1275:Drivers/STM32U5xx_HAL_Driver/Src/stm32u5xx_hal_pwr_ex.c ****   * @note   Remove VDDA electrical and logical isolation, once VDDA supply is
1276:Drivers/STM32U5xx_HAL_Driver/Src/stm32u5xx_hal_pwr_ex.c ****   *         present for consumption saving.
1277:Drivers/STM32U5xx_HAL_Driver/Src/stm32u5xx_hal_pwr_ex.c ****   * @retval None.
1278:Drivers/STM32U5xx_HAL_Driver/Src/stm32u5xx_hal_pwr_ex.c ****   */
1279:Drivers/STM32U5xx_HAL_Driver/Src/stm32u5xx_hal_pwr_ex.c **** void HAL_PWREx_EnableVddA(void)
1280:Drivers/STM32U5xx_HAL_Driver/Src/stm32u5xx_hal_pwr_ex.c **** {
 1481              		.loc 1 1280 1 is_stmt 1 view -0
 1482              		.cfi_startproc
 1483              		@ args = 0, pretend = 0, frame = 0
 1484              		@ frame_needed = 0, uses_anonymous_args = 0
 1485              		@ link register save eliminated.
1281:Drivers/STM32U5xx_HAL_Driver/Src/stm32u5xx_hal_pwr_ex.c ****   SET_BIT(PWR->SVMCR, PWR_SVMCR_ASV);
 1486              		.loc 1 1281 3 view .LVU339
 1487 0000 024A     		ldr	r2, .L132
 1488 0002 1369     		ldr	r3, [r2, #16]
 1489 0004 43F08043 		orr	r3, r3, #1073741824
 1490 0008 1361     		str	r3, [r2, #16]
1282:Drivers/STM32U5xx_HAL_Driver/Src/stm32u5xx_hal_pwr_ex.c **** }
 1491              		.loc 1 1282 1 is_stmt 0 view .LVU340
 1492 000a 7047     		bx	lr
 1493              	.L133:
 1494              		.align	2
 1495              	.L132:
 1496 000c 00080246 		.word	1174538240
 1497              		.cfi_endproc
 1498              	.LFE360:
ARM GAS  C:\Users\Ya\AppData\Local\Temp\ccLrGXJ9.s 			page 52


 1500              		.section	.text.HAL_PWREx_DisableVddA,"ax",%progbits
 1501              		.align	1
 1502              		.global	HAL_PWREx_DisableVddA
 1503              		.syntax unified
 1504              		.thumb
 1505              		.thumb_func
 1507              	HAL_PWREx_DisableVddA:
 1508              	.LFB361:
1283:Drivers/STM32U5xx_HAL_Driver/Src/stm32u5xx_hal_pwr_ex.c **** 
1284:Drivers/STM32U5xx_HAL_Driver/Src/stm32u5xx_hal_pwr_ex.c **** /**
1285:Drivers/STM32U5xx_HAL_Driver/Src/stm32u5xx_hal_pwr_ex.c ****   * @brief  Disable VDDA supply.
1286:Drivers/STM32U5xx_HAL_Driver/Src/stm32u5xx_hal_pwr_ex.c ****   * @retval None.
1287:Drivers/STM32U5xx_HAL_Driver/Src/stm32u5xx_hal_pwr_ex.c ****   */
1288:Drivers/STM32U5xx_HAL_Driver/Src/stm32u5xx_hal_pwr_ex.c **** void HAL_PWREx_DisableVddA(void)
1289:Drivers/STM32U5xx_HAL_Driver/Src/stm32u5xx_hal_pwr_ex.c **** {
 1509              		.loc 1 1289 1 is_stmt 1 view -0
 1510              		.cfi_startproc
 1511              		@ args = 0, pretend = 0, frame = 0
 1512              		@ frame_needed = 0, uses_anonymous_args = 0
 1513              		@ link register save eliminated.
1290:Drivers/STM32U5xx_HAL_Driver/Src/stm32u5xx_hal_pwr_ex.c ****   CLEAR_BIT(PWR->SVMCR, PWR_SVMCR_ASV);
 1514              		.loc 1 1290 3 view .LVU342
 1515 0000 024A     		ldr	r2, .L135
 1516 0002 1369     		ldr	r3, [r2, #16]
 1517 0004 23F08043 		bic	r3, r3, #1073741824
 1518 0008 1361     		str	r3, [r2, #16]
1291:Drivers/STM32U5xx_HAL_Driver/Src/stm32u5xx_hal_pwr_ex.c **** }
 1519              		.loc 1 1291 1 is_stmt 0 view .LVU343
 1520 000a 7047     		bx	lr
 1521              	.L136:
 1522              		.align	2
 1523              	.L135:
 1524 000c 00080246 		.word	1174538240
 1525              		.cfi_endproc
 1526              	.LFE361:
 1528              		.section	.text.HAL_PWREx_EnableUVM,"ax",%progbits
 1529              		.align	1
 1530              		.global	HAL_PWREx_EnableUVM
 1531              		.syntax unified
 1532              		.thumb
 1533              		.thumb_func
 1535              	HAL_PWREx_EnableUVM:
 1536              	.LFB362:
1292:Drivers/STM32U5xx_HAL_Driver/Src/stm32u5xx_hal_pwr_ex.c **** 
1293:Drivers/STM32U5xx_HAL_Driver/Src/stm32u5xx_hal_pwr_ex.c **** /**
1294:Drivers/STM32U5xx_HAL_Driver/Src/stm32u5xx_hal_pwr_ex.c ****   * @brief  Enable the UVM Voltage Monitoring : VDDUSB versus 1.2 V.
1295:Drivers/STM32U5xx_HAL_Driver/Src/stm32u5xx_hal_pwr_ex.c ****   * @retval None.
1296:Drivers/STM32U5xx_HAL_Driver/Src/stm32u5xx_hal_pwr_ex.c ****   */
1297:Drivers/STM32U5xx_HAL_Driver/Src/stm32u5xx_hal_pwr_ex.c **** void HAL_PWREx_EnableUVM(void)
1298:Drivers/STM32U5xx_HAL_Driver/Src/stm32u5xx_hal_pwr_ex.c **** {
 1537              		.loc 1 1298 1 is_stmt 1 view -0
 1538              		.cfi_startproc
 1539              		@ args = 0, pretend = 0, frame = 0
 1540              		@ frame_needed = 0, uses_anonymous_args = 0
 1541              		@ link register save eliminated.
1299:Drivers/STM32U5xx_HAL_Driver/Src/stm32u5xx_hal_pwr_ex.c ****   SET_BIT(PWR->SVMCR, PWR_SVMCR_UVMEN);
 1542              		.loc 1 1299 3 view .LVU345
ARM GAS  C:\Users\Ya\AppData\Local\Temp\ccLrGXJ9.s 			page 53


 1543 0000 024A     		ldr	r2, .L138
 1544 0002 1369     		ldr	r3, [r2, #16]
 1545 0004 43F08073 		orr	r3, r3, #16777216
 1546 0008 1361     		str	r3, [r2, #16]
1300:Drivers/STM32U5xx_HAL_Driver/Src/stm32u5xx_hal_pwr_ex.c **** }
 1547              		.loc 1 1300 1 is_stmt 0 view .LVU346
 1548 000a 7047     		bx	lr
 1549              	.L139:
 1550              		.align	2
 1551              	.L138:
 1552 000c 00080246 		.word	1174538240
 1553              		.cfi_endproc
 1554              	.LFE362:
 1556              		.section	.text.HAL_PWREx_DisableUVM,"ax",%progbits
 1557              		.align	1
 1558              		.global	HAL_PWREx_DisableUVM
 1559              		.syntax unified
 1560              		.thumb
 1561              		.thumb_func
 1563              	HAL_PWREx_DisableUVM:
 1564              	.LFB363:
1301:Drivers/STM32U5xx_HAL_Driver/Src/stm32u5xx_hal_pwr_ex.c **** 
1302:Drivers/STM32U5xx_HAL_Driver/Src/stm32u5xx_hal_pwr_ex.c **** /**
1303:Drivers/STM32U5xx_HAL_Driver/Src/stm32u5xx_hal_pwr_ex.c ****   * @brief  Disable the UVM Voltage Monitoring : VDDUSB versus 1.2 V.
1304:Drivers/STM32U5xx_HAL_Driver/Src/stm32u5xx_hal_pwr_ex.c ****   * @retval None.
1305:Drivers/STM32U5xx_HAL_Driver/Src/stm32u5xx_hal_pwr_ex.c ****   */
1306:Drivers/STM32U5xx_HAL_Driver/Src/stm32u5xx_hal_pwr_ex.c **** void HAL_PWREx_DisableUVM(void)
1307:Drivers/STM32U5xx_HAL_Driver/Src/stm32u5xx_hal_pwr_ex.c **** {
 1565              		.loc 1 1307 1 is_stmt 1 view -0
 1566              		.cfi_startproc
 1567              		@ args = 0, pretend = 0, frame = 0
 1568              		@ frame_needed = 0, uses_anonymous_args = 0
 1569              		@ link register save eliminated.
1308:Drivers/STM32U5xx_HAL_Driver/Src/stm32u5xx_hal_pwr_ex.c ****   CLEAR_BIT(PWR->SVMCR, PWR_SVMCR_UVMEN);
 1570              		.loc 1 1308 3 view .LVU348
 1571 0000 024A     		ldr	r2, .L141
 1572 0002 1369     		ldr	r3, [r2, #16]
 1573 0004 23F08073 		bic	r3, r3, #16777216
 1574 0008 1361     		str	r3, [r2, #16]
1309:Drivers/STM32U5xx_HAL_Driver/Src/stm32u5xx_hal_pwr_ex.c **** }
 1575              		.loc 1 1309 1 is_stmt 0 view .LVU349
 1576 000a 7047     		bx	lr
 1577              	.L142:
 1578              		.align	2
 1579              	.L141:
 1580 000c 00080246 		.word	1174538240
 1581              		.cfi_endproc
 1582              	.LFE363:
 1584              		.section	.text.HAL_PWREx_EnableIO2VM,"ax",%progbits
 1585              		.align	1
 1586              		.global	HAL_PWREx_EnableIO2VM
 1587              		.syntax unified
 1588              		.thumb
 1589              		.thumb_func
 1591              	HAL_PWREx_EnableIO2VM:
 1592              	.LFB364:
1310:Drivers/STM32U5xx_HAL_Driver/Src/stm32u5xx_hal_pwr_ex.c **** 
ARM GAS  C:\Users\Ya\AppData\Local\Temp\ccLrGXJ9.s 			page 54


1311:Drivers/STM32U5xx_HAL_Driver/Src/stm32u5xx_hal_pwr_ex.c **** /**
1312:Drivers/STM32U5xx_HAL_Driver/Src/stm32u5xx_hal_pwr_ex.c ****   * @brief  Enable the IO2VM Voltage Monitoring : VDDIO2 versus 0.9 V.
1313:Drivers/STM32U5xx_HAL_Driver/Src/stm32u5xx_hal_pwr_ex.c ****   * @retval None.
1314:Drivers/STM32U5xx_HAL_Driver/Src/stm32u5xx_hal_pwr_ex.c ****   */
1315:Drivers/STM32U5xx_HAL_Driver/Src/stm32u5xx_hal_pwr_ex.c **** void HAL_PWREx_EnableIO2VM(void)
1316:Drivers/STM32U5xx_HAL_Driver/Src/stm32u5xx_hal_pwr_ex.c **** {
 1593              		.loc 1 1316 1 is_stmt 1 view -0
 1594              		.cfi_startproc
 1595              		@ args = 0, pretend = 0, frame = 0
 1596              		@ frame_needed = 0, uses_anonymous_args = 0
 1597              		@ link register save eliminated.
1317:Drivers/STM32U5xx_HAL_Driver/Src/stm32u5xx_hal_pwr_ex.c ****   SET_BIT(PWR->SVMCR, PWR_SVMCR_IO2VMEN);
 1598              		.loc 1 1317 3 view .LVU351
 1599 0000 024A     		ldr	r2, .L144
 1600 0002 1369     		ldr	r3, [r2, #16]
 1601 0004 43F00073 		orr	r3, r3, #33554432
 1602 0008 1361     		str	r3, [r2, #16]
1318:Drivers/STM32U5xx_HAL_Driver/Src/stm32u5xx_hal_pwr_ex.c **** }
 1603              		.loc 1 1318 1 is_stmt 0 view .LVU352
 1604 000a 7047     		bx	lr
 1605              	.L145:
 1606              		.align	2
 1607              	.L144:
 1608 000c 00080246 		.word	1174538240
 1609              		.cfi_endproc
 1610              	.LFE364:
 1612              		.section	.text.HAL_PWREx_DisableIO2VM,"ax",%progbits
 1613              		.align	1
 1614              		.global	HAL_PWREx_DisableIO2VM
 1615              		.syntax unified
 1616              		.thumb
 1617              		.thumb_func
 1619              	HAL_PWREx_DisableIO2VM:
 1620              	.LFB365:
1319:Drivers/STM32U5xx_HAL_Driver/Src/stm32u5xx_hal_pwr_ex.c **** 
1320:Drivers/STM32U5xx_HAL_Driver/Src/stm32u5xx_hal_pwr_ex.c **** /**
1321:Drivers/STM32U5xx_HAL_Driver/Src/stm32u5xx_hal_pwr_ex.c ****   * @brief  Disable the IO2VM Voltage Monitoring : VDDIO2 versus 0.9 V.
1322:Drivers/STM32U5xx_HAL_Driver/Src/stm32u5xx_hal_pwr_ex.c ****   * @retval None.
1323:Drivers/STM32U5xx_HAL_Driver/Src/stm32u5xx_hal_pwr_ex.c ****   */
1324:Drivers/STM32U5xx_HAL_Driver/Src/stm32u5xx_hal_pwr_ex.c **** void HAL_PWREx_DisableIO2VM(void)
1325:Drivers/STM32U5xx_HAL_Driver/Src/stm32u5xx_hal_pwr_ex.c **** {
 1621              		.loc 1 1325 1 is_stmt 1 view -0
 1622              		.cfi_startproc
 1623              		@ args = 0, pretend = 0, frame = 0
 1624              		@ frame_needed = 0, uses_anonymous_args = 0
 1625              		@ link register save eliminated.
1326:Drivers/STM32U5xx_HAL_Driver/Src/stm32u5xx_hal_pwr_ex.c ****   CLEAR_BIT(PWR->SVMCR, PWR_SVMCR_IO2VMEN);
 1626              		.loc 1 1326 3 view .LVU354
 1627 0000 024A     		ldr	r2, .L147
 1628 0002 1369     		ldr	r3, [r2, #16]
 1629 0004 23F00073 		bic	r3, r3, #33554432
 1630 0008 1361     		str	r3, [r2, #16]
1327:Drivers/STM32U5xx_HAL_Driver/Src/stm32u5xx_hal_pwr_ex.c **** }
 1631              		.loc 1 1327 1 is_stmt 0 view .LVU355
 1632 000a 7047     		bx	lr
 1633              	.L148:
 1634              		.align	2
ARM GAS  C:\Users\Ya\AppData\Local\Temp\ccLrGXJ9.s 			page 55


 1635              	.L147:
 1636 000c 00080246 		.word	1174538240
 1637              		.cfi_endproc
 1638              	.LFE365:
 1640              		.section	.text.HAL_PWREx_EnableAVM1,"ax",%progbits
 1641              		.align	1
 1642              		.global	HAL_PWREx_EnableAVM1
 1643              		.syntax unified
 1644              		.thumb
 1645              		.thumb_func
 1647              	HAL_PWREx_EnableAVM1:
 1648              	.LFB366:
1328:Drivers/STM32U5xx_HAL_Driver/Src/stm32u5xx_hal_pwr_ex.c **** 
1329:Drivers/STM32U5xx_HAL_Driver/Src/stm32u5xx_hal_pwr_ex.c **** /**
1330:Drivers/STM32U5xx_HAL_Driver/Src/stm32u5xx_hal_pwr_ex.c ****   * @brief  Enable the AVM1 Voltage Monitoring : VDDA versus 1.6 V.
1331:Drivers/STM32U5xx_HAL_Driver/Src/stm32u5xx_hal_pwr_ex.c ****   * @retval None.
1332:Drivers/STM32U5xx_HAL_Driver/Src/stm32u5xx_hal_pwr_ex.c ****   */
1333:Drivers/STM32U5xx_HAL_Driver/Src/stm32u5xx_hal_pwr_ex.c **** void HAL_PWREx_EnableAVM1(void)
1334:Drivers/STM32U5xx_HAL_Driver/Src/stm32u5xx_hal_pwr_ex.c **** {
 1649              		.loc 1 1334 1 is_stmt 1 view -0
 1650              		.cfi_startproc
 1651              		@ args = 0, pretend = 0, frame = 0
 1652              		@ frame_needed = 0, uses_anonymous_args = 0
 1653              		@ link register save eliminated.
1335:Drivers/STM32U5xx_HAL_Driver/Src/stm32u5xx_hal_pwr_ex.c ****   SET_BIT(PWR->SVMCR, PWR_SVMCR_AVM1EN);
 1654              		.loc 1 1335 3 view .LVU357
 1655 0000 024A     		ldr	r2, .L150
 1656 0002 1369     		ldr	r3, [r2, #16]
 1657 0004 43F08063 		orr	r3, r3, #67108864
 1658 0008 1361     		str	r3, [r2, #16]
1336:Drivers/STM32U5xx_HAL_Driver/Src/stm32u5xx_hal_pwr_ex.c **** }
 1659              		.loc 1 1336 1 is_stmt 0 view .LVU358
 1660 000a 7047     		bx	lr
 1661              	.L151:
 1662              		.align	2
 1663              	.L150:
 1664 000c 00080246 		.word	1174538240
 1665              		.cfi_endproc
 1666              	.LFE366:
 1668              		.section	.text.HAL_PWREx_DisableAVM1,"ax",%progbits
 1669              		.align	1
 1670              		.global	HAL_PWREx_DisableAVM1
 1671              		.syntax unified
 1672              		.thumb
 1673              		.thumb_func
 1675              	HAL_PWREx_DisableAVM1:
 1676              	.LFB367:
1337:Drivers/STM32U5xx_HAL_Driver/Src/stm32u5xx_hal_pwr_ex.c **** 
1338:Drivers/STM32U5xx_HAL_Driver/Src/stm32u5xx_hal_pwr_ex.c **** /**
1339:Drivers/STM32U5xx_HAL_Driver/Src/stm32u5xx_hal_pwr_ex.c ****   * @brief  Disable the AVM1 Voltage Monitoring : VDDA versus 1.6 V.
1340:Drivers/STM32U5xx_HAL_Driver/Src/stm32u5xx_hal_pwr_ex.c ****   * @retval None.
1341:Drivers/STM32U5xx_HAL_Driver/Src/stm32u5xx_hal_pwr_ex.c ****   */
1342:Drivers/STM32U5xx_HAL_Driver/Src/stm32u5xx_hal_pwr_ex.c **** void HAL_PWREx_DisableAVM1(void)
1343:Drivers/STM32U5xx_HAL_Driver/Src/stm32u5xx_hal_pwr_ex.c **** {
 1677              		.loc 1 1343 1 is_stmt 1 view -0
 1678              		.cfi_startproc
 1679              		@ args = 0, pretend = 0, frame = 0
ARM GAS  C:\Users\Ya\AppData\Local\Temp\ccLrGXJ9.s 			page 56


 1680              		@ frame_needed = 0, uses_anonymous_args = 0
 1681              		@ link register save eliminated.
1344:Drivers/STM32U5xx_HAL_Driver/Src/stm32u5xx_hal_pwr_ex.c ****   CLEAR_BIT(PWR->SVMCR, PWR_SVMCR_AVM1EN);
 1682              		.loc 1 1344 3 view .LVU360
 1683 0000 024A     		ldr	r2, .L153
 1684 0002 1369     		ldr	r3, [r2, #16]
 1685 0004 23F08063 		bic	r3, r3, #67108864
 1686 0008 1361     		str	r3, [r2, #16]
1345:Drivers/STM32U5xx_HAL_Driver/Src/stm32u5xx_hal_pwr_ex.c **** }
 1687              		.loc 1 1345 1 is_stmt 0 view .LVU361
 1688 000a 7047     		bx	lr
 1689              	.L154:
 1690              		.align	2
 1691              	.L153:
 1692 000c 00080246 		.word	1174538240
 1693              		.cfi_endproc
 1694              	.LFE367:
 1696              		.section	.text.HAL_PWREx_EnableAVM2,"ax",%progbits
 1697              		.align	1
 1698              		.global	HAL_PWREx_EnableAVM2
 1699              		.syntax unified
 1700              		.thumb
 1701              		.thumb_func
 1703              	HAL_PWREx_EnableAVM2:
 1704              	.LFB368:
1346:Drivers/STM32U5xx_HAL_Driver/Src/stm32u5xx_hal_pwr_ex.c **** 
1347:Drivers/STM32U5xx_HAL_Driver/Src/stm32u5xx_hal_pwr_ex.c **** /**
1348:Drivers/STM32U5xx_HAL_Driver/Src/stm32u5xx_hal_pwr_ex.c ****   * @brief  Enable the AVM2 Voltage Monitoring : VDDA versus 1.8 V.
1349:Drivers/STM32U5xx_HAL_Driver/Src/stm32u5xx_hal_pwr_ex.c ****   * @retval None.
1350:Drivers/STM32U5xx_HAL_Driver/Src/stm32u5xx_hal_pwr_ex.c ****   */
1351:Drivers/STM32U5xx_HAL_Driver/Src/stm32u5xx_hal_pwr_ex.c **** void HAL_PWREx_EnableAVM2(void)
1352:Drivers/STM32U5xx_HAL_Driver/Src/stm32u5xx_hal_pwr_ex.c **** {
 1705              		.loc 1 1352 1 is_stmt 1 view -0
 1706              		.cfi_startproc
 1707              		@ args = 0, pretend = 0, frame = 0
 1708              		@ frame_needed = 0, uses_anonymous_args = 0
 1709              		@ link register save eliminated.
1353:Drivers/STM32U5xx_HAL_Driver/Src/stm32u5xx_hal_pwr_ex.c ****   SET_BIT(PWR->SVMCR, PWR_SVMCR_AVM2EN);
 1710              		.loc 1 1353 3 view .LVU363
 1711 0000 024A     		ldr	r2, .L156
 1712 0002 1369     		ldr	r3, [r2, #16]
 1713 0004 43F00063 		orr	r3, r3, #134217728
 1714 0008 1361     		str	r3, [r2, #16]
1354:Drivers/STM32U5xx_HAL_Driver/Src/stm32u5xx_hal_pwr_ex.c **** }
 1715              		.loc 1 1354 1 is_stmt 0 view .LVU364
 1716 000a 7047     		bx	lr
 1717              	.L157:
 1718              		.align	2
 1719              	.L156:
 1720 000c 00080246 		.word	1174538240
 1721              		.cfi_endproc
 1722              	.LFE368:
 1724              		.section	.text.HAL_PWREx_DisableAVM2,"ax",%progbits
 1725              		.align	1
 1726              		.global	HAL_PWREx_DisableAVM2
 1727              		.syntax unified
 1728              		.thumb
ARM GAS  C:\Users\Ya\AppData\Local\Temp\ccLrGXJ9.s 			page 57


 1729              		.thumb_func
 1731              	HAL_PWREx_DisableAVM2:
 1732              	.LFB369:
1355:Drivers/STM32U5xx_HAL_Driver/Src/stm32u5xx_hal_pwr_ex.c **** 
1356:Drivers/STM32U5xx_HAL_Driver/Src/stm32u5xx_hal_pwr_ex.c **** /**
1357:Drivers/STM32U5xx_HAL_Driver/Src/stm32u5xx_hal_pwr_ex.c ****   * @brief  Disable the AVM2 Voltage Monitoring : VDDA versus 1.8 V.
1358:Drivers/STM32U5xx_HAL_Driver/Src/stm32u5xx_hal_pwr_ex.c ****   * @retval None.
1359:Drivers/STM32U5xx_HAL_Driver/Src/stm32u5xx_hal_pwr_ex.c ****   */
1360:Drivers/STM32U5xx_HAL_Driver/Src/stm32u5xx_hal_pwr_ex.c **** void HAL_PWREx_DisableAVM2(void)
1361:Drivers/STM32U5xx_HAL_Driver/Src/stm32u5xx_hal_pwr_ex.c **** {
 1733              		.loc 1 1361 1 is_stmt 1 view -0
 1734              		.cfi_startproc
 1735              		@ args = 0, pretend = 0, frame = 0
 1736              		@ frame_needed = 0, uses_anonymous_args = 0
 1737              		@ link register save eliminated.
1362:Drivers/STM32U5xx_HAL_Driver/Src/stm32u5xx_hal_pwr_ex.c ****   CLEAR_BIT(PWR->SVMCR, PWR_SVMCR_AVM2EN);
 1738              		.loc 1 1362 3 view .LVU366
 1739 0000 024A     		ldr	r2, .L159
 1740 0002 1369     		ldr	r3, [r2, #16]
 1741 0004 23F00063 		bic	r3, r3, #134217728
 1742 0008 1361     		str	r3, [r2, #16]
1363:Drivers/STM32U5xx_HAL_Driver/Src/stm32u5xx_hal_pwr_ex.c **** }
 1743              		.loc 1 1363 1 is_stmt 0 view .LVU367
 1744 000a 7047     		bx	lr
 1745              	.L160:
 1746              		.align	2
 1747              	.L159:
 1748 000c 00080246 		.word	1174538240
 1749              		.cfi_endproc
 1750              	.LFE369:
 1752              		.section	.text.HAL_PWREx_EnableMonitoring,"ax",%progbits
 1753              		.align	1
 1754              		.global	HAL_PWREx_EnableMonitoring
 1755              		.syntax unified
 1756              		.thumb
 1757              		.thumb_func
 1759              	HAL_PWREx_EnableMonitoring:
 1760              	.LFB370:
1364:Drivers/STM32U5xx_HAL_Driver/Src/stm32u5xx_hal_pwr_ex.c **** 
1365:Drivers/STM32U5xx_HAL_Driver/Src/stm32u5xx_hal_pwr_ex.c **** /**
1366:Drivers/STM32U5xx_HAL_Driver/Src/stm32u5xx_hal_pwr_ex.c ****   * @brief  Enable the VBAT and temperature monitoring.
1367:Drivers/STM32U5xx_HAL_Driver/Src/stm32u5xx_hal_pwr_ex.c ****   * @retval None.
1368:Drivers/STM32U5xx_HAL_Driver/Src/stm32u5xx_hal_pwr_ex.c ****   */
1369:Drivers/STM32U5xx_HAL_Driver/Src/stm32u5xx_hal_pwr_ex.c **** void HAL_PWREx_EnableMonitoring(void)
1370:Drivers/STM32U5xx_HAL_Driver/Src/stm32u5xx_hal_pwr_ex.c **** {
 1761              		.loc 1 1370 1 is_stmt 1 view -0
 1762              		.cfi_startproc
 1763              		@ args = 0, pretend = 0, frame = 0
 1764              		@ frame_needed = 0, uses_anonymous_args = 0
 1765              		@ link register save eliminated.
1371:Drivers/STM32U5xx_HAL_Driver/Src/stm32u5xx_hal_pwr_ex.c ****   SET_BIT(PWR->BDCR1, PWR_BDCR1_MONEN);
 1766              		.loc 1 1371 3 view .LVU369
 1767 0000 024A     		ldr	r2, .L162
 1768 0002 136A     		ldr	r3, [r2, #32]
 1769 0004 43F01003 		orr	r3, r3, #16
 1770 0008 1362     		str	r3, [r2, #32]
1372:Drivers/STM32U5xx_HAL_Driver/Src/stm32u5xx_hal_pwr_ex.c **** }
ARM GAS  C:\Users\Ya\AppData\Local\Temp\ccLrGXJ9.s 			page 58


 1771              		.loc 1 1372 1 is_stmt 0 view .LVU370
 1772 000a 7047     		bx	lr
 1773              	.L163:
 1774              		.align	2
 1775              	.L162:
 1776 000c 00080246 		.word	1174538240
 1777              		.cfi_endproc
 1778              	.LFE370:
 1780              		.section	.text.HAL_PWREx_DisableMonitoring,"ax",%progbits
 1781              		.align	1
 1782              		.global	HAL_PWREx_DisableMonitoring
 1783              		.syntax unified
 1784              		.thumb
 1785              		.thumb_func
 1787              	HAL_PWREx_DisableMonitoring:
 1788              	.LFB371:
1373:Drivers/STM32U5xx_HAL_Driver/Src/stm32u5xx_hal_pwr_ex.c **** 
1374:Drivers/STM32U5xx_HAL_Driver/Src/stm32u5xx_hal_pwr_ex.c **** /**
1375:Drivers/STM32U5xx_HAL_Driver/Src/stm32u5xx_hal_pwr_ex.c ****   * @brief  Disable the VBAT and temperature monitoring.
1376:Drivers/STM32U5xx_HAL_Driver/Src/stm32u5xx_hal_pwr_ex.c ****   * @retval None.
1377:Drivers/STM32U5xx_HAL_Driver/Src/stm32u5xx_hal_pwr_ex.c ****   */
1378:Drivers/STM32U5xx_HAL_Driver/Src/stm32u5xx_hal_pwr_ex.c **** void HAL_PWREx_DisableMonitoring(void)
1379:Drivers/STM32U5xx_HAL_Driver/Src/stm32u5xx_hal_pwr_ex.c **** {
 1789              		.loc 1 1379 1 is_stmt 1 view -0
 1790              		.cfi_startproc
 1791              		@ args = 0, pretend = 0, frame = 0
 1792              		@ frame_needed = 0, uses_anonymous_args = 0
 1793              		@ link register save eliminated.
1380:Drivers/STM32U5xx_HAL_Driver/Src/stm32u5xx_hal_pwr_ex.c ****   CLEAR_BIT(PWR->BDCR1, PWR_BDCR1_MONEN);
 1794              		.loc 1 1380 3 view .LVU372
 1795 0000 024A     		ldr	r2, .L165
 1796 0002 136A     		ldr	r3, [r2, #32]
 1797 0004 23F01003 		bic	r3, r3, #16
 1798 0008 1362     		str	r3, [r2, #32]
1381:Drivers/STM32U5xx_HAL_Driver/Src/stm32u5xx_hal_pwr_ex.c **** }
 1799              		.loc 1 1381 1 is_stmt 0 view .LVU373
 1800 000a 7047     		bx	lr
 1801              	.L166:
 1802              		.align	2
 1803              	.L165:
 1804 000c 00080246 		.word	1174538240
 1805              		.cfi_endproc
 1806              	.LFE371:
 1808              		.section	.text.HAL_PWREx_EnableUCPDStandbyMode,"ax",%progbits
 1809              		.align	1
 1810              		.global	HAL_PWREx_EnableUCPDStandbyMode
 1811              		.syntax unified
 1812              		.thumb
 1813              		.thumb_func
 1815              	HAL_PWREx_EnableUCPDStandbyMode:
 1816              	.LFB372:
1382:Drivers/STM32U5xx_HAL_Driver/Src/stm32u5xx_hal_pwr_ex.c **** 
1383:Drivers/STM32U5xx_HAL_Driver/Src/stm32u5xx_hal_pwr_ex.c **** #if defined (PWR_VOSR_USBPWREN)
1384:Drivers/STM32U5xx_HAL_Driver/Src/stm32u5xx_hal_pwr_ex.c **** /**
1385:Drivers/STM32U5xx_HAL_Driver/Src/stm32u5xx_hal_pwr_ex.c ****   * @brief  Enable the internal USB HS transceiver supply.
1386:Drivers/STM32U5xx_HAL_Driver/Src/stm32u5xx_hal_pwr_ex.c ****   * @retval HAL status.
1387:Drivers/STM32U5xx_HAL_Driver/Src/stm32u5xx_hal_pwr_ex.c ****   */
ARM GAS  C:\Users\Ya\AppData\Local\Temp\ccLrGXJ9.s 			page 59


1388:Drivers/STM32U5xx_HAL_Driver/Src/stm32u5xx_hal_pwr_ex.c **** HAL_StatusTypeDef HAL_PWREx_EnableUSBHSTranceiverSupply(void)
1389:Drivers/STM32U5xx_HAL_Driver/Src/stm32u5xx_hal_pwr_ex.c **** {
1390:Drivers/STM32U5xx_HAL_Driver/Src/stm32u5xx_hal_pwr_ex.c ****   uint32_t vos;
1391:Drivers/STM32U5xx_HAL_Driver/Src/stm32u5xx_hal_pwr_ex.c **** 
1392:Drivers/STM32U5xx_HAL_Driver/Src/stm32u5xx_hal_pwr_ex.c ****   /* Get the system applied voltage scaling range */
1393:Drivers/STM32U5xx_HAL_Driver/Src/stm32u5xx_hal_pwr_ex.c ****   vos = HAL_PWREx_GetVoltageRange();
1394:Drivers/STM32U5xx_HAL_Driver/Src/stm32u5xx_hal_pwr_ex.c **** 
1395:Drivers/STM32U5xx_HAL_Driver/Src/stm32u5xx_hal_pwr_ex.c ****   /* Check the system applied voltage scaling range */
1396:Drivers/STM32U5xx_HAL_Driver/Src/stm32u5xx_hal_pwr_ex.c ****   if ((vos == PWR_REGULATOR_VOLTAGE_SCALE1) || (vos == PWR_REGULATOR_VOLTAGE_SCALE2))
1397:Drivers/STM32U5xx_HAL_Driver/Src/stm32u5xx_hal_pwr_ex.c ****   {
1398:Drivers/STM32U5xx_HAL_Driver/Src/stm32u5xx_hal_pwr_ex.c ****     SET_BIT(PWR->VOSR, (PWR_VOSR_USBPWREN | PWR_VOSR_USBBOOSTEN));
1399:Drivers/STM32U5xx_HAL_Driver/Src/stm32u5xx_hal_pwr_ex.c ****   }
1400:Drivers/STM32U5xx_HAL_Driver/Src/stm32u5xx_hal_pwr_ex.c ****   else
1401:Drivers/STM32U5xx_HAL_Driver/Src/stm32u5xx_hal_pwr_ex.c ****   {
1402:Drivers/STM32U5xx_HAL_Driver/Src/stm32u5xx_hal_pwr_ex.c ****     return HAL_ERROR;
1403:Drivers/STM32U5xx_HAL_Driver/Src/stm32u5xx_hal_pwr_ex.c ****   }
1404:Drivers/STM32U5xx_HAL_Driver/Src/stm32u5xx_hal_pwr_ex.c **** 
1405:Drivers/STM32U5xx_HAL_Driver/Src/stm32u5xx_hal_pwr_ex.c ****   return HAL_OK;
1406:Drivers/STM32U5xx_HAL_Driver/Src/stm32u5xx_hal_pwr_ex.c **** }
1407:Drivers/STM32U5xx_HAL_Driver/Src/stm32u5xx_hal_pwr_ex.c **** 
1408:Drivers/STM32U5xx_HAL_Driver/Src/stm32u5xx_hal_pwr_ex.c **** /**
1409:Drivers/STM32U5xx_HAL_Driver/Src/stm32u5xx_hal_pwr_ex.c ****   * @brief  Disable the internal USB HS transceiver supply.
1410:Drivers/STM32U5xx_HAL_Driver/Src/stm32u5xx_hal_pwr_ex.c ****   * @retval HAL status.
1411:Drivers/STM32U5xx_HAL_Driver/Src/stm32u5xx_hal_pwr_ex.c ****   */
1412:Drivers/STM32U5xx_HAL_Driver/Src/stm32u5xx_hal_pwr_ex.c **** void HAL_PWREx_DisableUSBHSTranceiverSupply(void)
1413:Drivers/STM32U5xx_HAL_Driver/Src/stm32u5xx_hal_pwr_ex.c **** {
1414:Drivers/STM32U5xx_HAL_Driver/Src/stm32u5xx_hal_pwr_ex.c ****   CLEAR_BIT(PWR->VOSR, (PWR_VOSR_USBPWREN | PWR_VOSR_USBBOOSTEN));
1415:Drivers/STM32U5xx_HAL_Driver/Src/stm32u5xx_hal_pwr_ex.c **** }
1416:Drivers/STM32U5xx_HAL_Driver/Src/stm32u5xx_hal_pwr_ex.c **** #endif /* defined (PWR_VOSR_USBPWREN) */
1417:Drivers/STM32U5xx_HAL_Driver/Src/stm32u5xx_hal_pwr_ex.c **** 
1418:Drivers/STM32U5xx_HAL_Driver/Src/stm32u5xx_hal_pwr_ex.c **** #if defined (PWR_CR1_FORCE_USBPWR)
1419:Drivers/STM32U5xx_HAL_Driver/Src/stm32u5xx_hal_pwr_ex.c **** /**
1420:Drivers/STM32U5xx_HAL_Driver/Src/stm32u5xx_hal_pwr_ex.c ****   * @brief  Enable OTG_HS PHY power during low power modes (Stop2, Stop3 and Standby).
1421:Drivers/STM32U5xx_HAL_Driver/Src/stm32u5xx_hal_pwr_ex.c ****   * @retval None.
1422:Drivers/STM32U5xx_HAL_Driver/Src/stm32u5xx_hal_pwr_ex.c ****   */
1423:Drivers/STM32U5xx_HAL_Driver/Src/stm32u5xx_hal_pwr_ex.c **** void HAL_PWREx_EnableOTGHSPHYLowPowerRetention(void)
1424:Drivers/STM32U5xx_HAL_Driver/Src/stm32u5xx_hal_pwr_ex.c **** {
1425:Drivers/STM32U5xx_HAL_Driver/Src/stm32u5xx_hal_pwr_ex.c ****   /* Set FORCE_USBPWR bit  */
1426:Drivers/STM32U5xx_HAL_Driver/Src/stm32u5xx_hal_pwr_ex.c ****   SET_BIT(PWR->CR1, PWR_CR1_FORCE_USBPWR);
1427:Drivers/STM32U5xx_HAL_Driver/Src/stm32u5xx_hal_pwr_ex.c **** }
1428:Drivers/STM32U5xx_HAL_Driver/Src/stm32u5xx_hal_pwr_ex.c **** 
1429:Drivers/STM32U5xx_HAL_Driver/Src/stm32u5xx_hal_pwr_ex.c **** /**
1430:Drivers/STM32U5xx_HAL_Driver/Src/stm32u5xx_hal_pwr_ex.c ****   * @brief  Disable OTG_HS PHY power during low power modes (Stop2, Stop3 and Standby).
1431:Drivers/STM32U5xx_HAL_Driver/Src/stm32u5xx_hal_pwr_ex.c ****   * @retval None.
1432:Drivers/STM32U5xx_HAL_Driver/Src/stm32u5xx_hal_pwr_ex.c ****   */
1433:Drivers/STM32U5xx_HAL_Driver/Src/stm32u5xx_hal_pwr_ex.c **** void HAL_PWREx_DisableOTGHSPHYLowPowerRetention(void)
1434:Drivers/STM32U5xx_HAL_Driver/Src/stm32u5xx_hal_pwr_ex.c **** {
1435:Drivers/STM32U5xx_HAL_Driver/Src/stm32u5xx_hal_pwr_ex.c ****   /* Clear FORCE_USBPWR bit  */
1436:Drivers/STM32U5xx_HAL_Driver/Src/stm32u5xx_hal_pwr_ex.c ****   CLEAR_BIT(PWR->CR1, PWR_CR1_FORCE_USBPWR);
1437:Drivers/STM32U5xx_HAL_Driver/Src/stm32u5xx_hal_pwr_ex.c **** }
1438:Drivers/STM32U5xx_HAL_Driver/Src/stm32u5xx_hal_pwr_ex.c **** #endif /* defined (PWR_CR1_FORCE_USBPWR) */
1439:Drivers/STM32U5xx_HAL_Driver/Src/stm32u5xx_hal_pwr_ex.c **** 
1440:Drivers/STM32U5xx_HAL_Driver/Src/stm32u5xx_hal_pwr_ex.c **** #if defined (PWR_VOSR_VDD11USBDIS)
1441:Drivers/STM32U5xx_HAL_Driver/Src/stm32u5xx_hal_pwr_ex.c **** /**
1442:Drivers/STM32U5xx_HAL_Driver/Src/stm32u5xx_hal_pwr_ex.c ****   * @brief  Enable the VDD11USB.
1443:Drivers/STM32U5xx_HAL_Driver/Src/stm32u5xx_hal_pwr_ex.c ****   * @retval None.
1444:Drivers/STM32U5xx_HAL_Driver/Src/stm32u5xx_hal_pwr_ex.c ****   */
ARM GAS  C:\Users\Ya\AppData\Local\Temp\ccLrGXJ9.s 			page 60


1445:Drivers/STM32U5xx_HAL_Driver/Src/stm32u5xx_hal_pwr_ex.c **** void HAL_PWREx_EnableVDD11USB(void)
1446:Drivers/STM32U5xx_HAL_Driver/Src/stm32u5xx_hal_pwr_ex.c **** {
1447:Drivers/STM32U5xx_HAL_Driver/Src/stm32u5xx_hal_pwr_ex.c ****   /* Clear VDD11USBDIS bit  */
1448:Drivers/STM32U5xx_HAL_Driver/Src/stm32u5xx_hal_pwr_ex.c ****   CLEAR_BIT(PWR->VOSR, PWR_VOSR_VDD11USBDIS);
1449:Drivers/STM32U5xx_HAL_Driver/Src/stm32u5xx_hal_pwr_ex.c **** }
1450:Drivers/STM32U5xx_HAL_Driver/Src/stm32u5xx_hal_pwr_ex.c **** 
1451:Drivers/STM32U5xx_HAL_Driver/Src/stm32u5xx_hal_pwr_ex.c **** /**
1452:Drivers/STM32U5xx_HAL_Driver/Src/stm32u5xx_hal_pwr_ex.c ****   * @brief  Disable the VDD11USB.
1453:Drivers/STM32U5xx_HAL_Driver/Src/stm32u5xx_hal_pwr_ex.c ****   * @retval None.
1454:Drivers/STM32U5xx_HAL_Driver/Src/stm32u5xx_hal_pwr_ex.c ****   */
1455:Drivers/STM32U5xx_HAL_Driver/Src/stm32u5xx_hal_pwr_ex.c **** void HAL_PWREx_DisableVDD11USB(void)
1456:Drivers/STM32U5xx_HAL_Driver/Src/stm32u5xx_hal_pwr_ex.c **** {
1457:Drivers/STM32U5xx_HAL_Driver/Src/stm32u5xx_hal_pwr_ex.c ****   /* Set VDD11USBDIS bit  */
1458:Drivers/STM32U5xx_HAL_Driver/Src/stm32u5xx_hal_pwr_ex.c ****   SET_BIT(PWR->VOSR, PWR_VOSR_VDD11USBDIS);
1459:Drivers/STM32U5xx_HAL_Driver/Src/stm32u5xx_hal_pwr_ex.c **** }
1460:Drivers/STM32U5xx_HAL_Driver/Src/stm32u5xx_hal_pwr_ex.c **** #endif /* defined (PWR_VOSR_VDD11USBDIS) */
1461:Drivers/STM32U5xx_HAL_Driver/Src/stm32u5xx_hal_pwr_ex.c **** 
1462:Drivers/STM32U5xx_HAL_Driver/Src/stm32u5xx_hal_pwr_ex.c **** #ifdef UCPD1
1463:Drivers/STM32U5xx_HAL_Driver/Src/stm32u5xx_hal_pwr_ex.c **** /**
1464:Drivers/STM32U5xx_HAL_Driver/Src/stm32u5xx_hal_pwr_ex.c ****   * @brief  Enable UCPD configuration memorization in Standby mode.
1465:Drivers/STM32U5xx_HAL_Driver/Src/stm32u5xx_hal_pwr_ex.c ****   * @retval None.
1466:Drivers/STM32U5xx_HAL_Driver/Src/stm32u5xx_hal_pwr_ex.c ****   */
1467:Drivers/STM32U5xx_HAL_Driver/Src/stm32u5xx_hal_pwr_ex.c **** void HAL_PWREx_EnableUCPDStandbyMode(void)
1468:Drivers/STM32U5xx_HAL_Driver/Src/stm32u5xx_hal_pwr_ex.c **** {
 1817              		.loc 1 1468 1 is_stmt 1 view -0
 1818              		.cfi_startproc
 1819              		@ args = 0, pretend = 0, frame = 0
 1820              		@ frame_needed = 0, uses_anonymous_args = 0
 1821              		@ link register save eliminated.
1469:Drivers/STM32U5xx_HAL_Driver/Src/stm32u5xx_hal_pwr_ex.c ****   SET_BIT(PWR->UCPDR, PWR_UCPDR_UCPD_STDBY);
 1822              		.loc 1 1469 3 view .LVU375
 1823 0000 024A     		ldr	r2, .L168
 1824 0002 D36A     		ldr	r3, [r2, #44]
 1825 0004 43F00203 		orr	r3, r3, #2
 1826 0008 D362     		str	r3, [r2, #44]
1470:Drivers/STM32U5xx_HAL_Driver/Src/stm32u5xx_hal_pwr_ex.c **** }
 1827              		.loc 1 1470 1 is_stmt 0 view .LVU376
 1828 000a 7047     		bx	lr
 1829              	.L169:
 1830              		.align	2
 1831              	.L168:
 1832 000c 00080246 		.word	1174538240
 1833              		.cfi_endproc
 1834              	.LFE372:
 1836              		.section	.text.HAL_PWREx_DisableUCPDStandbyMode,"ax",%progbits
 1837              		.align	1
 1838              		.global	HAL_PWREx_DisableUCPDStandbyMode
 1839              		.syntax unified
 1840              		.thumb
 1841              		.thumb_func
 1843              	HAL_PWREx_DisableUCPDStandbyMode:
 1844              	.LFB373:
1471:Drivers/STM32U5xx_HAL_Driver/Src/stm32u5xx_hal_pwr_ex.c **** 
1472:Drivers/STM32U5xx_HAL_Driver/Src/stm32u5xx_hal_pwr_ex.c **** /**
1473:Drivers/STM32U5xx_HAL_Driver/Src/stm32u5xx_hal_pwr_ex.c ****   * @brief  Disable UCPD configuration memorization in Standby mode.
1474:Drivers/STM32U5xx_HAL_Driver/Src/stm32u5xx_hal_pwr_ex.c ****   * @note   This function must be called on exiting the Standby mode and before
1475:Drivers/STM32U5xx_HAL_Driver/Src/stm32u5xx_hal_pwr_ex.c ****   *         any UCPD configuration update.
ARM GAS  C:\Users\Ya\AppData\Local\Temp\ccLrGXJ9.s 			page 61


1476:Drivers/STM32U5xx_HAL_Driver/Src/stm32u5xx_hal_pwr_ex.c ****   * @retval None.
1477:Drivers/STM32U5xx_HAL_Driver/Src/stm32u5xx_hal_pwr_ex.c ****   */
1478:Drivers/STM32U5xx_HAL_Driver/Src/stm32u5xx_hal_pwr_ex.c **** void HAL_PWREx_DisableUCPDStandbyMode(void)
1479:Drivers/STM32U5xx_HAL_Driver/Src/stm32u5xx_hal_pwr_ex.c **** {
 1845              		.loc 1 1479 1 is_stmt 1 view -0
 1846              		.cfi_startproc
 1847              		@ args = 0, pretend = 0, frame = 0
 1848              		@ frame_needed = 0, uses_anonymous_args = 0
 1849              		@ link register save eliminated.
1480:Drivers/STM32U5xx_HAL_Driver/Src/stm32u5xx_hal_pwr_ex.c ****   CLEAR_BIT(PWR->UCPDR, PWR_UCPDR_UCPD_STDBY);
 1850              		.loc 1 1480 3 view .LVU378
 1851 0000 024A     		ldr	r2, .L171
 1852 0002 D36A     		ldr	r3, [r2, #44]
 1853 0004 23F00203 		bic	r3, r3, #2
 1854 0008 D362     		str	r3, [r2, #44]
1481:Drivers/STM32U5xx_HAL_Driver/Src/stm32u5xx_hal_pwr_ex.c **** }
 1855              		.loc 1 1481 1 is_stmt 0 view .LVU379
 1856 000a 7047     		bx	lr
 1857              	.L172:
 1858              		.align	2
 1859              	.L171:
 1860 000c 00080246 		.word	1174538240
 1861              		.cfi_endproc
 1862              	.LFE373:
 1864              		.section	.text.HAL_PWREx_EnableUCPDDeadBattery,"ax",%progbits
 1865              		.align	1
 1866              		.global	HAL_PWREx_EnableUCPDDeadBattery
 1867              		.syntax unified
 1868              		.thumb
 1869              		.thumb_func
 1871              	HAL_PWREx_EnableUCPDDeadBattery:
 1872              	.LFB374:
1482:Drivers/STM32U5xx_HAL_Driver/Src/stm32u5xx_hal_pwr_ex.c **** 
1483:Drivers/STM32U5xx_HAL_Driver/Src/stm32u5xx_hal_pwr_ex.c **** /**
1484:Drivers/STM32U5xx_HAL_Driver/Src/stm32u5xx_hal_pwr_ex.c ****   * @brief  Enable dead battery behavior.
1485:Drivers/STM32U5xx_HAL_Driver/Src/stm32u5xx_hal_pwr_ex.c ****   * @note   After exiting reset, the USB Type-C (dead battery) behavior is
1486:Drivers/STM32U5xx_HAL_Driver/Src/stm32u5xx_hal_pwr_ex.c ****   *         enabled, which may have a pull-down effect on CC1 and CC2 pins.
1487:Drivers/STM32U5xx_HAL_Driver/Src/stm32u5xx_hal_pwr_ex.c ****   *         It is recommended to disable it in all cases, either to stop this
1488:Drivers/STM32U5xx_HAL_Driver/Src/stm32u5xx_hal_pwr_ex.c ****   *         pull-down or to handover control to the UCPD (the UCPD must be
1489:Drivers/STM32U5xx_HAL_Driver/Src/stm32u5xx_hal_pwr_ex.c ****   *         initialized before doing the disable).
1490:Drivers/STM32U5xx_HAL_Driver/Src/stm32u5xx_hal_pwr_ex.c ****   * @retval None.
1491:Drivers/STM32U5xx_HAL_Driver/Src/stm32u5xx_hal_pwr_ex.c ****   */
1492:Drivers/STM32U5xx_HAL_Driver/Src/stm32u5xx_hal_pwr_ex.c **** void HAL_PWREx_EnableUCPDDeadBattery(void)
1493:Drivers/STM32U5xx_HAL_Driver/Src/stm32u5xx_hal_pwr_ex.c **** {
 1873              		.loc 1 1493 1 is_stmt 1 view -0
 1874              		.cfi_startproc
 1875              		@ args = 0, pretend = 0, frame = 0
 1876              		@ frame_needed = 0, uses_anonymous_args = 0
 1877              		@ link register save eliminated.
1494:Drivers/STM32U5xx_HAL_Driver/Src/stm32u5xx_hal_pwr_ex.c ****   CLEAR_BIT(PWR->UCPDR, PWR_UCPDR_UCPD_DBDIS);
 1878              		.loc 1 1494 3 view .LVU381
 1879 0000 024A     		ldr	r2, .L174
 1880 0002 D36A     		ldr	r3, [r2, #44]
 1881 0004 23F00103 		bic	r3, r3, #1
 1882 0008 D362     		str	r3, [r2, #44]
1495:Drivers/STM32U5xx_HAL_Driver/Src/stm32u5xx_hal_pwr_ex.c **** }
 1883              		.loc 1 1495 1 is_stmt 0 view .LVU382
ARM GAS  C:\Users\Ya\AppData\Local\Temp\ccLrGXJ9.s 			page 62


 1884 000a 7047     		bx	lr
 1885              	.L175:
 1886              		.align	2
 1887              	.L174:
 1888 000c 00080246 		.word	1174538240
 1889              		.cfi_endproc
 1890              	.LFE374:
 1892              		.section	.text.HAL_PWREx_DisableUCPDDeadBattery,"ax",%progbits
 1893              		.align	1
 1894              		.global	HAL_PWREx_DisableUCPDDeadBattery
 1895              		.syntax unified
 1896              		.thumb
 1897              		.thumb_func
 1899              	HAL_PWREx_DisableUCPDDeadBattery:
 1900              	.LFB375:
1496:Drivers/STM32U5xx_HAL_Driver/Src/stm32u5xx_hal_pwr_ex.c **** 
1497:Drivers/STM32U5xx_HAL_Driver/Src/stm32u5xx_hal_pwr_ex.c **** /**
1498:Drivers/STM32U5xx_HAL_Driver/Src/stm32u5xx_hal_pwr_ex.c ****   * @brief  Disable dead battery behavior.
1499:Drivers/STM32U5xx_HAL_Driver/Src/stm32u5xx_hal_pwr_ex.c ****   * @note   After exiting reset, the USB Type-C (dead battery) behavior is
1500:Drivers/STM32U5xx_HAL_Driver/Src/stm32u5xx_hal_pwr_ex.c ****   *         enabled, which may have a pull-down effect on CC1 and CC2 pins.
1501:Drivers/STM32U5xx_HAL_Driver/Src/stm32u5xx_hal_pwr_ex.c ****   *         It is recommended to disable it in all cases, either to stop this
1502:Drivers/STM32U5xx_HAL_Driver/Src/stm32u5xx_hal_pwr_ex.c ****   *         pull-down or to handover control to the UCPD (the UCPD must be
1503:Drivers/STM32U5xx_HAL_Driver/Src/stm32u5xx_hal_pwr_ex.c ****   *         initialized before doing the disable).
1504:Drivers/STM32U5xx_HAL_Driver/Src/stm32u5xx_hal_pwr_ex.c ****   * @retval None.
1505:Drivers/STM32U5xx_HAL_Driver/Src/stm32u5xx_hal_pwr_ex.c ****   */
1506:Drivers/STM32U5xx_HAL_Driver/Src/stm32u5xx_hal_pwr_ex.c **** void HAL_PWREx_DisableUCPDDeadBattery(void)
1507:Drivers/STM32U5xx_HAL_Driver/Src/stm32u5xx_hal_pwr_ex.c **** {
 1901              		.loc 1 1507 1 is_stmt 1 view -0
 1902              		.cfi_startproc
 1903              		@ args = 0, pretend = 0, frame = 0
 1904              		@ frame_needed = 0, uses_anonymous_args = 0
 1905              		@ link register save eliminated.
1508:Drivers/STM32U5xx_HAL_Driver/Src/stm32u5xx_hal_pwr_ex.c ****   SET_BIT(PWR->UCPDR, PWR_UCPDR_UCPD_DBDIS);
 1906              		.loc 1 1508 3 view .LVU384
 1907 0000 024A     		ldr	r2, .L177
 1908 0002 D36A     		ldr	r3, [r2, #44]
 1909 0004 43F00103 		orr	r3, r3, #1
 1910 0008 D362     		str	r3, [r2, #44]
1509:Drivers/STM32U5xx_HAL_Driver/Src/stm32u5xx_hal_pwr_ex.c **** }
 1911              		.loc 1 1509 1 is_stmt 0 view .LVU385
 1912 000a 7047     		bx	lr
 1913              	.L178:
 1914              		.align	2
 1915              	.L177:
 1916 000c 00080246 		.word	1174538240
 1917              		.cfi_endproc
 1918              	.LFE375:
 1920              		.section	.text.HAL_PWREx_EnableBatteryCharging,"ax",%progbits
 1921              		.align	1
 1922              		.global	HAL_PWREx_EnableBatteryCharging
 1923              		.syntax unified
 1924              		.thumb
 1925              		.thumb_func
 1927              	HAL_PWREx_EnableBatteryCharging:
 1928              	.LVL62:
 1929              	.LFB376:
1510:Drivers/STM32U5xx_HAL_Driver/Src/stm32u5xx_hal_pwr_ex.c **** #endif /* UCPD1 */
ARM GAS  C:\Users\Ya\AppData\Local\Temp\ccLrGXJ9.s 			page 63


1511:Drivers/STM32U5xx_HAL_Driver/Src/stm32u5xx_hal_pwr_ex.c **** 
1512:Drivers/STM32U5xx_HAL_Driver/Src/stm32u5xx_hal_pwr_ex.c **** /**
1513:Drivers/STM32U5xx_HAL_Driver/Src/stm32u5xx_hal_pwr_ex.c ****   * @brief  Enable the Battery charging.
1514:Drivers/STM32U5xx_HAL_Driver/Src/stm32u5xx_hal_pwr_ex.c ****   * @note   When VDD is present, charge the external battery through an internal
1515:Drivers/STM32U5xx_HAL_Driver/Src/stm32u5xx_hal_pwr_ex.c ****   *         resistor.
1516:Drivers/STM32U5xx_HAL_Driver/Src/stm32u5xx_hal_pwr_ex.c ****   * @param  ResistorValue : Specifies the charging resistor.
1517:Drivers/STM32U5xx_HAL_Driver/Src/stm32u5xx_hal_pwr_ex.c ****   *                         This parameter can be one of the following values :
1518:Drivers/STM32U5xx_HAL_Driver/Src/stm32u5xx_hal_pwr_ex.c ****   *                         @arg PWR_BATTERY_CHARGING_RESISTOR_5   : 5 KOhm resistor.
1519:Drivers/STM32U5xx_HAL_Driver/Src/stm32u5xx_hal_pwr_ex.c ****   *                         @arg PWR_BATTERY_CHARGING_RESISTOR_1_5 : 1.5 KOhm resistor.
1520:Drivers/STM32U5xx_HAL_Driver/Src/stm32u5xx_hal_pwr_ex.c ****   * @retval None.
1521:Drivers/STM32U5xx_HAL_Driver/Src/stm32u5xx_hal_pwr_ex.c ****   */
1522:Drivers/STM32U5xx_HAL_Driver/Src/stm32u5xx_hal_pwr_ex.c **** void HAL_PWREx_EnableBatteryCharging(uint32_t ResistorValue)
1523:Drivers/STM32U5xx_HAL_Driver/Src/stm32u5xx_hal_pwr_ex.c **** {
 1930              		.loc 1 1523 1 is_stmt 1 view -0
 1931              		.cfi_startproc
 1932              		@ args = 0, pretend = 0, frame = 0
 1933              		@ frame_needed = 0, uses_anonymous_args = 0
 1934              		@ link register save eliminated.
1524:Drivers/STM32U5xx_HAL_Driver/Src/stm32u5xx_hal_pwr_ex.c ****   /* Check the parameter */
1525:Drivers/STM32U5xx_HAL_Driver/Src/stm32u5xx_hal_pwr_ex.c ****   assert_param(IS_PWR_BATTERY_RESISTOR_SELECT(ResistorValue));
 1935              		.loc 1 1525 3 view .LVU387
1526:Drivers/STM32U5xx_HAL_Driver/Src/stm32u5xx_hal_pwr_ex.c **** 
1527:Drivers/STM32U5xx_HAL_Driver/Src/stm32u5xx_hal_pwr_ex.c ****   /* Specify the charging resistor */
1528:Drivers/STM32U5xx_HAL_Driver/Src/stm32u5xx_hal_pwr_ex.c ****   MODIFY_REG(PWR->BDCR2, PWR_BDCR2_VBRS, ResistorValue);
 1936              		.loc 1 1528 3 view .LVU388
 1937 0000 054A     		ldr	r2, .L180
 1938 0002 536A     		ldr	r3, [r2, #36]
 1939 0004 23F00203 		bic	r3, r3, #2
 1940 0008 0343     		orrs	r3, r3, r0
 1941 000a 5362     		str	r3, [r2, #36]
1529:Drivers/STM32U5xx_HAL_Driver/Src/stm32u5xx_hal_pwr_ex.c **** 
1530:Drivers/STM32U5xx_HAL_Driver/Src/stm32u5xx_hal_pwr_ex.c ****   /* Enable the Battery charging */
1531:Drivers/STM32U5xx_HAL_Driver/Src/stm32u5xx_hal_pwr_ex.c ****   SET_BIT(PWR->BDCR2, PWR_BDCR2_VBE);
 1942              		.loc 1 1531 3 view .LVU389
 1943 000c 536A     		ldr	r3, [r2, #36]
 1944 000e 43F00103 		orr	r3, r3, #1
 1945 0012 5362     		str	r3, [r2, #36]
1532:Drivers/STM32U5xx_HAL_Driver/Src/stm32u5xx_hal_pwr_ex.c **** }
 1946              		.loc 1 1532 1 is_stmt 0 view .LVU390
 1947 0014 7047     		bx	lr
 1948              	.L181:
 1949 0016 00BF     		.align	2
 1950              	.L180:
 1951 0018 00080246 		.word	1174538240
 1952              		.cfi_endproc
 1953              	.LFE376:
 1955              		.section	.text.HAL_PWREx_DisableBatteryCharging,"ax",%progbits
 1956              		.align	1
 1957              		.global	HAL_PWREx_DisableBatteryCharging
 1958              		.syntax unified
 1959              		.thumb
 1960              		.thumb_func
 1962              	HAL_PWREx_DisableBatteryCharging:
 1963              	.LFB377:
1533:Drivers/STM32U5xx_HAL_Driver/Src/stm32u5xx_hal_pwr_ex.c **** 
1534:Drivers/STM32U5xx_HAL_Driver/Src/stm32u5xx_hal_pwr_ex.c **** /**
1535:Drivers/STM32U5xx_HAL_Driver/Src/stm32u5xx_hal_pwr_ex.c ****   * @brief  Disable the Battery charging.
ARM GAS  C:\Users\Ya\AppData\Local\Temp\ccLrGXJ9.s 			page 64


1536:Drivers/STM32U5xx_HAL_Driver/Src/stm32u5xx_hal_pwr_ex.c ****   * @retval None.
1537:Drivers/STM32U5xx_HAL_Driver/Src/stm32u5xx_hal_pwr_ex.c ****   */
1538:Drivers/STM32U5xx_HAL_Driver/Src/stm32u5xx_hal_pwr_ex.c **** void HAL_PWREx_DisableBatteryCharging(void)
1539:Drivers/STM32U5xx_HAL_Driver/Src/stm32u5xx_hal_pwr_ex.c **** {
 1964              		.loc 1 1539 1 is_stmt 1 view -0
 1965              		.cfi_startproc
 1966              		@ args = 0, pretend = 0, frame = 0
 1967              		@ frame_needed = 0, uses_anonymous_args = 0
 1968              		@ link register save eliminated.
1540:Drivers/STM32U5xx_HAL_Driver/Src/stm32u5xx_hal_pwr_ex.c ****   CLEAR_BIT(PWR->BDCR2, PWR_BDCR2_VBE);
 1969              		.loc 1 1540 3 view .LVU392
 1970 0000 024A     		ldr	r2, .L183
 1971 0002 536A     		ldr	r3, [r2, #36]
 1972 0004 23F00103 		bic	r3, r3, #1
 1973 0008 5362     		str	r3, [r2, #36]
1541:Drivers/STM32U5xx_HAL_Driver/Src/stm32u5xx_hal_pwr_ex.c **** }
 1974              		.loc 1 1541 1 is_stmt 0 view .LVU393
 1975 000a 7047     		bx	lr
 1976              	.L184:
 1977              		.align	2
 1978              	.L183:
 1979 000c 00080246 		.word	1174538240
 1980              		.cfi_endproc
 1981              	.LFE377:
 1983              		.section	.text.HAL_PWREx_UVMCallback,"ax",%progbits
 1984              		.align	1
 1985              		.weak	HAL_PWREx_UVMCallback
 1986              		.syntax unified
 1987              		.thumb
 1988              		.thumb_func
 1990              	HAL_PWREx_UVMCallback:
 1991              	.LFB379:
1542:Drivers/STM32U5xx_HAL_Driver/Src/stm32u5xx_hal_pwr_ex.c **** 
1543:Drivers/STM32U5xx_HAL_Driver/Src/stm32u5xx_hal_pwr_ex.c **** /**
1544:Drivers/STM32U5xx_HAL_Driver/Src/stm32u5xx_hal_pwr_ex.c ****   * @brief  This function handles the PWR PVD/PVM interrupt request.
1545:Drivers/STM32U5xx_HAL_Driver/Src/stm32u5xx_hal_pwr_ex.c ****   * @note   This API should be called under the PVD_PVM_IRQHandler().
1546:Drivers/STM32U5xx_HAL_Driver/Src/stm32u5xx_hal_pwr_ex.c ****   * @retval None.
1547:Drivers/STM32U5xx_HAL_Driver/Src/stm32u5xx_hal_pwr_ex.c ****   */
1548:Drivers/STM32U5xx_HAL_Driver/Src/stm32u5xx_hal_pwr_ex.c **** void HAL_PWREx_PVD_PVM_IRQHandler(void)
1549:Drivers/STM32U5xx_HAL_Driver/Src/stm32u5xx_hal_pwr_ex.c **** {
1550:Drivers/STM32U5xx_HAL_Driver/Src/stm32u5xx_hal_pwr_ex.c ****   uint32_t  rising_flag;
1551:Drivers/STM32U5xx_HAL_Driver/Src/stm32u5xx_hal_pwr_ex.c ****   uint32_t  falling_flag;
1552:Drivers/STM32U5xx_HAL_Driver/Src/stm32u5xx_hal_pwr_ex.c **** 
1553:Drivers/STM32U5xx_HAL_Driver/Src/stm32u5xx_hal_pwr_ex.c ****   /* Get pending flags */
1554:Drivers/STM32U5xx_HAL_Driver/Src/stm32u5xx_hal_pwr_ex.c ****   rising_flag = READ_REG(EXTI->RPR1);
1555:Drivers/STM32U5xx_HAL_Driver/Src/stm32u5xx_hal_pwr_ex.c ****   falling_flag = READ_REG(EXTI->FPR1);
1556:Drivers/STM32U5xx_HAL_Driver/Src/stm32u5xx_hal_pwr_ex.c **** 
1557:Drivers/STM32U5xx_HAL_Driver/Src/stm32u5xx_hal_pwr_ex.c ****   /* Check PWR exti flags for PVD */
1558:Drivers/STM32U5xx_HAL_Driver/Src/stm32u5xx_hal_pwr_ex.c ****   if (((rising_flag | falling_flag) & PWR_EXTI_LINE_PVD) != 0U)
1559:Drivers/STM32U5xx_HAL_Driver/Src/stm32u5xx_hal_pwr_ex.c ****   {
1560:Drivers/STM32U5xx_HAL_Driver/Src/stm32u5xx_hal_pwr_ex.c ****     /* PWR PVD interrupt user callback */
1561:Drivers/STM32U5xx_HAL_Driver/Src/stm32u5xx_hal_pwr_ex.c ****     HAL_PWR_PVDCallback();
1562:Drivers/STM32U5xx_HAL_Driver/Src/stm32u5xx_hal_pwr_ex.c **** 
1563:Drivers/STM32U5xx_HAL_Driver/Src/stm32u5xx_hal_pwr_ex.c ****     /* Clear PVD exti pending bit */
1564:Drivers/STM32U5xx_HAL_Driver/Src/stm32u5xx_hal_pwr_ex.c ****     WRITE_REG(EXTI->RPR1, PWR_EXTI_LINE_PVD);
1565:Drivers/STM32U5xx_HAL_Driver/Src/stm32u5xx_hal_pwr_ex.c ****     WRITE_REG(EXTI->FPR1, PWR_EXTI_LINE_PVD);
1566:Drivers/STM32U5xx_HAL_Driver/Src/stm32u5xx_hal_pwr_ex.c ****   }
ARM GAS  C:\Users\Ya\AppData\Local\Temp\ccLrGXJ9.s 			page 65


1567:Drivers/STM32U5xx_HAL_Driver/Src/stm32u5xx_hal_pwr_ex.c **** 
1568:Drivers/STM32U5xx_HAL_Driver/Src/stm32u5xx_hal_pwr_ex.c ****   /* Check PWR exti flags for UVM */
1569:Drivers/STM32U5xx_HAL_Driver/Src/stm32u5xx_hal_pwr_ex.c ****   if (((rising_flag | falling_flag) & PWR_EXTI_LINE_UVM) != 0U)
1570:Drivers/STM32U5xx_HAL_Driver/Src/stm32u5xx_hal_pwr_ex.c ****   {
1571:Drivers/STM32U5xx_HAL_Driver/Src/stm32u5xx_hal_pwr_ex.c ****     /* PWR UVM interrupt user callback */
1572:Drivers/STM32U5xx_HAL_Driver/Src/stm32u5xx_hal_pwr_ex.c ****     HAL_PWREx_UVMCallback();
1573:Drivers/STM32U5xx_HAL_Driver/Src/stm32u5xx_hal_pwr_ex.c **** 
1574:Drivers/STM32U5xx_HAL_Driver/Src/stm32u5xx_hal_pwr_ex.c ****     /* Clear UVM exti pending bit */
1575:Drivers/STM32U5xx_HAL_Driver/Src/stm32u5xx_hal_pwr_ex.c ****     WRITE_REG(EXTI->RPR1, PWR_EXTI_LINE_UVM);
1576:Drivers/STM32U5xx_HAL_Driver/Src/stm32u5xx_hal_pwr_ex.c ****     WRITE_REG(EXTI->FPR1, PWR_EXTI_LINE_UVM);
1577:Drivers/STM32U5xx_HAL_Driver/Src/stm32u5xx_hal_pwr_ex.c ****   }
1578:Drivers/STM32U5xx_HAL_Driver/Src/stm32u5xx_hal_pwr_ex.c **** 
1579:Drivers/STM32U5xx_HAL_Driver/Src/stm32u5xx_hal_pwr_ex.c ****   /* Check PWR exti flags for IO2VM */
1580:Drivers/STM32U5xx_HAL_Driver/Src/stm32u5xx_hal_pwr_ex.c ****   if (((rising_flag | falling_flag) & PWR_EXTI_LINE_IO2VM) != 0U)
1581:Drivers/STM32U5xx_HAL_Driver/Src/stm32u5xx_hal_pwr_ex.c ****   {
1582:Drivers/STM32U5xx_HAL_Driver/Src/stm32u5xx_hal_pwr_ex.c ****     /* PWR IO2VM interrupt user callback */
1583:Drivers/STM32U5xx_HAL_Driver/Src/stm32u5xx_hal_pwr_ex.c ****     HAL_PWREx_IO2VMCallback();
1584:Drivers/STM32U5xx_HAL_Driver/Src/stm32u5xx_hal_pwr_ex.c **** 
1585:Drivers/STM32U5xx_HAL_Driver/Src/stm32u5xx_hal_pwr_ex.c ****     /* Clear IO2VM exti pending bit */
1586:Drivers/STM32U5xx_HAL_Driver/Src/stm32u5xx_hal_pwr_ex.c ****     WRITE_REG(EXTI->RPR1, PWR_EXTI_LINE_IO2VM);
1587:Drivers/STM32U5xx_HAL_Driver/Src/stm32u5xx_hal_pwr_ex.c ****     WRITE_REG(EXTI->FPR1, PWR_EXTI_LINE_IO2VM);
1588:Drivers/STM32U5xx_HAL_Driver/Src/stm32u5xx_hal_pwr_ex.c ****   }
1589:Drivers/STM32U5xx_HAL_Driver/Src/stm32u5xx_hal_pwr_ex.c **** 
1590:Drivers/STM32U5xx_HAL_Driver/Src/stm32u5xx_hal_pwr_ex.c ****   /* Check PWR exti flags for AVM1 */
1591:Drivers/STM32U5xx_HAL_Driver/Src/stm32u5xx_hal_pwr_ex.c ****   if (((rising_flag | falling_flag) & PWR_EXTI_LINE_AVM1) != 0U)
1592:Drivers/STM32U5xx_HAL_Driver/Src/stm32u5xx_hal_pwr_ex.c ****   {
1593:Drivers/STM32U5xx_HAL_Driver/Src/stm32u5xx_hal_pwr_ex.c ****     /* PWR AVM1 interrupt user callback */
1594:Drivers/STM32U5xx_HAL_Driver/Src/stm32u5xx_hal_pwr_ex.c ****     HAL_PWREx_AVM1Callback();
1595:Drivers/STM32U5xx_HAL_Driver/Src/stm32u5xx_hal_pwr_ex.c **** 
1596:Drivers/STM32U5xx_HAL_Driver/Src/stm32u5xx_hal_pwr_ex.c ****     /* Clear AVM1 exti pending bit */
1597:Drivers/STM32U5xx_HAL_Driver/Src/stm32u5xx_hal_pwr_ex.c ****     WRITE_REG(EXTI->RPR1, PWR_EXTI_LINE_AVM1);
1598:Drivers/STM32U5xx_HAL_Driver/Src/stm32u5xx_hal_pwr_ex.c ****     WRITE_REG(EXTI->FPR1, PWR_EXTI_LINE_AVM1);
1599:Drivers/STM32U5xx_HAL_Driver/Src/stm32u5xx_hal_pwr_ex.c ****   }
1600:Drivers/STM32U5xx_HAL_Driver/Src/stm32u5xx_hal_pwr_ex.c **** 
1601:Drivers/STM32U5xx_HAL_Driver/Src/stm32u5xx_hal_pwr_ex.c ****   /* Check PWR exti flags for AVM2 */
1602:Drivers/STM32U5xx_HAL_Driver/Src/stm32u5xx_hal_pwr_ex.c ****   if (((rising_flag | falling_flag) & PWR_EXTI_LINE_AVM2) != 0U)
1603:Drivers/STM32U5xx_HAL_Driver/Src/stm32u5xx_hal_pwr_ex.c ****   {
1604:Drivers/STM32U5xx_HAL_Driver/Src/stm32u5xx_hal_pwr_ex.c ****     /* PWR AVM2 interrupt user callback */
1605:Drivers/STM32U5xx_HAL_Driver/Src/stm32u5xx_hal_pwr_ex.c ****     HAL_PWREx_AVM2Callback();
1606:Drivers/STM32U5xx_HAL_Driver/Src/stm32u5xx_hal_pwr_ex.c **** 
1607:Drivers/STM32U5xx_HAL_Driver/Src/stm32u5xx_hal_pwr_ex.c ****     /* Clear AVM2 exti pending bit */
1608:Drivers/STM32U5xx_HAL_Driver/Src/stm32u5xx_hal_pwr_ex.c ****     WRITE_REG(EXTI->RPR1, PWR_EXTI_LINE_AVM2);
1609:Drivers/STM32U5xx_HAL_Driver/Src/stm32u5xx_hal_pwr_ex.c ****     WRITE_REG(EXTI->FPR1, PWR_EXTI_LINE_AVM2);
1610:Drivers/STM32U5xx_HAL_Driver/Src/stm32u5xx_hal_pwr_ex.c ****   }
1611:Drivers/STM32U5xx_HAL_Driver/Src/stm32u5xx_hal_pwr_ex.c **** }
1612:Drivers/STM32U5xx_HAL_Driver/Src/stm32u5xx_hal_pwr_ex.c **** 
1613:Drivers/STM32U5xx_HAL_Driver/Src/stm32u5xx_hal_pwr_ex.c **** /**
1614:Drivers/STM32U5xx_HAL_Driver/Src/stm32u5xx_hal_pwr_ex.c ****   * @brief  PWR UVM interrupt callback.
1615:Drivers/STM32U5xx_HAL_Driver/Src/stm32u5xx_hal_pwr_ex.c ****   * @retval None.
1616:Drivers/STM32U5xx_HAL_Driver/Src/stm32u5xx_hal_pwr_ex.c ****   */
1617:Drivers/STM32U5xx_HAL_Driver/Src/stm32u5xx_hal_pwr_ex.c **** __weak void HAL_PWREx_UVMCallback(void)
1618:Drivers/STM32U5xx_HAL_Driver/Src/stm32u5xx_hal_pwr_ex.c **** {
 1992              		.loc 1 1618 1 is_stmt 1 view -0
 1993              		.cfi_startproc
 1994              		@ args = 0, pretend = 0, frame = 0
 1995              		@ frame_needed = 0, uses_anonymous_args = 0
 1996              		@ link register save eliminated.
ARM GAS  C:\Users\Ya\AppData\Local\Temp\ccLrGXJ9.s 			page 66


1619:Drivers/STM32U5xx_HAL_Driver/Src/stm32u5xx_hal_pwr_ex.c ****   /* NOTE : This function should not be modified; when the callback is needed,
1620:Drivers/STM32U5xx_HAL_Driver/Src/stm32u5xx_hal_pwr_ex.c ****             HAL_PWREx_UVMCallback() API can be implemented in the user file
1621:Drivers/STM32U5xx_HAL_Driver/Src/stm32u5xx_hal_pwr_ex.c ****    */
1622:Drivers/STM32U5xx_HAL_Driver/Src/stm32u5xx_hal_pwr_ex.c **** }
 1997              		.loc 1 1622 1 view .LVU395
 1998 0000 7047     		bx	lr
 1999              		.cfi_endproc
 2000              	.LFE379:
 2002              		.section	.text.HAL_PWREx_IO2VMCallback,"ax",%progbits
 2003              		.align	1
 2004              		.weak	HAL_PWREx_IO2VMCallback
 2005              		.syntax unified
 2006              		.thumb
 2007              		.thumb_func
 2009              	HAL_PWREx_IO2VMCallback:
 2010              	.LFB380:
1623:Drivers/STM32U5xx_HAL_Driver/Src/stm32u5xx_hal_pwr_ex.c **** 
1624:Drivers/STM32U5xx_HAL_Driver/Src/stm32u5xx_hal_pwr_ex.c **** /**
1625:Drivers/STM32U5xx_HAL_Driver/Src/stm32u5xx_hal_pwr_ex.c ****   * @brief  PWR IO2VM interrupt callback.
1626:Drivers/STM32U5xx_HAL_Driver/Src/stm32u5xx_hal_pwr_ex.c ****   * @retval None.
1627:Drivers/STM32U5xx_HAL_Driver/Src/stm32u5xx_hal_pwr_ex.c ****   */
1628:Drivers/STM32U5xx_HAL_Driver/Src/stm32u5xx_hal_pwr_ex.c **** __weak void HAL_PWREx_IO2VMCallback(void)
1629:Drivers/STM32U5xx_HAL_Driver/Src/stm32u5xx_hal_pwr_ex.c **** {
 2011              		.loc 1 1629 1 view -0
 2012              		.cfi_startproc
 2013              		@ args = 0, pretend = 0, frame = 0
 2014              		@ frame_needed = 0, uses_anonymous_args = 0
 2015              		@ link register save eliminated.
1630:Drivers/STM32U5xx_HAL_Driver/Src/stm32u5xx_hal_pwr_ex.c ****   /* NOTE : This function should not be modified; when the callback is needed,
1631:Drivers/STM32U5xx_HAL_Driver/Src/stm32u5xx_hal_pwr_ex.c ****             HAL_PWREx_IO2VMCallback() API can be implemented in the user file
1632:Drivers/STM32U5xx_HAL_Driver/Src/stm32u5xx_hal_pwr_ex.c ****    */
1633:Drivers/STM32U5xx_HAL_Driver/Src/stm32u5xx_hal_pwr_ex.c **** }
 2016              		.loc 1 1633 1 view .LVU397
 2017 0000 7047     		bx	lr
 2018              		.cfi_endproc
 2019              	.LFE380:
 2021              		.section	.text.HAL_PWREx_AVM1Callback,"ax",%progbits
 2022              		.align	1
 2023              		.weak	HAL_PWREx_AVM1Callback
 2024              		.syntax unified
 2025              		.thumb
 2026              		.thumb_func
 2028              	HAL_PWREx_AVM1Callback:
 2029              	.LFB381:
1634:Drivers/STM32U5xx_HAL_Driver/Src/stm32u5xx_hal_pwr_ex.c **** 
1635:Drivers/STM32U5xx_HAL_Driver/Src/stm32u5xx_hal_pwr_ex.c **** /**
1636:Drivers/STM32U5xx_HAL_Driver/Src/stm32u5xx_hal_pwr_ex.c ****   * @brief  PWR AVM1 interrupt callback.
1637:Drivers/STM32U5xx_HAL_Driver/Src/stm32u5xx_hal_pwr_ex.c ****   * @retval None.
1638:Drivers/STM32U5xx_HAL_Driver/Src/stm32u5xx_hal_pwr_ex.c ****   */
1639:Drivers/STM32U5xx_HAL_Driver/Src/stm32u5xx_hal_pwr_ex.c **** __weak void HAL_PWREx_AVM1Callback(void)
1640:Drivers/STM32U5xx_HAL_Driver/Src/stm32u5xx_hal_pwr_ex.c **** {
 2030              		.loc 1 1640 1 view -0
 2031              		.cfi_startproc
 2032              		@ args = 0, pretend = 0, frame = 0
 2033              		@ frame_needed = 0, uses_anonymous_args = 0
 2034              		@ link register save eliminated.
1641:Drivers/STM32U5xx_HAL_Driver/Src/stm32u5xx_hal_pwr_ex.c ****   /* NOTE : This function should not be modified; when the callback is needed,
ARM GAS  C:\Users\Ya\AppData\Local\Temp\ccLrGXJ9.s 			page 67


1642:Drivers/STM32U5xx_HAL_Driver/Src/stm32u5xx_hal_pwr_ex.c ****             HAL_PWREx_AVM1Callback() API can be implemented in the user file
1643:Drivers/STM32U5xx_HAL_Driver/Src/stm32u5xx_hal_pwr_ex.c ****    */
1644:Drivers/STM32U5xx_HAL_Driver/Src/stm32u5xx_hal_pwr_ex.c **** }
 2035              		.loc 1 1644 1 view .LVU399
 2036 0000 7047     		bx	lr
 2037              		.cfi_endproc
 2038              	.LFE381:
 2040              		.section	.text.HAL_PWREx_AVM2Callback,"ax",%progbits
 2041              		.align	1
 2042              		.weak	HAL_PWREx_AVM2Callback
 2043              		.syntax unified
 2044              		.thumb
 2045              		.thumb_func
 2047              	HAL_PWREx_AVM2Callback:
 2048              	.LFB382:
1645:Drivers/STM32U5xx_HAL_Driver/Src/stm32u5xx_hal_pwr_ex.c **** 
1646:Drivers/STM32U5xx_HAL_Driver/Src/stm32u5xx_hal_pwr_ex.c **** /**
1647:Drivers/STM32U5xx_HAL_Driver/Src/stm32u5xx_hal_pwr_ex.c ****   * @brief  PWR AVM2 interrupt callback.
1648:Drivers/STM32U5xx_HAL_Driver/Src/stm32u5xx_hal_pwr_ex.c ****   * @retval None.
1649:Drivers/STM32U5xx_HAL_Driver/Src/stm32u5xx_hal_pwr_ex.c ****   */
1650:Drivers/STM32U5xx_HAL_Driver/Src/stm32u5xx_hal_pwr_ex.c **** __weak void HAL_PWREx_AVM2Callback(void)
1651:Drivers/STM32U5xx_HAL_Driver/Src/stm32u5xx_hal_pwr_ex.c **** {
 2049              		.loc 1 1651 1 view -0
 2050              		.cfi_startproc
 2051              		@ args = 0, pretend = 0, frame = 0
 2052              		@ frame_needed = 0, uses_anonymous_args = 0
 2053              		@ link register save eliminated.
1652:Drivers/STM32U5xx_HAL_Driver/Src/stm32u5xx_hal_pwr_ex.c ****   /* NOTE : This function should not be modified; when the callback is needed,
1653:Drivers/STM32U5xx_HAL_Driver/Src/stm32u5xx_hal_pwr_ex.c ****             HAL_PWREx_AVM2Callback() API can be implemented in the user file
1654:Drivers/STM32U5xx_HAL_Driver/Src/stm32u5xx_hal_pwr_ex.c ****    */
1655:Drivers/STM32U5xx_HAL_Driver/Src/stm32u5xx_hal_pwr_ex.c **** }
 2054              		.loc 1 1655 1 view .LVU401
 2055 0000 7047     		bx	lr
 2056              		.cfi_endproc
 2057              	.LFE382:
 2059              		.section	.text.HAL_PWREx_PVD_PVM_IRQHandler,"ax",%progbits
 2060              		.align	1
 2061              		.global	HAL_PWREx_PVD_PVM_IRQHandler
 2062              		.syntax unified
 2063              		.thumb
 2064              		.thumb_func
 2066              	HAL_PWREx_PVD_PVM_IRQHandler:
 2067              	.LFB378:
1549:Drivers/STM32U5xx_HAL_Driver/Src/stm32u5xx_hal_pwr_ex.c ****   uint32_t  rising_flag;
 2068              		.loc 1 1549 1 view -0
 2069              		.cfi_startproc
 2070              		@ args = 0, pretend = 0, frame = 0
 2071              		@ frame_needed = 0, uses_anonymous_args = 0
 2072 0000 10B5     		push	{r4, lr}
 2073              		.cfi_def_cfa_offset 8
 2074              		.cfi_offset 4, -8
 2075              		.cfi_offset 14, -4
1550:Drivers/STM32U5xx_HAL_Driver/Src/stm32u5xx_hal_pwr_ex.c ****   uint32_t  falling_flag;
 2076              		.loc 1 1550 3 view .LVU403
1551:Drivers/STM32U5xx_HAL_Driver/Src/stm32u5xx_hal_pwr_ex.c **** 
 2077              		.loc 1 1551 3 view .LVU404
1554:Drivers/STM32U5xx_HAL_Driver/Src/stm32u5xx_hal_pwr_ex.c ****   falling_flag = READ_REG(EXTI->FPR1);
ARM GAS  C:\Users\Ya\AppData\Local\Temp\ccLrGXJ9.s 			page 68


 2078              		.loc 1 1554 3 view .LVU405
1554:Drivers/STM32U5xx_HAL_Driver/Src/stm32u5xx_hal_pwr_ex.c ****   falling_flag = READ_REG(EXTI->FPR1);
 2079              		.loc 1 1554 15 is_stmt 0 view .LVU406
 2080 0002 1E4B     		ldr	r3, .L201
 2081 0004 DC68     		ldr	r4, [r3, #12]
 2082              	.LVL63:
1555:Drivers/STM32U5xx_HAL_Driver/Src/stm32u5xx_hal_pwr_ex.c **** 
 2083              		.loc 1 1555 3 is_stmt 1 view .LVU407
1555:Drivers/STM32U5xx_HAL_Driver/Src/stm32u5xx_hal_pwr_ex.c **** 
 2084              		.loc 1 1555 16 is_stmt 0 view .LVU408
 2085 0006 1B69     		ldr	r3, [r3, #16]
 2086              	.LVL64:
1558:Drivers/STM32U5xx_HAL_Driver/Src/stm32u5xx_hal_pwr_ex.c ****   {
 2087              		.loc 1 1558 3 is_stmt 1 view .LVU409
1558:Drivers/STM32U5xx_HAL_Driver/Src/stm32u5xx_hal_pwr_ex.c ****   {
 2088              		.loc 1 1558 21 is_stmt 0 view .LVU410
 2089 0008 1C43     		orrs	r4, r4, r3
 2090              	.LVL65:
1558:Drivers/STM32U5xx_HAL_Driver/Src/stm32u5xx_hal_pwr_ex.c ****   {
 2091              		.loc 1 1558 6 view .LVU411
 2092 000a 14F4803F 		tst	r4, #65536
 2093 000e 0CD1     		bne	.L196
 2094              	.LVL66:
 2095              	.L190:
1569:Drivers/STM32U5xx_HAL_Driver/Src/stm32u5xx_hal_pwr_ex.c ****   {
 2096              		.loc 1 1569 3 is_stmt 1 view .LVU412
1569:Drivers/STM32U5xx_HAL_Driver/Src/stm32u5xx_hal_pwr_ex.c ****   {
 2097              		.loc 1 1569 6 is_stmt 0 view .LVU413
 2098 0010 14F4002F 		tst	r4, #524288
 2099 0014 11D1     		bne	.L197
 2100              	.L191:
1580:Drivers/STM32U5xx_HAL_Driver/Src/stm32u5xx_hal_pwr_ex.c ****   {
 2101              		.loc 1 1580 3 is_stmt 1 view .LVU414
1580:Drivers/STM32U5xx_HAL_Driver/Src/stm32u5xx_hal_pwr_ex.c ****   {
 2102              		.loc 1 1580 6 is_stmt 0 view .LVU415
 2103 0016 14F4801F 		tst	r4, #1048576
 2104 001a 16D1     		bne	.L198
 2105              	.L192:
1591:Drivers/STM32U5xx_HAL_Driver/Src/stm32u5xx_hal_pwr_ex.c ****   {
 2106              		.loc 1 1591 3 is_stmt 1 view .LVU416
1591:Drivers/STM32U5xx_HAL_Driver/Src/stm32u5xx_hal_pwr_ex.c ****   {
 2107              		.loc 1 1591 6 is_stmt 0 view .LVU417
 2108 001c 14F4001F 		tst	r4, #2097152
 2109 0020 1BD1     		bne	.L199
 2110              	.L193:
1602:Drivers/STM32U5xx_HAL_Driver/Src/stm32u5xx_hal_pwr_ex.c ****   {
 2111              		.loc 1 1602 3 is_stmt 1 view .LVU418
1602:Drivers/STM32U5xx_HAL_Driver/Src/stm32u5xx_hal_pwr_ex.c ****   {
 2112              		.loc 1 1602 6 is_stmt 0 view .LVU419
 2113 0022 14F4800F 		tst	r4, #4194304
 2114 0026 20D1     		bne	.L200
 2115              	.L189:
1611:Drivers/STM32U5xx_HAL_Driver/Src/stm32u5xx_hal_pwr_ex.c **** 
 2116              		.loc 1 1611 1 view .LVU420
 2117 0028 10BD     		pop	{r4, pc}
 2118              	.LVL67:
 2119              	.L196:
ARM GAS  C:\Users\Ya\AppData\Local\Temp\ccLrGXJ9.s 			page 69


1561:Drivers/STM32U5xx_HAL_Driver/Src/stm32u5xx_hal_pwr_ex.c **** 
 2120              		.loc 1 1561 5 is_stmt 1 view .LVU421
 2121 002a FFF7FEFF 		bl	HAL_PWR_PVDCallback
 2122              	.LVL68:
1564:Drivers/STM32U5xx_HAL_Driver/Src/stm32u5xx_hal_pwr_ex.c ****     WRITE_REG(EXTI->FPR1, PWR_EXTI_LINE_PVD);
 2123              		.loc 1 1564 5 view .LVU422
 2124 002e 134B     		ldr	r3, .L201
 2125 0030 4FF48032 		mov	r2, #65536
 2126 0034 DA60     		str	r2, [r3, #12]
1565:Drivers/STM32U5xx_HAL_Driver/Src/stm32u5xx_hal_pwr_ex.c ****   }
 2127              		.loc 1 1565 5 view .LVU423
 2128 0036 1A61     		str	r2, [r3, #16]
 2129 0038 EAE7     		b	.L190
 2130              	.L197:
1572:Drivers/STM32U5xx_HAL_Driver/Src/stm32u5xx_hal_pwr_ex.c **** 
 2131              		.loc 1 1572 5 view .LVU424
 2132 003a FFF7FEFF 		bl	HAL_PWREx_UVMCallback
 2133              	.LVL69:
1575:Drivers/STM32U5xx_HAL_Driver/Src/stm32u5xx_hal_pwr_ex.c ****     WRITE_REG(EXTI->FPR1, PWR_EXTI_LINE_UVM);
 2134              		.loc 1 1575 5 view .LVU425
 2135 003e 0F4B     		ldr	r3, .L201
 2136 0040 4FF40022 		mov	r2, #524288
 2137 0044 DA60     		str	r2, [r3, #12]
1576:Drivers/STM32U5xx_HAL_Driver/Src/stm32u5xx_hal_pwr_ex.c ****   }
 2138              		.loc 1 1576 5 view .LVU426
 2139 0046 1A61     		str	r2, [r3, #16]
 2140 0048 E5E7     		b	.L191
 2141              	.L198:
1583:Drivers/STM32U5xx_HAL_Driver/Src/stm32u5xx_hal_pwr_ex.c **** 
 2142              		.loc 1 1583 5 view .LVU427
 2143 004a FFF7FEFF 		bl	HAL_PWREx_IO2VMCallback
 2144              	.LVL70:
1586:Drivers/STM32U5xx_HAL_Driver/Src/stm32u5xx_hal_pwr_ex.c ****     WRITE_REG(EXTI->FPR1, PWR_EXTI_LINE_IO2VM);
 2145              		.loc 1 1586 5 view .LVU428
 2146 004e 0B4B     		ldr	r3, .L201
 2147 0050 4FF48012 		mov	r2, #1048576
 2148 0054 DA60     		str	r2, [r3, #12]
1587:Drivers/STM32U5xx_HAL_Driver/Src/stm32u5xx_hal_pwr_ex.c ****   }
 2149              		.loc 1 1587 5 view .LVU429
 2150 0056 1A61     		str	r2, [r3, #16]
 2151 0058 E0E7     		b	.L192
 2152              	.L199:
1594:Drivers/STM32U5xx_HAL_Driver/Src/stm32u5xx_hal_pwr_ex.c **** 
 2153              		.loc 1 1594 5 view .LVU430
 2154 005a FFF7FEFF 		bl	HAL_PWREx_AVM1Callback
 2155              	.LVL71:
1597:Drivers/STM32U5xx_HAL_Driver/Src/stm32u5xx_hal_pwr_ex.c ****     WRITE_REG(EXTI->FPR1, PWR_EXTI_LINE_AVM1);
 2156              		.loc 1 1597 5 view .LVU431
 2157 005e 074B     		ldr	r3, .L201
 2158 0060 4FF40012 		mov	r2, #2097152
 2159 0064 DA60     		str	r2, [r3, #12]
1598:Drivers/STM32U5xx_HAL_Driver/Src/stm32u5xx_hal_pwr_ex.c ****   }
 2160              		.loc 1 1598 5 view .LVU432
 2161 0066 1A61     		str	r2, [r3, #16]
 2162 0068 DBE7     		b	.L193
 2163              	.L200:
1605:Drivers/STM32U5xx_HAL_Driver/Src/stm32u5xx_hal_pwr_ex.c **** 
ARM GAS  C:\Users\Ya\AppData\Local\Temp\ccLrGXJ9.s 			page 70


 2164              		.loc 1 1605 5 view .LVU433
 2165 006a FFF7FEFF 		bl	HAL_PWREx_AVM2Callback
 2166              	.LVL72:
1608:Drivers/STM32U5xx_HAL_Driver/Src/stm32u5xx_hal_pwr_ex.c ****     WRITE_REG(EXTI->FPR1, PWR_EXTI_LINE_AVM2);
 2167              		.loc 1 1608 5 view .LVU434
 2168 006e 034B     		ldr	r3, .L201
 2169 0070 4FF48002 		mov	r2, #4194304
 2170 0074 DA60     		str	r2, [r3, #12]
1609:Drivers/STM32U5xx_HAL_Driver/Src/stm32u5xx_hal_pwr_ex.c ****   }
 2171              		.loc 1 1609 5 view .LVU435
 2172 0076 1A61     		str	r2, [r3, #16]
1611:Drivers/STM32U5xx_HAL_Driver/Src/stm32u5xx_hal_pwr_ex.c **** 
 2173              		.loc 1 1611 1 is_stmt 0 view .LVU436
 2174 0078 D6E7     		b	.L189
 2175              	.L202:
 2176 007a 00BF     		.align	2
 2177              	.L201:
 2178 007c 00200246 		.word	1174544384
 2179              		.cfi_endproc
 2180              	.LFE378:
 2182              		.section	.text.HAL_PWREx_EnableSRAM2ContentStandbyRetention,"ax",%progbits
 2183              		.align	1
 2184              		.global	HAL_PWREx_EnableSRAM2ContentStandbyRetention
 2185              		.syntax unified
 2186              		.thumb
 2187              		.thumb_func
 2189              	HAL_PWREx_EnableSRAM2ContentStandbyRetention:
 2190              	.LVL73:
 2191              	.LFB383:
1656:Drivers/STM32U5xx_HAL_Driver/Src/stm32u5xx_hal_pwr_ex.c **** /**
1657:Drivers/STM32U5xx_HAL_Driver/Src/stm32u5xx_hal_pwr_ex.c ****   * @}
1658:Drivers/STM32U5xx_HAL_Driver/Src/stm32u5xx_hal_pwr_ex.c ****   */
1659:Drivers/STM32U5xx_HAL_Driver/Src/stm32u5xx_hal_pwr_ex.c **** 
1660:Drivers/STM32U5xx_HAL_Driver/Src/stm32u5xx_hal_pwr_ex.c **** /** @defgroup PWREx_Exported_Functions_Group4 Memories Retention Functions
1661:Drivers/STM32U5xx_HAL_Driver/Src/stm32u5xx_hal_pwr_ex.c ****   * @brief    Memories retention functions
1662:Drivers/STM32U5xx_HAL_Driver/Src/stm32u5xx_hal_pwr_ex.c ****   *
1663:Drivers/STM32U5xx_HAL_Driver/Src/stm32u5xx_hal_pwr_ex.c **** @verbatim
1664:Drivers/STM32U5xx_HAL_Driver/Src/stm32u5xx_hal_pwr_ex.c ****  ===============================================================================
1665:Drivers/STM32U5xx_HAL_Driver/Src/stm32u5xx_hal_pwr_ex.c ****                      ##### Memories Retention Functions #####
1666:Drivers/STM32U5xx_HAL_Driver/Src/stm32u5xx_hal_pwr_ex.c ****  ===============================================================================
1667:Drivers/STM32U5xx_HAL_Driver/Src/stm32u5xx_hal_pwr_ex.c ****     [..]
1668:Drivers/STM32U5xx_HAL_Driver/Src/stm32u5xx_hal_pwr_ex.c ****       Several STM32U5 devices RAMs are configurable to keep / lose RAMs content
1669:Drivers/STM32U5xx_HAL_Driver/Src/stm32u5xx_hal_pwr_ex.c ****       during Stop mode (Stop 0/1/2/3).
1670:Drivers/STM32U5xx_HAL_Driver/Src/stm32u5xx_hal_pwr_ex.c ****        (+) Retained content RAMs in Stop modes are :
1671:Drivers/STM32U5xx_HAL_Driver/Src/stm32u5xx_hal_pwr_ex.c ****              (++) SRAM1
1672:Drivers/STM32U5xx_HAL_Driver/Src/stm32u5xx_hal_pwr_ex.c ****              (++) SRAM2
1673:Drivers/STM32U5xx_HAL_Driver/Src/stm32u5xx_hal_pwr_ex.c ****              (++) SRAM3 (available only for STM32U575xx, STM32U585xx, STM32U59xxx,
1674:Drivers/STM32U5xx_HAL_Driver/Src/stm32u5xx_hal_pwr_ex.c ****                   STM32U5Axxx, STM32U5Fxxx and STM32U5Gxxx devices)
1675:Drivers/STM32U5xx_HAL_Driver/Src/stm32u5xx_hal_pwr_ex.c ****              (++) SRAM4
1676:Drivers/STM32U5xx_HAL_Driver/Src/stm32u5xx_hal_pwr_ex.c ****              (++) ICACHE
1677:Drivers/STM32U5xx_HAL_Driver/Src/stm32u5xx_hal_pwr_ex.c ****              (++) DMA2DRAM (available only for STM32U575xx, STM32U585xx, STM32U59xxx,
1678:Drivers/STM32U5xx_HAL_Driver/Src/stm32u5xx_hal_pwr_ex.c ****                   STM32U5Axxx, STM32U5Fxxx and STM32U5Gxxx devices)
1679:Drivers/STM32U5xx_HAL_Driver/Src/stm32u5xx_hal_pwr_ex.c ****              (++) PKA32RAM
1680:Drivers/STM32U5xx_HAL_Driver/Src/stm32u5xx_hal_pwr_ex.c ****              (++) DCACHE
1681:Drivers/STM32U5xx_HAL_Driver/Src/stm32u5xx_hal_pwr_ex.c ****              (++) FMAC
1682:Drivers/STM32U5xx_HAL_Driver/Src/stm32u5xx_hal_pwr_ex.c ****              (++) FDCAN
1683:Drivers/STM32U5xx_HAL_Driver/Src/stm32u5xx_hal_pwr_ex.c ****              (++) USB
ARM GAS  C:\Users\Ya\AppData\Local\Temp\ccLrGXJ9.s 			page 71


1684:Drivers/STM32U5xx_HAL_Driver/Src/stm32u5xx_hal_pwr_ex.c **** 
1685:Drivers/STM32U5xx_HAL_Driver/Src/stm32u5xx_hal_pwr_ex.c ****     [..]
1686:Drivers/STM32U5xx_HAL_Driver/Src/stm32u5xx_hal_pwr_ex.c ****       Several STM32U5 devices RAMs are configurable to keep / lose RAMs content
1687:Drivers/STM32U5xx_HAL_Driver/Src/stm32u5xx_hal_pwr_ex.c ****       during Run mode.
1688:Drivers/STM32U5xx_HAL_Driver/Src/stm32u5xx_hal_pwr_ex.c ****        (+) Retained content RAMs in Run modes are :
1689:Drivers/STM32U5xx_HAL_Driver/Src/stm32u5xx_hal_pwr_ex.c ****              (++) SRAM1
1690:Drivers/STM32U5xx_HAL_Driver/Src/stm32u5xx_hal_pwr_ex.c ****              (++) SRAM2
1691:Drivers/STM32U5xx_HAL_Driver/Src/stm32u5xx_hal_pwr_ex.c ****              (++) SRAM3 (available only for STM32U575xx, STM32U585xx, STM32U59xxx,
1692:Drivers/STM32U5xx_HAL_Driver/Src/stm32u5xx_hal_pwr_ex.c ****                   STM32U5Axxx, STM32U5Fxxx and STM32U5Gxxx devices)
1693:Drivers/STM32U5xx_HAL_Driver/Src/stm32u5xx_hal_pwr_ex.c ****              (++) SRAM4
1694:Drivers/STM32U5xx_HAL_Driver/Src/stm32u5xx_hal_pwr_ex.c **** 
1695:Drivers/STM32U5xx_HAL_Driver/Src/stm32u5xx_hal_pwr_ex.c ****     [..]
1696:Drivers/STM32U5xx_HAL_Driver/Src/stm32u5xx_hal_pwr_ex.c ****       SRAM2 is configurable to keep / lose its content in Stop 3 and Standby
1697:Drivers/STM32U5xx_HAL_Driver/Src/stm32u5xx_hal_pwr_ex.c ****       modes. The SRAM2 retention feature granularity is at pages level.
1698:Drivers/STM32U5xx_HAL_Driver/Src/stm32u5xx_hal_pwr_ex.c **** 
1699:Drivers/STM32U5xx_HAL_Driver/Src/stm32u5xx_hal_pwr_ex.c ****     [..]
1700:Drivers/STM32U5xx_HAL_Driver/Src/stm32u5xx_hal_pwr_ex.c ****       BKPRAM is configurable to keep / lose its content in Standby, Shutdown and
1701:Drivers/STM32U5xx_HAL_Driver/Src/stm32u5xx_hal_pwr_ex.c ****       VBAT modes.
1702:Drivers/STM32U5xx_HAL_Driver/Src/stm32u5xx_hal_pwr_ex.c **** 
1703:Drivers/STM32U5xx_HAL_Driver/Src/stm32u5xx_hal_pwr_ex.c **** @endverbatim
1704:Drivers/STM32U5xx_HAL_Driver/Src/stm32u5xx_hal_pwr_ex.c ****   * @{
1705:Drivers/STM32U5xx_HAL_Driver/Src/stm32u5xx_hal_pwr_ex.c ****   */
1706:Drivers/STM32U5xx_HAL_Driver/Src/stm32u5xx_hal_pwr_ex.c **** 
1707:Drivers/STM32U5xx_HAL_Driver/Src/stm32u5xx_hal_pwr_ex.c **** /**
1708:Drivers/STM32U5xx_HAL_Driver/Src/stm32u5xx_hal_pwr_ex.c ****   * @brief  Enable SRAM2 page(s) content retention in Stop 3 and Standby mode.
1709:Drivers/STM32U5xx_HAL_Driver/Src/stm32u5xx_hal_pwr_ex.c ****   * @note   When RRSx bit is set, SRAM2 is powered by the low-power regulator in
1710:Drivers/STM32U5xx_HAL_Driver/Src/stm32u5xx_hal_pwr_ex.c ****   *         Stop 3 and Standby mode and its content is kept.
1711:Drivers/STM32U5xx_HAL_Driver/Src/stm32u5xx_hal_pwr_ex.c ****   * @param  SRAM2Pages : Specifies the SRAM2 pages.
1712:Drivers/STM32U5xx_HAL_Driver/Src/stm32u5xx_hal_pwr_ex.c ****   *                      This parameter can be one of the following values :
1713:Drivers/STM32U5xx_HAL_Driver/Src/stm32u5xx_hal_pwr_ex.c ****   *                      @arg PWR_SRAM2_PAGE1_STANDBY : SRAM2 page 1 retention.
1714:Drivers/STM32U5xx_HAL_Driver/Src/stm32u5xx_hal_pwr_ex.c ****   *                      @arg PWR_SRAM2_PAGE2_STANDBY : SRAM2 page 2 retention.
1715:Drivers/STM32U5xx_HAL_Driver/Src/stm32u5xx_hal_pwr_ex.c ****   *                      @arg PWR_SRAM2_FULL_STANDBY  : SRAM2 page 1 and page 2 retention.
1716:Drivers/STM32U5xx_HAL_Driver/Src/stm32u5xx_hal_pwr_ex.c ****   * @retval None.
1717:Drivers/STM32U5xx_HAL_Driver/Src/stm32u5xx_hal_pwr_ex.c ****   */
1718:Drivers/STM32U5xx_HAL_Driver/Src/stm32u5xx_hal_pwr_ex.c **** void HAL_PWREx_EnableSRAM2ContentStandbyRetention(uint32_t SRAM2Pages)
1719:Drivers/STM32U5xx_HAL_Driver/Src/stm32u5xx_hal_pwr_ex.c **** {
 2192              		.loc 1 1719 1 is_stmt 1 view -0
 2193              		.cfi_startproc
 2194              		@ args = 0, pretend = 0, frame = 0
 2195              		@ frame_needed = 0, uses_anonymous_args = 0
 2196              		@ link register save eliminated.
1720:Drivers/STM32U5xx_HAL_Driver/Src/stm32u5xx_hal_pwr_ex.c ****   /* Check the parameters */
1721:Drivers/STM32U5xx_HAL_Driver/Src/stm32u5xx_hal_pwr_ex.c ****   assert_param(IS_PWR_SRAM2_STANDBY_RETENTION(SRAM2Pages));
 2197              		.loc 1 1721 3 view .LVU438
1722:Drivers/STM32U5xx_HAL_Driver/Src/stm32u5xx_hal_pwr_ex.c **** 
1723:Drivers/STM32U5xx_HAL_Driver/Src/stm32u5xx_hal_pwr_ex.c ****   /* Set RRSx bit(s) */
1724:Drivers/STM32U5xx_HAL_Driver/Src/stm32u5xx_hal_pwr_ex.c ****   SET_BIT(PWR->CR1, SRAM2Pages);
 2198              		.loc 1 1724 3 view .LVU439
 2199 0000 024A     		ldr	r2, .L204
 2200 0002 1368     		ldr	r3, [r2]
 2201 0004 0343     		orrs	r3, r3, r0
 2202 0006 1360     		str	r3, [r2]
1725:Drivers/STM32U5xx_HAL_Driver/Src/stm32u5xx_hal_pwr_ex.c **** }
 2203              		.loc 1 1725 1 is_stmt 0 view .LVU440
 2204 0008 7047     		bx	lr
 2205              	.L205:
 2206 000a 00BF     		.align	2
ARM GAS  C:\Users\Ya\AppData\Local\Temp\ccLrGXJ9.s 			page 72


 2207              	.L204:
 2208 000c 00080246 		.word	1174538240
 2209              		.cfi_endproc
 2210              	.LFE383:
 2212              		.section	.text.HAL_PWREx_DisableSRAM2ContentStandbyRetention,"ax",%progbits
 2213              		.align	1
 2214              		.global	HAL_PWREx_DisableSRAM2ContentStandbyRetention
 2215              		.syntax unified
 2216              		.thumb
 2217              		.thumb_func
 2219              	HAL_PWREx_DisableSRAM2ContentStandbyRetention:
 2220              	.LVL74:
 2221              	.LFB384:
1726:Drivers/STM32U5xx_HAL_Driver/Src/stm32u5xx_hal_pwr_ex.c **** 
1727:Drivers/STM32U5xx_HAL_Driver/Src/stm32u5xx_hal_pwr_ex.c **** /**
1728:Drivers/STM32U5xx_HAL_Driver/Src/stm32u5xx_hal_pwr_ex.c ****   * @brief  Disable SRAM2 page(s) content retention in Stop 3 and Standby mode.
1729:Drivers/STM32U5xx_HAL_Driver/Src/stm32u5xx_hal_pwr_ex.c ****   * @note   When RRSx bit is reset, SRAM2 is powered off in Stop 3 and Standby
1730:Drivers/STM32U5xx_HAL_Driver/Src/stm32u5xx_hal_pwr_ex.c ****   *         mode and its content is lost.
1731:Drivers/STM32U5xx_HAL_Driver/Src/stm32u5xx_hal_pwr_ex.c ****   * @param  SRAM2Pages : Specifies the SRAM2 pages.
1732:Drivers/STM32U5xx_HAL_Driver/Src/stm32u5xx_hal_pwr_ex.c ****   *                      This parameter can be one of the following values :
1733:Drivers/STM32U5xx_HAL_Driver/Src/stm32u5xx_hal_pwr_ex.c ****   *                      @arg PWR_SRAM2_PAGE1_STANDBY : SRAM2 page 1 retention.
1734:Drivers/STM32U5xx_HAL_Driver/Src/stm32u5xx_hal_pwr_ex.c ****   *                      @arg PWR_SRAM2_PAGE2_STANDBY : SRAM2 page 2 retention.
1735:Drivers/STM32U5xx_HAL_Driver/Src/stm32u5xx_hal_pwr_ex.c ****   *                      @arg PWR_SRAM2_FULL_STANDBY  : SRAM2 page 1 and page 2 retention.
1736:Drivers/STM32U5xx_HAL_Driver/Src/stm32u5xx_hal_pwr_ex.c ****   * @retval None.
1737:Drivers/STM32U5xx_HAL_Driver/Src/stm32u5xx_hal_pwr_ex.c ****   */
1738:Drivers/STM32U5xx_HAL_Driver/Src/stm32u5xx_hal_pwr_ex.c **** void HAL_PWREx_DisableSRAM2ContentStandbyRetention(uint32_t SRAM2Pages)
1739:Drivers/STM32U5xx_HAL_Driver/Src/stm32u5xx_hal_pwr_ex.c **** {
 2222              		.loc 1 1739 1 is_stmt 1 view -0
 2223              		.cfi_startproc
 2224              		@ args = 0, pretend = 0, frame = 0
 2225              		@ frame_needed = 0, uses_anonymous_args = 0
 2226              		@ link register save eliminated.
1740:Drivers/STM32U5xx_HAL_Driver/Src/stm32u5xx_hal_pwr_ex.c ****   /* Check the parameters */
1741:Drivers/STM32U5xx_HAL_Driver/Src/stm32u5xx_hal_pwr_ex.c ****   assert_param(IS_PWR_SRAM2_STANDBY_RETENTION(SRAM2Pages));
 2227              		.loc 1 1741 3 view .LVU442
1742:Drivers/STM32U5xx_HAL_Driver/Src/stm32u5xx_hal_pwr_ex.c **** 
1743:Drivers/STM32U5xx_HAL_Driver/Src/stm32u5xx_hal_pwr_ex.c ****   /* Clear RRSx bit(s) */
1744:Drivers/STM32U5xx_HAL_Driver/Src/stm32u5xx_hal_pwr_ex.c ****   CLEAR_BIT(PWR->CR1, SRAM2Pages);
 2228              		.loc 1 1744 3 view .LVU443
 2229 0000 024A     		ldr	r2, .L207
 2230 0002 1368     		ldr	r3, [r2]
 2231 0004 23EA0003 		bic	r3, r3, r0
 2232 0008 1360     		str	r3, [r2]
1745:Drivers/STM32U5xx_HAL_Driver/Src/stm32u5xx_hal_pwr_ex.c **** }
 2233              		.loc 1 1745 1 is_stmt 0 view .LVU444
 2234 000a 7047     		bx	lr
 2235              	.L208:
 2236              		.align	2
 2237              	.L207:
 2238 000c 00080246 		.word	1174538240
 2239              		.cfi_endproc
 2240              	.LFE384:
 2242              		.section	.text.HAL_PWREx_EnableRAMsContentStopRetention,"ax",%progbits
 2243              		.align	1
 2244              		.global	HAL_PWREx_EnableRAMsContentStopRetention
 2245              		.syntax unified
 2246              		.thumb
ARM GAS  C:\Users\Ya\AppData\Local\Temp\ccLrGXJ9.s 			page 73


 2247              		.thumb_func
 2249              	HAL_PWREx_EnableRAMsContentStopRetention:
 2250              	.LVL75:
 2251              	.LFB385:
1746:Drivers/STM32U5xx_HAL_Driver/Src/stm32u5xx_hal_pwr_ex.c **** 
1747:Drivers/STM32U5xx_HAL_Driver/Src/stm32u5xx_hal_pwr_ex.c **** /**
1748:Drivers/STM32U5xx_HAL_Driver/Src/stm32u5xx_hal_pwr_ex.c ****   * @brief  Enable RAM page(s) content retention in Stop mode (Stop 0, 1, 2, 3).
1749:Drivers/STM32U5xx_HAL_Driver/Src/stm32u5xx_hal_pwr_ex.c ****   * @note   When enabling content retention for a given RAM, memory kept powered
1750:Drivers/STM32U5xx_HAL_Driver/Src/stm32u5xx_hal_pwr_ex.c ****   *         in Stop mode. (Not optimized power consumption)
1751:Drivers/STM32U5xx_HAL_Driver/Src/stm32u5xx_hal_pwr_ex.c ****   * @param RAMSelection: Specifies RAM page(s) to be retained in Stop mode.
1752:Drivers/STM32U5xx_HAL_Driver/Src/stm32u5xx_hal_pwr_ex.c ****   *                      This parameter can be one or a combination of the same
1753:Drivers/STM32U5xx_HAL_Driver/Src/stm32u5xx_hal_pwr_ex.c ****   *                      memory @ref PWREx_RAM_Contents_Stop_Retention.
1754:Drivers/STM32U5xx_HAL_Driver/Src/stm32u5xx_hal_pwr_ex.c ****   * @retval None.
1755:Drivers/STM32U5xx_HAL_Driver/Src/stm32u5xx_hal_pwr_ex.c ****   */
1756:Drivers/STM32U5xx_HAL_Driver/Src/stm32u5xx_hal_pwr_ex.c **** void HAL_PWREx_EnableRAMsContentStopRetention(uint32_t RAMSelection)
1757:Drivers/STM32U5xx_HAL_Driver/Src/stm32u5xx_hal_pwr_ex.c **** {
 2252              		.loc 1 1757 1 is_stmt 1 view -0
 2253              		.cfi_startproc
 2254              		@ args = 0, pretend = 0, frame = 0
 2255              		@ frame_needed = 0, uses_anonymous_args = 0
 2256              		@ link register save eliminated.
1758:Drivers/STM32U5xx_HAL_Driver/Src/stm32u5xx_hal_pwr_ex.c ****   uint32_t dummy;
 2257              		.loc 1 1758 3 view .LVU446
1759:Drivers/STM32U5xx_HAL_Driver/Src/stm32u5xx_hal_pwr_ex.c **** 
1760:Drivers/STM32U5xx_HAL_Driver/Src/stm32u5xx_hal_pwr_ex.c ****   /* Check RAM ID */
1761:Drivers/STM32U5xx_HAL_Driver/Src/stm32u5xx_hal_pwr_ex.c ****   switch (RAMSelection & SRAM_ID_MASK)
 2258              		.loc 1 1761 3 view .LVU447
 2259              		.loc 1 1761 24 is_stmt 0 view .LVU448
 2260 0000 030C     		lsrs	r3, r0, #16
 2261 0002 1B04     		lsls	r3, r3, #16
 2262              		.loc 1 1761 3 view .LVU449
 2263 0004 B3F5801F 		cmp	r3, #1048576
 2264 0008 53D0     		beq	.L210
 2265 000a 0FD9     		bls	.L223
 2266 000c B3F5000F 		cmp	r3, #8388608
 2267 0010 61D0     		beq	.L218
 2268 0012 2CD9     		bls	.L224
 2269 0014 B3F1807F 		cmp	r3, #16777216
 2270 0018 39D1     		bne	.L225
1762:Drivers/STM32U5xx_HAL_Driver/Src/stm32u5xx_hal_pwr_ex.c ****   {
1763:Drivers/STM32U5xx_HAL_Driver/Src/stm32u5xx_hal_pwr_ex.c ****     /* SRAM 1 Stop retention */
1764:Drivers/STM32U5xx_HAL_Driver/Src/stm32u5xx_hal_pwr_ex.c ****     case SRAM1_ID:
1765:Drivers/STM32U5xx_HAL_Driver/Src/stm32u5xx_hal_pwr_ex.c ****     {
1766:Drivers/STM32U5xx_HAL_Driver/Src/stm32u5xx_hal_pwr_ex.c ****       /* Check the parameters */
1767:Drivers/STM32U5xx_HAL_Driver/Src/stm32u5xx_hal_pwr_ex.c ****       assert_param(IS_PWR_SRAM1_STOP_RETENTION(RAMSelection));
1768:Drivers/STM32U5xx_HAL_Driver/Src/stm32u5xx_hal_pwr_ex.c **** 
1769:Drivers/STM32U5xx_HAL_Driver/Src/stm32u5xx_hal_pwr_ex.c ****       /* Calculate pages mask */
1770:Drivers/STM32U5xx_HAL_Driver/Src/stm32u5xx_hal_pwr_ex.c ****       dummy = (RAMSelection & ~SRAM_ID_MASK) & (PAGE01_ID | PAGE02_ID | PAGE03_ID);
1771:Drivers/STM32U5xx_HAL_Driver/Src/stm32u5xx_hal_pwr_ex.c ****       CLEAR_BIT(PWR->CR2, dummy);
1772:Drivers/STM32U5xx_HAL_Driver/Src/stm32u5xx_hal_pwr_ex.c **** 
1773:Drivers/STM32U5xx_HAL_Driver/Src/stm32u5xx_hal_pwr_ex.c **** #if defined (PWR_CR4_SRAM1PDS4)
1774:Drivers/STM32U5xx_HAL_Driver/Src/stm32u5xx_hal_pwr_ex.c ****       /* Calculate pages mask */
1775:Drivers/STM32U5xx_HAL_Driver/Src/stm32u5xx_hal_pwr_ex.c ****       dummy = ((RAMSelection & ~SRAM_ID_MASK) & ~(PAGE01_ID | PAGE02_ID | PAGE03_ID)) >> 0x03U;
1776:Drivers/STM32U5xx_HAL_Driver/Src/stm32u5xx_hal_pwr_ex.c ****       CLEAR_BIT(PWR->CR4, dummy);
1777:Drivers/STM32U5xx_HAL_Driver/Src/stm32u5xx_hal_pwr_ex.c **** #endif /* defined (PWR_CR4_SRAM1PDS4) */
1778:Drivers/STM32U5xx_HAL_Driver/Src/stm32u5xx_hal_pwr_ex.c **** 
1779:Drivers/STM32U5xx_HAL_Driver/Src/stm32u5xx_hal_pwr_ex.c ****       break;
ARM GAS  C:\Users\Ya\AppData\Local\Temp\ccLrGXJ9.s 			page 74


1780:Drivers/STM32U5xx_HAL_Driver/Src/stm32u5xx_hal_pwr_ex.c ****     }
1781:Drivers/STM32U5xx_HAL_Driver/Src/stm32u5xx_hal_pwr_ex.c **** 
1782:Drivers/STM32U5xx_HAL_Driver/Src/stm32u5xx_hal_pwr_ex.c ****     /* SRAM 2 Stop retention */
1783:Drivers/STM32U5xx_HAL_Driver/Src/stm32u5xx_hal_pwr_ex.c ****     case SRAM2_ID:
1784:Drivers/STM32U5xx_HAL_Driver/Src/stm32u5xx_hal_pwr_ex.c ****     {
1785:Drivers/STM32U5xx_HAL_Driver/Src/stm32u5xx_hal_pwr_ex.c ****       /* Check the parameters */
1786:Drivers/STM32U5xx_HAL_Driver/Src/stm32u5xx_hal_pwr_ex.c ****       assert_param(IS_PWR_SRAM2_STOP_RETENTION(RAMSelection));
1787:Drivers/STM32U5xx_HAL_Driver/Src/stm32u5xx_hal_pwr_ex.c **** 
1788:Drivers/STM32U5xx_HAL_Driver/Src/stm32u5xx_hal_pwr_ex.c ****       /* Calculate pages mask */
1789:Drivers/STM32U5xx_HAL_Driver/Src/stm32u5xx_hal_pwr_ex.c ****       dummy = (RAMSelection & PWR_SRAM2_FULL_STOP) & ~SRAM_ID_MASK;
1790:Drivers/STM32U5xx_HAL_Driver/Src/stm32u5xx_hal_pwr_ex.c ****       CLEAR_BIT(PWR->CR2, (dummy << PWR_CR2_SRAM2PDS1_Pos));
1791:Drivers/STM32U5xx_HAL_Driver/Src/stm32u5xx_hal_pwr_ex.c **** 
1792:Drivers/STM32U5xx_HAL_Driver/Src/stm32u5xx_hal_pwr_ex.c ****       break;
1793:Drivers/STM32U5xx_HAL_Driver/Src/stm32u5xx_hal_pwr_ex.c ****     }
1794:Drivers/STM32U5xx_HAL_Driver/Src/stm32u5xx_hal_pwr_ex.c **** 
1795:Drivers/STM32U5xx_HAL_Driver/Src/stm32u5xx_hal_pwr_ex.c **** #if defined (PWR_CR2_SRAM3PDS1)
1796:Drivers/STM32U5xx_HAL_Driver/Src/stm32u5xx_hal_pwr_ex.c ****     /* SRAM 3 Stop retention */
1797:Drivers/STM32U5xx_HAL_Driver/Src/stm32u5xx_hal_pwr_ex.c ****     case SRAM3_ID:
1798:Drivers/STM32U5xx_HAL_Driver/Src/stm32u5xx_hal_pwr_ex.c ****     {
1799:Drivers/STM32U5xx_HAL_Driver/Src/stm32u5xx_hal_pwr_ex.c ****       /* Check the parameters */
1800:Drivers/STM32U5xx_HAL_Driver/Src/stm32u5xx_hal_pwr_ex.c ****       assert_param(IS_PWR_SRAM3_STOP_RETENTION(RAMSelection));
1801:Drivers/STM32U5xx_HAL_Driver/Src/stm32u5xx_hal_pwr_ex.c **** 
1802:Drivers/STM32U5xx_HAL_Driver/Src/stm32u5xx_hal_pwr_ex.c ****       /* Calculate pages mask */
1803:Drivers/STM32U5xx_HAL_Driver/Src/stm32u5xx_hal_pwr_ex.c ****       dummy = (RAMSelection & ~SRAM_ID_MASK) & (PAGE01_ID | PAGE02_ID | PAGE03_ID | PAGE04_ID |
1804:Drivers/STM32U5xx_HAL_Driver/Src/stm32u5xx_hal_pwr_ex.c ****                                                 PAGE05_ID | PAGE06_ID | PAGE07_ID | PAGE08_ID);
1805:Drivers/STM32U5xx_HAL_Driver/Src/stm32u5xx_hal_pwr_ex.c ****       CLEAR_BIT(PWR->CR2, (dummy << PWR_CR2_SRAM3PDS1_Pos));
1806:Drivers/STM32U5xx_HAL_Driver/Src/stm32u5xx_hal_pwr_ex.c **** 
1807:Drivers/STM32U5xx_HAL_Driver/Src/stm32u5xx_hal_pwr_ex.c **** #if defined (PWR_CR4_SRAM3PDS9)
1808:Drivers/STM32U5xx_HAL_Driver/Src/stm32u5xx_hal_pwr_ex.c ****       /* Calculate pages mask */
1809:Drivers/STM32U5xx_HAL_Driver/Src/stm32u5xx_hal_pwr_ex.c ****       dummy = ((RAMSelection & ~SRAM_ID_MASK) & ~(PAGE01_ID | PAGE02_ID | PAGE03_ID | PAGE04_ID |
1810:Drivers/STM32U5xx_HAL_Driver/Src/stm32u5xx_hal_pwr_ex.c ****                                                   PAGE05_ID | PAGE06_ID | PAGE07_ID | PAGE08_ID)) >
1811:Drivers/STM32U5xx_HAL_Driver/Src/stm32u5xx_hal_pwr_ex.c ****       CLEAR_BIT(PWR->CR4, (dummy << PWR_CR4_SRAM3PDS9_Pos));
1812:Drivers/STM32U5xx_HAL_Driver/Src/stm32u5xx_hal_pwr_ex.c **** #endif /* defined (PWR_CR4_SRAM3PDS9) */
1813:Drivers/STM32U5xx_HAL_Driver/Src/stm32u5xx_hal_pwr_ex.c **** 
1814:Drivers/STM32U5xx_HAL_Driver/Src/stm32u5xx_hal_pwr_ex.c ****       break;
1815:Drivers/STM32U5xx_HAL_Driver/Src/stm32u5xx_hal_pwr_ex.c ****     }
1816:Drivers/STM32U5xx_HAL_Driver/Src/stm32u5xx_hal_pwr_ex.c **** #endif /* PWR_CR2_SRAM3PDS1 */
1817:Drivers/STM32U5xx_HAL_Driver/Src/stm32u5xx_hal_pwr_ex.c **** 
1818:Drivers/STM32U5xx_HAL_Driver/Src/stm32u5xx_hal_pwr_ex.c ****     /* SRAM 4 Stop retention */
1819:Drivers/STM32U5xx_HAL_Driver/Src/stm32u5xx_hal_pwr_ex.c ****     case SRAM4_ID:
1820:Drivers/STM32U5xx_HAL_Driver/Src/stm32u5xx_hal_pwr_ex.c ****     {
1821:Drivers/STM32U5xx_HAL_Driver/Src/stm32u5xx_hal_pwr_ex.c ****       /* Check the parameters */
1822:Drivers/STM32U5xx_HAL_Driver/Src/stm32u5xx_hal_pwr_ex.c ****       assert_param(IS_PWR_SRAM4_STOP_RETENTION(RAMSelection));
1823:Drivers/STM32U5xx_HAL_Driver/Src/stm32u5xx_hal_pwr_ex.c **** 
1824:Drivers/STM32U5xx_HAL_Driver/Src/stm32u5xx_hal_pwr_ex.c ****       /* Calculate pages mask */
1825:Drivers/STM32U5xx_HAL_Driver/Src/stm32u5xx_hal_pwr_ex.c ****       dummy = (RAMSelection & PWR_SRAM4_FULL_STOP) & ~SRAM_ID_MASK;
1826:Drivers/STM32U5xx_HAL_Driver/Src/stm32u5xx_hal_pwr_ex.c ****       CLEAR_BIT(PWR->CR2, (dummy << PWR_CR2_SRAM4PDS_Pos));
1827:Drivers/STM32U5xx_HAL_Driver/Src/stm32u5xx_hal_pwr_ex.c **** 
1828:Drivers/STM32U5xx_HAL_Driver/Src/stm32u5xx_hal_pwr_ex.c ****       break;
1829:Drivers/STM32U5xx_HAL_Driver/Src/stm32u5xx_hal_pwr_ex.c ****     }
1830:Drivers/STM32U5xx_HAL_Driver/Src/stm32u5xx_hal_pwr_ex.c **** 
1831:Drivers/STM32U5xx_HAL_Driver/Src/stm32u5xx_hal_pwr_ex.c ****     /* ICACHE RAM Stop retention */
1832:Drivers/STM32U5xx_HAL_Driver/Src/stm32u5xx_hal_pwr_ex.c ****     case ICACHERAM_ID:
1833:Drivers/STM32U5xx_HAL_Driver/Src/stm32u5xx_hal_pwr_ex.c ****     {
1834:Drivers/STM32U5xx_HAL_Driver/Src/stm32u5xx_hal_pwr_ex.c ****       /* Check the parameters */
1835:Drivers/STM32U5xx_HAL_Driver/Src/stm32u5xx_hal_pwr_ex.c ****       assert_param(IS_PWR_ICACHE_STOP_RETENTION(RAMSelection));
1836:Drivers/STM32U5xx_HAL_Driver/Src/stm32u5xx_hal_pwr_ex.c **** 
ARM GAS  C:\Users\Ya\AppData\Local\Temp\ccLrGXJ9.s 			page 75


1837:Drivers/STM32U5xx_HAL_Driver/Src/stm32u5xx_hal_pwr_ex.c ****       /* Calculate pages mask */
1838:Drivers/STM32U5xx_HAL_Driver/Src/stm32u5xx_hal_pwr_ex.c ****       dummy = (RAMSelection & PWR_ICACHE_FULL_STOP) & ~SRAM_ID_MASK;
1839:Drivers/STM32U5xx_HAL_Driver/Src/stm32u5xx_hal_pwr_ex.c ****       CLEAR_BIT(PWR->CR2, dummy << PWR_CR2_ICRAMPDS_Pos);
1840:Drivers/STM32U5xx_HAL_Driver/Src/stm32u5xx_hal_pwr_ex.c **** 
1841:Drivers/STM32U5xx_HAL_Driver/Src/stm32u5xx_hal_pwr_ex.c ****       break;
1842:Drivers/STM32U5xx_HAL_Driver/Src/stm32u5xx_hal_pwr_ex.c ****     }
1843:Drivers/STM32U5xx_HAL_Driver/Src/stm32u5xx_hal_pwr_ex.c **** 
1844:Drivers/STM32U5xx_HAL_Driver/Src/stm32u5xx_hal_pwr_ex.c ****     /* DCACHE1 RAM Stop retention */
1845:Drivers/STM32U5xx_HAL_Driver/Src/stm32u5xx_hal_pwr_ex.c ****     case DCACHE1RAM_ID:
1846:Drivers/STM32U5xx_HAL_Driver/Src/stm32u5xx_hal_pwr_ex.c ****     {
1847:Drivers/STM32U5xx_HAL_Driver/Src/stm32u5xx_hal_pwr_ex.c ****       /* Check the parameters */
1848:Drivers/STM32U5xx_HAL_Driver/Src/stm32u5xx_hal_pwr_ex.c ****       assert_param(IS_PWR_DCACHE1_STOP_RETENTION(RAMSelection));
1849:Drivers/STM32U5xx_HAL_Driver/Src/stm32u5xx_hal_pwr_ex.c **** 
1850:Drivers/STM32U5xx_HAL_Driver/Src/stm32u5xx_hal_pwr_ex.c ****       /* Calculate pages mask */
1851:Drivers/STM32U5xx_HAL_Driver/Src/stm32u5xx_hal_pwr_ex.c ****       dummy = (RAMSelection & PWR_DCACHE1_FULL_STOP) & ~SRAM_ID_MASK;
1852:Drivers/STM32U5xx_HAL_Driver/Src/stm32u5xx_hal_pwr_ex.c ****       CLEAR_BIT(PWR->CR2, dummy << PWR_CR2_DC1RAMPDS_Pos);
1853:Drivers/STM32U5xx_HAL_Driver/Src/stm32u5xx_hal_pwr_ex.c **** 
1854:Drivers/STM32U5xx_HAL_Driver/Src/stm32u5xx_hal_pwr_ex.c ****       break;
1855:Drivers/STM32U5xx_HAL_Driver/Src/stm32u5xx_hal_pwr_ex.c ****     }
1856:Drivers/STM32U5xx_HAL_Driver/Src/stm32u5xx_hal_pwr_ex.c **** 
1857:Drivers/STM32U5xx_HAL_Driver/Src/stm32u5xx_hal_pwr_ex.c **** #if defined (PWR_CR2_DMA2DRAMPDS)
1858:Drivers/STM32U5xx_HAL_Driver/Src/stm32u5xx_hal_pwr_ex.c ****     /* DMA2D RAM Stop retention */
1859:Drivers/STM32U5xx_HAL_Driver/Src/stm32u5xx_hal_pwr_ex.c ****     case DMA2DRAM_ID:
1860:Drivers/STM32U5xx_HAL_Driver/Src/stm32u5xx_hal_pwr_ex.c ****     {
1861:Drivers/STM32U5xx_HAL_Driver/Src/stm32u5xx_hal_pwr_ex.c ****       /* Check the parameters */
1862:Drivers/STM32U5xx_HAL_Driver/Src/stm32u5xx_hal_pwr_ex.c ****       assert_param(IS_PWR_DMA2DRAM_STOP_RETENTION(RAMSelection));
1863:Drivers/STM32U5xx_HAL_Driver/Src/stm32u5xx_hal_pwr_ex.c **** 
1864:Drivers/STM32U5xx_HAL_Driver/Src/stm32u5xx_hal_pwr_ex.c ****       /* Calculate pages mask */
1865:Drivers/STM32U5xx_HAL_Driver/Src/stm32u5xx_hal_pwr_ex.c ****       dummy = (RAMSelection & PWR_DMA2DRAM_FULL_STOP) & ~SRAM_ID_MASK;
1866:Drivers/STM32U5xx_HAL_Driver/Src/stm32u5xx_hal_pwr_ex.c ****       CLEAR_BIT(PWR->CR2, (dummy << PWR_CR2_DMA2DRAMPDS_Pos));
1867:Drivers/STM32U5xx_HAL_Driver/Src/stm32u5xx_hal_pwr_ex.c **** 
1868:Drivers/STM32U5xx_HAL_Driver/Src/stm32u5xx_hal_pwr_ex.c ****       break;
1869:Drivers/STM32U5xx_HAL_Driver/Src/stm32u5xx_hal_pwr_ex.c ****     }
1870:Drivers/STM32U5xx_HAL_Driver/Src/stm32u5xx_hal_pwr_ex.c **** #endif /* PWR_CR2_DMA2DRAMPDS */
1871:Drivers/STM32U5xx_HAL_Driver/Src/stm32u5xx_hal_pwr_ex.c **** 
1872:Drivers/STM32U5xx_HAL_Driver/Src/stm32u5xx_hal_pwr_ex.c ****     /* FMAC, FDCAN and USB RAM Stop retention */
1873:Drivers/STM32U5xx_HAL_Driver/Src/stm32u5xx_hal_pwr_ex.c ****     case PERIPHRAM_ID:
1874:Drivers/STM32U5xx_HAL_Driver/Src/stm32u5xx_hal_pwr_ex.c ****     {
1875:Drivers/STM32U5xx_HAL_Driver/Src/stm32u5xx_hal_pwr_ex.c ****       /* Check the parameters */
1876:Drivers/STM32U5xx_HAL_Driver/Src/stm32u5xx_hal_pwr_ex.c ****       assert_param(IS_PWR_PERIPHRAM_STOP_RETENTION(RAMSelection));
1877:Drivers/STM32U5xx_HAL_Driver/Src/stm32u5xx_hal_pwr_ex.c **** 
1878:Drivers/STM32U5xx_HAL_Driver/Src/stm32u5xx_hal_pwr_ex.c ****       /* Calculate pages mask */
1879:Drivers/STM32U5xx_HAL_Driver/Src/stm32u5xx_hal_pwr_ex.c ****       dummy = (RAMSelection & PWR_PERIPHRAM_FULL_STOP) & ~SRAM_ID_MASK;
1880:Drivers/STM32U5xx_HAL_Driver/Src/stm32u5xx_hal_pwr_ex.c ****       CLEAR_BIT(PWR->CR2, (dummy << PWR_CR2_PRAMPDS_Pos));
1881:Drivers/STM32U5xx_HAL_Driver/Src/stm32u5xx_hal_pwr_ex.c **** 
1882:Drivers/STM32U5xx_HAL_Driver/Src/stm32u5xx_hal_pwr_ex.c ****       break;
1883:Drivers/STM32U5xx_HAL_Driver/Src/stm32u5xx_hal_pwr_ex.c ****     }
1884:Drivers/STM32U5xx_HAL_Driver/Src/stm32u5xx_hal_pwr_ex.c **** 
1885:Drivers/STM32U5xx_HAL_Driver/Src/stm32u5xx_hal_pwr_ex.c ****     /* PKA32 RAM Stop retention */
1886:Drivers/STM32U5xx_HAL_Driver/Src/stm32u5xx_hal_pwr_ex.c ****     case PKARAM_ID:
1887:Drivers/STM32U5xx_HAL_Driver/Src/stm32u5xx_hal_pwr_ex.c ****     {
1888:Drivers/STM32U5xx_HAL_Driver/Src/stm32u5xx_hal_pwr_ex.c ****       /* Check the parameters */
1889:Drivers/STM32U5xx_HAL_Driver/Src/stm32u5xx_hal_pwr_ex.c ****       assert_param(IS_PWR_PKA32RAM_STOP_RETENTION(RAMSelection));
 2271              		.loc 1 1889 7 is_stmt 1 view .LVU450
1890:Drivers/STM32U5xx_HAL_Driver/Src/stm32u5xx_hal_pwr_ex.c **** 
1891:Drivers/STM32U5xx_HAL_Driver/Src/stm32u5xx_hal_pwr_ex.c ****       /* Calculate pages mask */
1892:Drivers/STM32U5xx_HAL_Driver/Src/stm32u5xx_hal_pwr_ex.c ****       dummy = (RAMSelection & PWR_PKA32RAM_FULL_STOP) & ~SRAM_ID_MASK;
ARM GAS  C:\Users\Ya\AppData\Local\Temp\ccLrGXJ9.s 			page 76


 2272              		.loc 1 1892 7 view .LVU451
 2273              	.LVL76:
1893:Drivers/STM32U5xx_HAL_Driver/Src/stm32u5xx_hal_pwr_ex.c ****       CLEAR_BIT(PWR->CR2, (dummy << PWR_CR2_PKARAMPDS_Pos));
 2274              		.loc 1 1893 7 view .LVU452
 2275 001a 334A     		ldr	r2, .L230
 2276 001c 5368     		ldr	r3, [r2, #4]
 2277 001e 0003     		lsls	r0, r0, #12
 2278              	.LVL77:
 2279              		.loc 1 1893 7 is_stmt 0 view .LVU453
 2280 0020 00F48050 		and	r0, r0, #4096
 2281 0024 23EA0003 		bic	r3, r3, r0
 2282 0028 5360     		str	r3, [r2, #4]
1894:Drivers/STM32U5xx_HAL_Driver/Src/stm32u5xx_hal_pwr_ex.c **** 
1895:Drivers/STM32U5xx_HAL_Driver/Src/stm32u5xx_hal_pwr_ex.c ****       break;
 2283              		.loc 1 1895 7 is_stmt 1 view .LVU454
1896:Drivers/STM32U5xx_HAL_Driver/Src/stm32u5xx_hal_pwr_ex.c ****     }
1897:Drivers/STM32U5xx_HAL_Driver/Src/stm32u5xx_hal_pwr_ex.c **** 
1898:Drivers/STM32U5xx_HAL_Driver/Src/stm32u5xx_hal_pwr_ex.c **** #if defined (PWR_CR2_DC2RAMPDS)
1899:Drivers/STM32U5xx_HAL_Driver/Src/stm32u5xx_hal_pwr_ex.c ****     /* DCACHE2 RAM Stop retention */
1900:Drivers/STM32U5xx_HAL_Driver/Src/stm32u5xx_hal_pwr_ex.c ****     case DCACHE2RAM_ID:
1901:Drivers/STM32U5xx_HAL_Driver/Src/stm32u5xx_hal_pwr_ex.c ****     {
1902:Drivers/STM32U5xx_HAL_Driver/Src/stm32u5xx_hal_pwr_ex.c ****       /* Check the parameters */
1903:Drivers/STM32U5xx_HAL_Driver/Src/stm32u5xx_hal_pwr_ex.c ****       assert_param(IS_PWR_DCACHE2_STOP_RETENTION(RAMSelection));
1904:Drivers/STM32U5xx_HAL_Driver/Src/stm32u5xx_hal_pwr_ex.c **** 
1905:Drivers/STM32U5xx_HAL_Driver/Src/stm32u5xx_hal_pwr_ex.c ****       /* Calculate pages mask */
1906:Drivers/STM32U5xx_HAL_Driver/Src/stm32u5xx_hal_pwr_ex.c ****       dummy = (RAMSelection & PWR_DCACHE2_FULL_STOP) & ~SRAM_ID_MASK;
1907:Drivers/STM32U5xx_HAL_Driver/Src/stm32u5xx_hal_pwr_ex.c ****       CLEAR_BIT(PWR->CR2, (dummy << PWR_CR2_DC2RAMPDS_Pos));
1908:Drivers/STM32U5xx_HAL_Driver/Src/stm32u5xx_hal_pwr_ex.c **** 
1909:Drivers/STM32U5xx_HAL_Driver/Src/stm32u5xx_hal_pwr_ex.c ****       break;
1910:Drivers/STM32U5xx_HAL_Driver/Src/stm32u5xx_hal_pwr_ex.c ****     }
1911:Drivers/STM32U5xx_HAL_Driver/Src/stm32u5xx_hal_pwr_ex.c **** #endif /* defined (PWR_CR2_DC2RAMPDS) */
1912:Drivers/STM32U5xx_HAL_Driver/Src/stm32u5xx_hal_pwr_ex.c **** 
1913:Drivers/STM32U5xx_HAL_Driver/Src/stm32u5xx_hal_pwr_ex.c **** #if defined (PWR_CR2_GPRAMPDS)
1914:Drivers/STM32U5xx_HAL_Driver/Src/stm32u5xx_hal_pwr_ex.c ****     /* LTDC and GFXMMU RAM Stop retention */
1915:Drivers/STM32U5xx_HAL_Driver/Src/stm32u5xx_hal_pwr_ex.c ****     case GRAPHIPRAM_ID:
1916:Drivers/STM32U5xx_HAL_Driver/Src/stm32u5xx_hal_pwr_ex.c ****     {
1917:Drivers/STM32U5xx_HAL_Driver/Src/stm32u5xx_hal_pwr_ex.c ****       /* Check the parameters */
1918:Drivers/STM32U5xx_HAL_Driver/Src/stm32u5xx_hal_pwr_ex.c ****       assert_param(IS_PWR_GRAPHICPRAM_STOP_RETENTION(RAMSelection));
1919:Drivers/STM32U5xx_HAL_Driver/Src/stm32u5xx_hal_pwr_ex.c **** 
1920:Drivers/STM32U5xx_HAL_Driver/Src/stm32u5xx_hal_pwr_ex.c ****       /* Calculate pages mask */
1921:Drivers/STM32U5xx_HAL_Driver/Src/stm32u5xx_hal_pwr_ex.c ****       dummy = (RAMSelection & PWR_GRAPHICPRAM_FULL_STOP) & ~SRAM_ID_MASK;
1922:Drivers/STM32U5xx_HAL_Driver/Src/stm32u5xx_hal_pwr_ex.c ****       CLEAR_BIT(PWR->CR2, (dummy << PWR_CR2_GPRAMPDS_Pos));
1923:Drivers/STM32U5xx_HAL_Driver/Src/stm32u5xx_hal_pwr_ex.c **** 
1924:Drivers/STM32U5xx_HAL_Driver/Src/stm32u5xx_hal_pwr_ex.c ****       break;
1925:Drivers/STM32U5xx_HAL_Driver/Src/stm32u5xx_hal_pwr_ex.c ****     }
1926:Drivers/STM32U5xx_HAL_Driver/Src/stm32u5xx_hal_pwr_ex.c **** #endif /* defined (PWR_CR2_GPRAMPDS) */
1927:Drivers/STM32U5xx_HAL_Driver/Src/stm32u5xx_hal_pwr_ex.c **** 
1928:Drivers/STM32U5xx_HAL_Driver/Src/stm32u5xx_hal_pwr_ex.c **** #if defined (PWR_CR2_DSIRAMPDS)
1929:Drivers/STM32U5xx_HAL_Driver/Src/stm32u5xx_hal_pwr_ex.c ****     /* DSI RAM Stop retention */
1930:Drivers/STM32U5xx_HAL_Driver/Src/stm32u5xx_hal_pwr_ex.c ****     case DSIRAM_ID:
1931:Drivers/STM32U5xx_HAL_Driver/Src/stm32u5xx_hal_pwr_ex.c ****     {
1932:Drivers/STM32U5xx_HAL_Driver/Src/stm32u5xx_hal_pwr_ex.c ****       /* Check the parameters */
1933:Drivers/STM32U5xx_HAL_Driver/Src/stm32u5xx_hal_pwr_ex.c ****       assert_param(IS_PWR_DSIRAM_STOP_RETENTION(RAMSelection));
1934:Drivers/STM32U5xx_HAL_Driver/Src/stm32u5xx_hal_pwr_ex.c **** 
1935:Drivers/STM32U5xx_HAL_Driver/Src/stm32u5xx_hal_pwr_ex.c ****       /* Calculate pages mask */
1936:Drivers/STM32U5xx_HAL_Driver/Src/stm32u5xx_hal_pwr_ex.c ****       dummy = (RAMSelection & PWR_DSIRAM_FULL_STOP) & ~SRAM_ID_MASK;
1937:Drivers/STM32U5xx_HAL_Driver/Src/stm32u5xx_hal_pwr_ex.c ****       CLEAR_BIT(PWR->CR2, (dummy << PWR_CR2_DSIRAMPDS_Pos));
ARM GAS  C:\Users\Ya\AppData\Local\Temp\ccLrGXJ9.s 			page 77


1938:Drivers/STM32U5xx_HAL_Driver/Src/stm32u5xx_hal_pwr_ex.c **** 
1939:Drivers/STM32U5xx_HAL_Driver/Src/stm32u5xx_hal_pwr_ex.c ****       break;
1940:Drivers/STM32U5xx_HAL_Driver/Src/stm32u5xx_hal_pwr_ex.c ****     }
1941:Drivers/STM32U5xx_HAL_Driver/Src/stm32u5xx_hal_pwr_ex.c **** #endif /* defined (PWR_CR2_DSIRAMPDS) */
1942:Drivers/STM32U5xx_HAL_Driver/Src/stm32u5xx_hal_pwr_ex.c **** 
1943:Drivers/STM32U5xx_HAL_Driver/Src/stm32u5xx_hal_pwr_ex.c **** #if defined (PWR_CR2_JPEGRAMPDS)
1944:Drivers/STM32U5xx_HAL_Driver/Src/stm32u5xx_hal_pwr_ex.c ****     /* JPEG RAM Stop retention */
1945:Drivers/STM32U5xx_HAL_Driver/Src/stm32u5xx_hal_pwr_ex.c ****     case JPEGRAM_ID:
1946:Drivers/STM32U5xx_HAL_Driver/Src/stm32u5xx_hal_pwr_ex.c ****     {
1947:Drivers/STM32U5xx_HAL_Driver/Src/stm32u5xx_hal_pwr_ex.c ****       /* Check the parameters */
1948:Drivers/STM32U5xx_HAL_Driver/Src/stm32u5xx_hal_pwr_ex.c ****       assert_param(IS_PWR_JPEGRAM_STOP_RETENTION(RAMSelection));
1949:Drivers/STM32U5xx_HAL_Driver/Src/stm32u5xx_hal_pwr_ex.c **** 
1950:Drivers/STM32U5xx_HAL_Driver/Src/stm32u5xx_hal_pwr_ex.c ****       /* Calculate pages mask */
1951:Drivers/STM32U5xx_HAL_Driver/Src/stm32u5xx_hal_pwr_ex.c ****       dummy = (RAMSelection & PWR_JPEGRAM_FULL_STOP) & ~SRAM_ID_MASK;
1952:Drivers/STM32U5xx_HAL_Driver/Src/stm32u5xx_hal_pwr_ex.c ****       CLEAR_BIT(PWR->CR2, (dummy << PWR_CR2_JPEGRAMPDS_Pos));
1953:Drivers/STM32U5xx_HAL_Driver/Src/stm32u5xx_hal_pwr_ex.c **** 
1954:Drivers/STM32U5xx_HAL_Driver/Src/stm32u5xx_hal_pwr_ex.c ****       break;
1955:Drivers/STM32U5xx_HAL_Driver/Src/stm32u5xx_hal_pwr_ex.c ****     }
1956:Drivers/STM32U5xx_HAL_Driver/Src/stm32u5xx_hal_pwr_ex.c **** #endif /* defined (PWR_CR2_JPEGRAMPDS) */
1957:Drivers/STM32U5xx_HAL_Driver/Src/stm32u5xx_hal_pwr_ex.c **** 
1958:Drivers/STM32U5xx_HAL_Driver/Src/stm32u5xx_hal_pwr_ex.c **** #if defined (PWR_CR4_SRAM5PDS1)
1959:Drivers/STM32U5xx_HAL_Driver/Src/stm32u5xx_hal_pwr_ex.c ****     /* SRAM 5 Stop retention */
1960:Drivers/STM32U5xx_HAL_Driver/Src/stm32u5xx_hal_pwr_ex.c ****     case SRAM5_ID:
1961:Drivers/STM32U5xx_HAL_Driver/Src/stm32u5xx_hal_pwr_ex.c ****     {
1962:Drivers/STM32U5xx_HAL_Driver/Src/stm32u5xx_hal_pwr_ex.c ****       /* Check the parameters */
1963:Drivers/STM32U5xx_HAL_Driver/Src/stm32u5xx_hal_pwr_ex.c ****       assert_param(IS_PWR_SRAM5_STOP_RETENTION(RAMSelection));
1964:Drivers/STM32U5xx_HAL_Driver/Src/stm32u5xx_hal_pwr_ex.c **** 
1965:Drivers/STM32U5xx_HAL_Driver/Src/stm32u5xx_hal_pwr_ex.c ****       /* Calculate pages mask */
1966:Drivers/STM32U5xx_HAL_Driver/Src/stm32u5xx_hal_pwr_ex.c ****       dummy = ((RAMSelection & PWR_SRAM5_FULL_STOP) & ~SRAM_ID_MASK);
1967:Drivers/STM32U5xx_HAL_Driver/Src/stm32u5xx_hal_pwr_ex.c ****       CLEAR_BIT(PWR->CR4, (dummy << PWR_CR4_SRAM5PDS1_Pos));
1968:Drivers/STM32U5xx_HAL_Driver/Src/stm32u5xx_hal_pwr_ex.c **** 
1969:Drivers/STM32U5xx_HAL_Driver/Src/stm32u5xx_hal_pwr_ex.c ****       break;
1970:Drivers/STM32U5xx_HAL_Driver/Src/stm32u5xx_hal_pwr_ex.c ****     }
1971:Drivers/STM32U5xx_HAL_Driver/Src/stm32u5xx_hal_pwr_ex.c **** #endif /* defined (PWR_CR4_SRAM5PDS1) */
1972:Drivers/STM32U5xx_HAL_Driver/Src/stm32u5xx_hal_pwr_ex.c **** 
1973:Drivers/STM32U5xx_HAL_Driver/Src/stm32u5xx_hal_pwr_ex.c **** #if defined (PWR_CR5_SRAM6PDS1)
1974:Drivers/STM32U5xx_HAL_Driver/Src/stm32u5xx_hal_pwr_ex.c ****     /* SRAM 6 Stop retention */
1975:Drivers/STM32U5xx_HAL_Driver/Src/stm32u5xx_hal_pwr_ex.c ****     case SRAM6_ID:
1976:Drivers/STM32U5xx_HAL_Driver/Src/stm32u5xx_hal_pwr_ex.c ****     {
1977:Drivers/STM32U5xx_HAL_Driver/Src/stm32u5xx_hal_pwr_ex.c ****       /* Check the parameters */
1978:Drivers/STM32U5xx_HAL_Driver/Src/stm32u5xx_hal_pwr_ex.c ****       assert_param(IS_PWR_SRAM6_STOP_RETENTION(RAMSelection));
1979:Drivers/STM32U5xx_HAL_Driver/Src/stm32u5xx_hal_pwr_ex.c **** 
1980:Drivers/STM32U5xx_HAL_Driver/Src/stm32u5xx_hal_pwr_ex.c ****       /* Calculate pages mask */
1981:Drivers/STM32U5xx_HAL_Driver/Src/stm32u5xx_hal_pwr_ex.c ****       dummy = ((RAMSelection & PWR_SRAM6_FULL_STOP) & ~SRAM_ID_MASK);
1982:Drivers/STM32U5xx_HAL_Driver/Src/stm32u5xx_hal_pwr_ex.c ****       CLEAR_BIT(PWR->CR5, (dummy << PWR_CR5_SRAM6PDS1_Pos));
1983:Drivers/STM32U5xx_HAL_Driver/Src/stm32u5xx_hal_pwr_ex.c **** 
1984:Drivers/STM32U5xx_HAL_Driver/Src/stm32u5xx_hal_pwr_ex.c ****       break;
1985:Drivers/STM32U5xx_HAL_Driver/Src/stm32u5xx_hal_pwr_ex.c ****     }
1986:Drivers/STM32U5xx_HAL_Driver/Src/stm32u5xx_hal_pwr_ex.c **** #endif /* defined (PWR_CR5_SRAM6PDS1) */
1987:Drivers/STM32U5xx_HAL_Driver/Src/stm32u5xx_hal_pwr_ex.c **** 
1988:Drivers/STM32U5xx_HAL_Driver/Src/stm32u5xx_hal_pwr_ex.c ****     default:
1989:Drivers/STM32U5xx_HAL_Driver/Src/stm32u5xx_hal_pwr_ex.c ****     {
1990:Drivers/STM32U5xx_HAL_Driver/Src/stm32u5xx_hal_pwr_ex.c ****       return;
1991:Drivers/STM32U5xx_HAL_Driver/Src/stm32u5xx_hal_pwr_ex.c ****       break;
 2284              		.loc 1 1991 7 view .LVU455
1992:Drivers/STM32U5xx_HAL_Driver/Src/stm32u5xx_hal_pwr_ex.c ****     }
1993:Drivers/STM32U5xx_HAL_Driver/Src/stm32u5xx_hal_pwr_ex.c ****   }
ARM GAS  C:\Users\Ya\AppData\Local\Temp\ccLrGXJ9.s 			page 78


1994:Drivers/STM32U5xx_HAL_Driver/Src/stm32u5xx_hal_pwr_ex.c **** }
 2285              		.loc 1 1994 1 is_stmt 0 view .LVU456
 2286 002a 7047     		bx	lr
 2287              	.LVL78:
 2288              	.L223:
1761:Drivers/STM32U5xx_HAL_Driver/Src/stm32u5xx_hal_pwr_ex.c ****   {
 2289              		.loc 1 1761 3 view .LVU457
 2290 002c B3F5802F 		cmp	r3, #262144
 2291 0030 36D0     		beq	.L212
 2292 0032 0BD9     		bls	.L226
 2293 0034 B3F5002F 		cmp	r3, #524288
 2294 0038 18D1     		bne	.L227
1822:Drivers/STM32U5xx_HAL_Driver/Src/stm32u5xx_hal_pwr_ex.c **** 
 2295              		.loc 1 1822 7 is_stmt 1 view .LVU458
1825:Drivers/STM32U5xx_HAL_Driver/Src/stm32u5xx_hal_pwr_ex.c ****       CLEAR_BIT(PWR->CR2, (dummy << PWR_CR2_SRAM4PDS_Pos));
 2296              		.loc 1 1825 7 view .LVU459
 2297              	.LVL79:
1826:Drivers/STM32U5xx_HAL_Driver/Src/stm32u5xx_hal_pwr_ex.c **** 
 2298              		.loc 1 1826 7 view .LVU460
 2299 003a 2B4A     		ldr	r2, .L230
 2300 003c 5368     		ldr	r3, [r2, #4]
 2301 003e 8001     		lsls	r0, r0, #6
 2302              	.LVL80:
1826:Drivers/STM32U5xx_HAL_Driver/Src/stm32u5xx_hal_pwr_ex.c **** 
 2303              		.loc 1 1826 7 is_stmt 0 view .LVU461
 2304 0040 00F04000 		and	r0, r0, #64
 2305 0044 23EA0003 		bic	r3, r3, r0
 2306 0048 5360     		str	r3, [r2, #4]
1828:Drivers/STM32U5xx_HAL_Driver/Src/stm32u5xx_hal_pwr_ex.c ****     }
 2307              		.loc 1 1828 7 is_stmt 1 view .LVU462
 2308 004a 7047     		bx	lr
 2309              	.LVL81:
 2310              	.L226:
1761:Drivers/STM32U5xx_HAL_Driver/Src/stm32u5xx_hal_pwr_ex.c ****   {
 2311              		.loc 1 1761 3 is_stmt 0 view .LVU463
 2312 004c B3F5803F 		cmp	r3, #65536
 2313 0050 1ED0     		beq	.L214
 2314 0052 B3F5003F 		cmp	r3, #131072
 2315 0056 08D1     		bne	.L228
1786:Drivers/STM32U5xx_HAL_Driver/Src/stm32u5xx_hal_pwr_ex.c **** 
 2316              		.loc 1 1786 7 is_stmt 1 view .LVU464
1789:Drivers/STM32U5xx_HAL_Driver/Src/stm32u5xx_hal_pwr_ex.c ****       CLEAR_BIT(PWR->CR2, (dummy << PWR_CR2_SRAM2PDS1_Pos));
 2317              		.loc 1 1789 7 view .LVU465
 2318              	.LVL82:
1790:Drivers/STM32U5xx_HAL_Driver/Src/stm32u5xx_hal_pwr_ex.c **** 
 2319              		.loc 1 1790 7 view .LVU466
 2320 0058 234A     		ldr	r2, .L230
 2321 005a 5368     		ldr	r3, [r2, #4]
 2322 005c 0001     		lsls	r0, r0, #4
 2323              	.LVL83:
1790:Drivers/STM32U5xx_HAL_Driver/Src/stm32u5xx_hal_pwr_ex.c **** 
 2324              		.loc 1 1790 7 is_stmt 0 view .LVU467
 2325 005e 00F03000 		and	r0, r0, #48
 2326 0062 23EA0003 		bic	r3, r3, r0
 2327 0066 5360     		str	r3, [r2, #4]
1792:Drivers/STM32U5xx_HAL_Driver/Src/stm32u5xx_hal_pwr_ex.c ****     }
 2328              		.loc 1 1792 7 is_stmt 1 view .LVU468
ARM GAS  C:\Users\Ya\AppData\Local\Temp\ccLrGXJ9.s 			page 79


 2329 0068 7047     		bx	lr
 2330              	.LVL84:
 2331              	.L228:
1792:Drivers/STM32U5xx_HAL_Driver/Src/stm32u5xx_hal_pwr_ex.c ****     }
 2332              		.loc 1 1792 7 is_stmt 0 view .LVU469
 2333 006a 7047     		bx	lr
 2334              	.L227:
 2335 006c 7047     		bx	lr
 2336              	.L224:
1761:Drivers/STM32U5xx_HAL_Driver/Src/stm32u5xx_hal_pwr_ex.c ****   {
 2337              		.loc 1 1761 3 view .LVU470
 2338 006e B3F5001F 		cmp	r3, #2097152
 2339 0072 27D0     		beq	.L220
 2340 0074 B3F5800F 		cmp	r3, #4194304
 2341 0078 08D1     		bne	.L229
1862:Drivers/STM32U5xx_HAL_Driver/Src/stm32u5xx_hal_pwr_ex.c **** 
 2342              		.loc 1 1862 7 is_stmt 1 view .LVU471
1865:Drivers/STM32U5xx_HAL_Driver/Src/stm32u5xx_hal_pwr_ex.c ****       CLEAR_BIT(PWR->CR2, (dummy << PWR_CR2_DMA2DRAMPDS_Pos));
 2343              		.loc 1 1865 7 view .LVU472
 2344              	.LVL85:
1866:Drivers/STM32U5xx_HAL_Driver/Src/stm32u5xx_hal_pwr_ex.c **** 
 2345              		.loc 1 1866 7 view .LVU473
 2346 007a 1B4A     		ldr	r2, .L230
 2347 007c 5368     		ldr	r3, [r2, #4]
 2348 007e 8002     		lsls	r0, r0, #10
 2349              	.LVL86:
1866:Drivers/STM32U5xx_HAL_Driver/Src/stm32u5xx_hal_pwr_ex.c **** 
 2350              		.loc 1 1866 7 is_stmt 0 view .LVU474
 2351 0080 00F48060 		and	r0, r0, #1024
 2352 0084 23EA0003 		bic	r3, r3, r0
 2353 0088 5360     		str	r3, [r2, #4]
1868:Drivers/STM32U5xx_HAL_Driver/Src/stm32u5xx_hal_pwr_ex.c ****     }
 2354              		.loc 1 1868 7 is_stmt 1 view .LVU475
 2355 008a 7047     		bx	lr
 2356              	.LVL87:
 2357              	.L229:
1868:Drivers/STM32U5xx_HAL_Driver/Src/stm32u5xx_hal_pwr_ex.c ****     }
 2358              		.loc 1 1868 7 is_stmt 0 view .LVU476
 2359 008c 7047     		bx	lr
 2360              	.L225:
 2361 008e 7047     		bx	lr
 2362              	.L214:
1767:Drivers/STM32U5xx_HAL_Driver/Src/stm32u5xx_hal_pwr_ex.c **** 
 2363              		.loc 1 1767 7 is_stmt 1 view .LVU477
1770:Drivers/STM32U5xx_HAL_Driver/Src/stm32u5xx_hal_pwr_ex.c ****       CLEAR_BIT(PWR->CR2, dummy);
 2364              		.loc 1 1770 7 view .LVU478
1770:Drivers/STM32U5xx_HAL_Driver/Src/stm32u5xx_hal_pwr_ex.c ****       CLEAR_BIT(PWR->CR2, dummy);
 2365              		.loc 1 1770 13 is_stmt 0 view .LVU479
 2366 0090 00F00700 		and	r0, r0, #7
 2367              	.LVL88:
1771:Drivers/STM32U5xx_HAL_Driver/Src/stm32u5xx_hal_pwr_ex.c **** 
 2368              		.loc 1 1771 7 is_stmt 1 view .LVU480
 2369 0094 144A     		ldr	r2, .L230
 2370 0096 5368     		ldr	r3, [r2, #4]
 2371 0098 23EA0003 		bic	r3, r3, r0
 2372 009c 5360     		str	r3, [r2, #4]
1779:Drivers/STM32U5xx_HAL_Driver/Src/stm32u5xx_hal_pwr_ex.c ****     }
ARM GAS  C:\Users\Ya\AppData\Local\Temp\ccLrGXJ9.s 			page 80


 2373              		.loc 1 1779 7 view .LVU481
 2374 009e 7047     		bx	lr
 2375              	.LVL89:
 2376              	.L212:
1800:Drivers/STM32U5xx_HAL_Driver/Src/stm32u5xx_hal_pwr_ex.c **** 
 2377              		.loc 1 1800 7 view .LVU482
1803:Drivers/STM32U5xx_HAL_Driver/Src/stm32u5xx_hal_pwr_ex.c ****                                                 PAGE05_ID | PAGE06_ID | PAGE07_ID | PAGE08_ID);
 2378              		.loc 1 1803 7 view .LVU483
1805:Drivers/STM32U5xx_HAL_Driver/Src/stm32u5xx_hal_pwr_ex.c **** 
 2379              		.loc 1 1805 7 view .LVU484
 2380 00a0 114A     		ldr	r2, .L230
 2381 00a2 5368     		ldr	r3, [r2, #4]
 2382 00a4 0004     		lsls	r0, r0, #16
 2383              	.LVL90:
1805:Drivers/STM32U5xx_HAL_Driver/Src/stm32u5xx_hal_pwr_ex.c **** 
 2384              		.loc 1 1805 7 is_stmt 0 view .LVU485
 2385 00a6 00F47F00 		and	r0, r0, #16711680
 2386 00aa 23EA0003 		bic	r3, r3, r0
 2387 00ae 5360     		str	r3, [r2, #4]
1814:Drivers/STM32U5xx_HAL_Driver/Src/stm32u5xx_hal_pwr_ex.c ****     }
 2388              		.loc 1 1814 7 is_stmt 1 view .LVU486
 2389 00b0 7047     		bx	lr
 2390              	.LVL91:
 2391              	.L210:
1835:Drivers/STM32U5xx_HAL_Driver/Src/stm32u5xx_hal_pwr_ex.c **** 
 2392              		.loc 1 1835 7 view .LVU487
1838:Drivers/STM32U5xx_HAL_Driver/Src/stm32u5xx_hal_pwr_ex.c ****       CLEAR_BIT(PWR->CR2, dummy << PWR_CR2_ICRAMPDS_Pos);
 2393              		.loc 1 1838 7 view .LVU488
1839:Drivers/STM32U5xx_HAL_Driver/Src/stm32u5xx_hal_pwr_ex.c **** 
 2394              		.loc 1 1839 7 view .LVU489
 2395 00b2 0D4A     		ldr	r2, .L230
 2396 00b4 5368     		ldr	r3, [r2, #4]
 2397 00b6 0002     		lsls	r0, r0, #8
 2398              	.LVL92:
1839:Drivers/STM32U5xx_HAL_Driver/Src/stm32u5xx_hal_pwr_ex.c **** 
 2399              		.loc 1 1839 7 is_stmt 0 view .LVU490
 2400 00b8 00F48070 		and	r0, r0, #256
 2401 00bc 23EA0003 		bic	r3, r3, r0
 2402 00c0 5360     		str	r3, [r2, #4]
1841:Drivers/STM32U5xx_HAL_Driver/Src/stm32u5xx_hal_pwr_ex.c ****     }
 2403              		.loc 1 1841 7 is_stmt 1 view .LVU491
 2404 00c2 7047     		bx	lr
 2405              	.LVL93:
 2406              	.L220:
1848:Drivers/STM32U5xx_HAL_Driver/Src/stm32u5xx_hal_pwr_ex.c **** 
 2407              		.loc 1 1848 7 view .LVU492
1851:Drivers/STM32U5xx_HAL_Driver/Src/stm32u5xx_hal_pwr_ex.c ****       CLEAR_BIT(PWR->CR2, dummy << PWR_CR2_DC1RAMPDS_Pos);
 2408              		.loc 1 1851 7 view .LVU493
1852:Drivers/STM32U5xx_HAL_Driver/Src/stm32u5xx_hal_pwr_ex.c **** 
 2409              		.loc 1 1852 7 view .LVU494
 2410 00c4 084A     		ldr	r2, .L230
 2411 00c6 5368     		ldr	r3, [r2, #4]
 2412 00c8 4002     		lsls	r0, r0, #9
 2413              	.LVL94:
1852:Drivers/STM32U5xx_HAL_Driver/Src/stm32u5xx_hal_pwr_ex.c **** 
 2414              		.loc 1 1852 7 is_stmt 0 view .LVU495
 2415 00ca 00F40070 		and	r0, r0, #512
ARM GAS  C:\Users\Ya\AppData\Local\Temp\ccLrGXJ9.s 			page 81


 2416 00ce 23EA0003 		bic	r3, r3, r0
 2417 00d2 5360     		str	r3, [r2, #4]
1854:Drivers/STM32U5xx_HAL_Driver/Src/stm32u5xx_hal_pwr_ex.c ****     }
 2418              		.loc 1 1854 7 is_stmt 1 view .LVU496
 2419 00d4 7047     		bx	lr
 2420              	.LVL95:
 2421              	.L218:
1876:Drivers/STM32U5xx_HAL_Driver/Src/stm32u5xx_hal_pwr_ex.c **** 
 2422              		.loc 1 1876 7 view .LVU497
1879:Drivers/STM32U5xx_HAL_Driver/Src/stm32u5xx_hal_pwr_ex.c ****       CLEAR_BIT(PWR->CR2, (dummy << PWR_CR2_PRAMPDS_Pos));
 2423              		.loc 1 1879 7 view .LVU498
1880:Drivers/STM32U5xx_HAL_Driver/Src/stm32u5xx_hal_pwr_ex.c **** 
 2424              		.loc 1 1880 7 view .LVU499
 2425 00d6 044A     		ldr	r2, .L230
 2426 00d8 5368     		ldr	r3, [r2, #4]
 2427 00da C002     		lsls	r0, r0, #11
 2428              	.LVL96:
1880:Drivers/STM32U5xx_HAL_Driver/Src/stm32u5xx_hal_pwr_ex.c **** 
 2429              		.loc 1 1880 7 is_stmt 0 view .LVU500
 2430 00dc 00F40060 		and	r0, r0, #2048
 2431 00e0 23EA0003 		bic	r3, r3, r0
 2432 00e4 5360     		str	r3, [r2, #4]
1882:Drivers/STM32U5xx_HAL_Driver/Src/stm32u5xx_hal_pwr_ex.c ****     }
 2433              		.loc 1 1882 7 is_stmt 1 view .LVU501
 2434 00e6 7047     		bx	lr
 2435              	.L231:
 2436              		.align	2
 2437              	.L230:
 2438 00e8 00080246 		.word	1174538240
 2439              		.cfi_endproc
 2440              	.LFE385:
 2442              		.section	.text.HAL_PWREx_DisableRAMsContentStopRetention,"ax",%progbits
 2443              		.align	1
 2444              		.global	HAL_PWREx_DisableRAMsContentStopRetention
 2445              		.syntax unified
 2446              		.thumb
 2447              		.thumb_func
 2449              	HAL_PWREx_DisableRAMsContentStopRetention:
 2450              	.LVL97:
 2451              	.LFB386:
1995:Drivers/STM32U5xx_HAL_Driver/Src/stm32u5xx_hal_pwr_ex.c **** 
1996:Drivers/STM32U5xx_HAL_Driver/Src/stm32u5xx_hal_pwr_ex.c **** /**
1997:Drivers/STM32U5xx_HAL_Driver/Src/stm32u5xx_hal_pwr_ex.c ****   * @brief Disable RAM page(s) content lost in Stop mode (Stop 0, 1, 2, 3).
1998:Drivers/STM32U5xx_HAL_Driver/Src/stm32u5xx_hal_pwr_ex.c ****   * @note  When disabling content lost for a given RAM, memory powered down
1999:Drivers/STM32U5xx_HAL_Driver/Src/stm32u5xx_hal_pwr_ex.c ****   *        in Stop mode. (Optimized power consumption)
2000:Drivers/STM32U5xx_HAL_Driver/Src/stm32u5xx_hal_pwr_ex.c ****   * @param RAMSelection: Specifies RAM page(s) to be lost in Stop mode.
2001:Drivers/STM32U5xx_HAL_Driver/Src/stm32u5xx_hal_pwr_ex.c ****   *                      This parameter can be one or a combination of the same
2002:Drivers/STM32U5xx_HAL_Driver/Src/stm32u5xx_hal_pwr_ex.c ****   *                      memory @ref PWREx_RAM_Contents_Stop_Retention.
2003:Drivers/STM32U5xx_HAL_Driver/Src/stm32u5xx_hal_pwr_ex.c ****   * @retval None.
2004:Drivers/STM32U5xx_HAL_Driver/Src/stm32u5xx_hal_pwr_ex.c ****   */
2005:Drivers/STM32U5xx_HAL_Driver/Src/stm32u5xx_hal_pwr_ex.c **** void HAL_PWREx_DisableRAMsContentStopRetention(uint32_t RAMSelection)
2006:Drivers/STM32U5xx_HAL_Driver/Src/stm32u5xx_hal_pwr_ex.c **** {
 2452              		.loc 1 2006 1 view -0
 2453              		.cfi_startproc
 2454              		@ args = 0, pretend = 0, frame = 0
 2455              		@ frame_needed = 0, uses_anonymous_args = 0
 2456              		@ link register save eliminated.
ARM GAS  C:\Users\Ya\AppData\Local\Temp\ccLrGXJ9.s 			page 82


2007:Drivers/STM32U5xx_HAL_Driver/Src/stm32u5xx_hal_pwr_ex.c ****   uint32_t dummy;
 2457              		.loc 1 2007 3 view .LVU503
2008:Drivers/STM32U5xx_HAL_Driver/Src/stm32u5xx_hal_pwr_ex.c **** 
2009:Drivers/STM32U5xx_HAL_Driver/Src/stm32u5xx_hal_pwr_ex.c ****   /* Check RAM ID */
2010:Drivers/STM32U5xx_HAL_Driver/Src/stm32u5xx_hal_pwr_ex.c ****   switch (RAMSelection & SRAM_ID_MASK)
 2458              		.loc 1 2010 3 view .LVU504
 2459              		.loc 1 2010 24 is_stmt 0 view .LVU505
 2460 0000 030C     		lsrs	r3, r0, #16
 2461 0002 1B04     		lsls	r3, r3, #16
 2462              		.loc 1 2010 3 view .LVU506
 2463 0004 B3F5801F 		cmp	r3, #1048576
 2464 0008 4DD0     		beq	.L233
 2465 000a 0ED9     		bls	.L246
 2466 000c B3F5000F 		cmp	r3, #8388608
 2467 0010 59D0     		beq	.L241
 2468 0012 29D9     		bls	.L247
 2469 0014 B3F1807F 		cmp	r3, #16777216
 2470 0018 35D1     		bne	.L248
2011:Drivers/STM32U5xx_HAL_Driver/Src/stm32u5xx_hal_pwr_ex.c ****   {
2012:Drivers/STM32U5xx_HAL_Driver/Src/stm32u5xx_hal_pwr_ex.c ****     /* SRAM 1 Stop retention */
2013:Drivers/STM32U5xx_HAL_Driver/Src/stm32u5xx_hal_pwr_ex.c ****     case SRAM1_ID:
2014:Drivers/STM32U5xx_HAL_Driver/Src/stm32u5xx_hal_pwr_ex.c ****     {
2015:Drivers/STM32U5xx_HAL_Driver/Src/stm32u5xx_hal_pwr_ex.c ****       /* Check the parameters */
2016:Drivers/STM32U5xx_HAL_Driver/Src/stm32u5xx_hal_pwr_ex.c ****       assert_param(IS_PWR_SRAM1_STOP_RETENTION(RAMSelection));
2017:Drivers/STM32U5xx_HAL_Driver/Src/stm32u5xx_hal_pwr_ex.c **** 
2018:Drivers/STM32U5xx_HAL_Driver/Src/stm32u5xx_hal_pwr_ex.c ****       /* Calculate pages mask */
2019:Drivers/STM32U5xx_HAL_Driver/Src/stm32u5xx_hal_pwr_ex.c ****       dummy   = (RAMSelection & ~SRAM_ID_MASK) & (PAGE01_ID | PAGE02_ID | PAGE03_ID);
2020:Drivers/STM32U5xx_HAL_Driver/Src/stm32u5xx_hal_pwr_ex.c ****       SET_BIT(PWR->CR2, dummy);
2021:Drivers/STM32U5xx_HAL_Driver/Src/stm32u5xx_hal_pwr_ex.c **** #if defined (PWR_CR4_SRAM1PDS4)
2022:Drivers/STM32U5xx_HAL_Driver/Src/stm32u5xx_hal_pwr_ex.c ****       /* Calculate pages mask */
2023:Drivers/STM32U5xx_HAL_Driver/Src/stm32u5xx_hal_pwr_ex.c ****       dummy = ((RAMSelection & ~SRAM_ID_MASK) & ~(PAGE01_ID | PAGE02_ID | PAGE03_ID)) >> 0x03U;
2024:Drivers/STM32U5xx_HAL_Driver/Src/stm32u5xx_hal_pwr_ex.c ****       SET_BIT(PWR->CR4, dummy);
2025:Drivers/STM32U5xx_HAL_Driver/Src/stm32u5xx_hal_pwr_ex.c **** #endif /* defined (PWR_CR4_SRAM1PDS4) */
2026:Drivers/STM32U5xx_HAL_Driver/Src/stm32u5xx_hal_pwr_ex.c **** 
2027:Drivers/STM32U5xx_HAL_Driver/Src/stm32u5xx_hal_pwr_ex.c ****       break;
2028:Drivers/STM32U5xx_HAL_Driver/Src/stm32u5xx_hal_pwr_ex.c ****     }
2029:Drivers/STM32U5xx_HAL_Driver/Src/stm32u5xx_hal_pwr_ex.c **** 
2030:Drivers/STM32U5xx_HAL_Driver/Src/stm32u5xx_hal_pwr_ex.c ****     /* SRAM 2 Stop retention */
2031:Drivers/STM32U5xx_HAL_Driver/Src/stm32u5xx_hal_pwr_ex.c ****     case SRAM2_ID:
2032:Drivers/STM32U5xx_HAL_Driver/Src/stm32u5xx_hal_pwr_ex.c ****     {
2033:Drivers/STM32U5xx_HAL_Driver/Src/stm32u5xx_hal_pwr_ex.c ****       /* Check the parameters */
2034:Drivers/STM32U5xx_HAL_Driver/Src/stm32u5xx_hal_pwr_ex.c ****       assert_param(IS_PWR_SRAM2_STOP_RETENTION(RAMSelection));
2035:Drivers/STM32U5xx_HAL_Driver/Src/stm32u5xx_hal_pwr_ex.c **** 
2036:Drivers/STM32U5xx_HAL_Driver/Src/stm32u5xx_hal_pwr_ex.c ****       /* Calculate pages mask */
2037:Drivers/STM32U5xx_HAL_Driver/Src/stm32u5xx_hal_pwr_ex.c ****       dummy = (RAMSelection & PWR_SRAM2_FULL_STOP) & ~SRAM_ID_MASK;
2038:Drivers/STM32U5xx_HAL_Driver/Src/stm32u5xx_hal_pwr_ex.c ****       SET_BIT(PWR->CR2, (dummy << PWR_CR2_SRAM2PDS1_Pos));
2039:Drivers/STM32U5xx_HAL_Driver/Src/stm32u5xx_hal_pwr_ex.c **** 
2040:Drivers/STM32U5xx_HAL_Driver/Src/stm32u5xx_hal_pwr_ex.c ****       break;
2041:Drivers/STM32U5xx_HAL_Driver/Src/stm32u5xx_hal_pwr_ex.c ****     }
2042:Drivers/STM32U5xx_HAL_Driver/Src/stm32u5xx_hal_pwr_ex.c **** 
2043:Drivers/STM32U5xx_HAL_Driver/Src/stm32u5xx_hal_pwr_ex.c **** #if defined (PWR_CR2_SRAM3PDS1)
2044:Drivers/STM32U5xx_HAL_Driver/Src/stm32u5xx_hal_pwr_ex.c ****     /* SRAM 3 Stop retention */
2045:Drivers/STM32U5xx_HAL_Driver/Src/stm32u5xx_hal_pwr_ex.c ****     case SRAM3_ID:
2046:Drivers/STM32U5xx_HAL_Driver/Src/stm32u5xx_hal_pwr_ex.c ****     {
2047:Drivers/STM32U5xx_HAL_Driver/Src/stm32u5xx_hal_pwr_ex.c ****       /* Check the parameters */
2048:Drivers/STM32U5xx_HAL_Driver/Src/stm32u5xx_hal_pwr_ex.c ****       assert_param(IS_PWR_SRAM3_STOP_RETENTION(RAMSelection));
2049:Drivers/STM32U5xx_HAL_Driver/Src/stm32u5xx_hal_pwr_ex.c **** 
ARM GAS  C:\Users\Ya\AppData\Local\Temp\ccLrGXJ9.s 			page 83


2050:Drivers/STM32U5xx_HAL_Driver/Src/stm32u5xx_hal_pwr_ex.c ****       /* Calculate pages mask */
2051:Drivers/STM32U5xx_HAL_Driver/Src/stm32u5xx_hal_pwr_ex.c ****       dummy = (RAMSelection & ~SRAM_ID_MASK) & (PAGE01_ID | PAGE02_ID | PAGE03_ID | PAGE04_ID |
2052:Drivers/STM32U5xx_HAL_Driver/Src/stm32u5xx_hal_pwr_ex.c ****                                                 PAGE05_ID | PAGE06_ID | PAGE07_ID | PAGE08_ID);
2053:Drivers/STM32U5xx_HAL_Driver/Src/stm32u5xx_hal_pwr_ex.c ****       SET_BIT(PWR->CR2, (dummy << PWR_CR2_SRAM3PDS1_Pos));
2054:Drivers/STM32U5xx_HAL_Driver/Src/stm32u5xx_hal_pwr_ex.c **** 
2055:Drivers/STM32U5xx_HAL_Driver/Src/stm32u5xx_hal_pwr_ex.c **** #if defined (PWR_CR4_SRAM3PDS9)
2056:Drivers/STM32U5xx_HAL_Driver/Src/stm32u5xx_hal_pwr_ex.c ****       /* Calculate pages mask */
2057:Drivers/STM32U5xx_HAL_Driver/Src/stm32u5xx_hal_pwr_ex.c ****       dummy = ((RAMSelection & ~SRAM_ID_MASK) & ~(PAGE01_ID | PAGE02_ID | PAGE03_ID | PAGE04_ID |
2058:Drivers/STM32U5xx_HAL_Driver/Src/stm32u5xx_hal_pwr_ex.c ****                                                   PAGE05_ID | PAGE06_ID | PAGE07_ID | PAGE08_ID)) >
2059:Drivers/STM32U5xx_HAL_Driver/Src/stm32u5xx_hal_pwr_ex.c ****       SET_BIT(PWR->CR4, (dummy << PWR_CR4_SRAM3PDS9_Pos));
2060:Drivers/STM32U5xx_HAL_Driver/Src/stm32u5xx_hal_pwr_ex.c **** #endif /* defined (PWR_CR4_SRAM3PDS9) */
2061:Drivers/STM32U5xx_HAL_Driver/Src/stm32u5xx_hal_pwr_ex.c **** 
2062:Drivers/STM32U5xx_HAL_Driver/Src/stm32u5xx_hal_pwr_ex.c ****       break;
2063:Drivers/STM32U5xx_HAL_Driver/Src/stm32u5xx_hal_pwr_ex.c ****     }
2064:Drivers/STM32U5xx_HAL_Driver/Src/stm32u5xx_hal_pwr_ex.c **** #endif /* PWR_CR2_SRAM3PDS1 */
2065:Drivers/STM32U5xx_HAL_Driver/Src/stm32u5xx_hal_pwr_ex.c **** 
2066:Drivers/STM32U5xx_HAL_Driver/Src/stm32u5xx_hal_pwr_ex.c ****     /* SRAM 4 Stop retention */
2067:Drivers/STM32U5xx_HAL_Driver/Src/stm32u5xx_hal_pwr_ex.c ****     case SRAM4_ID:
2068:Drivers/STM32U5xx_HAL_Driver/Src/stm32u5xx_hal_pwr_ex.c ****     {
2069:Drivers/STM32U5xx_HAL_Driver/Src/stm32u5xx_hal_pwr_ex.c ****       /* Check the parameters */
2070:Drivers/STM32U5xx_HAL_Driver/Src/stm32u5xx_hal_pwr_ex.c ****       assert_param(IS_PWR_SRAM4_STOP_RETENTION(RAMSelection));
2071:Drivers/STM32U5xx_HAL_Driver/Src/stm32u5xx_hal_pwr_ex.c **** 
2072:Drivers/STM32U5xx_HAL_Driver/Src/stm32u5xx_hal_pwr_ex.c ****       /* Calculate pages mask */
2073:Drivers/STM32U5xx_HAL_Driver/Src/stm32u5xx_hal_pwr_ex.c ****       dummy = (RAMSelection & PWR_SRAM4_FULL_STOP) & ~SRAM_ID_MASK;
2074:Drivers/STM32U5xx_HAL_Driver/Src/stm32u5xx_hal_pwr_ex.c ****       SET_BIT(PWR->CR2, (dummy << PWR_CR2_SRAM4PDS_Pos));
2075:Drivers/STM32U5xx_HAL_Driver/Src/stm32u5xx_hal_pwr_ex.c **** 
2076:Drivers/STM32U5xx_HAL_Driver/Src/stm32u5xx_hal_pwr_ex.c ****       break;
2077:Drivers/STM32U5xx_HAL_Driver/Src/stm32u5xx_hal_pwr_ex.c ****     }
2078:Drivers/STM32U5xx_HAL_Driver/Src/stm32u5xx_hal_pwr_ex.c **** 
2079:Drivers/STM32U5xx_HAL_Driver/Src/stm32u5xx_hal_pwr_ex.c ****     /* ICACHE RAM Stop retention */
2080:Drivers/STM32U5xx_HAL_Driver/Src/stm32u5xx_hal_pwr_ex.c ****     case ICACHERAM_ID:
2081:Drivers/STM32U5xx_HAL_Driver/Src/stm32u5xx_hal_pwr_ex.c ****     {
2082:Drivers/STM32U5xx_HAL_Driver/Src/stm32u5xx_hal_pwr_ex.c ****       /* Check the parameters */
2083:Drivers/STM32U5xx_HAL_Driver/Src/stm32u5xx_hal_pwr_ex.c ****       assert_param(IS_PWR_ICACHE_STOP_RETENTION(RAMSelection));
2084:Drivers/STM32U5xx_HAL_Driver/Src/stm32u5xx_hal_pwr_ex.c **** 
2085:Drivers/STM32U5xx_HAL_Driver/Src/stm32u5xx_hal_pwr_ex.c ****       /* Calculate pages mask */
2086:Drivers/STM32U5xx_HAL_Driver/Src/stm32u5xx_hal_pwr_ex.c ****       dummy = (RAMSelection & PWR_ICACHE_FULL_STOP) & ~SRAM_ID_MASK;
2087:Drivers/STM32U5xx_HAL_Driver/Src/stm32u5xx_hal_pwr_ex.c ****       SET_BIT(PWR->CR2, (dummy << PWR_CR2_ICRAMPDS_Pos));
2088:Drivers/STM32U5xx_HAL_Driver/Src/stm32u5xx_hal_pwr_ex.c **** 
2089:Drivers/STM32U5xx_HAL_Driver/Src/stm32u5xx_hal_pwr_ex.c ****       break;
2090:Drivers/STM32U5xx_HAL_Driver/Src/stm32u5xx_hal_pwr_ex.c ****     }
2091:Drivers/STM32U5xx_HAL_Driver/Src/stm32u5xx_hal_pwr_ex.c **** 
2092:Drivers/STM32U5xx_HAL_Driver/Src/stm32u5xx_hal_pwr_ex.c ****     /* DCACHE1 RAM Stop retention */
2093:Drivers/STM32U5xx_HAL_Driver/Src/stm32u5xx_hal_pwr_ex.c ****     case DCACHE1RAM_ID:
2094:Drivers/STM32U5xx_HAL_Driver/Src/stm32u5xx_hal_pwr_ex.c ****     {
2095:Drivers/STM32U5xx_HAL_Driver/Src/stm32u5xx_hal_pwr_ex.c ****       /* Check the parameters */
2096:Drivers/STM32U5xx_HAL_Driver/Src/stm32u5xx_hal_pwr_ex.c ****       assert_param(IS_PWR_DCACHE1_STOP_RETENTION(RAMSelection));
2097:Drivers/STM32U5xx_HAL_Driver/Src/stm32u5xx_hal_pwr_ex.c **** 
2098:Drivers/STM32U5xx_HAL_Driver/Src/stm32u5xx_hal_pwr_ex.c ****       /* Calculate pages mask */
2099:Drivers/STM32U5xx_HAL_Driver/Src/stm32u5xx_hal_pwr_ex.c ****       dummy = (RAMSelection & PWR_DCACHE1_FULL_STOP) & ~SRAM_ID_MASK;
2100:Drivers/STM32U5xx_HAL_Driver/Src/stm32u5xx_hal_pwr_ex.c ****       SET_BIT(PWR->CR2, (dummy << PWR_CR2_DC1RAMPDS_Pos));
2101:Drivers/STM32U5xx_HAL_Driver/Src/stm32u5xx_hal_pwr_ex.c **** 
2102:Drivers/STM32U5xx_HAL_Driver/Src/stm32u5xx_hal_pwr_ex.c ****       break;
2103:Drivers/STM32U5xx_HAL_Driver/Src/stm32u5xx_hal_pwr_ex.c ****     }
2104:Drivers/STM32U5xx_HAL_Driver/Src/stm32u5xx_hal_pwr_ex.c **** 
2105:Drivers/STM32U5xx_HAL_Driver/Src/stm32u5xx_hal_pwr_ex.c **** #if defined (PWR_CR2_DMA2DRAMPDS)
2106:Drivers/STM32U5xx_HAL_Driver/Src/stm32u5xx_hal_pwr_ex.c ****     /* DMA2D RAM Stop retention */
ARM GAS  C:\Users\Ya\AppData\Local\Temp\ccLrGXJ9.s 			page 84


2107:Drivers/STM32U5xx_HAL_Driver/Src/stm32u5xx_hal_pwr_ex.c ****     case DMA2DRAM_ID:
2108:Drivers/STM32U5xx_HAL_Driver/Src/stm32u5xx_hal_pwr_ex.c ****     {
2109:Drivers/STM32U5xx_HAL_Driver/Src/stm32u5xx_hal_pwr_ex.c ****       /* Check the parameters */
2110:Drivers/STM32U5xx_HAL_Driver/Src/stm32u5xx_hal_pwr_ex.c ****       assert_param(IS_PWR_DMA2DRAM_STOP_RETENTION(RAMSelection));
2111:Drivers/STM32U5xx_HAL_Driver/Src/stm32u5xx_hal_pwr_ex.c **** 
2112:Drivers/STM32U5xx_HAL_Driver/Src/stm32u5xx_hal_pwr_ex.c ****       /* Calculate pages mask */
2113:Drivers/STM32U5xx_HAL_Driver/Src/stm32u5xx_hal_pwr_ex.c ****       dummy = (RAMSelection & PWR_DMA2DRAM_FULL_STOP) & ~SRAM_ID_MASK;
2114:Drivers/STM32U5xx_HAL_Driver/Src/stm32u5xx_hal_pwr_ex.c ****       SET_BIT(PWR->CR2, (dummy << PWR_CR2_DMA2DRAMPDS_Pos));
2115:Drivers/STM32U5xx_HAL_Driver/Src/stm32u5xx_hal_pwr_ex.c **** 
2116:Drivers/STM32U5xx_HAL_Driver/Src/stm32u5xx_hal_pwr_ex.c ****       break;
2117:Drivers/STM32U5xx_HAL_Driver/Src/stm32u5xx_hal_pwr_ex.c ****     }
2118:Drivers/STM32U5xx_HAL_Driver/Src/stm32u5xx_hal_pwr_ex.c **** #endif /* PWR_CR2_DMA2DRAMPDS */
2119:Drivers/STM32U5xx_HAL_Driver/Src/stm32u5xx_hal_pwr_ex.c **** 
2120:Drivers/STM32U5xx_HAL_Driver/Src/stm32u5xx_hal_pwr_ex.c ****     /* FMAC, FDCAN and USB RAM Stop retention */
2121:Drivers/STM32U5xx_HAL_Driver/Src/stm32u5xx_hal_pwr_ex.c ****     case PERIPHRAM_ID:
2122:Drivers/STM32U5xx_HAL_Driver/Src/stm32u5xx_hal_pwr_ex.c ****     {
2123:Drivers/STM32U5xx_HAL_Driver/Src/stm32u5xx_hal_pwr_ex.c ****       /* Check the parameters */
2124:Drivers/STM32U5xx_HAL_Driver/Src/stm32u5xx_hal_pwr_ex.c ****       assert_param(IS_PWR_PERIPHRAM_STOP_RETENTION(RAMSelection));
2125:Drivers/STM32U5xx_HAL_Driver/Src/stm32u5xx_hal_pwr_ex.c **** 
2126:Drivers/STM32U5xx_HAL_Driver/Src/stm32u5xx_hal_pwr_ex.c ****       /* Calculate pages mask */
2127:Drivers/STM32U5xx_HAL_Driver/Src/stm32u5xx_hal_pwr_ex.c ****       dummy = (RAMSelection & PWR_PERIPHRAM_FULL_STOP) & ~SRAM_ID_MASK;
2128:Drivers/STM32U5xx_HAL_Driver/Src/stm32u5xx_hal_pwr_ex.c ****       SET_BIT(PWR->CR2, (dummy << PWR_CR2_PRAMPDS_Pos));
2129:Drivers/STM32U5xx_HAL_Driver/Src/stm32u5xx_hal_pwr_ex.c **** 
2130:Drivers/STM32U5xx_HAL_Driver/Src/stm32u5xx_hal_pwr_ex.c ****       break;
2131:Drivers/STM32U5xx_HAL_Driver/Src/stm32u5xx_hal_pwr_ex.c ****     }
2132:Drivers/STM32U5xx_HAL_Driver/Src/stm32u5xx_hal_pwr_ex.c **** 
2133:Drivers/STM32U5xx_HAL_Driver/Src/stm32u5xx_hal_pwr_ex.c ****     /* PKA32 RAM Stop retention */
2134:Drivers/STM32U5xx_HAL_Driver/Src/stm32u5xx_hal_pwr_ex.c ****     case PKARAM_ID:
2135:Drivers/STM32U5xx_HAL_Driver/Src/stm32u5xx_hal_pwr_ex.c ****     {
2136:Drivers/STM32U5xx_HAL_Driver/Src/stm32u5xx_hal_pwr_ex.c ****       /* Check the parameters */
2137:Drivers/STM32U5xx_HAL_Driver/Src/stm32u5xx_hal_pwr_ex.c ****       assert_param(IS_PWR_PKA32RAM_STOP_RETENTION(RAMSelection));
 2471              		.loc 1 2137 7 is_stmt 1 view .LVU507
2138:Drivers/STM32U5xx_HAL_Driver/Src/stm32u5xx_hal_pwr_ex.c **** 
2139:Drivers/STM32U5xx_HAL_Driver/Src/stm32u5xx_hal_pwr_ex.c ****       /* Calculate pages mask */
2140:Drivers/STM32U5xx_HAL_Driver/Src/stm32u5xx_hal_pwr_ex.c ****       dummy = (RAMSelection & PWR_PKA32RAM_FULL_STOP) & ~SRAM_ID_MASK;
 2472              		.loc 1 2140 7 view .LVU508
 2473              	.LVL98:
2141:Drivers/STM32U5xx_HAL_Driver/Src/stm32u5xx_hal_pwr_ex.c ****       SET_BIT(PWR->CR2, (dummy << PWR_CR2_PKARAMPDS_Pos));
 2474              		.loc 1 2141 7 view .LVU509
 2475 001a 2F4A     		ldr	r2, .L253
 2476 001c 5368     		ldr	r3, [r2, #4]
 2477 001e 0003     		lsls	r0, r0, #12
 2478              	.LVL99:
 2479              		.loc 1 2141 7 is_stmt 0 view .LVU510
 2480 0020 00F48050 		and	r0, r0, #4096
 2481 0024 0343     		orrs	r3, r3, r0
 2482 0026 5360     		str	r3, [r2, #4]
2142:Drivers/STM32U5xx_HAL_Driver/Src/stm32u5xx_hal_pwr_ex.c **** 
2143:Drivers/STM32U5xx_HAL_Driver/Src/stm32u5xx_hal_pwr_ex.c ****       break;
 2483              		.loc 1 2143 7 is_stmt 1 view .LVU511
2144:Drivers/STM32U5xx_HAL_Driver/Src/stm32u5xx_hal_pwr_ex.c ****     }
2145:Drivers/STM32U5xx_HAL_Driver/Src/stm32u5xx_hal_pwr_ex.c **** 
2146:Drivers/STM32U5xx_HAL_Driver/Src/stm32u5xx_hal_pwr_ex.c **** #if defined (PWR_CR2_DC2RAMPDS)
2147:Drivers/STM32U5xx_HAL_Driver/Src/stm32u5xx_hal_pwr_ex.c ****     /* DCACHE2 RAM Stop retention */
2148:Drivers/STM32U5xx_HAL_Driver/Src/stm32u5xx_hal_pwr_ex.c ****     case DCACHE2RAM_ID:
2149:Drivers/STM32U5xx_HAL_Driver/Src/stm32u5xx_hal_pwr_ex.c ****     {
2150:Drivers/STM32U5xx_HAL_Driver/Src/stm32u5xx_hal_pwr_ex.c ****       /* Check the parameters */
ARM GAS  C:\Users\Ya\AppData\Local\Temp\ccLrGXJ9.s 			page 85


2151:Drivers/STM32U5xx_HAL_Driver/Src/stm32u5xx_hal_pwr_ex.c ****       assert_param(IS_PWR_DCACHE2_STOP_RETENTION(RAMSelection));
2152:Drivers/STM32U5xx_HAL_Driver/Src/stm32u5xx_hal_pwr_ex.c **** 
2153:Drivers/STM32U5xx_HAL_Driver/Src/stm32u5xx_hal_pwr_ex.c ****       /* Calculate pages mask */
2154:Drivers/STM32U5xx_HAL_Driver/Src/stm32u5xx_hal_pwr_ex.c ****       dummy = (RAMSelection & PWR_DCACHE2_FULL_STOP) & ~SRAM_ID_MASK;
2155:Drivers/STM32U5xx_HAL_Driver/Src/stm32u5xx_hal_pwr_ex.c ****       SET_BIT(PWR->CR2, (dummy << PWR_CR2_DC2RAMPDS_Pos));
2156:Drivers/STM32U5xx_HAL_Driver/Src/stm32u5xx_hal_pwr_ex.c **** 
2157:Drivers/STM32U5xx_HAL_Driver/Src/stm32u5xx_hal_pwr_ex.c ****       break;
2158:Drivers/STM32U5xx_HAL_Driver/Src/stm32u5xx_hal_pwr_ex.c ****     }
2159:Drivers/STM32U5xx_HAL_Driver/Src/stm32u5xx_hal_pwr_ex.c **** #endif /* defined (PWR_CR2_DC2RAMPDS) */
2160:Drivers/STM32U5xx_HAL_Driver/Src/stm32u5xx_hal_pwr_ex.c **** 
2161:Drivers/STM32U5xx_HAL_Driver/Src/stm32u5xx_hal_pwr_ex.c **** #if defined (PWR_CR2_GPRAMPDS)
2162:Drivers/STM32U5xx_HAL_Driver/Src/stm32u5xx_hal_pwr_ex.c ****     /* LTDC and GFXMMU RAM Stop retention */
2163:Drivers/STM32U5xx_HAL_Driver/Src/stm32u5xx_hal_pwr_ex.c ****     case GRAPHIPRAM_ID:
2164:Drivers/STM32U5xx_HAL_Driver/Src/stm32u5xx_hal_pwr_ex.c ****     {
2165:Drivers/STM32U5xx_HAL_Driver/Src/stm32u5xx_hal_pwr_ex.c ****       /* Check the parameters */
2166:Drivers/STM32U5xx_HAL_Driver/Src/stm32u5xx_hal_pwr_ex.c ****       assert_param(IS_PWR_GRAPHICPRAM_STOP_RETENTION(RAMSelection));
2167:Drivers/STM32U5xx_HAL_Driver/Src/stm32u5xx_hal_pwr_ex.c **** 
2168:Drivers/STM32U5xx_HAL_Driver/Src/stm32u5xx_hal_pwr_ex.c ****       /* Calculate pages mask */
2169:Drivers/STM32U5xx_HAL_Driver/Src/stm32u5xx_hal_pwr_ex.c ****       dummy = (RAMSelection & PWR_GRAPHICPRAM_FULL_STOP) & ~SRAM_ID_MASK;
2170:Drivers/STM32U5xx_HAL_Driver/Src/stm32u5xx_hal_pwr_ex.c ****       SET_BIT(PWR->CR2, (dummy << PWR_CR2_GPRAMPDS_Pos));
2171:Drivers/STM32U5xx_HAL_Driver/Src/stm32u5xx_hal_pwr_ex.c **** 
2172:Drivers/STM32U5xx_HAL_Driver/Src/stm32u5xx_hal_pwr_ex.c ****       break;
2173:Drivers/STM32U5xx_HAL_Driver/Src/stm32u5xx_hal_pwr_ex.c ****     }
2174:Drivers/STM32U5xx_HAL_Driver/Src/stm32u5xx_hal_pwr_ex.c **** #endif /* defined (PWR_CR2_GPRAMPDS) */
2175:Drivers/STM32U5xx_HAL_Driver/Src/stm32u5xx_hal_pwr_ex.c **** 
2176:Drivers/STM32U5xx_HAL_Driver/Src/stm32u5xx_hal_pwr_ex.c **** #if defined (PWR_CR2_DSIRAMPDS)
2177:Drivers/STM32U5xx_HAL_Driver/Src/stm32u5xx_hal_pwr_ex.c ****     /* DSI RAM Stop retention */
2178:Drivers/STM32U5xx_HAL_Driver/Src/stm32u5xx_hal_pwr_ex.c ****     case DSIRAM_ID:
2179:Drivers/STM32U5xx_HAL_Driver/Src/stm32u5xx_hal_pwr_ex.c ****     {
2180:Drivers/STM32U5xx_HAL_Driver/Src/stm32u5xx_hal_pwr_ex.c ****       /* Check the parameters */
2181:Drivers/STM32U5xx_HAL_Driver/Src/stm32u5xx_hal_pwr_ex.c ****       assert_param(IS_PWR_DSIRAM_STOP_RETENTION(RAMSelection));
2182:Drivers/STM32U5xx_HAL_Driver/Src/stm32u5xx_hal_pwr_ex.c **** 
2183:Drivers/STM32U5xx_HAL_Driver/Src/stm32u5xx_hal_pwr_ex.c ****       /* Calculate pages mask */
2184:Drivers/STM32U5xx_HAL_Driver/Src/stm32u5xx_hal_pwr_ex.c ****       dummy = (RAMSelection & PWR_DSIRAM_FULL_STOP) & ~SRAM_ID_MASK;
2185:Drivers/STM32U5xx_HAL_Driver/Src/stm32u5xx_hal_pwr_ex.c ****       SET_BIT(PWR->CR2, (dummy << PWR_CR2_DSIRAMPDS_Pos));
2186:Drivers/STM32U5xx_HAL_Driver/Src/stm32u5xx_hal_pwr_ex.c **** 
2187:Drivers/STM32U5xx_HAL_Driver/Src/stm32u5xx_hal_pwr_ex.c ****       break;
2188:Drivers/STM32U5xx_HAL_Driver/Src/stm32u5xx_hal_pwr_ex.c ****     }
2189:Drivers/STM32U5xx_HAL_Driver/Src/stm32u5xx_hal_pwr_ex.c **** #endif /* defined (PWR_CR2_DSIRAMPDS) */
2190:Drivers/STM32U5xx_HAL_Driver/Src/stm32u5xx_hal_pwr_ex.c **** 
2191:Drivers/STM32U5xx_HAL_Driver/Src/stm32u5xx_hal_pwr_ex.c **** #if defined (PWR_CR2_JPEGRAMPDS)
2192:Drivers/STM32U5xx_HAL_Driver/Src/stm32u5xx_hal_pwr_ex.c ****     /* JPEG RAM Stop retention */
2193:Drivers/STM32U5xx_HAL_Driver/Src/stm32u5xx_hal_pwr_ex.c ****     case JPEGRAM_ID:
2194:Drivers/STM32U5xx_HAL_Driver/Src/stm32u5xx_hal_pwr_ex.c ****     {
2195:Drivers/STM32U5xx_HAL_Driver/Src/stm32u5xx_hal_pwr_ex.c ****       /* Check the parameters */
2196:Drivers/STM32U5xx_HAL_Driver/Src/stm32u5xx_hal_pwr_ex.c ****       assert_param(IS_PWR_JPEGRAM_STOP_RETENTION(RAMSelection));
2197:Drivers/STM32U5xx_HAL_Driver/Src/stm32u5xx_hal_pwr_ex.c **** 
2198:Drivers/STM32U5xx_HAL_Driver/Src/stm32u5xx_hal_pwr_ex.c ****       /* Calculate pages mask */
2199:Drivers/STM32U5xx_HAL_Driver/Src/stm32u5xx_hal_pwr_ex.c ****       dummy = (RAMSelection & PWR_JPEGRAM_FULL_STOP) & ~SRAM_ID_MASK;
2200:Drivers/STM32U5xx_HAL_Driver/Src/stm32u5xx_hal_pwr_ex.c ****       SET_BIT(PWR->CR2, (dummy << PWR_CR2_JPEGRAMPDS_Pos));
2201:Drivers/STM32U5xx_HAL_Driver/Src/stm32u5xx_hal_pwr_ex.c **** 
2202:Drivers/STM32U5xx_HAL_Driver/Src/stm32u5xx_hal_pwr_ex.c ****       break;
2203:Drivers/STM32U5xx_HAL_Driver/Src/stm32u5xx_hal_pwr_ex.c ****     }
2204:Drivers/STM32U5xx_HAL_Driver/Src/stm32u5xx_hal_pwr_ex.c **** #endif /* defined (PWR_CR2_JPEGRAMPDS) */
2205:Drivers/STM32U5xx_HAL_Driver/Src/stm32u5xx_hal_pwr_ex.c **** 
2206:Drivers/STM32U5xx_HAL_Driver/Src/stm32u5xx_hal_pwr_ex.c **** #if defined (PWR_CR4_SRAM5PDS1)
2207:Drivers/STM32U5xx_HAL_Driver/Src/stm32u5xx_hal_pwr_ex.c ****     /* SRAM 5 Stop retention */
ARM GAS  C:\Users\Ya\AppData\Local\Temp\ccLrGXJ9.s 			page 86


2208:Drivers/STM32U5xx_HAL_Driver/Src/stm32u5xx_hal_pwr_ex.c ****     case SRAM5_ID:
2209:Drivers/STM32U5xx_HAL_Driver/Src/stm32u5xx_hal_pwr_ex.c ****     {
2210:Drivers/STM32U5xx_HAL_Driver/Src/stm32u5xx_hal_pwr_ex.c ****       /* Check the parameters */
2211:Drivers/STM32U5xx_HAL_Driver/Src/stm32u5xx_hal_pwr_ex.c ****       assert_param(IS_PWR_SRAM5_STOP_RETENTION(RAMSelection));
2212:Drivers/STM32U5xx_HAL_Driver/Src/stm32u5xx_hal_pwr_ex.c **** 
2213:Drivers/STM32U5xx_HAL_Driver/Src/stm32u5xx_hal_pwr_ex.c ****       /* Calculate pages mask */
2214:Drivers/STM32U5xx_HAL_Driver/Src/stm32u5xx_hal_pwr_ex.c ****       dummy = ((RAMSelection & PWR_SRAM5_FULL_STOP) & ~SRAM_ID_MASK);
2215:Drivers/STM32U5xx_HAL_Driver/Src/stm32u5xx_hal_pwr_ex.c ****       SET_BIT(PWR->CR4, (dummy << PWR_CR4_SRAM5PDS1_Pos));
2216:Drivers/STM32U5xx_HAL_Driver/Src/stm32u5xx_hal_pwr_ex.c **** 
2217:Drivers/STM32U5xx_HAL_Driver/Src/stm32u5xx_hal_pwr_ex.c ****       break;
2218:Drivers/STM32U5xx_HAL_Driver/Src/stm32u5xx_hal_pwr_ex.c ****     }
2219:Drivers/STM32U5xx_HAL_Driver/Src/stm32u5xx_hal_pwr_ex.c **** #endif /* defined (PWR_CR4_SRAM5PDS1) */
2220:Drivers/STM32U5xx_HAL_Driver/Src/stm32u5xx_hal_pwr_ex.c **** 
2221:Drivers/STM32U5xx_HAL_Driver/Src/stm32u5xx_hal_pwr_ex.c **** #if defined (PWR_CR5_SRAM6PDS1)
2222:Drivers/STM32U5xx_HAL_Driver/Src/stm32u5xx_hal_pwr_ex.c ****     /* SRAM 6 Stop retention */
2223:Drivers/STM32U5xx_HAL_Driver/Src/stm32u5xx_hal_pwr_ex.c ****     case SRAM6_ID:
2224:Drivers/STM32U5xx_HAL_Driver/Src/stm32u5xx_hal_pwr_ex.c ****     {
2225:Drivers/STM32U5xx_HAL_Driver/Src/stm32u5xx_hal_pwr_ex.c ****       /* Check the parameters */
2226:Drivers/STM32U5xx_HAL_Driver/Src/stm32u5xx_hal_pwr_ex.c ****       assert_param(IS_PWR_SRAM6_STOP_RETENTION(RAMSelection));
2227:Drivers/STM32U5xx_HAL_Driver/Src/stm32u5xx_hal_pwr_ex.c **** 
2228:Drivers/STM32U5xx_HAL_Driver/Src/stm32u5xx_hal_pwr_ex.c ****       /* Calculate pages mask */
2229:Drivers/STM32U5xx_HAL_Driver/Src/stm32u5xx_hal_pwr_ex.c ****       dummy = ((RAMSelection & PWR_SRAM6_FULL_STOP) & ~SRAM_ID_MASK);
2230:Drivers/STM32U5xx_HAL_Driver/Src/stm32u5xx_hal_pwr_ex.c ****       SET_BIT(PWR->CR5, (dummy << PWR_CR5_SRAM6PDS1_Pos));
2231:Drivers/STM32U5xx_HAL_Driver/Src/stm32u5xx_hal_pwr_ex.c **** 
2232:Drivers/STM32U5xx_HAL_Driver/Src/stm32u5xx_hal_pwr_ex.c ****       break;
2233:Drivers/STM32U5xx_HAL_Driver/Src/stm32u5xx_hal_pwr_ex.c ****     }
2234:Drivers/STM32U5xx_HAL_Driver/Src/stm32u5xx_hal_pwr_ex.c **** #endif /* defined (PWR_CR5_SRAM6PDS1) */
2235:Drivers/STM32U5xx_HAL_Driver/Src/stm32u5xx_hal_pwr_ex.c **** 
2236:Drivers/STM32U5xx_HAL_Driver/Src/stm32u5xx_hal_pwr_ex.c ****     default:
2237:Drivers/STM32U5xx_HAL_Driver/Src/stm32u5xx_hal_pwr_ex.c ****     {
2238:Drivers/STM32U5xx_HAL_Driver/Src/stm32u5xx_hal_pwr_ex.c ****       return;
2239:Drivers/STM32U5xx_HAL_Driver/Src/stm32u5xx_hal_pwr_ex.c ****       break;
 2484              		.loc 1 2239 7 view .LVU512
2240:Drivers/STM32U5xx_HAL_Driver/Src/stm32u5xx_hal_pwr_ex.c ****     }
2241:Drivers/STM32U5xx_HAL_Driver/Src/stm32u5xx_hal_pwr_ex.c ****   }
2242:Drivers/STM32U5xx_HAL_Driver/Src/stm32u5xx_hal_pwr_ex.c **** }
 2485              		.loc 1 2242 1 is_stmt 0 view .LVU513
 2486 0028 7047     		bx	lr
 2487              	.LVL100:
 2488              	.L246:
2010:Drivers/STM32U5xx_HAL_Driver/Src/stm32u5xx_hal_pwr_ex.c ****   {
 2489              		.loc 1 2010 3 view .LVU514
 2490 002a B3F5802F 		cmp	r3, #262144
 2491 002e 32D0     		beq	.L235
 2492 0030 0AD9     		bls	.L249
 2493 0032 B3F5002F 		cmp	r3, #524288
 2494 0036 16D1     		bne	.L250
2070:Drivers/STM32U5xx_HAL_Driver/Src/stm32u5xx_hal_pwr_ex.c **** 
 2495              		.loc 1 2070 7 is_stmt 1 view .LVU515
2073:Drivers/STM32U5xx_HAL_Driver/Src/stm32u5xx_hal_pwr_ex.c ****       SET_BIT(PWR->CR2, (dummy << PWR_CR2_SRAM4PDS_Pos));
 2496              		.loc 1 2073 7 view .LVU516
 2497              	.LVL101:
2074:Drivers/STM32U5xx_HAL_Driver/Src/stm32u5xx_hal_pwr_ex.c **** 
 2498              		.loc 1 2074 7 view .LVU517
 2499 0038 274A     		ldr	r2, .L253
 2500 003a 5368     		ldr	r3, [r2, #4]
 2501 003c 8001     		lsls	r0, r0, #6
ARM GAS  C:\Users\Ya\AppData\Local\Temp\ccLrGXJ9.s 			page 87


 2502              	.LVL102:
2074:Drivers/STM32U5xx_HAL_Driver/Src/stm32u5xx_hal_pwr_ex.c **** 
 2503              		.loc 1 2074 7 is_stmt 0 view .LVU518
 2504 003e 00F04000 		and	r0, r0, #64
 2505 0042 0343     		orrs	r3, r3, r0
 2506 0044 5360     		str	r3, [r2, #4]
2076:Drivers/STM32U5xx_HAL_Driver/Src/stm32u5xx_hal_pwr_ex.c ****     }
 2507              		.loc 1 2076 7 is_stmt 1 view .LVU519
 2508 0046 7047     		bx	lr
 2509              	.LVL103:
 2510              	.L249:
2010:Drivers/STM32U5xx_HAL_Driver/Src/stm32u5xx_hal_pwr_ex.c ****   {
 2511              		.loc 1 2010 3 is_stmt 0 view .LVU520
 2512 0048 B3F5803F 		cmp	r3, #65536
 2513 004c 1CD0     		beq	.L237
 2514 004e B3F5003F 		cmp	r3, #131072
 2515 0052 07D1     		bne	.L251
2034:Drivers/STM32U5xx_HAL_Driver/Src/stm32u5xx_hal_pwr_ex.c **** 
 2516              		.loc 1 2034 7 is_stmt 1 view .LVU521
2037:Drivers/STM32U5xx_HAL_Driver/Src/stm32u5xx_hal_pwr_ex.c ****       SET_BIT(PWR->CR2, (dummy << PWR_CR2_SRAM2PDS1_Pos));
 2517              		.loc 1 2037 7 view .LVU522
 2518              	.LVL104:
2038:Drivers/STM32U5xx_HAL_Driver/Src/stm32u5xx_hal_pwr_ex.c **** 
 2519              		.loc 1 2038 7 view .LVU523
 2520 0054 204A     		ldr	r2, .L253
 2521 0056 5368     		ldr	r3, [r2, #4]
 2522 0058 0001     		lsls	r0, r0, #4
 2523              	.LVL105:
2038:Drivers/STM32U5xx_HAL_Driver/Src/stm32u5xx_hal_pwr_ex.c **** 
 2524              		.loc 1 2038 7 is_stmt 0 view .LVU524
 2525 005a 00F03000 		and	r0, r0, #48
 2526 005e 0343     		orrs	r3, r3, r0
 2527 0060 5360     		str	r3, [r2, #4]
2040:Drivers/STM32U5xx_HAL_Driver/Src/stm32u5xx_hal_pwr_ex.c ****     }
 2528              		.loc 1 2040 7 is_stmt 1 view .LVU525
 2529 0062 7047     		bx	lr
 2530              	.LVL106:
 2531              	.L251:
2040:Drivers/STM32U5xx_HAL_Driver/Src/stm32u5xx_hal_pwr_ex.c ****     }
 2532              		.loc 1 2040 7 is_stmt 0 view .LVU526
 2533 0064 7047     		bx	lr
 2534              	.L250:
 2535 0066 7047     		bx	lr
 2536              	.L247:
2010:Drivers/STM32U5xx_HAL_Driver/Src/stm32u5xx_hal_pwr_ex.c ****   {
 2537              		.loc 1 2010 3 view .LVU527
 2538 0068 B3F5001F 		cmp	r3, #2097152
 2539 006c 23D0     		beq	.L243
 2540 006e B3F5800F 		cmp	r3, #4194304
 2541 0072 07D1     		bne	.L252
2110:Drivers/STM32U5xx_HAL_Driver/Src/stm32u5xx_hal_pwr_ex.c **** 
 2542              		.loc 1 2110 7 is_stmt 1 view .LVU528
2113:Drivers/STM32U5xx_HAL_Driver/Src/stm32u5xx_hal_pwr_ex.c ****       SET_BIT(PWR->CR2, (dummy << PWR_CR2_DMA2DRAMPDS_Pos));
 2543              		.loc 1 2113 7 view .LVU529
 2544              	.LVL107:
2114:Drivers/STM32U5xx_HAL_Driver/Src/stm32u5xx_hal_pwr_ex.c **** 
 2545              		.loc 1 2114 7 view .LVU530
ARM GAS  C:\Users\Ya\AppData\Local\Temp\ccLrGXJ9.s 			page 88


 2546 0074 184A     		ldr	r2, .L253
 2547 0076 5368     		ldr	r3, [r2, #4]
 2548 0078 8002     		lsls	r0, r0, #10
 2549              	.LVL108:
2114:Drivers/STM32U5xx_HAL_Driver/Src/stm32u5xx_hal_pwr_ex.c **** 
 2550              		.loc 1 2114 7 is_stmt 0 view .LVU531
 2551 007a 00F48060 		and	r0, r0, #1024
 2552 007e 0343     		orrs	r3, r3, r0
 2553 0080 5360     		str	r3, [r2, #4]
2116:Drivers/STM32U5xx_HAL_Driver/Src/stm32u5xx_hal_pwr_ex.c ****     }
 2554              		.loc 1 2116 7 is_stmt 1 view .LVU532
 2555 0082 7047     		bx	lr
 2556              	.LVL109:
 2557              	.L252:
2116:Drivers/STM32U5xx_HAL_Driver/Src/stm32u5xx_hal_pwr_ex.c ****     }
 2558              		.loc 1 2116 7 is_stmt 0 view .LVU533
 2559 0084 7047     		bx	lr
 2560              	.L248:
 2561 0086 7047     		bx	lr
 2562              	.L237:
2016:Drivers/STM32U5xx_HAL_Driver/Src/stm32u5xx_hal_pwr_ex.c **** 
 2563              		.loc 1 2016 7 is_stmt 1 view .LVU534
2019:Drivers/STM32U5xx_HAL_Driver/Src/stm32u5xx_hal_pwr_ex.c ****       SET_BIT(PWR->CR2, dummy);
 2564              		.loc 1 2019 7 view .LVU535
2019:Drivers/STM32U5xx_HAL_Driver/Src/stm32u5xx_hal_pwr_ex.c ****       SET_BIT(PWR->CR2, dummy);
 2565              		.loc 1 2019 15 is_stmt 0 view .LVU536
 2566 0088 00F00700 		and	r0, r0, #7
 2567              	.LVL110:
2020:Drivers/STM32U5xx_HAL_Driver/Src/stm32u5xx_hal_pwr_ex.c **** #if defined (PWR_CR4_SRAM1PDS4)
 2568              		.loc 1 2020 7 is_stmt 1 view .LVU537
 2569 008c 124A     		ldr	r2, .L253
 2570 008e 5368     		ldr	r3, [r2, #4]
 2571 0090 0343     		orrs	r3, r3, r0
 2572 0092 5360     		str	r3, [r2, #4]
2027:Drivers/STM32U5xx_HAL_Driver/Src/stm32u5xx_hal_pwr_ex.c ****     }
 2573              		.loc 1 2027 7 view .LVU538
 2574 0094 7047     		bx	lr
 2575              	.LVL111:
 2576              	.L235:
2048:Drivers/STM32U5xx_HAL_Driver/Src/stm32u5xx_hal_pwr_ex.c **** 
 2577              		.loc 1 2048 7 view .LVU539
2051:Drivers/STM32U5xx_HAL_Driver/Src/stm32u5xx_hal_pwr_ex.c ****                                                 PAGE05_ID | PAGE06_ID | PAGE07_ID | PAGE08_ID);
 2578              		.loc 1 2051 7 view .LVU540
2053:Drivers/STM32U5xx_HAL_Driver/Src/stm32u5xx_hal_pwr_ex.c **** 
 2579              		.loc 1 2053 7 view .LVU541
 2580 0096 104A     		ldr	r2, .L253
 2581 0098 5368     		ldr	r3, [r2, #4]
 2582 009a 0004     		lsls	r0, r0, #16
 2583              	.LVL112:
2053:Drivers/STM32U5xx_HAL_Driver/Src/stm32u5xx_hal_pwr_ex.c **** 
 2584              		.loc 1 2053 7 is_stmt 0 view .LVU542
 2585 009c 00F47F00 		and	r0, r0, #16711680
 2586 00a0 0343     		orrs	r3, r3, r0
 2587 00a2 5360     		str	r3, [r2, #4]
2062:Drivers/STM32U5xx_HAL_Driver/Src/stm32u5xx_hal_pwr_ex.c ****     }
 2588              		.loc 1 2062 7 is_stmt 1 view .LVU543
 2589 00a4 7047     		bx	lr
ARM GAS  C:\Users\Ya\AppData\Local\Temp\ccLrGXJ9.s 			page 89


 2590              	.LVL113:
 2591              	.L233:
2083:Drivers/STM32U5xx_HAL_Driver/Src/stm32u5xx_hal_pwr_ex.c **** 
 2592              		.loc 1 2083 7 view .LVU544
2086:Drivers/STM32U5xx_HAL_Driver/Src/stm32u5xx_hal_pwr_ex.c ****       SET_BIT(PWR->CR2, (dummy << PWR_CR2_ICRAMPDS_Pos));
 2593              		.loc 1 2086 7 view .LVU545
2087:Drivers/STM32U5xx_HAL_Driver/Src/stm32u5xx_hal_pwr_ex.c **** 
 2594              		.loc 1 2087 7 view .LVU546
 2595 00a6 0C4A     		ldr	r2, .L253
 2596 00a8 5368     		ldr	r3, [r2, #4]
 2597 00aa 0002     		lsls	r0, r0, #8
 2598              	.LVL114:
2087:Drivers/STM32U5xx_HAL_Driver/Src/stm32u5xx_hal_pwr_ex.c **** 
 2599              		.loc 1 2087 7 is_stmt 0 view .LVU547
 2600 00ac 00F48070 		and	r0, r0, #256
 2601 00b0 0343     		orrs	r3, r3, r0
 2602 00b2 5360     		str	r3, [r2, #4]
2089:Drivers/STM32U5xx_HAL_Driver/Src/stm32u5xx_hal_pwr_ex.c ****     }
 2603              		.loc 1 2089 7 is_stmt 1 view .LVU548
 2604 00b4 7047     		bx	lr
 2605              	.LVL115:
 2606              	.L243:
2096:Drivers/STM32U5xx_HAL_Driver/Src/stm32u5xx_hal_pwr_ex.c **** 
 2607              		.loc 1 2096 7 view .LVU549
2099:Drivers/STM32U5xx_HAL_Driver/Src/stm32u5xx_hal_pwr_ex.c ****       SET_BIT(PWR->CR2, (dummy << PWR_CR2_DC1RAMPDS_Pos));
 2608              		.loc 1 2099 7 view .LVU550
2100:Drivers/STM32U5xx_HAL_Driver/Src/stm32u5xx_hal_pwr_ex.c **** 
 2609              		.loc 1 2100 7 view .LVU551
 2610 00b6 084A     		ldr	r2, .L253
 2611 00b8 5368     		ldr	r3, [r2, #4]
 2612 00ba 4002     		lsls	r0, r0, #9
 2613              	.LVL116:
2100:Drivers/STM32U5xx_HAL_Driver/Src/stm32u5xx_hal_pwr_ex.c **** 
 2614              		.loc 1 2100 7 is_stmt 0 view .LVU552
 2615 00bc 00F40070 		and	r0, r0, #512
 2616 00c0 0343     		orrs	r3, r3, r0
 2617 00c2 5360     		str	r3, [r2, #4]
2102:Drivers/STM32U5xx_HAL_Driver/Src/stm32u5xx_hal_pwr_ex.c ****     }
 2618              		.loc 1 2102 7 is_stmt 1 view .LVU553
 2619 00c4 7047     		bx	lr
 2620              	.LVL117:
 2621              	.L241:
2124:Drivers/STM32U5xx_HAL_Driver/Src/stm32u5xx_hal_pwr_ex.c **** 
 2622              		.loc 1 2124 7 view .LVU554
2127:Drivers/STM32U5xx_HAL_Driver/Src/stm32u5xx_hal_pwr_ex.c ****       SET_BIT(PWR->CR2, (dummy << PWR_CR2_PRAMPDS_Pos));
 2623              		.loc 1 2127 7 view .LVU555
2128:Drivers/STM32U5xx_HAL_Driver/Src/stm32u5xx_hal_pwr_ex.c **** 
 2624              		.loc 1 2128 7 view .LVU556
 2625 00c6 044A     		ldr	r2, .L253
 2626 00c8 5368     		ldr	r3, [r2, #4]
 2627 00ca C002     		lsls	r0, r0, #11
 2628              	.LVL118:
2128:Drivers/STM32U5xx_HAL_Driver/Src/stm32u5xx_hal_pwr_ex.c **** 
 2629              		.loc 1 2128 7 is_stmt 0 view .LVU557
 2630 00cc 00F40060 		and	r0, r0, #2048
 2631 00d0 0343     		orrs	r3, r3, r0
 2632 00d2 5360     		str	r3, [r2, #4]
ARM GAS  C:\Users\Ya\AppData\Local\Temp\ccLrGXJ9.s 			page 90


2130:Drivers/STM32U5xx_HAL_Driver/Src/stm32u5xx_hal_pwr_ex.c ****     }
 2633              		.loc 1 2130 7 is_stmt 1 view .LVU558
 2634 00d4 7047     		bx	lr
 2635              	.L254:
 2636 00d6 00BF     		.align	2
 2637              	.L253:
 2638 00d8 00080246 		.word	1174538240
 2639              		.cfi_endproc
 2640              	.LFE386:
 2642              		.section	.text.HAL_PWREx_EnableRAMsContentRunRetention,"ax",%progbits
 2643              		.align	1
 2644              		.global	HAL_PWREx_EnableRAMsContentRunRetention
 2645              		.syntax unified
 2646              		.thumb
 2647              		.thumb_func
 2649              	HAL_PWREx_EnableRAMsContentRunRetention:
 2650              	.LVL119:
 2651              	.LFB387:
2243:Drivers/STM32U5xx_HAL_Driver/Src/stm32u5xx_hal_pwr_ex.c **** 
2244:Drivers/STM32U5xx_HAL_Driver/Src/stm32u5xx_hal_pwr_ex.c **** /**
2245:Drivers/STM32U5xx_HAL_Driver/Src/stm32u5xx_hal_pwr_ex.c ****   * @brief  Enable RAMs full content retention in Run mode.
2246:Drivers/STM32U5xx_HAL_Driver/Src/stm32u5xx_hal_pwr_ex.c ****   * @param  RAMSelection : Specifies the SRAM content to be retained in Run mode.
2247:Drivers/STM32U5xx_HAL_Driver/Src/stm32u5xx_hal_pwr_ex.c ****   *                        This parameter can be one or a combination of the following values :
2248:Drivers/STM32U5xx_HAL_Driver/Src/stm32u5xx_hal_pwr_ex.c ****   *                        @arg PWR_SRAM1_FULL_RUN : SRAM1 full content retention.
2249:Drivers/STM32U5xx_HAL_Driver/Src/stm32u5xx_hal_pwr_ex.c ****   *                        @arg PWR_SRAM2_FULL_RUN : SRAM2 full content retention.
2250:Drivers/STM32U5xx_HAL_Driver/Src/stm32u5xx_hal_pwr_ex.c ****   *                        @arg PWR_SRAM3_FULL_RUN : SRAM3 full content retention (available only f
2251:Drivers/STM32U5xx_HAL_Driver/Src/stm32u5xx_hal_pwr_ex.c ****   *                                                             STM32U585xx STM32U59xxx, STM32U5Axx
2252:Drivers/STM32U5xx_HAL_Driver/Src/stm32u5xx_hal_pwr_ex.c ****                                                                 and STM32U5Gxxx devices).
2253:Drivers/STM32U5xx_HAL_Driver/Src/stm32u5xx_hal_pwr_ex.c ****   *                        @arg PWR_SRAM4_FULL_RUN : SRAM4 full content retention.
2254:Drivers/STM32U5xx_HAL_Driver/Src/stm32u5xx_hal_pwr_ex.c ****   *                        @arg PWR_SRAM5_FULL_RUN : SRAM5 full content retention (available only f
2255:Drivers/STM32U5xx_HAL_Driver/Src/stm32u5xx_hal_pwr_ex.c ****   *                                                            STM32U59xxx, STM32U5Axxx, STM32U5Fxx
2256:Drivers/STM32U5xx_HAL_Driver/Src/stm32u5xx_hal_pwr_ex.c ****   *                                                            and STM32U5Gxxx devices).
2257:Drivers/STM32U5xx_HAL_Driver/Src/stm32u5xx_hal_pwr_ex.c ****   *                        @arg PWR_SRAM6_FULL_RUN : SRAM6 full content retention (available only f
2258:Drivers/STM32U5xx_HAL_Driver/Src/stm32u5xx_hal_pwr_ex.c ****   *                                                            STM32U5Fxxx and STM32U5Gxxx devices)
2259:Drivers/STM32U5xx_HAL_Driver/Src/stm32u5xx_hal_pwr_ex.c ****   * @retval None.
2260:Drivers/STM32U5xx_HAL_Driver/Src/stm32u5xx_hal_pwr_ex.c ****   */
2261:Drivers/STM32U5xx_HAL_Driver/Src/stm32u5xx_hal_pwr_ex.c **** void HAL_PWREx_EnableRAMsContentRunRetention(uint32_t RAMSelection)
2262:Drivers/STM32U5xx_HAL_Driver/Src/stm32u5xx_hal_pwr_ex.c **** {
 2652              		.loc 1 2262 1 view -0
 2653              		.cfi_startproc
 2654              		@ args = 0, pretend = 0, frame = 0
 2655              		@ frame_needed = 0, uses_anonymous_args = 0
 2656              		@ link register save eliminated.
2263:Drivers/STM32U5xx_HAL_Driver/Src/stm32u5xx_hal_pwr_ex.c ****   /* Check the parameters */
2264:Drivers/STM32U5xx_HAL_Driver/Src/stm32u5xx_hal_pwr_ex.c ****   assert_param(IS_PWR_RAM_RUN_RETENTION(RAMSelection));
 2657              		.loc 1 2264 3 view .LVU560
2265:Drivers/STM32U5xx_HAL_Driver/Src/stm32u5xx_hal_pwr_ex.c **** 
2266:Drivers/STM32U5xx_HAL_Driver/Src/stm32u5xx_hal_pwr_ex.c ****   /* Enable RAM retention in Run mode */
2267:Drivers/STM32U5xx_HAL_Driver/Src/stm32u5xx_hal_pwr_ex.c ****   CLEAR_BIT(PWR->CR1, RAMSelection);
 2658              		.loc 1 2267 3 view .LVU561
 2659 0000 024A     		ldr	r2, .L256
 2660 0002 1368     		ldr	r3, [r2]
 2661 0004 23EA0003 		bic	r3, r3, r0
 2662 0008 1360     		str	r3, [r2]
2268:Drivers/STM32U5xx_HAL_Driver/Src/stm32u5xx_hal_pwr_ex.c **** }
 2663              		.loc 1 2268 1 is_stmt 0 view .LVU562
 2664 000a 7047     		bx	lr
ARM GAS  C:\Users\Ya\AppData\Local\Temp\ccLrGXJ9.s 			page 91


 2665              	.L257:
 2666              		.align	2
 2667              	.L256:
 2668 000c 00080246 		.word	1174538240
 2669              		.cfi_endproc
 2670              	.LFE387:
 2672              		.section	.text.HAL_PWREx_DisableRAMsContentRunRetention,"ax",%progbits
 2673              		.align	1
 2674              		.global	HAL_PWREx_DisableRAMsContentRunRetention
 2675              		.syntax unified
 2676              		.thumb
 2677              		.thumb_func
 2679              	HAL_PWREx_DisableRAMsContentRunRetention:
 2680              	.LVL120:
 2681              	.LFB388:
2269:Drivers/STM32U5xx_HAL_Driver/Src/stm32u5xx_hal_pwr_ex.c **** 
2270:Drivers/STM32U5xx_HAL_Driver/Src/stm32u5xx_hal_pwr_ex.c **** /**
2271:Drivers/STM32U5xx_HAL_Driver/Src/stm32u5xx_hal_pwr_ex.c ****   * @brief  Disable RAMs full content retention in Run mode.
2272:Drivers/STM32U5xx_HAL_Driver/Src/stm32u5xx_hal_pwr_ex.c ****   * @param  RAMSelection : Specifies the SRAM content to be lost in Run mode.
2273:Drivers/STM32U5xx_HAL_Driver/Src/stm32u5xx_hal_pwr_ex.c ****   *                        This parameter can be one or a combination of the following values :
2274:Drivers/STM32U5xx_HAL_Driver/Src/stm32u5xx_hal_pwr_ex.c ****   *                        @arg PWR_SRAM1_FULL_RUN : SRAM1 full content lost.
2275:Drivers/STM32U5xx_HAL_Driver/Src/stm32u5xx_hal_pwr_ex.c ****   *                        @arg PWR_SRAM2_FULL_RUN : SRAM2 full content lost.
2276:Drivers/STM32U5xx_HAL_Driver/Src/stm32u5xx_hal_pwr_ex.c ****   *                        @arg PWR_SRAM3_FULL_RUN : SRAM3 full content lost (available only for ST
2277:Drivers/STM32U5xx_HAL_Driver/Src/stm32u5xx_hal_pwr_ex.c ****   *                                                             STM32U585xx STM32U59xxx, STM32U5Axx
2278:Drivers/STM32U5xx_HAL_Driver/Src/stm32u5xx_hal_pwr_ex.c ****                                                                 and STM32U5Gxxx devices).
2279:Drivers/STM32U5xx_HAL_Driver/Src/stm32u5xx_hal_pwr_ex.c ****   *                        @arg PWR_SRAM4_FULL_RUN : SRAM4 full content lost.
2280:Drivers/STM32U5xx_HAL_Driver/Src/stm32u5xx_hal_pwr_ex.c ****   *                        @arg PWR_SRAM5_FULL_RUN : SRAM5 full content retention (available only f
2281:Drivers/STM32U5xx_HAL_Driver/Src/stm32u5xx_hal_pwr_ex.c ****   *                                                            STM32U59xxx, STM32U5Axxx, STM32U5Fxx
2282:Drivers/STM32U5xx_HAL_Driver/Src/stm32u5xx_hal_pwr_ex.c ****   *                                                            and STM32U5Gxxx devices).
2283:Drivers/STM32U5xx_HAL_Driver/Src/stm32u5xx_hal_pwr_ex.c ****   *                        @arg PWR_SRAM6_FULL_RUN : SRAM6 full content retention (available only f
2284:Drivers/STM32U5xx_HAL_Driver/Src/stm32u5xx_hal_pwr_ex.c ****   *                                                            STM32U5Fxxx and STM32U5Gxxx devices)
2285:Drivers/STM32U5xx_HAL_Driver/Src/stm32u5xx_hal_pwr_ex.c ****   * @retval None.
2286:Drivers/STM32U5xx_HAL_Driver/Src/stm32u5xx_hal_pwr_ex.c ****   */
2287:Drivers/STM32U5xx_HAL_Driver/Src/stm32u5xx_hal_pwr_ex.c **** void HAL_PWREx_DisableRAMsContentRunRetention(uint32_t RAMSelection)
2288:Drivers/STM32U5xx_HAL_Driver/Src/stm32u5xx_hal_pwr_ex.c **** {
 2682              		.loc 1 2288 1 is_stmt 1 view -0
 2683              		.cfi_startproc
 2684              		@ args = 0, pretend = 0, frame = 0
 2685              		@ frame_needed = 0, uses_anonymous_args = 0
 2686              		@ link register save eliminated.
2289:Drivers/STM32U5xx_HAL_Driver/Src/stm32u5xx_hal_pwr_ex.c ****   /* Check the parameters */
2290:Drivers/STM32U5xx_HAL_Driver/Src/stm32u5xx_hal_pwr_ex.c ****   assert_param(IS_PWR_RAM_RUN_RETENTION(RAMSelection));
 2687              		.loc 1 2290 3 view .LVU564
2291:Drivers/STM32U5xx_HAL_Driver/Src/stm32u5xx_hal_pwr_ex.c **** 
2292:Drivers/STM32U5xx_HAL_Driver/Src/stm32u5xx_hal_pwr_ex.c ****   /* Disable RAM retention in Run mode */
2293:Drivers/STM32U5xx_HAL_Driver/Src/stm32u5xx_hal_pwr_ex.c ****   SET_BIT(PWR->CR1, RAMSelection);
 2688              		.loc 1 2293 3 view .LVU565
 2689 0000 024A     		ldr	r2, .L259
 2690 0002 1368     		ldr	r3, [r2]
 2691 0004 0343     		orrs	r3, r3, r0
 2692 0006 1360     		str	r3, [r2]
2294:Drivers/STM32U5xx_HAL_Driver/Src/stm32u5xx_hal_pwr_ex.c **** }
 2693              		.loc 1 2294 1 is_stmt 0 view .LVU566
 2694 0008 7047     		bx	lr
 2695              	.L260:
 2696 000a 00BF     		.align	2
 2697              	.L259:
ARM GAS  C:\Users\Ya\AppData\Local\Temp\ccLrGXJ9.s 			page 92


 2698 000c 00080246 		.word	1174538240
 2699              		.cfi_endproc
 2700              	.LFE388:
 2702              		.section	.text.HAL_PWREx_EnableBkupRAMRetention,"ax",%progbits
 2703              		.align	1
 2704              		.global	HAL_PWREx_EnableBkupRAMRetention
 2705              		.syntax unified
 2706              		.thumb
 2707              		.thumb_func
 2709              	HAL_PWREx_EnableBkupRAMRetention:
 2710              	.LFB389:
2295:Drivers/STM32U5xx_HAL_Driver/Src/stm32u5xx_hal_pwr_ex.c **** 
2296:Drivers/STM32U5xx_HAL_Driver/Src/stm32u5xx_hal_pwr_ex.c **** /**
2297:Drivers/STM32U5xx_HAL_Driver/Src/stm32u5xx_hal_pwr_ex.c ****   * @brief  Enable the Backup RAM retention in Standby, Shutdown and VBAT modes.
2298:Drivers/STM32U5xx_HAL_Driver/Src/stm32u5xx_hal_pwr_ex.c ****   * @note   If BREN is reset, the backup RAM can still be used in Run, Sleep and
2299:Drivers/STM32U5xx_HAL_Driver/Src/stm32u5xx_hal_pwr_ex.c ****   *         Stop modes. However, its content is lost in Standby, Shutdown and
2300:Drivers/STM32U5xx_HAL_Driver/Src/stm32u5xx_hal_pwr_ex.c ****   *         VBAT modes.
2301:Drivers/STM32U5xx_HAL_Driver/Src/stm32u5xx_hal_pwr_ex.c ****   * @note   This bit can be enabled only when LDO regulator is selected as
2302:Drivers/STM32U5xx_HAL_Driver/Src/stm32u5xx_hal_pwr_ex.c ****   *         source supply.
2303:Drivers/STM32U5xx_HAL_Driver/Src/stm32u5xx_hal_pwr_ex.c ****   * @retval HAL Status.
2304:Drivers/STM32U5xx_HAL_Driver/Src/stm32u5xx_hal_pwr_ex.c ****   */
2305:Drivers/STM32U5xx_HAL_Driver/Src/stm32u5xx_hal_pwr_ex.c **** HAL_StatusTypeDef HAL_PWREx_EnableBkupRAMRetention(void)
2306:Drivers/STM32U5xx_HAL_Driver/Src/stm32u5xx_hal_pwr_ex.c **** {
 2711              		.loc 1 2306 1 is_stmt 1 view -0
 2712              		.cfi_startproc
 2713              		@ args = 0, pretend = 0, frame = 0
 2714              		@ frame_needed = 0, uses_anonymous_args = 0
 2715 0000 08B5     		push	{r3, lr}
 2716              		.cfi_def_cfa_offset 8
 2717              		.cfi_offset 3, -8
 2718              		.cfi_offset 14, -4
2307:Drivers/STM32U5xx_HAL_Driver/Src/stm32u5xx_hal_pwr_ex.c ****   /*
2308:Drivers/STM32U5xx_HAL_Driver/Src/stm32u5xx_hal_pwr_ex.c ****     Backup RAM retention in Standby, Shutdown and VBAT should be enabled
2309:Drivers/STM32U5xx_HAL_Driver/Src/stm32u5xx_hal_pwr_ex.c ****     when the Vcore is alimented by the LDO regulator
2310:Drivers/STM32U5xx_HAL_Driver/Src/stm32u5xx_hal_pwr_ex.c ****   */
2311:Drivers/STM32U5xx_HAL_Driver/Src/stm32u5xx_hal_pwr_ex.c ****   if (HAL_PWREx_GetSupplyConfig() == PWR_LDO_SUPPLY)
 2719              		.loc 1 2311 3 view .LVU568
 2720              		.loc 1 2311 7 is_stmt 0 view .LVU569
 2721 0002 FFF7FEFF 		bl	HAL_PWREx_GetSupplyConfig
 2722              	.LVL121:
 2723              		.loc 1 2311 6 view .LVU570
 2724 0006 28B9     		cbnz	r0, .L263
2312:Drivers/STM32U5xx_HAL_Driver/Src/stm32u5xx_hal_pwr_ex.c ****   {
2313:Drivers/STM32U5xx_HAL_Driver/Src/stm32u5xx_hal_pwr_ex.c ****     SET_BIT(PWR->BDCR1, PWR_BDCR1_BREN);
 2725              		.loc 1 2313 5 is_stmt 1 view .LVU571
 2726 0008 034A     		ldr	r2, .L265
 2727 000a 136A     		ldr	r3, [r2, #32]
 2728 000c 43F00103 		orr	r3, r3, #1
 2729 0010 1362     		str	r3, [r2, #32]
2314:Drivers/STM32U5xx_HAL_Driver/Src/stm32u5xx_hal_pwr_ex.c ****   }
2315:Drivers/STM32U5xx_HAL_Driver/Src/stm32u5xx_hal_pwr_ex.c ****   /* SMPS regulator selected */
2316:Drivers/STM32U5xx_HAL_Driver/Src/stm32u5xx_hal_pwr_ex.c ****   else
2317:Drivers/STM32U5xx_HAL_Driver/Src/stm32u5xx_hal_pwr_ex.c ****   {
2318:Drivers/STM32U5xx_HAL_Driver/Src/stm32u5xx_hal_pwr_ex.c ****     return HAL_ERROR;
2319:Drivers/STM32U5xx_HAL_Driver/Src/stm32u5xx_hal_pwr_ex.c ****   }
2320:Drivers/STM32U5xx_HAL_Driver/Src/stm32u5xx_hal_pwr_ex.c **** 
2321:Drivers/STM32U5xx_HAL_Driver/Src/stm32u5xx_hal_pwr_ex.c ****   return HAL_OK;
ARM GAS  C:\Users\Ya\AppData\Local\Temp\ccLrGXJ9.s 			page 93


 2730              		.loc 1 2321 3 view .LVU572
 2731              	.L262:
2322:Drivers/STM32U5xx_HAL_Driver/Src/stm32u5xx_hal_pwr_ex.c **** }
 2732              		.loc 1 2322 1 is_stmt 0 view .LVU573
 2733 0012 08BD     		pop	{r3, pc}
 2734              	.L263:
2318:Drivers/STM32U5xx_HAL_Driver/Src/stm32u5xx_hal_pwr_ex.c ****   }
 2735              		.loc 1 2318 12 view .LVU574
 2736 0014 0120     		movs	r0, #1
 2737 0016 FCE7     		b	.L262
 2738              	.L266:
 2739              		.align	2
 2740              	.L265:
 2741 0018 00080246 		.word	1174538240
 2742              		.cfi_endproc
 2743              	.LFE389:
 2745              		.section	.text.HAL_PWREx_DisableBkupRAMRetention,"ax",%progbits
 2746              		.align	1
 2747              		.global	HAL_PWREx_DisableBkupRAMRetention
 2748              		.syntax unified
 2749              		.thumb
 2750              		.thumb_func
 2752              	HAL_PWREx_DisableBkupRAMRetention:
 2753              	.LFB390:
2323:Drivers/STM32U5xx_HAL_Driver/Src/stm32u5xx_hal_pwr_ex.c **** 
2324:Drivers/STM32U5xx_HAL_Driver/Src/stm32u5xx_hal_pwr_ex.c **** /**
2325:Drivers/STM32U5xx_HAL_Driver/Src/stm32u5xx_hal_pwr_ex.c ****   * @brief  Disable the Backup RAM retention in Standby, Shutdown and VBAT modes.
2326:Drivers/STM32U5xx_HAL_Driver/Src/stm32u5xx_hal_pwr_ex.c ****   * @note   If BREN is reset, the backup RAM can still be used in Run, Sleep and
2327:Drivers/STM32U5xx_HAL_Driver/Src/stm32u5xx_hal_pwr_ex.c ****   *         Stop modes. However, its content is lost in Standby, Shutdown and
2328:Drivers/STM32U5xx_HAL_Driver/Src/stm32u5xx_hal_pwr_ex.c ****   *         VBAT modes. This bit can be writte
2329:Drivers/STM32U5xx_HAL_Driver/Src/stm32u5xx_hal_pwr_ex.c ****   * @retval None.
2330:Drivers/STM32U5xx_HAL_Driver/Src/stm32u5xx_hal_pwr_ex.c ****   */
2331:Drivers/STM32U5xx_HAL_Driver/Src/stm32u5xx_hal_pwr_ex.c **** void HAL_PWREx_DisableBkupRAMRetention(void)
2332:Drivers/STM32U5xx_HAL_Driver/Src/stm32u5xx_hal_pwr_ex.c **** {
 2754              		.loc 1 2332 1 is_stmt 1 view -0
 2755              		.cfi_startproc
 2756              		@ args = 0, pretend = 0, frame = 0
 2757              		@ frame_needed = 0, uses_anonymous_args = 0
 2758              		@ link register save eliminated.
2333:Drivers/STM32U5xx_HAL_Driver/Src/stm32u5xx_hal_pwr_ex.c ****   CLEAR_BIT(PWR->BDCR1, PWR_BDCR1_BREN);
 2759              		.loc 1 2333 3 view .LVU576
 2760 0000 024A     		ldr	r2, .L268
 2761 0002 136A     		ldr	r3, [r2, #32]
 2762 0004 23F00103 		bic	r3, r3, #1
 2763 0008 1362     		str	r3, [r2, #32]
2334:Drivers/STM32U5xx_HAL_Driver/Src/stm32u5xx_hal_pwr_ex.c **** }
 2764              		.loc 1 2334 1 is_stmt 0 view .LVU577
 2765 000a 7047     		bx	lr
 2766              	.L269:
 2767              		.align	2
 2768              	.L268:
 2769 000c 00080246 		.word	1174538240
 2770              		.cfi_endproc
 2771              	.LFE390:
 2773              		.section	.text.HAL_PWREx_EnableFlashFastWakeUp,"ax",%progbits
 2774              		.align	1
 2775              		.global	HAL_PWREx_EnableFlashFastWakeUp
ARM GAS  C:\Users\Ya\AppData\Local\Temp\ccLrGXJ9.s 			page 94


 2776              		.syntax unified
 2777              		.thumb
 2778              		.thumb_func
 2780              	HAL_PWREx_EnableFlashFastWakeUp:
 2781              	.LFB391:
2335:Drivers/STM32U5xx_HAL_Driver/Src/stm32u5xx_hal_pwr_ex.c **** 
2336:Drivers/STM32U5xx_HAL_Driver/Src/stm32u5xx_hal_pwr_ex.c **** /**
2337:Drivers/STM32U5xx_HAL_Driver/Src/stm32u5xx_hal_pwr_ex.c ****   * @brief  Enable the flash memory fast wakeup from Stop 0 and Stop 1 modes.
2338:Drivers/STM32U5xx_HAL_Driver/Src/stm32u5xx_hal_pwr_ex.c ****   * @note   This feature is used to obtain the best trade-off between low-power
2339:Drivers/STM32U5xx_HAL_Driver/Src/stm32u5xx_hal_pwr_ex.c ****   *         consumption and wakeup time when exiting the Stop 0 or Stop 1 modes.
2340:Drivers/STM32U5xx_HAL_Driver/Src/stm32u5xx_hal_pwr_ex.c ****   *         When this feature is enabled, the Flash memory remains in normal
2341:Drivers/STM32U5xx_HAL_Driver/Src/stm32u5xx_hal_pwr_ex.c ****   *         mode in Stop 0 and Stop 1 modes, which offers a faster startup time
2342:Drivers/STM32U5xx_HAL_Driver/Src/stm32u5xx_hal_pwr_ex.c ****   *         with higher consumption.
2343:Drivers/STM32U5xx_HAL_Driver/Src/stm32u5xx_hal_pwr_ex.c ****   * @retval None.
2344:Drivers/STM32U5xx_HAL_Driver/Src/stm32u5xx_hal_pwr_ex.c ****   */
2345:Drivers/STM32U5xx_HAL_Driver/Src/stm32u5xx_hal_pwr_ex.c **** void HAL_PWREx_EnableFlashFastWakeUp(void)
2346:Drivers/STM32U5xx_HAL_Driver/Src/stm32u5xx_hal_pwr_ex.c **** {
 2782              		.loc 1 2346 1 is_stmt 1 view -0
 2783              		.cfi_startproc
 2784              		@ args = 0, pretend = 0, frame = 0
 2785              		@ frame_needed = 0, uses_anonymous_args = 0
 2786              		@ link register save eliminated.
2347:Drivers/STM32U5xx_HAL_Driver/Src/stm32u5xx_hal_pwr_ex.c ****   SET_BIT(PWR->CR2, PWR_CR2_FLASHFWU);
 2787              		.loc 1 2347 3 view .LVU579
 2788 0000 024A     		ldr	r2, .L271
 2789 0002 5368     		ldr	r3, [r2, #4]
 2790 0004 43F48043 		orr	r3, r3, #16384
 2791 0008 5360     		str	r3, [r2, #4]
2348:Drivers/STM32U5xx_HAL_Driver/Src/stm32u5xx_hal_pwr_ex.c **** }
 2792              		.loc 1 2348 1 is_stmt 0 view .LVU580
 2793 000a 7047     		bx	lr
 2794              	.L272:
 2795              		.align	2
 2796              	.L271:
 2797 000c 00080246 		.word	1174538240
 2798              		.cfi_endproc
 2799              	.LFE391:
 2801              		.section	.text.HAL_PWREx_DisableFlashFastWakeUp,"ax",%progbits
 2802              		.align	1
 2803              		.global	HAL_PWREx_DisableFlashFastWakeUp
 2804              		.syntax unified
 2805              		.thumb
 2806              		.thumb_func
 2808              	HAL_PWREx_DisableFlashFastWakeUp:
 2809              	.LFB392:
2349:Drivers/STM32U5xx_HAL_Driver/Src/stm32u5xx_hal_pwr_ex.c **** 
2350:Drivers/STM32U5xx_HAL_Driver/Src/stm32u5xx_hal_pwr_ex.c **** /**
2351:Drivers/STM32U5xx_HAL_Driver/Src/stm32u5xx_hal_pwr_ex.c ****   * @brief  Disable the Flash Power Down in Stop mode.
2352:Drivers/STM32U5xx_HAL_Driver/Src/stm32u5xx_hal_pwr_ex.c ****   * @note   This feature is used to obtain the best trade-off between low-power
2353:Drivers/STM32U5xx_HAL_Driver/Src/stm32u5xx_hal_pwr_ex.c ****   *         consumption and wakeup time when exiting the Stop 0 or Stop 1 modes.
2354:Drivers/STM32U5xx_HAL_Driver/Src/stm32u5xx_hal_pwr_ex.c ****   *         When this feature is disabled, the Flash memory enters low-power
2355:Drivers/STM32U5xx_HAL_Driver/Src/stm32u5xx_hal_pwr_ex.c ****   *         mode in Stop 0 and Stop 1 modes, which causes a slower startup time
2356:Drivers/STM32U5xx_HAL_Driver/Src/stm32u5xx_hal_pwr_ex.c ****   *         with lower consumption.
2357:Drivers/STM32U5xx_HAL_Driver/Src/stm32u5xx_hal_pwr_ex.c ****   * @retval None.
2358:Drivers/STM32U5xx_HAL_Driver/Src/stm32u5xx_hal_pwr_ex.c ****   */
2359:Drivers/STM32U5xx_HAL_Driver/Src/stm32u5xx_hal_pwr_ex.c **** void HAL_PWREx_DisableFlashFastWakeUp(void)
2360:Drivers/STM32U5xx_HAL_Driver/Src/stm32u5xx_hal_pwr_ex.c **** {
ARM GAS  C:\Users\Ya\AppData\Local\Temp\ccLrGXJ9.s 			page 95


 2810              		.loc 1 2360 1 is_stmt 1 view -0
 2811              		.cfi_startproc
 2812              		@ args = 0, pretend = 0, frame = 0
 2813              		@ frame_needed = 0, uses_anonymous_args = 0
 2814              		@ link register save eliminated.
2361:Drivers/STM32U5xx_HAL_Driver/Src/stm32u5xx_hal_pwr_ex.c ****   CLEAR_BIT(PWR->CR2, PWR_CR2_FLASHFWU);
 2815              		.loc 1 2361 3 view .LVU582
 2816 0000 024A     		ldr	r2, .L274
 2817 0002 5368     		ldr	r3, [r2, #4]
 2818 0004 23F48043 		bic	r3, r3, #16384
 2819 0008 5360     		str	r3, [r2, #4]
2362:Drivers/STM32U5xx_HAL_Driver/Src/stm32u5xx_hal_pwr_ex.c **** }
 2820              		.loc 1 2362 1 is_stmt 0 view .LVU583
 2821 000a 7047     		bx	lr
 2822              	.L275:
 2823              		.align	2
 2824              	.L274:
 2825 000c 00080246 		.word	1174538240
 2826              		.cfi_endproc
 2827              	.LFE392:
 2829              		.section	.text.HAL_PWREx_EnableSRAM4FastWakeUp,"ax",%progbits
 2830              		.align	1
 2831              		.global	HAL_PWREx_EnableSRAM4FastWakeUp
 2832              		.syntax unified
 2833              		.thumb
 2834              		.thumb_func
 2836              	HAL_PWREx_EnableSRAM4FastWakeUp:
 2837              	.LFB393:
2363:Drivers/STM32U5xx_HAL_Driver/Src/stm32u5xx_hal_pwr_ex.c **** 
2364:Drivers/STM32U5xx_HAL_Driver/Src/stm32u5xx_hal_pwr_ex.c **** /**
2365:Drivers/STM32U5xx_HAL_Driver/Src/stm32u5xx_hal_pwr_ex.c ****   * @brief  Enable the SRAM4 memory fast wakeup from Stop 0, Stop 1 and Stop 2 modes.
2366:Drivers/STM32U5xx_HAL_Driver/Src/stm32u5xx_hal_pwr_ex.c ****   * @note   This bit is used to obtain the best trade-off between low-power consumption
2367:Drivers/STM32U5xx_HAL_Driver/Src/stm32u5xx_hal_pwr_ex.c ****   *         and wakeup time. SRAM4 wakeup time increases the wakeup time when exiting
2368:Drivers/STM32U5xx_HAL_Driver/Src/stm32u5xx_hal_pwr_ex.c ****   *         Stop 0, Stop 1 and Stop 2 modes, and also increases the LPDMA access time
2369:Drivers/STM32U5xx_HAL_Driver/Src/stm32u5xx_hal_pwr_ex.c ****   *         to SRAM4 during Stop modes.
2370:Drivers/STM32U5xx_HAL_Driver/Src/stm32u5xx_hal_pwr_ex.c ****   * @retval None.
2371:Drivers/STM32U5xx_HAL_Driver/Src/stm32u5xx_hal_pwr_ex.c ****   */
2372:Drivers/STM32U5xx_HAL_Driver/Src/stm32u5xx_hal_pwr_ex.c **** void HAL_PWREx_EnableSRAM4FastWakeUp(void)
2373:Drivers/STM32U5xx_HAL_Driver/Src/stm32u5xx_hal_pwr_ex.c **** {
 2838              		.loc 1 2373 1 is_stmt 1 view -0
 2839              		.cfi_startproc
 2840              		@ args = 0, pretend = 0, frame = 0
 2841              		@ frame_needed = 0, uses_anonymous_args = 0
 2842              		@ link register save eliminated.
2374:Drivers/STM32U5xx_HAL_Driver/Src/stm32u5xx_hal_pwr_ex.c ****   SET_BIT(PWR->CR2, PWR_CR2_SRAM4FWU);
 2843              		.loc 1 2374 3 view .LVU585
 2844 0000 024A     		ldr	r2, .L277
 2845 0002 5368     		ldr	r3, [r2, #4]
 2846 0004 43F40053 		orr	r3, r3, #8192
 2847 0008 5360     		str	r3, [r2, #4]
2375:Drivers/STM32U5xx_HAL_Driver/Src/stm32u5xx_hal_pwr_ex.c **** }
 2848              		.loc 1 2375 1 is_stmt 0 view .LVU586
 2849 000a 7047     		bx	lr
 2850              	.L278:
 2851              		.align	2
 2852              	.L277:
 2853 000c 00080246 		.word	1174538240
ARM GAS  C:\Users\Ya\AppData\Local\Temp\ccLrGXJ9.s 			page 96


 2854              		.cfi_endproc
 2855              	.LFE393:
 2857              		.section	.text.HAL_PWREx_DisableSRAM4FastWakeUp,"ax",%progbits
 2858              		.align	1
 2859              		.global	HAL_PWREx_DisableSRAM4FastWakeUp
 2860              		.syntax unified
 2861              		.thumb
 2862              		.thumb_func
 2864              	HAL_PWREx_DisableSRAM4FastWakeUp:
 2865              	.LFB394:
2376:Drivers/STM32U5xx_HAL_Driver/Src/stm32u5xx_hal_pwr_ex.c **** 
2377:Drivers/STM32U5xx_HAL_Driver/Src/stm32u5xx_hal_pwr_ex.c **** /**
2378:Drivers/STM32U5xx_HAL_Driver/Src/stm32u5xx_hal_pwr_ex.c ****   * @brief  Disable the SRAM4 memory fast wakeup from Stop 0, Stop 1 and Stop 2 modes.
2379:Drivers/STM32U5xx_HAL_Driver/Src/stm32u5xx_hal_pwr_ex.c ****   * @note   This bit is used to obtain the best trade-off between low-power consumption
2380:Drivers/STM32U5xx_HAL_Driver/Src/stm32u5xx_hal_pwr_ex.c ****   *         and wakeup time. SRAM4 wakeup time increases the wakeup time when exiting
2381:Drivers/STM32U5xx_HAL_Driver/Src/stm32u5xx_hal_pwr_ex.c ****   *         Stop 0, Stop 1 and Stop 2 modes, and also increases the LPDMA access time
2382:Drivers/STM32U5xx_HAL_Driver/Src/stm32u5xx_hal_pwr_ex.c ****   *         to SRAM4 during Stop modes.
2383:Drivers/STM32U5xx_HAL_Driver/Src/stm32u5xx_hal_pwr_ex.c ****   * @retval None.
2384:Drivers/STM32U5xx_HAL_Driver/Src/stm32u5xx_hal_pwr_ex.c ****   */
2385:Drivers/STM32U5xx_HAL_Driver/Src/stm32u5xx_hal_pwr_ex.c **** void HAL_PWREx_DisableSRAM4FastWakeUp(void)
2386:Drivers/STM32U5xx_HAL_Driver/Src/stm32u5xx_hal_pwr_ex.c **** {
 2866              		.loc 1 2386 1 is_stmt 1 view -0
 2867              		.cfi_startproc
 2868              		@ args = 0, pretend = 0, frame = 0
 2869              		@ frame_needed = 0, uses_anonymous_args = 0
 2870              		@ link register save eliminated.
2387:Drivers/STM32U5xx_HAL_Driver/Src/stm32u5xx_hal_pwr_ex.c ****   CLEAR_BIT(PWR->CR2, PWR_CR2_SRAM4FWU);
 2871              		.loc 1 2387 3 view .LVU588
 2872 0000 024A     		ldr	r2, .L280
 2873 0002 5368     		ldr	r3, [r2, #4]
 2874 0004 23F40053 		bic	r3, r3, #8192
 2875 0008 5360     		str	r3, [r2, #4]
2388:Drivers/STM32U5xx_HAL_Driver/Src/stm32u5xx_hal_pwr_ex.c **** }
 2876              		.loc 1 2388 1 is_stmt 0 view .LVU589
 2877 000a 7047     		bx	lr
 2878              	.L281:
 2879              		.align	2
 2880              	.L280:
 2881 000c 00080246 		.word	1174538240
 2882              		.cfi_endproc
 2883              	.LFE394:
 2885              		.section	.text.HAL_PWREx_EnablePullUpPullDownConfig,"ax",%progbits
 2886              		.align	1
 2887              		.global	HAL_PWREx_EnablePullUpPullDownConfig
 2888              		.syntax unified
 2889              		.thumb
 2890              		.thumb_func
 2892              	HAL_PWREx_EnablePullUpPullDownConfig:
 2893              	.LFB395:
2389:Drivers/STM32U5xx_HAL_Driver/Src/stm32u5xx_hal_pwr_ex.c **** /**
2390:Drivers/STM32U5xx_HAL_Driver/Src/stm32u5xx_hal_pwr_ex.c ****   * @}
2391:Drivers/STM32U5xx_HAL_Driver/Src/stm32u5xx_hal_pwr_ex.c ****   */
2392:Drivers/STM32U5xx_HAL_Driver/Src/stm32u5xx_hal_pwr_ex.c **** 
2393:Drivers/STM32U5xx_HAL_Driver/Src/stm32u5xx_hal_pwr_ex.c **** /** @defgroup PWREx_Exported_Functions_Group5 I/O Pull-Up Pull-Down Configuration Functions
2394:Drivers/STM32U5xx_HAL_Driver/Src/stm32u5xx_hal_pwr_ex.c ****   * @brief    I/O pull-up / pull-down configuration functions
2395:Drivers/STM32U5xx_HAL_Driver/Src/stm32u5xx_hal_pwr_ex.c ****   *
2396:Drivers/STM32U5xx_HAL_Driver/Src/stm32u5xx_hal_pwr_ex.c **** @verbatim
ARM GAS  C:\Users\Ya\AppData\Local\Temp\ccLrGXJ9.s 			page 97


2397:Drivers/STM32U5xx_HAL_Driver/Src/stm32u5xx_hal_pwr_ex.c ****  ===============================================================================
2398:Drivers/STM32U5xx_HAL_Driver/Src/stm32u5xx_hal_pwr_ex.c ****             ##### I/O Pull-Up Pull-Down Configuration Functions #####
2399:Drivers/STM32U5xx_HAL_Driver/Src/stm32u5xx_hal_pwr_ex.c ****  ===============================================================================
2400:Drivers/STM32U5xx_HAL_Driver/Src/stm32u5xx_hal_pwr_ex.c ****     [..]
2401:Drivers/STM32U5xx_HAL_Driver/Src/stm32u5xx_hal_pwr_ex.c ****       In Standby and Shutdown mode, pull up and pull down can be configured to
2402:Drivers/STM32U5xx_HAL_Driver/Src/stm32u5xx_hal_pwr_ex.c ****       maintain an I/O in the selected state. If the APC bit in the PWR_APCR
2403:Drivers/STM32U5xx_HAL_Driver/Src/stm32u5xx_hal_pwr_ex.c ****       register is set, the I/Os can be configured either with a pull-up through
2404:Drivers/STM32U5xx_HAL_Driver/Src/stm32u5xx_hal_pwr_ex.c ****       PWR_PUCRx registers (x=A,B,C,D,E,F,G,H,I,J), or with a pull-down through
2405:Drivers/STM32U5xx_HAL_Driver/Src/stm32u5xx_hal_pwr_ex.c ****       PWR_PDCRx registers (x=A,B,C,D,E,F,G,H,I,J)), or can be kept in analog state
2406:Drivers/STM32U5xx_HAL_Driver/Src/stm32u5xx_hal_pwr_ex.c ****       if none of the PWR_PUCRx or PWR_PDCRx register is set.
2407:Drivers/STM32U5xx_HAL_Driver/Src/stm32u5xx_hal_pwr_ex.c ****       (+) Port J is available only for STM32U59xxx, STM32U5Axxx, STM32U5Fxxx
2408:Drivers/STM32U5xx_HAL_Driver/Src/stm32u5xx_hal_pwr_ex.c ****       and STM32U5Gxxx devices.
2409:Drivers/STM32U5xx_HAL_Driver/Src/stm32u5xx_hal_pwr_ex.c **** 
2410:Drivers/STM32U5xx_HAL_Driver/Src/stm32u5xx_hal_pwr_ex.c ****     [..]
2411:Drivers/STM32U5xx_HAL_Driver/Src/stm32u5xx_hal_pwr_ex.c ****       The pull-down configuration has highest priority over pull-up
2412:Drivers/STM32U5xx_HAL_Driver/Src/stm32u5xx_hal_pwr_ex.c ****       configuration in case both PWR_PUCRx and PWR_PDCRx are set for the same
2413:Drivers/STM32U5xx_HAL_Driver/Src/stm32u5xx_hal_pwr_ex.c ****       I/O.
2414:Drivers/STM32U5xx_HAL_Driver/Src/stm32u5xx_hal_pwr_ex.c ****       This configuration is lost when exiting the Shutdown but not from Standby
2415:Drivers/STM32U5xx_HAL_Driver/Src/stm32u5xx_hal_pwr_ex.c ****       mode.
2416:Drivers/STM32U5xx_HAL_Driver/Src/stm32u5xx_hal_pwr_ex.c **** 
2417:Drivers/STM32U5xx_HAL_Driver/Src/stm32u5xx_hal_pwr_ex.c **** @endverbatim
2418:Drivers/STM32U5xx_HAL_Driver/Src/stm32u5xx_hal_pwr_ex.c ****   * @{
2419:Drivers/STM32U5xx_HAL_Driver/Src/stm32u5xx_hal_pwr_ex.c ****   */
2420:Drivers/STM32U5xx_HAL_Driver/Src/stm32u5xx_hal_pwr_ex.c **** 
2421:Drivers/STM32U5xx_HAL_Driver/Src/stm32u5xx_hal_pwr_ex.c **** /**
2422:Drivers/STM32U5xx_HAL_Driver/Src/stm32u5xx_hal_pwr_ex.c ****   * @brief  Enable pull-up and pull-down configuration.
2423:Drivers/STM32U5xx_HAL_Driver/Src/stm32u5xx_hal_pwr_ex.c ****   * @note   When APC bit is set, the I/O pull-up and pull-down configurations
2424:Drivers/STM32U5xx_HAL_Driver/Src/stm32u5xx_hal_pwr_ex.c ****   *         defined in PWR_PUCRx and PWR_PDCRx registers are applied in Standby
2425:Drivers/STM32U5xx_HAL_Driver/Src/stm32u5xx_hal_pwr_ex.c ****   *         and Shutdown modes.
2426:Drivers/STM32U5xx_HAL_Driver/Src/stm32u5xx_hal_pwr_ex.c ****   * @note   Pull-up set by PUy bit of PWR_PUCRx register is not activated if the
2427:Drivers/STM32U5xx_HAL_Driver/Src/stm32u5xx_hal_pwr_ex.c ****   *         corresponding PDy bit of PWR_PDCRx register is also set (pull-down
2428:Drivers/STM32U5xx_HAL_Driver/Src/stm32u5xx_hal_pwr_ex.c ****   *         configuration priority is higher). HAL_PWREx_EnableGPIOPullUp() and
2429:Drivers/STM32U5xx_HAL_Driver/Src/stm32u5xx_hal_pwr_ex.c ****   *         HAL_PWREx_EnableGPIOPullDown() API's ensure there is no conflict
2430:Drivers/STM32U5xx_HAL_Driver/Src/stm32u5xx_hal_pwr_ex.c ****   *         when setting PUy or PDy bit.
2431:Drivers/STM32U5xx_HAL_Driver/Src/stm32u5xx_hal_pwr_ex.c ****   * @retval None.
2432:Drivers/STM32U5xx_HAL_Driver/Src/stm32u5xx_hal_pwr_ex.c ****   */
2433:Drivers/STM32U5xx_HAL_Driver/Src/stm32u5xx_hal_pwr_ex.c **** void HAL_PWREx_EnablePullUpPullDownConfig(void)
2434:Drivers/STM32U5xx_HAL_Driver/Src/stm32u5xx_hal_pwr_ex.c **** {
 2894              		.loc 1 2434 1 is_stmt 1 view -0
 2895              		.cfi_startproc
 2896              		@ args = 0, pretend = 0, frame = 0
 2897              		@ frame_needed = 0, uses_anonymous_args = 0
 2898              		@ link register save eliminated.
2435:Drivers/STM32U5xx_HAL_Driver/Src/stm32u5xx_hal_pwr_ex.c ****   SET_BIT(PWR->APCR, PWR_APCR_APC);
 2899              		.loc 1 2435 3 view .LVU591
 2900 0000 024A     		ldr	r2, .L283
 2901 0002 D36C     		ldr	r3, [r2, #76]
 2902 0004 43F00103 		orr	r3, r3, #1
 2903 0008 D364     		str	r3, [r2, #76]
2436:Drivers/STM32U5xx_HAL_Driver/Src/stm32u5xx_hal_pwr_ex.c **** }
 2904              		.loc 1 2436 1 is_stmt 0 view .LVU592
 2905 000a 7047     		bx	lr
 2906              	.L284:
 2907              		.align	2
 2908              	.L283:
 2909 000c 00080246 		.word	1174538240
 2910              		.cfi_endproc
ARM GAS  C:\Users\Ya\AppData\Local\Temp\ccLrGXJ9.s 			page 98


 2911              	.LFE395:
 2913              		.section	.text.HAL_PWREx_DisablePullUpPullDownConfig,"ax",%progbits
 2914              		.align	1
 2915              		.global	HAL_PWREx_DisablePullUpPullDownConfig
 2916              		.syntax unified
 2917              		.thumb
 2918              		.thumb_func
 2920              	HAL_PWREx_DisablePullUpPullDownConfig:
 2921              	.LFB396:
2437:Drivers/STM32U5xx_HAL_Driver/Src/stm32u5xx_hal_pwr_ex.c **** 
2438:Drivers/STM32U5xx_HAL_Driver/Src/stm32u5xx_hal_pwr_ex.c **** /**
2439:Drivers/STM32U5xx_HAL_Driver/Src/stm32u5xx_hal_pwr_ex.c ****   * @brief  Disable pull-up and pull-down configuration.
2440:Drivers/STM32U5xx_HAL_Driver/Src/stm32u5xx_hal_pwr_ex.c ****   * @note   When APC bit is cleared, the I/O pull-up and pull-down configurations
2441:Drivers/STM32U5xx_HAL_Driver/Src/stm32u5xx_hal_pwr_ex.c ****   *         defined in PWR_PUCRx and PWR_PDCRx registers are not applied in
2442:Drivers/STM32U5xx_HAL_Driver/Src/stm32u5xx_hal_pwr_ex.c ****   *         Standby and Shutdown modes.
2443:Drivers/STM32U5xx_HAL_Driver/Src/stm32u5xx_hal_pwr_ex.c ****   * @retval None.
2444:Drivers/STM32U5xx_HAL_Driver/Src/stm32u5xx_hal_pwr_ex.c ****   */
2445:Drivers/STM32U5xx_HAL_Driver/Src/stm32u5xx_hal_pwr_ex.c **** void HAL_PWREx_DisablePullUpPullDownConfig(void)
2446:Drivers/STM32U5xx_HAL_Driver/Src/stm32u5xx_hal_pwr_ex.c **** {
 2922              		.loc 1 2446 1 is_stmt 1 view -0
 2923              		.cfi_startproc
 2924              		@ args = 0, pretend = 0, frame = 0
 2925              		@ frame_needed = 0, uses_anonymous_args = 0
 2926              		@ link register save eliminated.
2447:Drivers/STM32U5xx_HAL_Driver/Src/stm32u5xx_hal_pwr_ex.c ****   CLEAR_BIT(PWR->APCR, PWR_APCR_APC);
 2927              		.loc 1 2447 3 view .LVU594
 2928 0000 024A     		ldr	r2, .L286
 2929 0002 D36C     		ldr	r3, [r2, #76]
 2930 0004 23F00103 		bic	r3, r3, #1
 2931 0008 D364     		str	r3, [r2, #76]
2448:Drivers/STM32U5xx_HAL_Driver/Src/stm32u5xx_hal_pwr_ex.c **** }
 2932              		.loc 1 2448 1 is_stmt 0 view .LVU595
 2933 000a 7047     		bx	lr
 2934              	.L287:
 2935              		.align	2
 2936              	.L286:
 2937 000c 00080246 		.word	1174538240
 2938              		.cfi_endproc
 2939              	.LFE396:
 2941              		.section	.text.HAL_PWREx_EnableGPIOPullUp,"ax",%progbits
 2942              		.align	1
 2943              		.global	HAL_PWREx_EnableGPIOPullUp
 2944              		.syntax unified
 2945              		.thumb
 2946              		.thumb_func
 2948              	HAL_PWREx_EnableGPIOPullUp:
 2949              	.LVL122:
 2950              	.LFB397:
2449:Drivers/STM32U5xx_HAL_Driver/Src/stm32u5xx_hal_pwr_ex.c **** 
2450:Drivers/STM32U5xx_HAL_Driver/Src/stm32u5xx_hal_pwr_ex.c **** /**
2451:Drivers/STM32U5xx_HAL_Driver/Src/stm32u5xx_hal_pwr_ex.c ****   * @brief  Enable GPIO pull-up state in Standby and Shutdown modes.
2452:Drivers/STM32U5xx_HAL_Driver/Src/stm32u5xx_hal_pwr_ex.c ****   * @note   Set the relevant PUy bits of PWR_PUCRx register to configure the I/O
2453:Drivers/STM32U5xx_HAL_Driver/Src/stm32u5xx_hal_pwr_ex.c ****   *         in pull-up state in Standby and Shutdown modes.
2454:Drivers/STM32U5xx_HAL_Driver/Src/stm32u5xx_hal_pwr_ex.c ****   * @note   This state is effective in Standby and Shutdown modes only if APC
2455:Drivers/STM32U5xx_HAL_Driver/Src/stm32u5xx_hal_pwr_ex.c ****   *         bit is set through HAL_PWREx_EnablePullUpPullDownConfig() API.
2456:Drivers/STM32U5xx_HAL_Driver/Src/stm32u5xx_hal_pwr_ex.c ****   * @note   The configuration is lost when exiting the Shutdown mode due to the
2457:Drivers/STM32U5xx_HAL_Driver/Src/stm32u5xx_hal_pwr_ex.c ****   *         power-on reset, maintained when exiting the Standby mode.
ARM GAS  C:\Users\Ya\AppData\Local\Temp\ccLrGXJ9.s 			page 99


2458:Drivers/STM32U5xx_HAL_Driver/Src/stm32u5xx_hal_pwr_ex.c ****   * @note   To avoid any conflict at Standby and Shutdown modes exits, the
2459:Drivers/STM32U5xx_HAL_Driver/Src/stm32u5xx_hal_pwr_ex.c ****   *         corresponding PDy bit of PWR_PDCRx register is cleared unless it is
2460:Drivers/STM32U5xx_HAL_Driver/Src/stm32u5xx_hal_pwr_ex.c ****   *         reserved.
2461:Drivers/STM32U5xx_HAL_Driver/Src/stm32u5xx_hal_pwr_ex.c ****   * @note   Even if a PUy bit to set is reserved, the other PUy bits entered as
2462:Drivers/STM32U5xx_HAL_Driver/Src/stm32u5xx_hal_pwr_ex.c ****   *         input parameter at the same time are set.
2463:Drivers/STM32U5xx_HAL_Driver/Src/stm32u5xx_hal_pwr_ex.c ****   * @param  GPIO_Port : Specify the IO port.
2464:Drivers/STM32U5xx_HAL_Driver/Src/stm32u5xx_hal_pwr_ex.c ****   *                     This parameter can be a value of
2465:Drivers/STM32U5xx_HAL_Driver/Src/stm32u5xx_hal_pwr_ex.c ****   *                     @ref PWREx_GPIO_Port.
2466:Drivers/STM32U5xx_HAL_Driver/Src/stm32u5xx_hal_pwr_ex.c ****   * @param  GPIO_Pin  : Specify the I/O pins numbers.
2467:Drivers/STM32U5xx_HAL_Driver/Src/stm32u5xx_hal_pwr_ex.c ****   *                     This parameter can be a value of
2468:Drivers/STM32U5xx_HAL_Driver/Src/stm32u5xx_hal_pwr_ex.c ****   *                     @ref PWREx_GPIO_Pin_Mask.
2469:Drivers/STM32U5xx_HAL_Driver/Src/stm32u5xx_hal_pwr_ex.c ****   * @retval HAL Status.
2470:Drivers/STM32U5xx_HAL_Driver/Src/stm32u5xx_hal_pwr_ex.c ****   */
2471:Drivers/STM32U5xx_HAL_Driver/Src/stm32u5xx_hal_pwr_ex.c **** HAL_StatusTypeDef HAL_PWREx_EnableGPIOPullUp(uint32_t GPIO_Port, uint32_t GPIO_Pin)
2472:Drivers/STM32U5xx_HAL_Driver/Src/stm32u5xx_hal_pwr_ex.c **** {
 2951              		.loc 1 2472 1 is_stmt 1 view -0
 2952              		.cfi_startproc
 2953              		@ args = 0, pretend = 0, frame = 0
 2954              		@ frame_needed = 0, uses_anonymous_args = 0
 2955              		@ link register save eliminated.
2473:Drivers/STM32U5xx_HAL_Driver/Src/stm32u5xx_hal_pwr_ex.c ****   /* Check the parameters */
2474:Drivers/STM32U5xx_HAL_Driver/Src/stm32u5xx_hal_pwr_ex.c ****   assert_param(IS_PWR_GPIO_PORT(GPIO_Port));
 2956              		.loc 1 2474 3 view .LVU597
2475:Drivers/STM32U5xx_HAL_Driver/Src/stm32u5xx_hal_pwr_ex.c ****   assert_param(IS_PWR_GPIO_PIN_MASK(GPIO_Pin));
 2957              		.loc 1 2475 3 view .LVU598
2476:Drivers/STM32U5xx_HAL_Driver/Src/stm32u5xx_hal_pwr_ex.c **** 
2477:Drivers/STM32U5xx_HAL_Driver/Src/stm32u5xx_hal_pwr_ex.c ****   /* Check GPIO port */
2478:Drivers/STM32U5xx_HAL_Driver/Src/stm32u5xx_hal_pwr_ex.c ****   switch (GPIO_Port)
 2958              		.loc 1 2478 3 view .LVU599
 2959 0000 0828     		cmp	r0, #8
 2960 0002 73D8     		bhi	.L300
 2961 0004 DFE800F0 		tbb	[pc, r0]
 2962              	.L291:
 2963 0008 05       		.byte	(.L299-.L291)/2
 2964 0009 13       		.byte	(.L298-.L291)/2
 2965 000a 1F       		.byte	(.L297-.L291)/2
 2966 000b 29       		.byte	(.L296-.L291)/2
 2967 000c 33       		.byte	(.L295-.L291)/2
 2968 000d 3D       		.byte	(.L294-.L291)/2
 2969 000e 47       		.byte	(.L293-.L291)/2
 2970 000f 55       		.byte	(.L292-.L291)/2
 2971 0010 63       		.byte	(.L290-.L291)/2
 2972 0011 00       		.p2align 1
 2973              	.L299:
2479:Drivers/STM32U5xx_HAL_Driver/Src/stm32u5xx_hal_pwr_ex.c ****   {
2480:Drivers/STM32U5xx_HAL_Driver/Src/stm32u5xx_hal_pwr_ex.c ****     case PWR_GPIO_A: /* Apply Pull Up to GPIO port A */
2481:Drivers/STM32U5xx_HAL_Driver/Src/stm32u5xx_hal_pwr_ex.c ****       SET_BIT(PWR->PUCRA, (GPIO_Pin & (~(PWR_GPIO_BIT_14))));
 2974              		.loc 1 2481 7 view .LVU600
 2975 0012 374B     		ldr	r3, .L301
 2976 0014 1A6D     		ldr	r2, [r3, #80]
 2977 0016 21F48040 		bic	r0, r1, #16384
 2978              	.LVL123:
 2979              		.loc 1 2481 7 is_stmt 0 view .LVU601
 2980 001a 0243     		orrs	r2, r2, r0
 2981 001c 1A65     		str	r2, [r3, #80]
2482:Drivers/STM32U5xx_HAL_Driver/Src/stm32u5xx_hal_pwr_ex.c ****       CLEAR_BIT(PWR->PDCRA, (GPIO_Pin & (~(PWR_GPIO_BIT_13 | PWR_GPIO_BIT_15))));
 2982              		.loc 1 2482 7 is_stmt 1 view .LVU602
ARM GAS  C:\Users\Ya\AppData\Local\Temp\ccLrGXJ9.s 			page 100


 2983 001e 5A6D     		ldr	r2, [r3, #84]
 2984 0020 21F42041 		bic	r1, r1, #40960
 2985              	.LVL124:
 2986              		.loc 1 2482 7 is_stmt 0 view .LVU603
 2987 0024 22EA0102 		bic	r2, r2, r1
 2988 0028 5A65     		str	r2, [r3, #84]
2483:Drivers/STM32U5xx_HAL_Driver/Src/stm32u5xx_hal_pwr_ex.c ****       break;
 2989              		.loc 1 2483 7 is_stmt 1 view .LVU604
2484:Drivers/STM32U5xx_HAL_Driver/Src/stm32u5xx_hal_pwr_ex.c **** 
2485:Drivers/STM32U5xx_HAL_Driver/Src/stm32u5xx_hal_pwr_ex.c ****     case PWR_GPIO_B: /* Apply Pull Up to GPIO port B */
2486:Drivers/STM32U5xx_HAL_Driver/Src/stm32u5xx_hal_pwr_ex.c ****       SET_BIT(PWR->PUCRB, GPIO_Pin);
2487:Drivers/STM32U5xx_HAL_Driver/Src/stm32u5xx_hal_pwr_ex.c ****       CLEAR_BIT(PWR->PDCRB, (GPIO_Pin & (~(PWR_GPIO_BIT_4))));
2488:Drivers/STM32U5xx_HAL_Driver/Src/stm32u5xx_hal_pwr_ex.c ****       break;
2489:Drivers/STM32U5xx_HAL_Driver/Src/stm32u5xx_hal_pwr_ex.c **** 
2490:Drivers/STM32U5xx_HAL_Driver/Src/stm32u5xx_hal_pwr_ex.c ****     case PWR_GPIO_C: /* Apply Pull Up to GPIO port C */
2491:Drivers/STM32U5xx_HAL_Driver/Src/stm32u5xx_hal_pwr_ex.c ****       SET_BIT(PWR->PUCRC, GPIO_Pin);
2492:Drivers/STM32U5xx_HAL_Driver/Src/stm32u5xx_hal_pwr_ex.c ****       CLEAR_BIT(PWR->PDCRC, GPIO_Pin);
2493:Drivers/STM32U5xx_HAL_Driver/Src/stm32u5xx_hal_pwr_ex.c ****       break;
2494:Drivers/STM32U5xx_HAL_Driver/Src/stm32u5xx_hal_pwr_ex.c **** 
2495:Drivers/STM32U5xx_HAL_Driver/Src/stm32u5xx_hal_pwr_ex.c ****     case PWR_GPIO_D: /* Apply Pull Up to GPIO port D */
2496:Drivers/STM32U5xx_HAL_Driver/Src/stm32u5xx_hal_pwr_ex.c ****       SET_BIT(PWR->PUCRD, GPIO_Pin);
2497:Drivers/STM32U5xx_HAL_Driver/Src/stm32u5xx_hal_pwr_ex.c ****       CLEAR_BIT(PWR->PDCRD, GPIO_Pin);
2498:Drivers/STM32U5xx_HAL_Driver/Src/stm32u5xx_hal_pwr_ex.c ****       break;
2499:Drivers/STM32U5xx_HAL_Driver/Src/stm32u5xx_hal_pwr_ex.c **** 
2500:Drivers/STM32U5xx_HAL_Driver/Src/stm32u5xx_hal_pwr_ex.c ****     case PWR_GPIO_E: /* Apply Pull Up to GPIO port E */
2501:Drivers/STM32U5xx_HAL_Driver/Src/stm32u5xx_hal_pwr_ex.c ****       SET_BIT(PWR->PUCRE, GPIO_Pin);
2502:Drivers/STM32U5xx_HAL_Driver/Src/stm32u5xx_hal_pwr_ex.c ****       CLEAR_BIT(PWR->PDCRE, GPIO_Pin);
2503:Drivers/STM32U5xx_HAL_Driver/Src/stm32u5xx_hal_pwr_ex.c ****       break;
2504:Drivers/STM32U5xx_HAL_Driver/Src/stm32u5xx_hal_pwr_ex.c **** 
2505:Drivers/STM32U5xx_HAL_Driver/Src/stm32u5xx_hal_pwr_ex.c **** #ifdef PWR_PUCRF_PU0
2506:Drivers/STM32U5xx_HAL_Driver/Src/stm32u5xx_hal_pwr_ex.c ****     case PWR_GPIO_F: /* Apply Pull Up to GPIO port F */
2507:Drivers/STM32U5xx_HAL_Driver/Src/stm32u5xx_hal_pwr_ex.c ****       SET_BIT(PWR->PUCRF, GPIO_Pin);
2508:Drivers/STM32U5xx_HAL_Driver/Src/stm32u5xx_hal_pwr_ex.c ****       CLEAR_BIT(PWR->PDCRF, GPIO_Pin);
2509:Drivers/STM32U5xx_HAL_Driver/Src/stm32u5xx_hal_pwr_ex.c ****       break;
2510:Drivers/STM32U5xx_HAL_Driver/Src/stm32u5xx_hal_pwr_ex.c **** #endif /* PWR_PUCRF_PU0 */
2511:Drivers/STM32U5xx_HAL_Driver/Src/stm32u5xx_hal_pwr_ex.c **** 
2512:Drivers/STM32U5xx_HAL_Driver/Src/stm32u5xx_hal_pwr_ex.c ****     case PWR_GPIO_G: /* Apply Pull Up to GPIO port G */
2513:Drivers/STM32U5xx_HAL_Driver/Src/stm32u5xx_hal_pwr_ex.c ****       SET_BIT(PWR->PUCRG, GPIO_Pin);
2514:Drivers/STM32U5xx_HAL_Driver/Src/stm32u5xx_hal_pwr_ex.c ****       CLEAR_BIT(PWR->PDCRG, GPIO_Pin);
2515:Drivers/STM32U5xx_HAL_Driver/Src/stm32u5xx_hal_pwr_ex.c ****       break;
2516:Drivers/STM32U5xx_HAL_Driver/Src/stm32u5xx_hal_pwr_ex.c **** 
2517:Drivers/STM32U5xx_HAL_Driver/Src/stm32u5xx_hal_pwr_ex.c ****     case PWR_GPIO_H: /* Apply Pull Up to GPIO port H */
2518:Drivers/STM32U5xx_HAL_Driver/Src/stm32u5xx_hal_pwr_ex.c ****       SET_BIT(PWR->PUCRH, GPIO_Pin);
2519:Drivers/STM32U5xx_HAL_Driver/Src/stm32u5xx_hal_pwr_ex.c ****       CLEAR_BIT(PWR->PDCRH, GPIO_Pin);
2520:Drivers/STM32U5xx_HAL_Driver/Src/stm32u5xx_hal_pwr_ex.c ****       break;
2521:Drivers/STM32U5xx_HAL_Driver/Src/stm32u5xx_hal_pwr_ex.c **** 
2522:Drivers/STM32U5xx_HAL_Driver/Src/stm32u5xx_hal_pwr_ex.c **** #ifdef PWR_PUCRI_PU0
2523:Drivers/STM32U5xx_HAL_Driver/Src/stm32u5xx_hal_pwr_ex.c ****     case PWR_GPIO_I: /* Apply Pull Up to GPIO port I */
2524:Drivers/STM32U5xx_HAL_Driver/Src/stm32u5xx_hal_pwr_ex.c ****       SET_BIT(PWR->PUCRI, (GPIO_Pin & PWR_PORTI_AVAILABLE_PINS));
2525:Drivers/STM32U5xx_HAL_Driver/Src/stm32u5xx_hal_pwr_ex.c ****       CLEAR_BIT(PWR->PDCRI, (GPIO_Pin & PWR_PORTI_AVAILABLE_PINS));
2526:Drivers/STM32U5xx_HAL_Driver/Src/stm32u5xx_hal_pwr_ex.c ****       break;
2527:Drivers/STM32U5xx_HAL_Driver/Src/stm32u5xx_hal_pwr_ex.c **** #endif /* PWR_PUCRI_PU0 */
2528:Drivers/STM32U5xx_HAL_Driver/Src/stm32u5xx_hal_pwr_ex.c **** 
2529:Drivers/STM32U5xx_HAL_Driver/Src/stm32u5xx_hal_pwr_ex.c **** #if defined (PWR_PUCRJ_PU0)
2530:Drivers/STM32U5xx_HAL_Driver/Src/stm32u5xx_hal_pwr_ex.c ****     case PWR_GPIO_J: /* Apply Pull Up to GPIO port J */
2531:Drivers/STM32U5xx_HAL_Driver/Src/stm32u5xx_hal_pwr_ex.c ****       SET_BIT(PWR->PUCRJ, (GPIO_Pin & PWR_PORTJ_AVAILABLE_PINS));
2532:Drivers/STM32U5xx_HAL_Driver/Src/stm32u5xx_hal_pwr_ex.c ****       CLEAR_BIT(PWR->PDCRJ, (GPIO_Pin & PWR_PORTJ_AVAILABLE_PINS));
ARM GAS  C:\Users\Ya\AppData\Local\Temp\ccLrGXJ9.s 			page 101


2533:Drivers/STM32U5xx_HAL_Driver/Src/stm32u5xx_hal_pwr_ex.c ****       break;
2534:Drivers/STM32U5xx_HAL_Driver/Src/stm32u5xx_hal_pwr_ex.c **** #endif /* defined (PWR_PUCRJ_PU0) */
2535:Drivers/STM32U5xx_HAL_Driver/Src/stm32u5xx_hal_pwr_ex.c **** 
2536:Drivers/STM32U5xx_HAL_Driver/Src/stm32u5xx_hal_pwr_ex.c ****     default:
2537:Drivers/STM32U5xx_HAL_Driver/Src/stm32u5xx_hal_pwr_ex.c ****       return HAL_ERROR;
2538:Drivers/STM32U5xx_HAL_Driver/Src/stm32u5xx_hal_pwr_ex.c ****       break;
2539:Drivers/STM32U5xx_HAL_Driver/Src/stm32u5xx_hal_pwr_ex.c ****   }
2540:Drivers/STM32U5xx_HAL_Driver/Src/stm32u5xx_hal_pwr_ex.c **** 
2541:Drivers/STM32U5xx_HAL_Driver/Src/stm32u5xx_hal_pwr_ex.c ****   return HAL_OK;
 2990              		.loc 1 2541 10 is_stmt 0 view .LVU605
 2991 002a 0020     		movs	r0, #0
2483:Drivers/STM32U5xx_HAL_Driver/Src/stm32u5xx_hal_pwr_ex.c ****       break;
 2992              		.loc 1 2483 7 view .LVU606
 2993 002c 7047     		bx	lr
 2994              	.LVL125:
 2995              	.L298:
2486:Drivers/STM32U5xx_HAL_Driver/Src/stm32u5xx_hal_pwr_ex.c ****       CLEAR_BIT(PWR->PDCRB, (GPIO_Pin & (~(PWR_GPIO_BIT_4))));
 2996              		.loc 1 2486 7 is_stmt 1 view .LVU607
 2997 002e 304B     		ldr	r3, .L301
 2998 0030 9A6D     		ldr	r2, [r3, #88]
 2999 0032 0A43     		orrs	r2, r2, r1
 3000 0034 9A65     		str	r2, [r3, #88]
2487:Drivers/STM32U5xx_HAL_Driver/Src/stm32u5xx_hal_pwr_ex.c ****       break;
 3001              		.loc 1 2487 7 view .LVU608
 3002 0036 DA6D     		ldr	r2, [r3, #92]
 3003 0038 21F01001 		bic	r1, r1, #16
 3004              	.LVL126:
2487:Drivers/STM32U5xx_HAL_Driver/Src/stm32u5xx_hal_pwr_ex.c ****       break;
 3005              		.loc 1 2487 7 is_stmt 0 view .LVU609
 3006 003c 22EA0102 		bic	r2, r2, r1
 3007 0040 DA65     		str	r2, [r3, #92]
2488:Drivers/STM32U5xx_HAL_Driver/Src/stm32u5xx_hal_pwr_ex.c **** 
 3008              		.loc 1 2488 7 is_stmt 1 view .LVU610
 3009              		.loc 1 2541 10 is_stmt 0 view .LVU611
 3010 0042 0020     		movs	r0, #0
 3011              	.LVL127:
2488:Drivers/STM32U5xx_HAL_Driver/Src/stm32u5xx_hal_pwr_ex.c **** 
 3012              		.loc 1 2488 7 view .LVU612
 3013 0044 7047     		bx	lr
 3014              	.LVL128:
 3015              	.L297:
2491:Drivers/STM32U5xx_HAL_Driver/Src/stm32u5xx_hal_pwr_ex.c ****       CLEAR_BIT(PWR->PDCRC, GPIO_Pin);
 3016              		.loc 1 2491 7 is_stmt 1 view .LVU613
 3017 0046 2A4B     		ldr	r3, .L301
 3018 0048 1A6E     		ldr	r2, [r3, #96]
 3019 004a 0A43     		orrs	r2, r2, r1
 3020 004c 1A66     		str	r2, [r3, #96]
2492:Drivers/STM32U5xx_HAL_Driver/Src/stm32u5xx_hal_pwr_ex.c ****       break;
 3021              		.loc 1 2492 7 view .LVU614
 3022 004e 5A6E     		ldr	r2, [r3, #100]
 3023 0050 22EA0102 		bic	r2, r2, r1
 3024 0054 5A66     		str	r2, [r3, #100]
2493:Drivers/STM32U5xx_HAL_Driver/Src/stm32u5xx_hal_pwr_ex.c **** 
 3025              		.loc 1 2493 7 view .LVU615
 3026              		.loc 1 2541 10 is_stmt 0 view .LVU616
 3027 0056 0020     		movs	r0, #0
 3028              	.LVL129:
ARM GAS  C:\Users\Ya\AppData\Local\Temp\ccLrGXJ9.s 			page 102


2493:Drivers/STM32U5xx_HAL_Driver/Src/stm32u5xx_hal_pwr_ex.c **** 
 3029              		.loc 1 2493 7 view .LVU617
 3030 0058 7047     		bx	lr
 3031              	.LVL130:
 3032              	.L296:
2496:Drivers/STM32U5xx_HAL_Driver/Src/stm32u5xx_hal_pwr_ex.c ****       CLEAR_BIT(PWR->PDCRD, GPIO_Pin);
 3033              		.loc 1 2496 7 is_stmt 1 view .LVU618
 3034 005a 254B     		ldr	r3, .L301
 3035 005c 9A6E     		ldr	r2, [r3, #104]
 3036 005e 0A43     		orrs	r2, r2, r1
 3037 0060 9A66     		str	r2, [r3, #104]
2497:Drivers/STM32U5xx_HAL_Driver/Src/stm32u5xx_hal_pwr_ex.c ****       break;
 3038              		.loc 1 2497 7 view .LVU619
 3039 0062 DA6E     		ldr	r2, [r3, #108]
 3040 0064 22EA0102 		bic	r2, r2, r1
 3041 0068 DA66     		str	r2, [r3, #108]
2498:Drivers/STM32U5xx_HAL_Driver/Src/stm32u5xx_hal_pwr_ex.c **** 
 3042              		.loc 1 2498 7 view .LVU620
 3043              		.loc 1 2541 10 is_stmt 0 view .LVU621
 3044 006a 0020     		movs	r0, #0
 3045              	.LVL131:
2498:Drivers/STM32U5xx_HAL_Driver/Src/stm32u5xx_hal_pwr_ex.c **** 
 3046              		.loc 1 2498 7 view .LVU622
 3047 006c 7047     		bx	lr
 3048              	.LVL132:
 3049              	.L295:
2501:Drivers/STM32U5xx_HAL_Driver/Src/stm32u5xx_hal_pwr_ex.c ****       CLEAR_BIT(PWR->PDCRE, GPIO_Pin);
 3050              		.loc 1 2501 7 is_stmt 1 view .LVU623
 3051 006e 204B     		ldr	r3, .L301
 3052 0070 1A6F     		ldr	r2, [r3, #112]
 3053 0072 0A43     		orrs	r2, r2, r1
 3054 0074 1A67     		str	r2, [r3, #112]
2502:Drivers/STM32U5xx_HAL_Driver/Src/stm32u5xx_hal_pwr_ex.c ****       break;
 3055              		.loc 1 2502 7 view .LVU624
 3056 0076 5A6F     		ldr	r2, [r3, #116]
 3057 0078 22EA0102 		bic	r2, r2, r1
 3058 007c 5A67     		str	r2, [r3, #116]
2503:Drivers/STM32U5xx_HAL_Driver/Src/stm32u5xx_hal_pwr_ex.c **** 
 3059              		.loc 1 2503 7 view .LVU625
 3060              		.loc 1 2541 10 is_stmt 0 view .LVU626
 3061 007e 0020     		movs	r0, #0
 3062              	.LVL133:
2503:Drivers/STM32U5xx_HAL_Driver/Src/stm32u5xx_hal_pwr_ex.c **** 
 3063              		.loc 1 2503 7 view .LVU627
 3064 0080 7047     		bx	lr
 3065              	.LVL134:
 3066              	.L294:
2507:Drivers/STM32U5xx_HAL_Driver/Src/stm32u5xx_hal_pwr_ex.c ****       CLEAR_BIT(PWR->PDCRF, GPIO_Pin);
 3067              		.loc 1 2507 7 is_stmt 1 view .LVU628
 3068 0082 1B4B     		ldr	r3, .L301
 3069 0084 9A6F     		ldr	r2, [r3, #120]
 3070 0086 0A43     		orrs	r2, r2, r1
 3071 0088 9A67     		str	r2, [r3, #120]
2508:Drivers/STM32U5xx_HAL_Driver/Src/stm32u5xx_hal_pwr_ex.c ****       break;
 3072              		.loc 1 2508 7 view .LVU629
 3073 008a DA6F     		ldr	r2, [r3, #124]
 3074 008c 22EA0102 		bic	r2, r2, r1
ARM GAS  C:\Users\Ya\AppData\Local\Temp\ccLrGXJ9.s 			page 103


 3075 0090 DA67     		str	r2, [r3, #124]
2509:Drivers/STM32U5xx_HAL_Driver/Src/stm32u5xx_hal_pwr_ex.c **** #endif /* PWR_PUCRF_PU0 */
 3076              		.loc 1 2509 7 view .LVU630
 3077              		.loc 1 2541 10 is_stmt 0 view .LVU631
 3078 0092 0020     		movs	r0, #0
 3079              	.LVL135:
2509:Drivers/STM32U5xx_HAL_Driver/Src/stm32u5xx_hal_pwr_ex.c **** #endif /* PWR_PUCRF_PU0 */
 3080              		.loc 1 2509 7 view .LVU632
 3081 0094 7047     		bx	lr
 3082              	.LVL136:
 3083              	.L293:
2513:Drivers/STM32U5xx_HAL_Driver/Src/stm32u5xx_hal_pwr_ex.c ****       CLEAR_BIT(PWR->PDCRG, GPIO_Pin);
 3084              		.loc 1 2513 7 is_stmt 1 view .LVU633
 3085 0096 164B     		ldr	r3, .L301
 3086 0098 D3F88020 		ldr	r2, [r3, #128]
 3087 009c 0A43     		orrs	r2, r2, r1
 3088 009e C3F88020 		str	r2, [r3, #128]
2514:Drivers/STM32U5xx_HAL_Driver/Src/stm32u5xx_hal_pwr_ex.c ****       break;
 3089              		.loc 1 2514 7 view .LVU634
 3090 00a2 D3F88420 		ldr	r2, [r3, #132]
 3091 00a6 22EA0102 		bic	r2, r2, r1
 3092 00aa C3F88420 		str	r2, [r3, #132]
2515:Drivers/STM32U5xx_HAL_Driver/Src/stm32u5xx_hal_pwr_ex.c **** 
 3093              		.loc 1 2515 7 view .LVU635
 3094              		.loc 1 2541 10 is_stmt 0 view .LVU636
 3095 00ae 0020     		movs	r0, #0
 3096              	.LVL137:
2515:Drivers/STM32U5xx_HAL_Driver/Src/stm32u5xx_hal_pwr_ex.c **** 
 3097              		.loc 1 2515 7 view .LVU637
 3098 00b0 7047     		bx	lr
 3099              	.LVL138:
 3100              	.L292:
2518:Drivers/STM32U5xx_HAL_Driver/Src/stm32u5xx_hal_pwr_ex.c ****       CLEAR_BIT(PWR->PDCRH, GPIO_Pin);
 3101              		.loc 1 2518 7 is_stmt 1 view .LVU638
 3102 00b2 0F4B     		ldr	r3, .L301
 3103 00b4 D3F88820 		ldr	r2, [r3, #136]
 3104 00b8 0A43     		orrs	r2, r2, r1
 3105 00ba C3F88820 		str	r2, [r3, #136]
2519:Drivers/STM32U5xx_HAL_Driver/Src/stm32u5xx_hal_pwr_ex.c ****       break;
 3106              		.loc 1 2519 7 view .LVU639
 3107 00be D3F88C20 		ldr	r2, [r3, #140]
 3108 00c2 22EA0102 		bic	r2, r2, r1
 3109 00c6 C3F88C20 		str	r2, [r3, #140]
2520:Drivers/STM32U5xx_HAL_Driver/Src/stm32u5xx_hal_pwr_ex.c **** 
 3110              		.loc 1 2520 7 view .LVU640
 3111              		.loc 1 2541 10 is_stmt 0 view .LVU641
 3112 00ca 0020     		movs	r0, #0
 3113              	.LVL139:
2520:Drivers/STM32U5xx_HAL_Driver/Src/stm32u5xx_hal_pwr_ex.c **** 
 3114              		.loc 1 2520 7 view .LVU642
 3115 00cc 7047     		bx	lr
 3116              	.LVL140:
 3117              	.L290:
2524:Drivers/STM32U5xx_HAL_Driver/Src/stm32u5xx_hal_pwr_ex.c ****       CLEAR_BIT(PWR->PDCRI, (GPIO_Pin & PWR_PORTI_AVAILABLE_PINS));
 3118              		.loc 1 2524 7 is_stmt 1 view .LVU643
 3119 00ce 084B     		ldr	r3, .L301
 3120 00d0 D3F89020 		ldr	r2, [r3, #144]
ARM GAS  C:\Users\Ya\AppData\Local\Temp\ccLrGXJ9.s 			page 104


 3121 00d4 C9B2     		uxtb	r1, r1
 3122              	.LVL141:
2524:Drivers/STM32U5xx_HAL_Driver/Src/stm32u5xx_hal_pwr_ex.c ****       CLEAR_BIT(PWR->PDCRI, (GPIO_Pin & PWR_PORTI_AVAILABLE_PINS));
 3123              		.loc 1 2524 7 is_stmt 0 view .LVU644
 3124 00d6 0A43     		orrs	r2, r2, r1
 3125 00d8 C3F89020 		str	r2, [r3, #144]
2525:Drivers/STM32U5xx_HAL_Driver/Src/stm32u5xx_hal_pwr_ex.c ****       break;
 3126              		.loc 1 2525 7 is_stmt 1 view .LVU645
 3127 00dc D3F89420 		ldr	r2, [r3, #148]
 3128 00e0 22EA0102 		bic	r2, r2, r1
 3129 00e4 C3F89420 		str	r2, [r3, #148]
2526:Drivers/STM32U5xx_HAL_Driver/Src/stm32u5xx_hal_pwr_ex.c **** #endif /* PWR_PUCRI_PU0 */
 3130              		.loc 1 2526 7 view .LVU646
 3131              		.loc 1 2541 10 is_stmt 0 view .LVU647
 3132 00e8 0020     		movs	r0, #0
 3133              	.LVL142:
2526:Drivers/STM32U5xx_HAL_Driver/Src/stm32u5xx_hal_pwr_ex.c **** #endif /* PWR_PUCRI_PU0 */
 3134              		.loc 1 2526 7 view .LVU648
 3135 00ea 7047     		bx	lr
 3136              	.LVL143:
 3137              	.L300:
2478:Drivers/STM32U5xx_HAL_Driver/Src/stm32u5xx_hal_pwr_ex.c ****   {
 3138              		.loc 1 2478 3 view .LVU649
 3139 00ec 0120     		movs	r0, #1
 3140              	.LVL144:
2542:Drivers/STM32U5xx_HAL_Driver/Src/stm32u5xx_hal_pwr_ex.c **** }
 3141              		.loc 1 2542 1 view .LVU650
 3142 00ee 7047     		bx	lr
 3143              	.L302:
 3144              		.align	2
 3145              	.L301:
 3146 00f0 00080246 		.word	1174538240
 3147              		.cfi_endproc
 3148              	.LFE397:
 3150              		.section	.text.HAL_PWREx_DisableGPIOPullUp,"ax",%progbits
 3151              		.align	1
 3152              		.global	HAL_PWREx_DisableGPIOPullUp
 3153              		.syntax unified
 3154              		.thumb
 3155              		.thumb_func
 3157              	HAL_PWREx_DisableGPIOPullUp:
 3158              	.LVL145:
 3159              	.LFB398:
2543:Drivers/STM32U5xx_HAL_Driver/Src/stm32u5xx_hal_pwr_ex.c **** 
2544:Drivers/STM32U5xx_HAL_Driver/Src/stm32u5xx_hal_pwr_ex.c **** /**
2545:Drivers/STM32U5xx_HAL_Driver/Src/stm32u5xx_hal_pwr_ex.c ****   * @brief Disable GPIO pull-up state in Standby mode and Shutdown modes.
2546:Drivers/STM32U5xx_HAL_Driver/Src/stm32u5xx_hal_pwr_ex.c ****   * @note  Reset the relevant PUy bits of PWR_PUCRx register used to configure
2547:Drivers/STM32U5xx_HAL_Driver/Src/stm32u5xx_hal_pwr_ex.c ****   *        the I/O in pull-up state in Standby and Shutdown modes.
2548:Drivers/STM32U5xx_HAL_Driver/Src/stm32u5xx_hal_pwr_ex.c ****   * @note  Even if a PUy bit to reset is reserved, the other PUy bits entered as
2549:Drivers/STM32U5xx_HAL_Driver/Src/stm32u5xx_hal_pwr_ex.c ****   *        input parameter at the same time are reset.
2550:Drivers/STM32U5xx_HAL_Driver/Src/stm32u5xx_hal_pwr_ex.c ****   * @param  GPIO_Port : Specify the IO port.
2551:Drivers/STM32U5xx_HAL_Driver/Src/stm32u5xx_hal_pwr_ex.c ****   *                     This parameter can be a value of
2552:Drivers/STM32U5xx_HAL_Driver/Src/stm32u5xx_hal_pwr_ex.c ****   *                     @ref PWREx_GPIO_Port.
2553:Drivers/STM32U5xx_HAL_Driver/Src/stm32u5xx_hal_pwr_ex.c ****   * @param  GPIO_Pin  : Specify the I/O pins numbers.
2554:Drivers/STM32U5xx_HAL_Driver/Src/stm32u5xx_hal_pwr_ex.c ****   *                     This parameter can be a value of
2555:Drivers/STM32U5xx_HAL_Driver/Src/stm32u5xx_hal_pwr_ex.c ****   *                     @ref PWREx_GPIO_Pin_Mask.
2556:Drivers/STM32U5xx_HAL_Driver/Src/stm32u5xx_hal_pwr_ex.c ****   * @retval HAL Status.
ARM GAS  C:\Users\Ya\AppData\Local\Temp\ccLrGXJ9.s 			page 105


2557:Drivers/STM32U5xx_HAL_Driver/Src/stm32u5xx_hal_pwr_ex.c ****   */
2558:Drivers/STM32U5xx_HAL_Driver/Src/stm32u5xx_hal_pwr_ex.c **** HAL_StatusTypeDef HAL_PWREx_DisableGPIOPullUp(uint32_t GPIO_Port, uint32_t GPIO_Pin)
2559:Drivers/STM32U5xx_HAL_Driver/Src/stm32u5xx_hal_pwr_ex.c **** {
 3160              		.loc 1 2559 1 is_stmt 1 view -0
 3161              		.cfi_startproc
 3162              		@ args = 0, pretend = 0, frame = 0
 3163              		@ frame_needed = 0, uses_anonymous_args = 0
 3164              		@ link register save eliminated.
2560:Drivers/STM32U5xx_HAL_Driver/Src/stm32u5xx_hal_pwr_ex.c ****   /* Check the parameters */
2561:Drivers/STM32U5xx_HAL_Driver/Src/stm32u5xx_hal_pwr_ex.c ****   assert_param(IS_PWR_GPIO_PORT(GPIO_Port));
 3165              		.loc 1 2561 3 view .LVU652
2562:Drivers/STM32U5xx_HAL_Driver/Src/stm32u5xx_hal_pwr_ex.c ****   assert_param(IS_PWR_GPIO_PIN_MASK(GPIO_Pin));
 3166              		.loc 1 2562 3 view .LVU653
2563:Drivers/STM32U5xx_HAL_Driver/Src/stm32u5xx_hal_pwr_ex.c **** 
2564:Drivers/STM32U5xx_HAL_Driver/Src/stm32u5xx_hal_pwr_ex.c ****   /* Check GPIO port */
2565:Drivers/STM32U5xx_HAL_Driver/Src/stm32u5xx_hal_pwr_ex.c ****   switch (GPIO_Port)
 3167              		.loc 1 2565 3 view .LVU654
 3168 0000 0828     		cmp	r0, #8
 3169 0002 4ED8     		bhi	.L315
 3170 0004 DFE800F0 		tbb	[pc, r0]
 3171              	.L306:
 3172 0008 05       		.byte	(.L314-.L306)/2
 3173 0009 0E       		.byte	(.L313-.L306)/2
 3174 000a 15       		.byte	(.L312-.L306)/2
 3175 000b 1C       		.byte	(.L311-.L306)/2
 3176 000c 23       		.byte	(.L310-.L306)/2
 3177 000d 2A       		.byte	(.L309-.L306)/2
 3178 000e 31       		.byte	(.L308-.L306)/2
 3179 000f 3A       		.byte	(.L307-.L306)/2
 3180 0010 43       		.byte	(.L305-.L306)/2
 3181 0011 00       		.p2align 1
 3182              	.L314:
2566:Drivers/STM32U5xx_HAL_Driver/Src/stm32u5xx_hal_pwr_ex.c ****   {
2567:Drivers/STM32U5xx_HAL_Driver/Src/stm32u5xx_hal_pwr_ex.c ****     case PWR_GPIO_A: /* Disable Pull Up for GPIO port A */
2568:Drivers/STM32U5xx_HAL_Driver/Src/stm32u5xx_hal_pwr_ex.c ****       CLEAR_BIT(PWR->PUCRA, (GPIO_Pin & (~(PWR_GPIO_BIT_14))));
 3183              		.loc 1 2568 7 view .LVU655
 3184 0012 254A     		ldr	r2, .L316
 3185 0014 136D     		ldr	r3, [r2, #80]
 3186 0016 21F48041 		bic	r1, r1, #16384
 3187              	.LVL146:
 3188              		.loc 1 2568 7 is_stmt 0 view .LVU656
 3189 001a 23EA0101 		bic	r1, r3, r1
 3190 001e 1165     		str	r1, [r2, #80]
2569:Drivers/STM32U5xx_HAL_Driver/Src/stm32u5xx_hal_pwr_ex.c ****       break;
 3191              		.loc 1 2569 7 is_stmt 1 view .LVU657
2570:Drivers/STM32U5xx_HAL_Driver/Src/stm32u5xx_hal_pwr_ex.c **** 
2571:Drivers/STM32U5xx_HAL_Driver/Src/stm32u5xx_hal_pwr_ex.c ****     case PWR_GPIO_B: /* Disable Pull Up for GPIO port B */
2572:Drivers/STM32U5xx_HAL_Driver/Src/stm32u5xx_hal_pwr_ex.c ****       CLEAR_BIT(PWR->PUCRB, GPIO_Pin);
2573:Drivers/STM32U5xx_HAL_Driver/Src/stm32u5xx_hal_pwr_ex.c ****       break;
2574:Drivers/STM32U5xx_HAL_Driver/Src/stm32u5xx_hal_pwr_ex.c **** 
2575:Drivers/STM32U5xx_HAL_Driver/Src/stm32u5xx_hal_pwr_ex.c ****     case PWR_GPIO_C: /* Disable Pull Up for GPIO port C */
2576:Drivers/STM32U5xx_HAL_Driver/Src/stm32u5xx_hal_pwr_ex.c ****       CLEAR_BIT(PWR->PUCRC, GPIO_Pin);
2577:Drivers/STM32U5xx_HAL_Driver/Src/stm32u5xx_hal_pwr_ex.c ****       break;
2578:Drivers/STM32U5xx_HAL_Driver/Src/stm32u5xx_hal_pwr_ex.c **** 
2579:Drivers/STM32U5xx_HAL_Driver/Src/stm32u5xx_hal_pwr_ex.c ****     case PWR_GPIO_D: /* Disable Pull Up for GPIO port D */
2580:Drivers/STM32U5xx_HAL_Driver/Src/stm32u5xx_hal_pwr_ex.c ****       CLEAR_BIT(PWR->PUCRD, GPIO_Pin);
2581:Drivers/STM32U5xx_HAL_Driver/Src/stm32u5xx_hal_pwr_ex.c ****       break;
ARM GAS  C:\Users\Ya\AppData\Local\Temp\ccLrGXJ9.s 			page 106


2582:Drivers/STM32U5xx_HAL_Driver/Src/stm32u5xx_hal_pwr_ex.c **** 
2583:Drivers/STM32U5xx_HAL_Driver/Src/stm32u5xx_hal_pwr_ex.c ****     case PWR_GPIO_E: /* Disable Pull Up for GPIO port E */
2584:Drivers/STM32U5xx_HAL_Driver/Src/stm32u5xx_hal_pwr_ex.c ****       CLEAR_BIT(PWR->PUCRE, GPIO_Pin);
2585:Drivers/STM32U5xx_HAL_Driver/Src/stm32u5xx_hal_pwr_ex.c ****       break;
2586:Drivers/STM32U5xx_HAL_Driver/Src/stm32u5xx_hal_pwr_ex.c **** 
2587:Drivers/STM32U5xx_HAL_Driver/Src/stm32u5xx_hal_pwr_ex.c **** #ifdef PWR_PUCRF_PU0
2588:Drivers/STM32U5xx_HAL_Driver/Src/stm32u5xx_hal_pwr_ex.c ****     case PWR_GPIO_F: /* Disable Pull Up for GPIO port F */
2589:Drivers/STM32U5xx_HAL_Driver/Src/stm32u5xx_hal_pwr_ex.c ****       CLEAR_BIT(PWR->PUCRF, GPIO_Pin);
2590:Drivers/STM32U5xx_HAL_Driver/Src/stm32u5xx_hal_pwr_ex.c ****       break;
2591:Drivers/STM32U5xx_HAL_Driver/Src/stm32u5xx_hal_pwr_ex.c **** #endif /* PWR_PUCRF_PU0 */
2592:Drivers/STM32U5xx_HAL_Driver/Src/stm32u5xx_hal_pwr_ex.c **** 
2593:Drivers/STM32U5xx_HAL_Driver/Src/stm32u5xx_hal_pwr_ex.c ****     case PWR_GPIO_G: /* Disable Pull Up for GPIO port G */
2594:Drivers/STM32U5xx_HAL_Driver/Src/stm32u5xx_hal_pwr_ex.c ****       CLEAR_BIT(PWR->PUCRG, GPIO_Pin);
2595:Drivers/STM32U5xx_HAL_Driver/Src/stm32u5xx_hal_pwr_ex.c ****       break;
2596:Drivers/STM32U5xx_HAL_Driver/Src/stm32u5xx_hal_pwr_ex.c **** 
2597:Drivers/STM32U5xx_HAL_Driver/Src/stm32u5xx_hal_pwr_ex.c ****     case PWR_GPIO_H: /* Disable Pull Up for GPIO port H */
2598:Drivers/STM32U5xx_HAL_Driver/Src/stm32u5xx_hal_pwr_ex.c ****       CLEAR_BIT(PWR->PUCRH, GPIO_Pin);
2599:Drivers/STM32U5xx_HAL_Driver/Src/stm32u5xx_hal_pwr_ex.c ****       break;
2600:Drivers/STM32U5xx_HAL_Driver/Src/stm32u5xx_hal_pwr_ex.c **** 
2601:Drivers/STM32U5xx_HAL_Driver/Src/stm32u5xx_hal_pwr_ex.c **** #ifdef PWR_PUCRI_PU0
2602:Drivers/STM32U5xx_HAL_Driver/Src/stm32u5xx_hal_pwr_ex.c ****     case PWR_GPIO_I: /* Disable Pull Up for GPIO port I */
2603:Drivers/STM32U5xx_HAL_Driver/Src/stm32u5xx_hal_pwr_ex.c ****       CLEAR_BIT(PWR->PUCRI, (GPIO_Pin & PWR_PORTI_AVAILABLE_PINS));
2604:Drivers/STM32U5xx_HAL_Driver/Src/stm32u5xx_hal_pwr_ex.c ****       break;
2605:Drivers/STM32U5xx_HAL_Driver/Src/stm32u5xx_hal_pwr_ex.c **** #endif /* PWR_PUCRI_PU0 */
2606:Drivers/STM32U5xx_HAL_Driver/Src/stm32u5xx_hal_pwr_ex.c **** 
2607:Drivers/STM32U5xx_HAL_Driver/Src/stm32u5xx_hal_pwr_ex.c **** #if defined (PWR_PUCRJ_PU0)
2608:Drivers/STM32U5xx_HAL_Driver/Src/stm32u5xx_hal_pwr_ex.c ****     case PWR_GPIO_J: /* Disable Pull Up for GPIO port J */
2609:Drivers/STM32U5xx_HAL_Driver/Src/stm32u5xx_hal_pwr_ex.c ****       CLEAR_BIT(PWR->PUCRJ, (GPIO_Pin & PWR_PORTJ_AVAILABLE_PINS));
2610:Drivers/STM32U5xx_HAL_Driver/Src/stm32u5xx_hal_pwr_ex.c ****       break;
2611:Drivers/STM32U5xx_HAL_Driver/Src/stm32u5xx_hal_pwr_ex.c **** #endif /* defined (PWR_PUCRJ_PU0) */
2612:Drivers/STM32U5xx_HAL_Driver/Src/stm32u5xx_hal_pwr_ex.c **** 
2613:Drivers/STM32U5xx_HAL_Driver/Src/stm32u5xx_hal_pwr_ex.c ****     default:
2614:Drivers/STM32U5xx_HAL_Driver/Src/stm32u5xx_hal_pwr_ex.c ****       return HAL_ERROR;
2615:Drivers/STM32U5xx_HAL_Driver/Src/stm32u5xx_hal_pwr_ex.c ****       break;
2616:Drivers/STM32U5xx_HAL_Driver/Src/stm32u5xx_hal_pwr_ex.c ****   }
2617:Drivers/STM32U5xx_HAL_Driver/Src/stm32u5xx_hal_pwr_ex.c **** 
2618:Drivers/STM32U5xx_HAL_Driver/Src/stm32u5xx_hal_pwr_ex.c ****   return HAL_OK;
 3192              		.loc 1 2618 10 is_stmt 0 view .LVU658
 3193 0020 0020     		movs	r0, #0
 3194              	.LVL147:
2569:Drivers/STM32U5xx_HAL_Driver/Src/stm32u5xx_hal_pwr_ex.c ****       break;
 3195              		.loc 1 2569 7 view .LVU659
 3196 0022 7047     		bx	lr
 3197              	.LVL148:
 3198              	.L313:
2572:Drivers/STM32U5xx_HAL_Driver/Src/stm32u5xx_hal_pwr_ex.c ****       break;
 3199              		.loc 1 2572 7 is_stmt 1 view .LVU660
 3200 0024 204A     		ldr	r2, .L316
 3201 0026 936D     		ldr	r3, [r2, #88]
 3202 0028 23EA0103 		bic	r3, r3, r1
 3203 002c 9365     		str	r3, [r2, #88]
2573:Drivers/STM32U5xx_HAL_Driver/Src/stm32u5xx_hal_pwr_ex.c **** 
 3204              		.loc 1 2573 7 view .LVU661
 3205              		.loc 1 2618 10 is_stmt 0 view .LVU662
 3206 002e 0020     		movs	r0, #0
 3207              	.LVL149:
2573:Drivers/STM32U5xx_HAL_Driver/Src/stm32u5xx_hal_pwr_ex.c **** 
ARM GAS  C:\Users\Ya\AppData\Local\Temp\ccLrGXJ9.s 			page 107


 3208              		.loc 1 2573 7 view .LVU663
 3209 0030 7047     		bx	lr
 3210              	.LVL150:
 3211              	.L312:
2576:Drivers/STM32U5xx_HAL_Driver/Src/stm32u5xx_hal_pwr_ex.c ****       break;
 3212              		.loc 1 2576 7 is_stmt 1 view .LVU664
 3213 0032 1D4A     		ldr	r2, .L316
 3214 0034 136E     		ldr	r3, [r2, #96]
 3215 0036 23EA0103 		bic	r3, r3, r1
 3216 003a 1366     		str	r3, [r2, #96]
2577:Drivers/STM32U5xx_HAL_Driver/Src/stm32u5xx_hal_pwr_ex.c **** 
 3217              		.loc 1 2577 7 view .LVU665
 3218              		.loc 1 2618 10 is_stmt 0 view .LVU666
 3219 003c 0020     		movs	r0, #0
 3220              	.LVL151:
2577:Drivers/STM32U5xx_HAL_Driver/Src/stm32u5xx_hal_pwr_ex.c **** 
 3221              		.loc 1 2577 7 view .LVU667
 3222 003e 7047     		bx	lr
 3223              	.LVL152:
 3224              	.L311:
2580:Drivers/STM32U5xx_HAL_Driver/Src/stm32u5xx_hal_pwr_ex.c ****       break;
 3225              		.loc 1 2580 7 is_stmt 1 view .LVU668
 3226 0040 194A     		ldr	r2, .L316
 3227 0042 936E     		ldr	r3, [r2, #104]
 3228 0044 23EA0103 		bic	r3, r3, r1
 3229 0048 9366     		str	r3, [r2, #104]
2581:Drivers/STM32U5xx_HAL_Driver/Src/stm32u5xx_hal_pwr_ex.c **** 
 3230              		.loc 1 2581 7 view .LVU669
 3231              		.loc 1 2618 10 is_stmt 0 view .LVU670
 3232 004a 0020     		movs	r0, #0
 3233              	.LVL153:
2581:Drivers/STM32U5xx_HAL_Driver/Src/stm32u5xx_hal_pwr_ex.c **** 
 3234              		.loc 1 2581 7 view .LVU671
 3235 004c 7047     		bx	lr
 3236              	.LVL154:
 3237              	.L310:
2584:Drivers/STM32U5xx_HAL_Driver/Src/stm32u5xx_hal_pwr_ex.c ****       break;
 3238              		.loc 1 2584 7 is_stmt 1 view .LVU672
 3239 004e 164A     		ldr	r2, .L316
 3240 0050 136F     		ldr	r3, [r2, #112]
 3241 0052 23EA0103 		bic	r3, r3, r1
 3242 0056 1367     		str	r3, [r2, #112]
2585:Drivers/STM32U5xx_HAL_Driver/Src/stm32u5xx_hal_pwr_ex.c **** 
 3243              		.loc 1 2585 7 view .LVU673
 3244              		.loc 1 2618 10 is_stmt 0 view .LVU674
 3245 0058 0020     		movs	r0, #0
 3246              	.LVL155:
2585:Drivers/STM32U5xx_HAL_Driver/Src/stm32u5xx_hal_pwr_ex.c **** 
 3247              		.loc 1 2585 7 view .LVU675
 3248 005a 7047     		bx	lr
 3249              	.LVL156:
 3250              	.L309:
2589:Drivers/STM32U5xx_HAL_Driver/Src/stm32u5xx_hal_pwr_ex.c ****       break;
 3251              		.loc 1 2589 7 is_stmt 1 view .LVU676
 3252 005c 124A     		ldr	r2, .L316
 3253 005e 936F     		ldr	r3, [r2, #120]
 3254 0060 23EA0103 		bic	r3, r3, r1
ARM GAS  C:\Users\Ya\AppData\Local\Temp\ccLrGXJ9.s 			page 108


 3255 0064 9367     		str	r3, [r2, #120]
2590:Drivers/STM32U5xx_HAL_Driver/Src/stm32u5xx_hal_pwr_ex.c **** #endif /* PWR_PUCRF_PU0 */
 3256              		.loc 1 2590 7 view .LVU677
 3257              		.loc 1 2618 10 is_stmt 0 view .LVU678
 3258 0066 0020     		movs	r0, #0
 3259              	.LVL157:
2590:Drivers/STM32U5xx_HAL_Driver/Src/stm32u5xx_hal_pwr_ex.c **** #endif /* PWR_PUCRF_PU0 */
 3260              		.loc 1 2590 7 view .LVU679
 3261 0068 7047     		bx	lr
 3262              	.LVL158:
 3263              	.L308:
2594:Drivers/STM32U5xx_HAL_Driver/Src/stm32u5xx_hal_pwr_ex.c ****       break;
 3264              		.loc 1 2594 7 is_stmt 1 view .LVU680
 3265 006a 0F4A     		ldr	r2, .L316
 3266 006c D2F88030 		ldr	r3, [r2, #128]
 3267 0070 23EA0103 		bic	r3, r3, r1
 3268 0074 C2F88030 		str	r3, [r2, #128]
2595:Drivers/STM32U5xx_HAL_Driver/Src/stm32u5xx_hal_pwr_ex.c **** 
 3269              		.loc 1 2595 7 view .LVU681
 3270              		.loc 1 2618 10 is_stmt 0 view .LVU682
 3271 0078 0020     		movs	r0, #0
 3272              	.LVL159:
2595:Drivers/STM32U5xx_HAL_Driver/Src/stm32u5xx_hal_pwr_ex.c **** 
 3273              		.loc 1 2595 7 view .LVU683
 3274 007a 7047     		bx	lr
 3275              	.LVL160:
 3276              	.L307:
2598:Drivers/STM32U5xx_HAL_Driver/Src/stm32u5xx_hal_pwr_ex.c ****       break;
 3277              		.loc 1 2598 7 is_stmt 1 view .LVU684
 3278 007c 0A4A     		ldr	r2, .L316
 3279 007e D2F88830 		ldr	r3, [r2, #136]
 3280 0082 23EA0103 		bic	r3, r3, r1
 3281 0086 C2F88830 		str	r3, [r2, #136]
2599:Drivers/STM32U5xx_HAL_Driver/Src/stm32u5xx_hal_pwr_ex.c **** 
 3282              		.loc 1 2599 7 view .LVU685
 3283              		.loc 1 2618 10 is_stmt 0 view .LVU686
 3284 008a 0020     		movs	r0, #0
 3285              	.LVL161:
2599:Drivers/STM32U5xx_HAL_Driver/Src/stm32u5xx_hal_pwr_ex.c **** 
 3286              		.loc 1 2599 7 view .LVU687
 3287 008c 7047     		bx	lr
 3288              	.LVL162:
 3289              	.L305:
2603:Drivers/STM32U5xx_HAL_Driver/Src/stm32u5xx_hal_pwr_ex.c ****       break;
 3290              		.loc 1 2603 7 is_stmt 1 view .LVU688
 3291 008e 064A     		ldr	r2, .L316
 3292 0090 D2F89030 		ldr	r3, [r2, #144]
 3293 0094 C9B2     		uxtb	r1, r1
 3294              	.LVL163:
2603:Drivers/STM32U5xx_HAL_Driver/Src/stm32u5xx_hal_pwr_ex.c ****       break;
 3295              		.loc 1 2603 7 is_stmt 0 view .LVU689
 3296 0096 23EA0103 		bic	r3, r3, r1
 3297 009a C2F89030 		str	r3, [r2, #144]
2604:Drivers/STM32U5xx_HAL_Driver/Src/stm32u5xx_hal_pwr_ex.c **** #endif /* PWR_PUCRI_PU0 */
 3298              		.loc 1 2604 7 is_stmt 1 view .LVU690
 3299              		.loc 1 2618 10 is_stmt 0 view .LVU691
 3300 009e 0020     		movs	r0, #0
ARM GAS  C:\Users\Ya\AppData\Local\Temp\ccLrGXJ9.s 			page 109


 3301              	.LVL164:
2604:Drivers/STM32U5xx_HAL_Driver/Src/stm32u5xx_hal_pwr_ex.c **** #endif /* PWR_PUCRI_PU0 */
 3302              		.loc 1 2604 7 view .LVU692
 3303 00a0 7047     		bx	lr
 3304              	.LVL165:
 3305              	.L315:
2565:Drivers/STM32U5xx_HAL_Driver/Src/stm32u5xx_hal_pwr_ex.c ****   {
 3306              		.loc 1 2565 3 view .LVU693
 3307 00a2 0120     		movs	r0, #1
 3308              	.LVL166:
2619:Drivers/STM32U5xx_HAL_Driver/Src/stm32u5xx_hal_pwr_ex.c **** }
 3309              		.loc 1 2619 1 view .LVU694
 3310 00a4 7047     		bx	lr
 3311              	.L317:
 3312 00a6 00BF     		.align	2
 3313              	.L316:
 3314 00a8 00080246 		.word	1174538240
 3315              		.cfi_endproc
 3316              	.LFE398:
 3318              		.section	.text.HAL_PWREx_EnableGPIOPullDown,"ax",%progbits
 3319              		.align	1
 3320              		.global	HAL_PWREx_EnableGPIOPullDown
 3321              		.syntax unified
 3322              		.thumb
 3323              		.thumb_func
 3325              	HAL_PWREx_EnableGPIOPullDown:
 3326              	.LVL167:
 3327              	.LFB399:
2620:Drivers/STM32U5xx_HAL_Driver/Src/stm32u5xx_hal_pwr_ex.c **** 
2621:Drivers/STM32U5xx_HAL_Driver/Src/stm32u5xx_hal_pwr_ex.c **** /**
2622:Drivers/STM32U5xx_HAL_Driver/Src/stm32u5xx_hal_pwr_ex.c ****   * @brief Enable GPIO pull-down state in Standby and Shutdown modes.
2623:Drivers/STM32U5xx_HAL_Driver/Src/stm32u5xx_hal_pwr_ex.c ****   * @note  Set the relevant PDy bits of PWR_PDCRx register to configure the I/O
2624:Drivers/STM32U5xx_HAL_Driver/Src/stm32u5xx_hal_pwr_ex.c ****   *        in pull-down state in Standby and Shutdown modes.
2625:Drivers/STM32U5xx_HAL_Driver/Src/stm32u5xx_hal_pwr_ex.c ****   * @note  This state is effective in Standby and Shutdown modes only if APC bit
2626:Drivers/STM32U5xx_HAL_Driver/Src/stm32u5xx_hal_pwr_ex.c ****   *        is set through HAL_PWREx_EnablePullUpPullDownConfig() API.
2627:Drivers/STM32U5xx_HAL_Driver/Src/stm32u5xx_hal_pwr_ex.c ****   * @note  The configuration is lost when exiting the Shutdown mode due to the
2628:Drivers/STM32U5xx_HAL_Driver/Src/stm32u5xx_hal_pwr_ex.c ****   *        power-on reset, maintained when exiting the Standby mode.
2629:Drivers/STM32U5xx_HAL_Driver/Src/stm32u5xx_hal_pwr_ex.c ****   * @note  To avoid any conflict at Standby and Shutdown modes exits, the
2630:Drivers/STM32U5xx_HAL_Driver/Src/stm32u5xx_hal_pwr_ex.c ****   *        corresponding PUy bit of PWR_PUCRx register is cleared unless it is
2631:Drivers/STM32U5xx_HAL_Driver/Src/stm32u5xx_hal_pwr_ex.c ****   *        reserved.
2632:Drivers/STM32U5xx_HAL_Driver/Src/stm32u5xx_hal_pwr_ex.c ****   * @note  Even if a PDy bit to set is reserved, the other PDy bits entered as
2633:Drivers/STM32U5xx_HAL_Driver/Src/stm32u5xx_hal_pwr_ex.c ****   *        input parameter at the same time are set.
2634:Drivers/STM32U5xx_HAL_Driver/Src/stm32u5xx_hal_pwr_ex.c ****   * @param  GPIO_Port : Specify the IO port.
2635:Drivers/STM32U5xx_HAL_Driver/Src/stm32u5xx_hal_pwr_ex.c ****   *                     This parameter can be a value of
2636:Drivers/STM32U5xx_HAL_Driver/Src/stm32u5xx_hal_pwr_ex.c ****   *                     @ref PWREx_GPIO_Port.
2637:Drivers/STM32U5xx_HAL_Driver/Src/stm32u5xx_hal_pwr_ex.c ****   * @param  GPIO_Pin  : Specify the I/O pins numbers.
2638:Drivers/STM32U5xx_HAL_Driver/Src/stm32u5xx_hal_pwr_ex.c ****   *                     This parameter can be a value of
2639:Drivers/STM32U5xx_HAL_Driver/Src/stm32u5xx_hal_pwr_ex.c ****   *                     @ref PWREx_GPIO_Pin_Mask.
2640:Drivers/STM32U5xx_HAL_Driver/Src/stm32u5xx_hal_pwr_ex.c ****   * @retval HAL Status.
2641:Drivers/STM32U5xx_HAL_Driver/Src/stm32u5xx_hal_pwr_ex.c ****   */
2642:Drivers/STM32U5xx_HAL_Driver/Src/stm32u5xx_hal_pwr_ex.c **** HAL_StatusTypeDef HAL_PWREx_EnableGPIOPullDown(uint32_t GPIO_Port, uint32_t GPIO_Pin)
2643:Drivers/STM32U5xx_HAL_Driver/Src/stm32u5xx_hal_pwr_ex.c **** {
 3328              		.loc 1 2643 1 is_stmt 1 view -0
 3329              		.cfi_startproc
 3330              		@ args = 0, pretend = 0, frame = 0
 3331              		@ frame_needed = 0, uses_anonymous_args = 0
 3332              		@ link register save eliminated.
ARM GAS  C:\Users\Ya\AppData\Local\Temp\ccLrGXJ9.s 			page 110


2644:Drivers/STM32U5xx_HAL_Driver/Src/stm32u5xx_hal_pwr_ex.c ****   /* Check the parameters */
2645:Drivers/STM32U5xx_HAL_Driver/Src/stm32u5xx_hal_pwr_ex.c ****   assert_param(IS_PWR_GPIO_PORT(GPIO_Port));
 3333              		.loc 1 2645 3 view .LVU696
2646:Drivers/STM32U5xx_HAL_Driver/Src/stm32u5xx_hal_pwr_ex.c ****   assert_param(IS_PWR_GPIO_PIN_MASK(GPIO_Pin));
 3334              		.loc 1 2646 3 view .LVU697
2647:Drivers/STM32U5xx_HAL_Driver/Src/stm32u5xx_hal_pwr_ex.c **** 
2648:Drivers/STM32U5xx_HAL_Driver/Src/stm32u5xx_hal_pwr_ex.c ****   /* Check GPIO port */
2649:Drivers/STM32U5xx_HAL_Driver/Src/stm32u5xx_hal_pwr_ex.c ****   switch (GPIO_Port)
 3335              		.loc 1 2649 3 view .LVU698
 3336 0000 0828     		cmp	r0, #8
 3337 0002 73D8     		bhi	.L330
 3338 0004 DFE800F0 		tbb	[pc, r0]
 3339              	.L321:
 3340 0008 05       		.byte	(.L329-.L321)/2
 3341 0009 13       		.byte	(.L328-.L321)/2
 3342 000a 1F       		.byte	(.L327-.L321)/2
 3343 000b 29       		.byte	(.L326-.L321)/2
 3344 000c 33       		.byte	(.L325-.L321)/2
 3345 000d 3D       		.byte	(.L324-.L321)/2
 3346 000e 47       		.byte	(.L323-.L321)/2
 3347 000f 55       		.byte	(.L322-.L321)/2
 3348 0010 63       		.byte	(.L320-.L321)/2
 3349 0011 00       		.p2align 1
 3350              	.L329:
2650:Drivers/STM32U5xx_HAL_Driver/Src/stm32u5xx_hal_pwr_ex.c ****   {
2651:Drivers/STM32U5xx_HAL_Driver/Src/stm32u5xx_hal_pwr_ex.c ****     case PWR_GPIO_A: /* Apply Pull Down to GPIO port A */
2652:Drivers/STM32U5xx_HAL_Driver/Src/stm32u5xx_hal_pwr_ex.c ****       SET_BIT(PWR->PDCRA, (GPIO_Pin & (~(PWR_GPIO_BIT_13 | PWR_GPIO_BIT_15))));
 3351              		.loc 1 2652 7 view .LVU699
 3352 0012 374B     		ldr	r3, .L331
 3353 0014 5A6D     		ldr	r2, [r3, #84]
 3354 0016 21F42040 		bic	r0, r1, #40960
 3355              	.LVL168:
 3356              		.loc 1 2652 7 is_stmt 0 view .LVU700
 3357 001a 0243     		orrs	r2, r2, r0
 3358 001c 5A65     		str	r2, [r3, #84]
2653:Drivers/STM32U5xx_HAL_Driver/Src/stm32u5xx_hal_pwr_ex.c ****       CLEAR_BIT(PWR->PUCRA, (GPIO_Pin & (~(PWR_GPIO_BIT_14))));
 3359              		.loc 1 2653 7 is_stmt 1 view .LVU701
 3360 001e 1A6D     		ldr	r2, [r3, #80]
 3361 0020 21F48041 		bic	r1, r1, #16384
 3362              	.LVL169:
 3363              		.loc 1 2653 7 is_stmt 0 view .LVU702
 3364 0024 22EA0102 		bic	r2, r2, r1
 3365 0028 1A65     		str	r2, [r3, #80]
2654:Drivers/STM32U5xx_HAL_Driver/Src/stm32u5xx_hal_pwr_ex.c ****       break;
 3366              		.loc 1 2654 7 is_stmt 1 view .LVU703
2655:Drivers/STM32U5xx_HAL_Driver/Src/stm32u5xx_hal_pwr_ex.c **** 
2656:Drivers/STM32U5xx_HAL_Driver/Src/stm32u5xx_hal_pwr_ex.c ****     case PWR_GPIO_B: /* Apply Pull Down to GPIO port B */
2657:Drivers/STM32U5xx_HAL_Driver/Src/stm32u5xx_hal_pwr_ex.c ****       SET_BIT(PWR->PDCRB, (GPIO_Pin & (~(PWR_GPIO_BIT_4))));
2658:Drivers/STM32U5xx_HAL_Driver/Src/stm32u5xx_hal_pwr_ex.c ****       CLEAR_BIT(PWR->PUCRB, GPIO_Pin);
2659:Drivers/STM32U5xx_HAL_Driver/Src/stm32u5xx_hal_pwr_ex.c ****       break;
2660:Drivers/STM32U5xx_HAL_Driver/Src/stm32u5xx_hal_pwr_ex.c **** 
2661:Drivers/STM32U5xx_HAL_Driver/Src/stm32u5xx_hal_pwr_ex.c ****     case PWR_GPIO_C: /* Apply Pull Down to GPIO port C */
2662:Drivers/STM32U5xx_HAL_Driver/Src/stm32u5xx_hal_pwr_ex.c ****       SET_BIT(PWR->PDCRC, GPIO_Pin);
2663:Drivers/STM32U5xx_HAL_Driver/Src/stm32u5xx_hal_pwr_ex.c ****       CLEAR_BIT(PWR->PUCRC, GPIO_Pin);
2664:Drivers/STM32U5xx_HAL_Driver/Src/stm32u5xx_hal_pwr_ex.c ****       break;
2665:Drivers/STM32U5xx_HAL_Driver/Src/stm32u5xx_hal_pwr_ex.c **** 
2666:Drivers/STM32U5xx_HAL_Driver/Src/stm32u5xx_hal_pwr_ex.c ****     case PWR_GPIO_D: /* Apply Pull Down to GPIO port D */
ARM GAS  C:\Users\Ya\AppData\Local\Temp\ccLrGXJ9.s 			page 111


2667:Drivers/STM32U5xx_HAL_Driver/Src/stm32u5xx_hal_pwr_ex.c ****       SET_BIT(PWR->PDCRD, GPIO_Pin);
2668:Drivers/STM32U5xx_HAL_Driver/Src/stm32u5xx_hal_pwr_ex.c ****       CLEAR_BIT(PWR->PUCRD, GPIO_Pin);
2669:Drivers/STM32U5xx_HAL_Driver/Src/stm32u5xx_hal_pwr_ex.c ****       break;
2670:Drivers/STM32U5xx_HAL_Driver/Src/stm32u5xx_hal_pwr_ex.c **** 
2671:Drivers/STM32U5xx_HAL_Driver/Src/stm32u5xx_hal_pwr_ex.c ****     case PWR_GPIO_E: /* Apply Pull Down to GPIO port E */
2672:Drivers/STM32U5xx_HAL_Driver/Src/stm32u5xx_hal_pwr_ex.c ****       SET_BIT(PWR->PDCRE, GPIO_Pin);
2673:Drivers/STM32U5xx_HAL_Driver/Src/stm32u5xx_hal_pwr_ex.c ****       CLEAR_BIT(PWR->PUCRE, GPIO_Pin);
2674:Drivers/STM32U5xx_HAL_Driver/Src/stm32u5xx_hal_pwr_ex.c ****       break;
2675:Drivers/STM32U5xx_HAL_Driver/Src/stm32u5xx_hal_pwr_ex.c **** 
2676:Drivers/STM32U5xx_HAL_Driver/Src/stm32u5xx_hal_pwr_ex.c **** #ifdef PWR_PUCRF_PU0
2677:Drivers/STM32U5xx_HAL_Driver/Src/stm32u5xx_hal_pwr_ex.c ****     case PWR_GPIO_F: /* Apply Pull Down to GPIO port F */
2678:Drivers/STM32U5xx_HAL_Driver/Src/stm32u5xx_hal_pwr_ex.c ****       SET_BIT(PWR->PDCRF, GPIO_Pin);
2679:Drivers/STM32U5xx_HAL_Driver/Src/stm32u5xx_hal_pwr_ex.c ****       CLEAR_BIT(PWR->PUCRF, GPIO_Pin);
2680:Drivers/STM32U5xx_HAL_Driver/Src/stm32u5xx_hal_pwr_ex.c ****       break;
2681:Drivers/STM32U5xx_HAL_Driver/Src/stm32u5xx_hal_pwr_ex.c **** #endif /* PWR_PUCRF_PU0 */
2682:Drivers/STM32U5xx_HAL_Driver/Src/stm32u5xx_hal_pwr_ex.c **** 
2683:Drivers/STM32U5xx_HAL_Driver/Src/stm32u5xx_hal_pwr_ex.c ****     case PWR_GPIO_G: /* Apply Pull Down to GPIO port G */
2684:Drivers/STM32U5xx_HAL_Driver/Src/stm32u5xx_hal_pwr_ex.c ****       SET_BIT(PWR->PDCRG, GPIO_Pin);
2685:Drivers/STM32U5xx_HAL_Driver/Src/stm32u5xx_hal_pwr_ex.c ****       CLEAR_BIT(PWR->PUCRG, GPIO_Pin);
2686:Drivers/STM32U5xx_HAL_Driver/Src/stm32u5xx_hal_pwr_ex.c ****       break;
2687:Drivers/STM32U5xx_HAL_Driver/Src/stm32u5xx_hal_pwr_ex.c **** 
2688:Drivers/STM32U5xx_HAL_Driver/Src/stm32u5xx_hal_pwr_ex.c ****     case PWR_GPIO_H: /* Apply Pull Down to GPIO port H */
2689:Drivers/STM32U5xx_HAL_Driver/Src/stm32u5xx_hal_pwr_ex.c ****       SET_BIT(PWR->PDCRH, GPIO_Pin);
2690:Drivers/STM32U5xx_HAL_Driver/Src/stm32u5xx_hal_pwr_ex.c ****       CLEAR_BIT(PWR->PUCRH, GPIO_Pin);
2691:Drivers/STM32U5xx_HAL_Driver/Src/stm32u5xx_hal_pwr_ex.c ****       break;
2692:Drivers/STM32U5xx_HAL_Driver/Src/stm32u5xx_hal_pwr_ex.c **** 
2693:Drivers/STM32U5xx_HAL_Driver/Src/stm32u5xx_hal_pwr_ex.c **** #ifdef PWR_PUCRI_PU0
2694:Drivers/STM32U5xx_HAL_Driver/Src/stm32u5xx_hal_pwr_ex.c ****     case PWR_GPIO_I: /* Apply Pull Down to GPIO port I */
2695:Drivers/STM32U5xx_HAL_Driver/Src/stm32u5xx_hal_pwr_ex.c ****       SET_BIT(PWR->PDCRI, (GPIO_Pin & PWR_PORTI_AVAILABLE_PINS));
2696:Drivers/STM32U5xx_HAL_Driver/Src/stm32u5xx_hal_pwr_ex.c ****       CLEAR_BIT(PWR->PUCRI, (GPIO_Pin & PWR_PORTI_AVAILABLE_PINS));
2697:Drivers/STM32U5xx_HAL_Driver/Src/stm32u5xx_hal_pwr_ex.c ****       break;
2698:Drivers/STM32U5xx_HAL_Driver/Src/stm32u5xx_hal_pwr_ex.c **** #endif /* PWR_PUCRI_PU0 */
2699:Drivers/STM32U5xx_HAL_Driver/Src/stm32u5xx_hal_pwr_ex.c **** 
2700:Drivers/STM32U5xx_HAL_Driver/Src/stm32u5xx_hal_pwr_ex.c **** #if defined (PWR_PUCRJ_PU0)
2701:Drivers/STM32U5xx_HAL_Driver/Src/stm32u5xx_hal_pwr_ex.c ****     case PWR_GPIO_J: /* Apply Pull Down to GPIO port J */
2702:Drivers/STM32U5xx_HAL_Driver/Src/stm32u5xx_hal_pwr_ex.c ****       SET_BIT(PWR->PDCRJ, (GPIO_Pin & PWR_PORTJ_AVAILABLE_PINS));
2703:Drivers/STM32U5xx_HAL_Driver/Src/stm32u5xx_hal_pwr_ex.c ****       CLEAR_BIT(PWR->PUCRJ, (GPIO_Pin & PWR_PORTJ_AVAILABLE_PINS));
2704:Drivers/STM32U5xx_HAL_Driver/Src/stm32u5xx_hal_pwr_ex.c ****       break;
2705:Drivers/STM32U5xx_HAL_Driver/Src/stm32u5xx_hal_pwr_ex.c **** #endif /* defined (PWR_PUCRJ_PU0) */
2706:Drivers/STM32U5xx_HAL_Driver/Src/stm32u5xx_hal_pwr_ex.c **** 
2707:Drivers/STM32U5xx_HAL_Driver/Src/stm32u5xx_hal_pwr_ex.c ****     default:
2708:Drivers/STM32U5xx_HAL_Driver/Src/stm32u5xx_hal_pwr_ex.c ****       return HAL_ERROR;
2709:Drivers/STM32U5xx_HAL_Driver/Src/stm32u5xx_hal_pwr_ex.c ****       break;
2710:Drivers/STM32U5xx_HAL_Driver/Src/stm32u5xx_hal_pwr_ex.c ****   }
2711:Drivers/STM32U5xx_HAL_Driver/Src/stm32u5xx_hal_pwr_ex.c **** 
2712:Drivers/STM32U5xx_HAL_Driver/Src/stm32u5xx_hal_pwr_ex.c ****   return HAL_OK;
 3367              		.loc 1 2712 10 is_stmt 0 view .LVU704
 3368 002a 0020     		movs	r0, #0
2654:Drivers/STM32U5xx_HAL_Driver/Src/stm32u5xx_hal_pwr_ex.c ****       break;
 3369              		.loc 1 2654 7 view .LVU705
 3370 002c 7047     		bx	lr
 3371              	.LVL170:
 3372              	.L328:
2657:Drivers/STM32U5xx_HAL_Driver/Src/stm32u5xx_hal_pwr_ex.c ****       CLEAR_BIT(PWR->PUCRB, GPIO_Pin);
 3373              		.loc 1 2657 7 is_stmt 1 view .LVU706
 3374 002e 304B     		ldr	r3, .L331
 3375 0030 DA6D     		ldr	r2, [r3, #92]
ARM GAS  C:\Users\Ya\AppData\Local\Temp\ccLrGXJ9.s 			page 112


 3376 0032 21F01000 		bic	r0, r1, #16
 3377              	.LVL171:
2657:Drivers/STM32U5xx_HAL_Driver/Src/stm32u5xx_hal_pwr_ex.c ****       CLEAR_BIT(PWR->PUCRB, GPIO_Pin);
 3378              		.loc 1 2657 7 is_stmt 0 view .LVU707
 3379 0036 0243     		orrs	r2, r2, r0
 3380 0038 DA65     		str	r2, [r3, #92]
2658:Drivers/STM32U5xx_HAL_Driver/Src/stm32u5xx_hal_pwr_ex.c ****       break;
 3381              		.loc 1 2658 7 is_stmt 1 view .LVU708
 3382 003a 9A6D     		ldr	r2, [r3, #88]
 3383 003c 22EA0102 		bic	r2, r2, r1
 3384 0040 9A65     		str	r2, [r3, #88]
2659:Drivers/STM32U5xx_HAL_Driver/Src/stm32u5xx_hal_pwr_ex.c **** 
 3385              		.loc 1 2659 7 view .LVU709
 3386              		.loc 1 2712 10 is_stmt 0 view .LVU710
 3387 0042 0020     		movs	r0, #0
2659:Drivers/STM32U5xx_HAL_Driver/Src/stm32u5xx_hal_pwr_ex.c **** 
 3388              		.loc 1 2659 7 view .LVU711
 3389 0044 7047     		bx	lr
 3390              	.LVL172:
 3391              	.L327:
2662:Drivers/STM32U5xx_HAL_Driver/Src/stm32u5xx_hal_pwr_ex.c ****       CLEAR_BIT(PWR->PUCRC, GPIO_Pin);
 3392              		.loc 1 2662 7 is_stmt 1 view .LVU712
 3393 0046 2A4B     		ldr	r3, .L331
 3394 0048 5A6E     		ldr	r2, [r3, #100]
 3395 004a 0A43     		orrs	r2, r2, r1
 3396 004c 5A66     		str	r2, [r3, #100]
2663:Drivers/STM32U5xx_HAL_Driver/Src/stm32u5xx_hal_pwr_ex.c ****       break;
 3397              		.loc 1 2663 7 view .LVU713
 3398 004e 1A6E     		ldr	r2, [r3, #96]
 3399 0050 22EA0102 		bic	r2, r2, r1
 3400 0054 1A66     		str	r2, [r3, #96]
2664:Drivers/STM32U5xx_HAL_Driver/Src/stm32u5xx_hal_pwr_ex.c **** 
 3401              		.loc 1 2664 7 view .LVU714
 3402              		.loc 1 2712 10 is_stmt 0 view .LVU715
 3403 0056 0020     		movs	r0, #0
 3404              	.LVL173:
2664:Drivers/STM32U5xx_HAL_Driver/Src/stm32u5xx_hal_pwr_ex.c **** 
 3405              		.loc 1 2664 7 view .LVU716
 3406 0058 7047     		bx	lr
 3407              	.LVL174:
 3408              	.L326:
2667:Drivers/STM32U5xx_HAL_Driver/Src/stm32u5xx_hal_pwr_ex.c ****       CLEAR_BIT(PWR->PUCRD, GPIO_Pin);
 3409              		.loc 1 2667 7 is_stmt 1 view .LVU717
 3410 005a 254B     		ldr	r3, .L331
 3411 005c DA6E     		ldr	r2, [r3, #108]
 3412 005e 0A43     		orrs	r2, r2, r1
 3413 0060 DA66     		str	r2, [r3, #108]
2668:Drivers/STM32U5xx_HAL_Driver/Src/stm32u5xx_hal_pwr_ex.c ****       break;
 3414              		.loc 1 2668 7 view .LVU718
 3415 0062 9A6E     		ldr	r2, [r3, #104]
 3416 0064 22EA0102 		bic	r2, r2, r1
 3417 0068 9A66     		str	r2, [r3, #104]
2669:Drivers/STM32U5xx_HAL_Driver/Src/stm32u5xx_hal_pwr_ex.c **** 
 3418              		.loc 1 2669 7 view .LVU719
 3419              		.loc 1 2712 10 is_stmt 0 view .LVU720
 3420 006a 0020     		movs	r0, #0
 3421              	.LVL175:
ARM GAS  C:\Users\Ya\AppData\Local\Temp\ccLrGXJ9.s 			page 113


2669:Drivers/STM32U5xx_HAL_Driver/Src/stm32u5xx_hal_pwr_ex.c **** 
 3422              		.loc 1 2669 7 view .LVU721
 3423 006c 7047     		bx	lr
 3424              	.LVL176:
 3425              	.L325:
2672:Drivers/STM32U5xx_HAL_Driver/Src/stm32u5xx_hal_pwr_ex.c ****       CLEAR_BIT(PWR->PUCRE, GPIO_Pin);
 3426              		.loc 1 2672 7 is_stmt 1 view .LVU722
 3427 006e 204B     		ldr	r3, .L331
 3428 0070 5A6F     		ldr	r2, [r3, #116]
 3429 0072 0A43     		orrs	r2, r2, r1
 3430 0074 5A67     		str	r2, [r3, #116]
2673:Drivers/STM32U5xx_HAL_Driver/Src/stm32u5xx_hal_pwr_ex.c ****       break;
 3431              		.loc 1 2673 7 view .LVU723
 3432 0076 1A6F     		ldr	r2, [r3, #112]
 3433 0078 22EA0102 		bic	r2, r2, r1
 3434 007c 1A67     		str	r2, [r3, #112]
2674:Drivers/STM32U5xx_HAL_Driver/Src/stm32u5xx_hal_pwr_ex.c **** 
 3435              		.loc 1 2674 7 view .LVU724
 3436              		.loc 1 2712 10 is_stmt 0 view .LVU725
 3437 007e 0020     		movs	r0, #0
 3438              	.LVL177:
2674:Drivers/STM32U5xx_HAL_Driver/Src/stm32u5xx_hal_pwr_ex.c **** 
 3439              		.loc 1 2674 7 view .LVU726
 3440 0080 7047     		bx	lr
 3441              	.LVL178:
 3442              	.L324:
2678:Drivers/STM32U5xx_HAL_Driver/Src/stm32u5xx_hal_pwr_ex.c ****       CLEAR_BIT(PWR->PUCRF, GPIO_Pin);
 3443              		.loc 1 2678 7 is_stmt 1 view .LVU727
 3444 0082 1B4B     		ldr	r3, .L331
 3445 0084 DA6F     		ldr	r2, [r3, #124]
 3446 0086 0A43     		orrs	r2, r2, r1
 3447 0088 DA67     		str	r2, [r3, #124]
2679:Drivers/STM32U5xx_HAL_Driver/Src/stm32u5xx_hal_pwr_ex.c ****       break;
 3448              		.loc 1 2679 7 view .LVU728
 3449 008a 9A6F     		ldr	r2, [r3, #120]
 3450 008c 22EA0102 		bic	r2, r2, r1
 3451 0090 9A67     		str	r2, [r3, #120]
2680:Drivers/STM32U5xx_HAL_Driver/Src/stm32u5xx_hal_pwr_ex.c **** #endif /* PWR_PUCRF_PU0 */
 3452              		.loc 1 2680 7 view .LVU729
 3453              		.loc 1 2712 10 is_stmt 0 view .LVU730
 3454 0092 0020     		movs	r0, #0
 3455              	.LVL179:
2680:Drivers/STM32U5xx_HAL_Driver/Src/stm32u5xx_hal_pwr_ex.c **** #endif /* PWR_PUCRF_PU0 */
 3456              		.loc 1 2680 7 view .LVU731
 3457 0094 7047     		bx	lr
 3458              	.LVL180:
 3459              	.L323:
2684:Drivers/STM32U5xx_HAL_Driver/Src/stm32u5xx_hal_pwr_ex.c ****       CLEAR_BIT(PWR->PUCRG, GPIO_Pin);
 3460              		.loc 1 2684 7 is_stmt 1 view .LVU732
 3461 0096 164B     		ldr	r3, .L331
 3462 0098 D3F88420 		ldr	r2, [r3, #132]
 3463 009c 0A43     		orrs	r2, r2, r1
 3464 009e C3F88420 		str	r2, [r3, #132]
2685:Drivers/STM32U5xx_HAL_Driver/Src/stm32u5xx_hal_pwr_ex.c ****       break;
 3465              		.loc 1 2685 7 view .LVU733
 3466 00a2 D3F88020 		ldr	r2, [r3, #128]
 3467 00a6 22EA0102 		bic	r2, r2, r1
ARM GAS  C:\Users\Ya\AppData\Local\Temp\ccLrGXJ9.s 			page 114


 3468 00aa C3F88020 		str	r2, [r3, #128]
2686:Drivers/STM32U5xx_HAL_Driver/Src/stm32u5xx_hal_pwr_ex.c **** 
 3469              		.loc 1 2686 7 view .LVU734
 3470              		.loc 1 2712 10 is_stmt 0 view .LVU735
 3471 00ae 0020     		movs	r0, #0
 3472              	.LVL181:
2686:Drivers/STM32U5xx_HAL_Driver/Src/stm32u5xx_hal_pwr_ex.c **** 
 3473              		.loc 1 2686 7 view .LVU736
 3474 00b0 7047     		bx	lr
 3475              	.LVL182:
 3476              	.L322:
2689:Drivers/STM32U5xx_HAL_Driver/Src/stm32u5xx_hal_pwr_ex.c ****       CLEAR_BIT(PWR->PUCRH, GPIO_Pin);
 3477              		.loc 1 2689 7 is_stmt 1 view .LVU737
 3478 00b2 0F4B     		ldr	r3, .L331
 3479 00b4 D3F88C20 		ldr	r2, [r3, #140]
 3480 00b8 0A43     		orrs	r2, r2, r1
 3481 00ba C3F88C20 		str	r2, [r3, #140]
2690:Drivers/STM32U5xx_HAL_Driver/Src/stm32u5xx_hal_pwr_ex.c ****       break;
 3482              		.loc 1 2690 7 view .LVU738
 3483 00be D3F88820 		ldr	r2, [r3, #136]
 3484 00c2 22EA0102 		bic	r2, r2, r1
 3485 00c6 C3F88820 		str	r2, [r3, #136]
2691:Drivers/STM32U5xx_HAL_Driver/Src/stm32u5xx_hal_pwr_ex.c **** 
 3486              		.loc 1 2691 7 view .LVU739
 3487              		.loc 1 2712 10 is_stmt 0 view .LVU740
 3488 00ca 0020     		movs	r0, #0
 3489              	.LVL183:
2691:Drivers/STM32U5xx_HAL_Driver/Src/stm32u5xx_hal_pwr_ex.c **** 
 3490              		.loc 1 2691 7 view .LVU741
 3491 00cc 7047     		bx	lr
 3492              	.LVL184:
 3493              	.L320:
2695:Drivers/STM32U5xx_HAL_Driver/Src/stm32u5xx_hal_pwr_ex.c ****       CLEAR_BIT(PWR->PUCRI, (GPIO_Pin & PWR_PORTI_AVAILABLE_PINS));
 3494              		.loc 1 2695 7 is_stmt 1 view .LVU742
 3495 00ce 084B     		ldr	r3, .L331
 3496 00d0 D3F89420 		ldr	r2, [r3, #148]
 3497 00d4 C9B2     		uxtb	r1, r1
 3498              	.LVL185:
2695:Drivers/STM32U5xx_HAL_Driver/Src/stm32u5xx_hal_pwr_ex.c ****       CLEAR_BIT(PWR->PUCRI, (GPIO_Pin & PWR_PORTI_AVAILABLE_PINS));
 3499              		.loc 1 2695 7 is_stmt 0 view .LVU743
 3500 00d6 0A43     		orrs	r2, r2, r1
 3501 00d8 C3F89420 		str	r2, [r3, #148]
2696:Drivers/STM32U5xx_HAL_Driver/Src/stm32u5xx_hal_pwr_ex.c ****       break;
 3502              		.loc 1 2696 7 is_stmt 1 view .LVU744
 3503 00dc D3F89020 		ldr	r2, [r3, #144]
 3504 00e0 22EA0102 		bic	r2, r2, r1
 3505 00e4 C3F89020 		str	r2, [r3, #144]
2697:Drivers/STM32U5xx_HAL_Driver/Src/stm32u5xx_hal_pwr_ex.c **** #endif /* PWR_PUCRI_PU0 */
 3506              		.loc 1 2697 7 view .LVU745
 3507              		.loc 1 2712 10 is_stmt 0 view .LVU746
 3508 00e8 0020     		movs	r0, #0
 3509              	.LVL186:
2697:Drivers/STM32U5xx_HAL_Driver/Src/stm32u5xx_hal_pwr_ex.c **** #endif /* PWR_PUCRI_PU0 */
 3510              		.loc 1 2697 7 view .LVU747
 3511 00ea 7047     		bx	lr
 3512              	.LVL187:
 3513              	.L330:
ARM GAS  C:\Users\Ya\AppData\Local\Temp\ccLrGXJ9.s 			page 115


2649:Drivers/STM32U5xx_HAL_Driver/Src/stm32u5xx_hal_pwr_ex.c ****   {
 3514              		.loc 1 2649 3 view .LVU748
 3515 00ec 0120     		movs	r0, #1
 3516              	.LVL188:
2713:Drivers/STM32U5xx_HAL_Driver/Src/stm32u5xx_hal_pwr_ex.c **** }
 3517              		.loc 1 2713 1 view .LVU749
 3518 00ee 7047     		bx	lr
 3519              	.L332:
 3520              		.align	2
 3521              	.L331:
 3522 00f0 00080246 		.word	1174538240
 3523              		.cfi_endproc
 3524              	.LFE399:
 3526              		.section	.text.HAL_PWREx_DisableGPIOPullDown,"ax",%progbits
 3527              		.align	1
 3528              		.global	HAL_PWREx_DisableGPIOPullDown
 3529              		.syntax unified
 3530              		.thumb
 3531              		.thumb_func
 3533              	HAL_PWREx_DisableGPIOPullDown:
 3534              	.LVL189:
 3535              	.LFB400:
2714:Drivers/STM32U5xx_HAL_Driver/Src/stm32u5xx_hal_pwr_ex.c **** 
2715:Drivers/STM32U5xx_HAL_Driver/Src/stm32u5xx_hal_pwr_ex.c **** /**
2716:Drivers/STM32U5xx_HAL_Driver/Src/stm32u5xx_hal_pwr_ex.c ****   * @brief Disable GPIO pull-down state in Standby and Shutdown modes.
2717:Drivers/STM32U5xx_HAL_Driver/Src/stm32u5xx_hal_pwr_ex.c ****   * @note  Reset the relevant PDy bits of PWR_PDCRx register used to configure the I/O
2718:Drivers/STM32U5xx_HAL_Driver/Src/stm32u5xx_hal_pwr_ex.c ****   *        in pull-down state in Standby and Shutdown modes.
2719:Drivers/STM32U5xx_HAL_Driver/Src/stm32u5xx_hal_pwr_ex.c ****   * @note  Even if a PDy bit to reset is reserved, the other PDy bits entered as input
2720:Drivers/STM32U5xx_HAL_Driver/Src/stm32u5xx_hal_pwr_ex.c ****   *        parameter at the same time are reset.
2721:Drivers/STM32U5xx_HAL_Driver/Src/stm32u5xx_hal_pwr_ex.c ****   * @param  GPIO_Port : Specify the IO port.
2722:Drivers/STM32U5xx_HAL_Driver/Src/stm32u5xx_hal_pwr_ex.c ****   *                     This parameter can be a value of
2723:Drivers/STM32U5xx_HAL_Driver/Src/stm32u5xx_hal_pwr_ex.c ****   *                     @ref PWREx_GPIO_Port.
2724:Drivers/STM32U5xx_HAL_Driver/Src/stm32u5xx_hal_pwr_ex.c ****   * @param  GPIO_Pin  : Specify the I/O pins numbers.
2725:Drivers/STM32U5xx_HAL_Driver/Src/stm32u5xx_hal_pwr_ex.c ****   *                     This parameter can be a value of
2726:Drivers/STM32U5xx_HAL_Driver/Src/stm32u5xx_hal_pwr_ex.c ****   *                     @ref PWREx_GPIO_Pin_Mask.
2727:Drivers/STM32U5xx_HAL_Driver/Src/stm32u5xx_hal_pwr_ex.c ****   * @retval HAL Status.
2728:Drivers/STM32U5xx_HAL_Driver/Src/stm32u5xx_hal_pwr_ex.c ****   */
2729:Drivers/STM32U5xx_HAL_Driver/Src/stm32u5xx_hal_pwr_ex.c **** HAL_StatusTypeDef HAL_PWREx_DisableGPIOPullDown(uint32_t GPIO_Port, uint32_t GPIO_Pin)
2730:Drivers/STM32U5xx_HAL_Driver/Src/stm32u5xx_hal_pwr_ex.c **** {
 3536              		.loc 1 2730 1 is_stmt 1 view -0
 3537              		.cfi_startproc
 3538              		@ args = 0, pretend = 0, frame = 0
 3539              		@ frame_needed = 0, uses_anonymous_args = 0
 3540              		@ link register save eliminated.
2731:Drivers/STM32U5xx_HAL_Driver/Src/stm32u5xx_hal_pwr_ex.c ****   /* Check the parameters */
2732:Drivers/STM32U5xx_HAL_Driver/Src/stm32u5xx_hal_pwr_ex.c ****   assert_param(IS_PWR_GPIO_PORT(GPIO_Port));
 3541              		.loc 1 2732 3 view .LVU751
2733:Drivers/STM32U5xx_HAL_Driver/Src/stm32u5xx_hal_pwr_ex.c ****   assert_param(IS_PWR_GPIO_PIN_MASK(GPIO_Pin));
 3542              		.loc 1 2733 3 view .LVU752
2734:Drivers/STM32U5xx_HAL_Driver/Src/stm32u5xx_hal_pwr_ex.c **** 
2735:Drivers/STM32U5xx_HAL_Driver/Src/stm32u5xx_hal_pwr_ex.c ****   /* Check GPIO port */
2736:Drivers/STM32U5xx_HAL_Driver/Src/stm32u5xx_hal_pwr_ex.c ****   switch (GPIO_Port)
 3543              		.loc 1 2736 3 view .LVU753
 3544 0000 0828     		cmp	r0, #8
 3545 0002 50D8     		bhi	.L345
 3546 0004 DFE800F0 		tbb	[pc, r0]
 3547              	.L336:
ARM GAS  C:\Users\Ya\AppData\Local\Temp\ccLrGXJ9.s 			page 116


 3548 0008 05       		.byte	(.L344-.L336)/2
 3549 0009 0E       		.byte	(.L343-.L336)/2
 3550 000a 17       		.byte	(.L342-.L336)/2
 3551 000b 1E       		.byte	(.L341-.L336)/2
 3552 000c 25       		.byte	(.L340-.L336)/2
 3553 000d 2C       		.byte	(.L339-.L336)/2
 3554 000e 33       		.byte	(.L338-.L336)/2
 3555 000f 3C       		.byte	(.L337-.L336)/2
 3556 0010 45       		.byte	(.L335-.L336)/2
 3557 0011 00       		.p2align 1
 3558              	.L344:
2737:Drivers/STM32U5xx_HAL_Driver/Src/stm32u5xx_hal_pwr_ex.c ****   {
2738:Drivers/STM32U5xx_HAL_Driver/Src/stm32u5xx_hal_pwr_ex.c ****     case PWR_GPIO_A: /* Disable Pull Down for GPIO port A */
2739:Drivers/STM32U5xx_HAL_Driver/Src/stm32u5xx_hal_pwr_ex.c ****       CLEAR_BIT(PWR->PDCRA, (GPIO_Pin & (~(PWR_GPIO_BIT_13 | PWR_GPIO_BIT_15))));
 3559              		.loc 1 2739 7 view .LVU754
 3560 0012 264A     		ldr	r2, .L346
 3561 0014 536D     		ldr	r3, [r2, #84]
 3562 0016 21F42041 		bic	r1, r1, #40960
 3563              	.LVL190:
 3564              		.loc 1 2739 7 is_stmt 0 view .LVU755
 3565 001a 23EA0101 		bic	r1, r3, r1
 3566 001e 5165     		str	r1, [r2, #84]
2740:Drivers/STM32U5xx_HAL_Driver/Src/stm32u5xx_hal_pwr_ex.c ****       break;
 3567              		.loc 1 2740 7 is_stmt 1 view .LVU756
2741:Drivers/STM32U5xx_HAL_Driver/Src/stm32u5xx_hal_pwr_ex.c **** 
2742:Drivers/STM32U5xx_HAL_Driver/Src/stm32u5xx_hal_pwr_ex.c ****     case PWR_GPIO_B: /* Disable Pull Down for GPIO port B */
2743:Drivers/STM32U5xx_HAL_Driver/Src/stm32u5xx_hal_pwr_ex.c ****       CLEAR_BIT(PWR->PDCRB, (GPIO_Pin & (~(PWR_GPIO_BIT_4))));
2744:Drivers/STM32U5xx_HAL_Driver/Src/stm32u5xx_hal_pwr_ex.c ****       break;
2745:Drivers/STM32U5xx_HAL_Driver/Src/stm32u5xx_hal_pwr_ex.c **** 
2746:Drivers/STM32U5xx_HAL_Driver/Src/stm32u5xx_hal_pwr_ex.c ****     case PWR_GPIO_C: /* Disable Pull Down for GPIO port C */
2747:Drivers/STM32U5xx_HAL_Driver/Src/stm32u5xx_hal_pwr_ex.c ****       CLEAR_BIT(PWR->PDCRC, GPIO_Pin);
2748:Drivers/STM32U5xx_HAL_Driver/Src/stm32u5xx_hal_pwr_ex.c ****       break;
2749:Drivers/STM32U5xx_HAL_Driver/Src/stm32u5xx_hal_pwr_ex.c **** 
2750:Drivers/STM32U5xx_HAL_Driver/Src/stm32u5xx_hal_pwr_ex.c ****     case PWR_GPIO_D: /* Disable Pull Down for GPIO port D */
2751:Drivers/STM32U5xx_HAL_Driver/Src/stm32u5xx_hal_pwr_ex.c ****       CLEAR_BIT(PWR->PDCRD, GPIO_Pin);
2752:Drivers/STM32U5xx_HAL_Driver/Src/stm32u5xx_hal_pwr_ex.c ****       break;
2753:Drivers/STM32U5xx_HAL_Driver/Src/stm32u5xx_hal_pwr_ex.c **** 
2754:Drivers/STM32U5xx_HAL_Driver/Src/stm32u5xx_hal_pwr_ex.c ****     case PWR_GPIO_E: /* Disable Pull Down for GPIO port E */
2755:Drivers/STM32U5xx_HAL_Driver/Src/stm32u5xx_hal_pwr_ex.c ****       CLEAR_BIT(PWR->PDCRE, GPIO_Pin);
2756:Drivers/STM32U5xx_HAL_Driver/Src/stm32u5xx_hal_pwr_ex.c ****       break;
2757:Drivers/STM32U5xx_HAL_Driver/Src/stm32u5xx_hal_pwr_ex.c **** 
2758:Drivers/STM32U5xx_HAL_Driver/Src/stm32u5xx_hal_pwr_ex.c **** #ifdef PWR_PUCRF_PU0
2759:Drivers/STM32U5xx_HAL_Driver/Src/stm32u5xx_hal_pwr_ex.c ****     case PWR_GPIO_F: /* Disable Pull Down for GPIO port F */
2760:Drivers/STM32U5xx_HAL_Driver/Src/stm32u5xx_hal_pwr_ex.c ****       CLEAR_BIT(PWR->PDCRF, GPIO_Pin);
2761:Drivers/STM32U5xx_HAL_Driver/Src/stm32u5xx_hal_pwr_ex.c ****       break;
2762:Drivers/STM32U5xx_HAL_Driver/Src/stm32u5xx_hal_pwr_ex.c **** #endif /* PWR_PUCRF_PU0 */
2763:Drivers/STM32U5xx_HAL_Driver/Src/stm32u5xx_hal_pwr_ex.c **** 
2764:Drivers/STM32U5xx_HAL_Driver/Src/stm32u5xx_hal_pwr_ex.c ****     case PWR_GPIO_G: /* Disable Pull Down for GPIO port G */
2765:Drivers/STM32U5xx_HAL_Driver/Src/stm32u5xx_hal_pwr_ex.c ****       CLEAR_BIT(PWR->PDCRG, GPIO_Pin);
2766:Drivers/STM32U5xx_HAL_Driver/Src/stm32u5xx_hal_pwr_ex.c ****       break;
2767:Drivers/STM32U5xx_HAL_Driver/Src/stm32u5xx_hal_pwr_ex.c **** 
2768:Drivers/STM32U5xx_HAL_Driver/Src/stm32u5xx_hal_pwr_ex.c ****     case PWR_GPIO_H: /* Disable Pull Down for GPIO port H */
2769:Drivers/STM32U5xx_HAL_Driver/Src/stm32u5xx_hal_pwr_ex.c ****       CLEAR_BIT(PWR->PDCRH, GPIO_Pin);
2770:Drivers/STM32U5xx_HAL_Driver/Src/stm32u5xx_hal_pwr_ex.c ****       break;
2771:Drivers/STM32U5xx_HAL_Driver/Src/stm32u5xx_hal_pwr_ex.c **** 
2772:Drivers/STM32U5xx_HAL_Driver/Src/stm32u5xx_hal_pwr_ex.c **** #ifdef PWR_PUCRI_PU0
2773:Drivers/STM32U5xx_HAL_Driver/Src/stm32u5xx_hal_pwr_ex.c ****     case PWR_GPIO_I: /* Disable Pull Down for GPIO port I */
ARM GAS  C:\Users\Ya\AppData\Local\Temp\ccLrGXJ9.s 			page 117


2774:Drivers/STM32U5xx_HAL_Driver/Src/stm32u5xx_hal_pwr_ex.c ****       CLEAR_BIT(PWR->PDCRI, (GPIO_Pin & PWR_PORTI_AVAILABLE_PINS));
2775:Drivers/STM32U5xx_HAL_Driver/Src/stm32u5xx_hal_pwr_ex.c ****       break;
2776:Drivers/STM32U5xx_HAL_Driver/Src/stm32u5xx_hal_pwr_ex.c **** #endif /* PWR_PUCRI_PU0 */
2777:Drivers/STM32U5xx_HAL_Driver/Src/stm32u5xx_hal_pwr_ex.c **** 
2778:Drivers/STM32U5xx_HAL_Driver/Src/stm32u5xx_hal_pwr_ex.c **** #if defined (PWR_PUCRJ_PU0)
2779:Drivers/STM32U5xx_HAL_Driver/Src/stm32u5xx_hal_pwr_ex.c ****     case PWR_GPIO_J: /* Disable Pull Down for GPIO port J */
2780:Drivers/STM32U5xx_HAL_Driver/Src/stm32u5xx_hal_pwr_ex.c ****       CLEAR_BIT(PWR->PDCRJ, (GPIO_Pin & PWR_PORTJ_AVAILABLE_PINS));
2781:Drivers/STM32U5xx_HAL_Driver/Src/stm32u5xx_hal_pwr_ex.c ****       break;
2782:Drivers/STM32U5xx_HAL_Driver/Src/stm32u5xx_hal_pwr_ex.c **** #endif /* defined (PWR_PUCRJ_PU0) */
2783:Drivers/STM32U5xx_HAL_Driver/Src/stm32u5xx_hal_pwr_ex.c **** 
2784:Drivers/STM32U5xx_HAL_Driver/Src/stm32u5xx_hal_pwr_ex.c ****     default:
2785:Drivers/STM32U5xx_HAL_Driver/Src/stm32u5xx_hal_pwr_ex.c ****       return HAL_ERROR;
2786:Drivers/STM32U5xx_HAL_Driver/Src/stm32u5xx_hal_pwr_ex.c ****       break;
2787:Drivers/STM32U5xx_HAL_Driver/Src/stm32u5xx_hal_pwr_ex.c ****   }
2788:Drivers/STM32U5xx_HAL_Driver/Src/stm32u5xx_hal_pwr_ex.c **** 
2789:Drivers/STM32U5xx_HAL_Driver/Src/stm32u5xx_hal_pwr_ex.c ****   return HAL_OK;
 3568              		.loc 1 2789 10 is_stmt 0 view .LVU757
 3569 0020 0020     		movs	r0, #0
 3570              	.LVL191:
2740:Drivers/STM32U5xx_HAL_Driver/Src/stm32u5xx_hal_pwr_ex.c ****       break;
 3571              		.loc 1 2740 7 view .LVU758
 3572 0022 7047     		bx	lr
 3573              	.LVL192:
 3574              	.L343:
2743:Drivers/STM32U5xx_HAL_Driver/Src/stm32u5xx_hal_pwr_ex.c ****       break;
 3575              		.loc 1 2743 7 is_stmt 1 view .LVU759
 3576 0024 214A     		ldr	r2, .L346
 3577 0026 D36D     		ldr	r3, [r2, #92]
 3578 0028 21F01001 		bic	r1, r1, #16
 3579              	.LVL193:
2743:Drivers/STM32U5xx_HAL_Driver/Src/stm32u5xx_hal_pwr_ex.c ****       break;
 3580              		.loc 1 2743 7 is_stmt 0 view .LVU760
 3581 002c 23EA0101 		bic	r1, r3, r1
 3582 0030 D165     		str	r1, [r2, #92]
2744:Drivers/STM32U5xx_HAL_Driver/Src/stm32u5xx_hal_pwr_ex.c **** 
 3583              		.loc 1 2744 7 is_stmt 1 view .LVU761
 3584              		.loc 1 2789 10 is_stmt 0 view .LVU762
 3585 0032 0020     		movs	r0, #0
 3586              	.LVL194:
2744:Drivers/STM32U5xx_HAL_Driver/Src/stm32u5xx_hal_pwr_ex.c **** 
 3587              		.loc 1 2744 7 view .LVU763
 3588 0034 7047     		bx	lr
 3589              	.LVL195:
 3590              	.L342:
2747:Drivers/STM32U5xx_HAL_Driver/Src/stm32u5xx_hal_pwr_ex.c ****       break;
 3591              		.loc 1 2747 7 is_stmt 1 view .LVU764
 3592 0036 1D4A     		ldr	r2, .L346
 3593 0038 536E     		ldr	r3, [r2, #100]
 3594 003a 23EA0103 		bic	r3, r3, r1
 3595 003e 5366     		str	r3, [r2, #100]
2748:Drivers/STM32U5xx_HAL_Driver/Src/stm32u5xx_hal_pwr_ex.c **** 
 3596              		.loc 1 2748 7 view .LVU765
 3597              		.loc 1 2789 10 is_stmt 0 view .LVU766
 3598 0040 0020     		movs	r0, #0
 3599              	.LVL196:
2748:Drivers/STM32U5xx_HAL_Driver/Src/stm32u5xx_hal_pwr_ex.c **** 
 3600              		.loc 1 2748 7 view .LVU767
ARM GAS  C:\Users\Ya\AppData\Local\Temp\ccLrGXJ9.s 			page 118


 3601 0042 7047     		bx	lr
 3602              	.LVL197:
 3603              	.L341:
2751:Drivers/STM32U5xx_HAL_Driver/Src/stm32u5xx_hal_pwr_ex.c ****       break;
 3604              		.loc 1 2751 7 is_stmt 1 view .LVU768
 3605 0044 194A     		ldr	r2, .L346
 3606 0046 D36E     		ldr	r3, [r2, #108]
 3607 0048 23EA0103 		bic	r3, r3, r1
 3608 004c D366     		str	r3, [r2, #108]
2752:Drivers/STM32U5xx_HAL_Driver/Src/stm32u5xx_hal_pwr_ex.c **** 
 3609              		.loc 1 2752 7 view .LVU769
 3610              		.loc 1 2789 10 is_stmt 0 view .LVU770
 3611 004e 0020     		movs	r0, #0
 3612              	.LVL198:
2752:Drivers/STM32U5xx_HAL_Driver/Src/stm32u5xx_hal_pwr_ex.c **** 
 3613              		.loc 1 2752 7 view .LVU771
 3614 0050 7047     		bx	lr
 3615              	.LVL199:
 3616              	.L340:
2755:Drivers/STM32U5xx_HAL_Driver/Src/stm32u5xx_hal_pwr_ex.c ****       break;
 3617              		.loc 1 2755 7 is_stmt 1 view .LVU772
 3618 0052 164A     		ldr	r2, .L346
 3619 0054 536F     		ldr	r3, [r2, #116]
 3620 0056 23EA0103 		bic	r3, r3, r1
 3621 005a 5367     		str	r3, [r2, #116]
2756:Drivers/STM32U5xx_HAL_Driver/Src/stm32u5xx_hal_pwr_ex.c **** 
 3622              		.loc 1 2756 7 view .LVU773
 3623              		.loc 1 2789 10 is_stmt 0 view .LVU774
 3624 005c 0020     		movs	r0, #0
 3625              	.LVL200:
2756:Drivers/STM32U5xx_HAL_Driver/Src/stm32u5xx_hal_pwr_ex.c **** 
 3626              		.loc 1 2756 7 view .LVU775
 3627 005e 7047     		bx	lr
 3628              	.LVL201:
 3629              	.L339:
2760:Drivers/STM32U5xx_HAL_Driver/Src/stm32u5xx_hal_pwr_ex.c ****       break;
 3630              		.loc 1 2760 7 is_stmt 1 view .LVU776
 3631 0060 124A     		ldr	r2, .L346
 3632 0062 D36F     		ldr	r3, [r2, #124]
 3633 0064 23EA0103 		bic	r3, r3, r1
 3634 0068 D367     		str	r3, [r2, #124]
2761:Drivers/STM32U5xx_HAL_Driver/Src/stm32u5xx_hal_pwr_ex.c **** #endif /* PWR_PUCRF_PU0 */
 3635              		.loc 1 2761 7 view .LVU777
 3636              		.loc 1 2789 10 is_stmt 0 view .LVU778
 3637 006a 0020     		movs	r0, #0
 3638              	.LVL202:
2761:Drivers/STM32U5xx_HAL_Driver/Src/stm32u5xx_hal_pwr_ex.c **** #endif /* PWR_PUCRF_PU0 */
 3639              		.loc 1 2761 7 view .LVU779
 3640 006c 7047     		bx	lr
 3641              	.LVL203:
 3642              	.L338:
2765:Drivers/STM32U5xx_HAL_Driver/Src/stm32u5xx_hal_pwr_ex.c ****       break;
 3643              		.loc 1 2765 7 is_stmt 1 view .LVU780
 3644 006e 0F4A     		ldr	r2, .L346
 3645 0070 D2F88430 		ldr	r3, [r2, #132]
 3646 0074 23EA0103 		bic	r3, r3, r1
 3647 0078 C2F88430 		str	r3, [r2, #132]
ARM GAS  C:\Users\Ya\AppData\Local\Temp\ccLrGXJ9.s 			page 119


2766:Drivers/STM32U5xx_HAL_Driver/Src/stm32u5xx_hal_pwr_ex.c **** 
 3648              		.loc 1 2766 7 view .LVU781
 3649              		.loc 1 2789 10 is_stmt 0 view .LVU782
 3650 007c 0020     		movs	r0, #0
 3651              	.LVL204:
2766:Drivers/STM32U5xx_HAL_Driver/Src/stm32u5xx_hal_pwr_ex.c **** 
 3652              		.loc 1 2766 7 view .LVU783
 3653 007e 7047     		bx	lr
 3654              	.LVL205:
 3655              	.L337:
2769:Drivers/STM32U5xx_HAL_Driver/Src/stm32u5xx_hal_pwr_ex.c ****       break;
 3656              		.loc 1 2769 7 is_stmt 1 view .LVU784
 3657 0080 0A4A     		ldr	r2, .L346
 3658 0082 D2F88C30 		ldr	r3, [r2, #140]
 3659 0086 23EA0103 		bic	r3, r3, r1
 3660 008a C2F88C30 		str	r3, [r2, #140]
2770:Drivers/STM32U5xx_HAL_Driver/Src/stm32u5xx_hal_pwr_ex.c **** 
 3661              		.loc 1 2770 7 view .LVU785
 3662              		.loc 1 2789 10 is_stmt 0 view .LVU786
 3663 008e 0020     		movs	r0, #0
 3664              	.LVL206:
2770:Drivers/STM32U5xx_HAL_Driver/Src/stm32u5xx_hal_pwr_ex.c **** 
 3665              		.loc 1 2770 7 view .LVU787
 3666 0090 7047     		bx	lr
 3667              	.LVL207:
 3668              	.L335:
2774:Drivers/STM32U5xx_HAL_Driver/Src/stm32u5xx_hal_pwr_ex.c ****       break;
 3669              		.loc 1 2774 7 is_stmt 1 view .LVU788
 3670 0092 064A     		ldr	r2, .L346
 3671 0094 D2F89430 		ldr	r3, [r2, #148]
 3672 0098 C9B2     		uxtb	r1, r1
 3673              	.LVL208:
2774:Drivers/STM32U5xx_HAL_Driver/Src/stm32u5xx_hal_pwr_ex.c ****       break;
 3674              		.loc 1 2774 7 is_stmt 0 view .LVU789
 3675 009a 23EA0103 		bic	r3, r3, r1
 3676 009e C2F89430 		str	r3, [r2, #148]
2775:Drivers/STM32U5xx_HAL_Driver/Src/stm32u5xx_hal_pwr_ex.c **** #endif /* PWR_PUCRI_PU0 */
 3677              		.loc 1 2775 7 is_stmt 1 view .LVU790
 3678              		.loc 1 2789 10 is_stmt 0 view .LVU791
 3679 00a2 0020     		movs	r0, #0
 3680              	.LVL209:
2775:Drivers/STM32U5xx_HAL_Driver/Src/stm32u5xx_hal_pwr_ex.c **** #endif /* PWR_PUCRI_PU0 */
 3681              		.loc 1 2775 7 view .LVU792
 3682 00a4 7047     		bx	lr
 3683              	.LVL210:
 3684              	.L345:
2736:Drivers/STM32U5xx_HAL_Driver/Src/stm32u5xx_hal_pwr_ex.c ****   {
 3685              		.loc 1 2736 3 view .LVU793
 3686 00a6 0120     		movs	r0, #1
 3687              	.LVL211:
2790:Drivers/STM32U5xx_HAL_Driver/Src/stm32u5xx_hal_pwr_ex.c **** }
 3688              		.loc 1 2790 1 view .LVU794
 3689 00a8 7047     		bx	lr
 3690              	.L347:
 3691 00aa 00BF     		.align	2
 3692              	.L346:
 3693 00ac 00080246 		.word	1174538240
ARM GAS  C:\Users\Ya\AppData\Local\Temp\ccLrGXJ9.s 			page 120


 3694              		.cfi_endproc
 3695              	.LFE400:
 3697              		.text
 3698              	.Letext0:
 3699              		.file 2 "c:\\users\\ya\\appdata\\roaming\\code\\user\\globalstorage\\bmd.stm32-for-vscode\\@xpack-
 3700              		.file 3 "c:\\users\\ya\\appdata\\roaming\\code\\user\\globalstorage\\bmd.stm32-for-vscode\\@xpack-
 3701              		.file 4 "Drivers/CMSIS/Include/core_cm33.h"
 3702              		.file 5 "Drivers/CMSIS/Device/ST/STM32U5xx/Include/stm32u575xx.h"
 3703              		.file 6 "Drivers/STM32U5xx_HAL_Driver/Inc/stm32u5xx_hal_def.h"
 3704              		.file 7 "Drivers/STM32U5xx_HAL_Driver/Inc/stm32u5xx_hal_pwr_ex.h"
 3705              		.file 8 "Drivers/CMSIS/Device/ST/STM32U5xx/Include/system_stm32u5xx.h"
 3706              		.file 9 "Drivers/STM32U5xx_HAL_Driver/Inc/stm32u5xx_hal_pwr.h"
ARM GAS  C:\Users\Ya\AppData\Local\Temp\ccLrGXJ9.s 			page 121


DEFINED SYMBOLS
                            *ABS*:0000000000000000 stm32u5xx_hal_pwr_ex.c
C:\Users\Ya\AppData\Local\Temp\ccLrGXJ9.s:22     .text.HAL_PWREx_ControlVoltageScaling:0000000000000000 $t
C:\Users\Ya\AppData\Local\Temp\ccLrGXJ9.s:28     .text.HAL_PWREx_ControlVoltageScaling:0000000000000000 HAL_PWREx_ControlVoltageScaling
C:\Users\Ya\AppData\Local\Temp\ccLrGXJ9.s:178    .text.HAL_PWREx_ControlVoltageScaling:0000000000000094 $d
C:\Users\Ya\AppData\Local\Temp\ccLrGXJ9.s:185    .text.HAL_PWREx_GetVoltageRange:0000000000000000 $t
C:\Users\Ya\AppData\Local\Temp\ccLrGXJ9.s:191    .text.HAL_PWREx_GetVoltageRange:0000000000000000 HAL_PWREx_GetVoltageRange
C:\Users\Ya\AppData\Local\Temp\ccLrGXJ9.s:208    .text.HAL_PWREx_GetVoltageRange:000000000000000c $d
C:\Users\Ya\AppData\Local\Temp\ccLrGXJ9.s:213    .text.HAL_PWREx_ConfigSupply:0000000000000000 $t
C:\Users\Ya\AppData\Local\Temp\ccLrGXJ9.s:219    .text.HAL_PWREx_ConfigSupply:0000000000000000 HAL_PWREx_ConfigSupply
C:\Users\Ya\AppData\Local\Temp\ccLrGXJ9.s:317    .text.HAL_PWREx_ConfigSupply:0000000000000060 $d
C:\Users\Ya\AppData\Local\Temp\ccLrGXJ9.s:324    .text.HAL_PWREx_GetSupplyConfig:0000000000000000 $t
C:\Users\Ya\AppData\Local\Temp\ccLrGXJ9.s:330    .text.HAL_PWREx_GetSupplyConfig:0000000000000000 HAL_PWREx_GetSupplyConfig
C:\Users\Ya\AppData\Local\Temp\ccLrGXJ9.s:347    .text.HAL_PWREx_GetSupplyConfig:000000000000000c $d
C:\Users\Ya\AppData\Local\Temp\ccLrGXJ9.s:352    .text.HAL_PWREx_EnableFastSoftStart:0000000000000000 $t
C:\Users\Ya\AppData\Local\Temp\ccLrGXJ9.s:358    .text.HAL_PWREx_EnableFastSoftStart:0000000000000000 HAL_PWREx_EnableFastSoftStart
C:\Users\Ya\AppData\Local\Temp\ccLrGXJ9.s:375    .text.HAL_PWREx_EnableFastSoftStart:000000000000000c $d
C:\Users\Ya\AppData\Local\Temp\ccLrGXJ9.s:380    .text.HAL_PWREx_DisableFastSoftStart:0000000000000000 $t
C:\Users\Ya\AppData\Local\Temp\ccLrGXJ9.s:386    .text.HAL_PWREx_DisableFastSoftStart:0000000000000000 HAL_PWREx_DisableFastSoftStart
C:\Users\Ya\AppData\Local\Temp\ccLrGXJ9.s:403    .text.HAL_PWREx_DisableFastSoftStart:000000000000000c $d
C:\Users\Ya\AppData\Local\Temp\ccLrGXJ9.s:408    .text.HAL_PWREx_EnterSTOP1Mode:0000000000000000 $t
C:\Users\Ya\AppData\Local\Temp\ccLrGXJ9.s:414    .text.HAL_PWREx_EnterSTOP1Mode:0000000000000000 HAL_PWREx_EnterSTOP1Mode
C:\Users\Ya\AppData\Local\Temp\ccLrGXJ9.s:473    .text.HAL_PWREx_EnterSTOP1Mode:0000000000000034 $d
C:\Users\Ya\AppData\Local\Temp\ccLrGXJ9.s:479    .text.HAL_PWREx_EnterSTOP2Mode:0000000000000000 $t
C:\Users\Ya\AppData\Local\Temp\ccLrGXJ9.s:485    .text.HAL_PWREx_EnterSTOP2Mode:0000000000000000 HAL_PWREx_EnterSTOP2Mode
C:\Users\Ya\AppData\Local\Temp\ccLrGXJ9.s:544    .text.HAL_PWREx_EnterSTOP2Mode:0000000000000034 $d
C:\Users\Ya\AppData\Local\Temp\ccLrGXJ9.s:550    .text.HAL_PWREx_EnterSTOP3Mode:0000000000000000 $t
C:\Users\Ya\AppData\Local\Temp\ccLrGXJ9.s:556    .text.HAL_PWREx_EnterSTOP3Mode:0000000000000000 HAL_PWREx_EnterSTOP3Mode
C:\Users\Ya\AppData\Local\Temp\ccLrGXJ9.s:615    .text.HAL_PWREx_EnterSTOP3Mode:0000000000000034 $d
C:\Users\Ya\AppData\Local\Temp\ccLrGXJ9.s:621    .text.HAL_PWREx_EnterSHUTDOWNMode:0000000000000000 $t
C:\Users\Ya\AppData\Local\Temp\ccLrGXJ9.s:627    .text.HAL_PWREx_EnterSHUTDOWNMode:0000000000000000 HAL_PWREx_EnterSHUTDOWNMode
C:\Users\Ya\AppData\Local\Temp\ccLrGXJ9.s:657    .text.HAL_PWREx_EnterSHUTDOWNMode:000000000000001c $d
C:\Users\Ya\AppData\Local\Temp\ccLrGXJ9.s:663    .text.HAL_PWREx_ConfigSRDDomain:0000000000000000 $t
C:\Users\Ya\AppData\Local\Temp\ccLrGXJ9.s:669    .text.HAL_PWREx_ConfigSRDDomain:0000000000000000 HAL_PWREx_ConfigSRDDomain
C:\Users\Ya\AppData\Local\Temp\ccLrGXJ9.s:689    .text.HAL_PWREx_ConfigSRDDomain:0000000000000010 $d
C:\Users\Ya\AppData\Local\Temp\ccLrGXJ9.s:694    .text.HAL_PWREx_EnableUltraLowPowerMode:0000000000000000 $t
C:\Users\Ya\AppData\Local\Temp\ccLrGXJ9.s:700    .text.HAL_PWREx_EnableUltraLowPowerMode:0000000000000000 HAL_PWREx_EnableUltraLowPowerMode
C:\Users\Ya\AppData\Local\Temp\ccLrGXJ9.s:717    .text.HAL_PWREx_EnableUltraLowPowerMode:000000000000000c $d
C:\Users\Ya\AppData\Local\Temp\ccLrGXJ9.s:722    .text.HAL_PWREx_DisableUltraLowPowerMode:0000000000000000 $t
C:\Users\Ya\AppData\Local\Temp\ccLrGXJ9.s:728    .text.HAL_PWREx_DisableUltraLowPowerMode:0000000000000000 HAL_PWREx_DisableUltraLowPowerMode
C:\Users\Ya\AppData\Local\Temp\ccLrGXJ9.s:745    .text.HAL_PWREx_DisableUltraLowPowerMode:000000000000000c $d
C:\Users\Ya\AppData\Local\Temp\ccLrGXJ9.s:750    .text.HAL_PWREx_S3WUCallback:0000000000000000 $t
C:\Users\Ya\AppData\Local\Temp\ccLrGXJ9.s:756    .text.HAL_PWREx_S3WUCallback:0000000000000000 HAL_PWREx_S3WUCallback
C:\Users\Ya\AppData\Local\Temp\ccLrGXJ9.s:771    .text.HAL_PWREx_S3WU_IRQHandler:0000000000000000 $t
C:\Users\Ya\AppData\Local\Temp\ccLrGXJ9.s:777    .text.HAL_PWREx_S3WU_IRQHandler:0000000000000000 HAL_PWREx_S3WU_IRQHandler
C:\Users\Ya\AppData\Local\Temp\ccLrGXJ9.s:982    .text.HAL_PWREx_S3WU_IRQHandler:0000000000000114 $d
C:\Users\Ya\AppData\Local\Temp\ccLrGXJ9.s:987    .text.HAL_PWREx_ConfigPVM:0000000000000000 $t
C:\Users\Ya\AppData\Local\Temp\ccLrGXJ9.s:993    .text.HAL_PWREx_ConfigPVM:0000000000000000 HAL_PWREx_ConfigPVM
C:\Users\Ya\AppData\Local\Temp\ccLrGXJ9.s:1356   .text.HAL_PWREx_ConfigPVM:0000000000000240 $d
C:\Users\Ya\AppData\Local\Temp\ccLrGXJ9.s:1361   .text.HAL_PWREx_EnableVddUSB:0000000000000000 $t
C:\Users\Ya\AppData\Local\Temp\ccLrGXJ9.s:1367   .text.HAL_PWREx_EnableVddUSB:0000000000000000 HAL_PWREx_EnableVddUSB
C:\Users\Ya\AppData\Local\Temp\ccLrGXJ9.s:1384   .text.HAL_PWREx_EnableVddUSB:000000000000000c $d
C:\Users\Ya\AppData\Local\Temp\ccLrGXJ9.s:1389   .text.HAL_PWREx_DisableVddUSB:0000000000000000 $t
C:\Users\Ya\AppData\Local\Temp\ccLrGXJ9.s:1395   .text.HAL_PWREx_DisableVddUSB:0000000000000000 HAL_PWREx_DisableVddUSB
C:\Users\Ya\AppData\Local\Temp\ccLrGXJ9.s:1412   .text.HAL_PWREx_DisableVddUSB:000000000000000c $d
C:\Users\Ya\AppData\Local\Temp\ccLrGXJ9.s:1417   .text.HAL_PWREx_EnableVddIO2:0000000000000000 $t
C:\Users\Ya\AppData\Local\Temp\ccLrGXJ9.s:1423   .text.HAL_PWREx_EnableVddIO2:0000000000000000 HAL_PWREx_EnableVddIO2
ARM GAS  C:\Users\Ya\AppData\Local\Temp\ccLrGXJ9.s 			page 122


C:\Users\Ya\AppData\Local\Temp\ccLrGXJ9.s:1440   .text.HAL_PWREx_EnableVddIO2:000000000000000c $d
C:\Users\Ya\AppData\Local\Temp\ccLrGXJ9.s:1445   .text.HAL_PWREx_DisableVddIO2:0000000000000000 $t
C:\Users\Ya\AppData\Local\Temp\ccLrGXJ9.s:1451   .text.HAL_PWREx_DisableVddIO2:0000000000000000 HAL_PWREx_DisableVddIO2
C:\Users\Ya\AppData\Local\Temp\ccLrGXJ9.s:1468   .text.HAL_PWREx_DisableVddIO2:000000000000000c $d
C:\Users\Ya\AppData\Local\Temp\ccLrGXJ9.s:1473   .text.HAL_PWREx_EnableVddA:0000000000000000 $t
C:\Users\Ya\AppData\Local\Temp\ccLrGXJ9.s:1479   .text.HAL_PWREx_EnableVddA:0000000000000000 HAL_PWREx_EnableVddA
C:\Users\Ya\AppData\Local\Temp\ccLrGXJ9.s:1496   .text.HAL_PWREx_EnableVddA:000000000000000c $d
C:\Users\Ya\AppData\Local\Temp\ccLrGXJ9.s:1501   .text.HAL_PWREx_DisableVddA:0000000000000000 $t
C:\Users\Ya\AppData\Local\Temp\ccLrGXJ9.s:1507   .text.HAL_PWREx_DisableVddA:0000000000000000 HAL_PWREx_DisableVddA
C:\Users\Ya\AppData\Local\Temp\ccLrGXJ9.s:1524   .text.HAL_PWREx_DisableVddA:000000000000000c $d
C:\Users\Ya\AppData\Local\Temp\ccLrGXJ9.s:1529   .text.HAL_PWREx_EnableUVM:0000000000000000 $t
C:\Users\Ya\AppData\Local\Temp\ccLrGXJ9.s:1535   .text.HAL_PWREx_EnableUVM:0000000000000000 HAL_PWREx_EnableUVM
C:\Users\Ya\AppData\Local\Temp\ccLrGXJ9.s:1552   .text.HAL_PWREx_EnableUVM:000000000000000c $d
C:\Users\Ya\AppData\Local\Temp\ccLrGXJ9.s:1557   .text.HAL_PWREx_DisableUVM:0000000000000000 $t
C:\Users\Ya\AppData\Local\Temp\ccLrGXJ9.s:1563   .text.HAL_PWREx_DisableUVM:0000000000000000 HAL_PWREx_DisableUVM
C:\Users\Ya\AppData\Local\Temp\ccLrGXJ9.s:1580   .text.HAL_PWREx_DisableUVM:000000000000000c $d
C:\Users\Ya\AppData\Local\Temp\ccLrGXJ9.s:1585   .text.HAL_PWREx_EnableIO2VM:0000000000000000 $t
C:\Users\Ya\AppData\Local\Temp\ccLrGXJ9.s:1591   .text.HAL_PWREx_EnableIO2VM:0000000000000000 HAL_PWREx_EnableIO2VM
C:\Users\Ya\AppData\Local\Temp\ccLrGXJ9.s:1608   .text.HAL_PWREx_EnableIO2VM:000000000000000c $d
C:\Users\Ya\AppData\Local\Temp\ccLrGXJ9.s:1613   .text.HAL_PWREx_DisableIO2VM:0000000000000000 $t
C:\Users\Ya\AppData\Local\Temp\ccLrGXJ9.s:1619   .text.HAL_PWREx_DisableIO2VM:0000000000000000 HAL_PWREx_DisableIO2VM
C:\Users\Ya\AppData\Local\Temp\ccLrGXJ9.s:1636   .text.HAL_PWREx_DisableIO2VM:000000000000000c $d
C:\Users\Ya\AppData\Local\Temp\ccLrGXJ9.s:1641   .text.HAL_PWREx_EnableAVM1:0000000000000000 $t
C:\Users\Ya\AppData\Local\Temp\ccLrGXJ9.s:1647   .text.HAL_PWREx_EnableAVM1:0000000000000000 HAL_PWREx_EnableAVM1
C:\Users\Ya\AppData\Local\Temp\ccLrGXJ9.s:1664   .text.HAL_PWREx_EnableAVM1:000000000000000c $d
C:\Users\Ya\AppData\Local\Temp\ccLrGXJ9.s:1669   .text.HAL_PWREx_DisableAVM1:0000000000000000 $t
C:\Users\Ya\AppData\Local\Temp\ccLrGXJ9.s:1675   .text.HAL_PWREx_DisableAVM1:0000000000000000 HAL_PWREx_DisableAVM1
C:\Users\Ya\AppData\Local\Temp\ccLrGXJ9.s:1692   .text.HAL_PWREx_DisableAVM1:000000000000000c $d
C:\Users\Ya\AppData\Local\Temp\ccLrGXJ9.s:1697   .text.HAL_PWREx_EnableAVM2:0000000000000000 $t
C:\Users\Ya\AppData\Local\Temp\ccLrGXJ9.s:1703   .text.HAL_PWREx_EnableAVM2:0000000000000000 HAL_PWREx_EnableAVM2
C:\Users\Ya\AppData\Local\Temp\ccLrGXJ9.s:1720   .text.HAL_PWREx_EnableAVM2:000000000000000c $d
C:\Users\Ya\AppData\Local\Temp\ccLrGXJ9.s:1725   .text.HAL_PWREx_DisableAVM2:0000000000000000 $t
C:\Users\Ya\AppData\Local\Temp\ccLrGXJ9.s:1731   .text.HAL_PWREx_DisableAVM2:0000000000000000 HAL_PWREx_DisableAVM2
C:\Users\Ya\AppData\Local\Temp\ccLrGXJ9.s:1748   .text.HAL_PWREx_DisableAVM2:000000000000000c $d
C:\Users\Ya\AppData\Local\Temp\ccLrGXJ9.s:1753   .text.HAL_PWREx_EnableMonitoring:0000000000000000 $t
C:\Users\Ya\AppData\Local\Temp\ccLrGXJ9.s:1759   .text.HAL_PWREx_EnableMonitoring:0000000000000000 HAL_PWREx_EnableMonitoring
C:\Users\Ya\AppData\Local\Temp\ccLrGXJ9.s:1776   .text.HAL_PWREx_EnableMonitoring:000000000000000c $d
C:\Users\Ya\AppData\Local\Temp\ccLrGXJ9.s:1781   .text.HAL_PWREx_DisableMonitoring:0000000000000000 $t
C:\Users\Ya\AppData\Local\Temp\ccLrGXJ9.s:1787   .text.HAL_PWREx_DisableMonitoring:0000000000000000 HAL_PWREx_DisableMonitoring
C:\Users\Ya\AppData\Local\Temp\ccLrGXJ9.s:1804   .text.HAL_PWREx_DisableMonitoring:000000000000000c $d
C:\Users\Ya\AppData\Local\Temp\ccLrGXJ9.s:1809   .text.HAL_PWREx_EnableUCPDStandbyMode:0000000000000000 $t
C:\Users\Ya\AppData\Local\Temp\ccLrGXJ9.s:1815   .text.HAL_PWREx_EnableUCPDStandbyMode:0000000000000000 HAL_PWREx_EnableUCPDStandbyMode
C:\Users\Ya\AppData\Local\Temp\ccLrGXJ9.s:1832   .text.HAL_PWREx_EnableUCPDStandbyMode:000000000000000c $d
C:\Users\Ya\AppData\Local\Temp\ccLrGXJ9.s:1837   .text.HAL_PWREx_DisableUCPDStandbyMode:0000000000000000 $t
C:\Users\Ya\AppData\Local\Temp\ccLrGXJ9.s:1843   .text.HAL_PWREx_DisableUCPDStandbyMode:0000000000000000 HAL_PWREx_DisableUCPDStandbyMode
C:\Users\Ya\AppData\Local\Temp\ccLrGXJ9.s:1860   .text.HAL_PWREx_DisableUCPDStandbyMode:000000000000000c $d
C:\Users\Ya\AppData\Local\Temp\ccLrGXJ9.s:1865   .text.HAL_PWREx_EnableUCPDDeadBattery:0000000000000000 $t
C:\Users\Ya\AppData\Local\Temp\ccLrGXJ9.s:1871   .text.HAL_PWREx_EnableUCPDDeadBattery:0000000000000000 HAL_PWREx_EnableUCPDDeadBattery
C:\Users\Ya\AppData\Local\Temp\ccLrGXJ9.s:1888   .text.HAL_PWREx_EnableUCPDDeadBattery:000000000000000c $d
C:\Users\Ya\AppData\Local\Temp\ccLrGXJ9.s:1893   .text.HAL_PWREx_DisableUCPDDeadBattery:0000000000000000 $t
C:\Users\Ya\AppData\Local\Temp\ccLrGXJ9.s:1899   .text.HAL_PWREx_DisableUCPDDeadBattery:0000000000000000 HAL_PWREx_DisableUCPDDeadBattery
C:\Users\Ya\AppData\Local\Temp\ccLrGXJ9.s:1916   .text.HAL_PWREx_DisableUCPDDeadBattery:000000000000000c $d
C:\Users\Ya\AppData\Local\Temp\ccLrGXJ9.s:1921   .text.HAL_PWREx_EnableBatteryCharging:0000000000000000 $t
C:\Users\Ya\AppData\Local\Temp\ccLrGXJ9.s:1927   .text.HAL_PWREx_EnableBatteryCharging:0000000000000000 HAL_PWREx_EnableBatteryCharging
C:\Users\Ya\AppData\Local\Temp\ccLrGXJ9.s:1951   .text.HAL_PWREx_EnableBatteryCharging:0000000000000018 $d
C:\Users\Ya\AppData\Local\Temp\ccLrGXJ9.s:1956   .text.HAL_PWREx_DisableBatteryCharging:0000000000000000 $t
C:\Users\Ya\AppData\Local\Temp\ccLrGXJ9.s:1962   .text.HAL_PWREx_DisableBatteryCharging:0000000000000000 HAL_PWREx_DisableBatteryCharging
ARM GAS  C:\Users\Ya\AppData\Local\Temp\ccLrGXJ9.s 			page 123


C:\Users\Ya\AppData\Local\Temp\ccLrGXJ9.s:1979   .text.HAL_PWREx_DisableBatteryCharging:000000000000000c $d
C:\Users\Ya\AppData\Local\Temp\ccLrGXJ9.s:1984   .text.HAL_PWREx_UVMCallback:0000000000000000 $t
C:\Users\Ya\AppData\Local\Temp\ccLrGXJ9.s:1990   .text.HAL_PWREx_UVMCallback:0000000000000000 HAL_PWREx_UVMCallback
C:\Users\Ya\AppData\Local\Temp\ccLrGXJ9.s:2003   .text.HAL_PWREx_IO2VMCallback:0000000000000000 $t
C:\Users\Ya\AppData\Local\Temp\ccLrGXJ9.s:2009   .text.HAL_PWREx_IO2VMCallback:0000000000000000 HAL_PWREx_IO2VMCallback
C:\Users\Ya\AppData\Local\Temp\ccLrGXJ9.s:2022   .text.HAL_PWREx_AVM1Callback:0000000000000000 $t
C:\Users\Ya\AppData\Local\Temp\ccLrGXJ9.s:2028   .text.HAL_PWREx_AVM1Callback:0000000000000000 HAL_PWREx_AVM1Callback
C:\Users\Ya\AppData\Local\Temp\ccLrGXJ9.s:2041   .text.HAL_PWREx_AVM2Callback:0000000000000000 $t
C:\Users\Ya\AppData\Local\Temp\ccLrGXJ9.s:2047   .text.HAL_PWREx_AVM2Callback:0000000000000000 HAL_PWREx_AVM2Callback
C:\Users\Ya\AppData\Local\Temp\ccLrGXJ9.s:2060   .text.HAL_PWREx_PVD_PVM_IRQHandler:0000000000000000 $t
C:\Users\Ya\AppData\Local\Temp\ccLrGXJ9.s:2066   .text.HAL_PWREx_PVD_PVM_IRQHandler:0000000000000000 HAL_PWREx_PVD_PVM_IRQHandler
C:\Users\Ya\AppData\Local\Temp\ccLrGXJ9.s:2178   .text.HAL_PWREx_PVD_PVM_IRQHandler:000000000000007c $d
C:\Users\Ya\AppData\Local\Temp\ccLrGXJ9.s:2183   .text.HAL_PWREx_EnableSRAM2ContentStandbyRetention:0000000000000000 $t
C:\Users\Ya\AppData\Local\Temp\ccLrGXJ9.s:2189   .text.HAL_PWREx_EnableSRAM2ContentStandbyRetention:0000000000000000 HAL_PWREx_EnableSRAM2ContentStandbyRetention
C:\Users\Ya\AppData\Local\Temp\ccLrGXJ9.s:2208   .text.HAL_PWREx_EnableSRAM2ContentStandbyRetention:000000000000000c $d
C:\Users\Ya\AppData\Local\Temp\ccLrGXJ9.s:2213   .text.HAL_PWREx_DisableSRAM2ContentStandbyRetention:0000000000000000 $t
C:\Users\Ya\AppData\Local\Temp\ccLrGXJ9.s:2219   .text.HAL_PWREx_DisableSRAM2ContentStandbyRetention:0000000000000000 HAL_PWREx_DisableSRAM2ContentStandbyRetention
C:\Users\Ya\AppData\Local\Temp\ccLrGXJ9.s:2238   .text.HAL_PWREx_DisableSRAM2ContentStandbyRetention:000000000000000c $d
C:\Users\Ya\AppData\Local\Temp\ccLrGXJ9.s:2243   .text.HAL_PWREx_EnableRAMsContentStopRetention:0000000000000000 $t
C:\Users\Ya\AppData\Local\Temp\ccLrGXJ9.s:2249   .text.HAL_PWREx_EnableRAMsContentStopRetention:0000000000000000 HAL_PWREx_EnableRAMsContentStopRetention
C:\Users\Ya\AppData\Local\Temp\ccLrGXJ9.s:2438   .text.HAL_PWREx_EnableRAMsContentStopRetention:00000000000000e8 $d
C:\Users\Ya\AppData\Local\Temp\ccLrGXJ9.s:2443   .text.HAL_PWREx_DisableRAMsContentStopRetention:0000000000000000 $t
C:\Users\Ya\AppData\Local\Temp\ccLrGXJ9.s:2449   .text.HAL_PWREx_DisableRAMsContentStopRetention:0000000000000000 HAL_PWREx_DisableRAMsContentStopRetention
C:\Users\Ya\AppData\Local\Temp\ccLrGXJ9.s:2638   .text.HAL_PWREx_DisableRAMsContentStopRetention:00000000000000d8 $d
C:\Users\Ya\AppData\Local\Temp\ccLrGXJ9.s:2643   .text.HAL_PWREx_EnableRAMsContentRunRetention:0000000000000000 $t
C:\Users\Ya\AppData\Local\Temp\ccLrGXJ9.s:2649   .text.HAL_PWREx_EnableRAMsContentRunRetention:0000000000000000 HAL_PWREx_EnableRAMsContentRunRetention
C:\Users\Ya\AppData\Local\Temp\ccLrGXJ9.s:2668   .text.HAL_PWREx_EnableRAMsContentRunRetention:000000000000000c $d
C:\Users\Ya\AppData\Local\Temp\ccLrGXJ9.s:2673   .text.HAL_PWREx_DisableRAMsContentRunRetention:0000000000000000 $t
C:\Users\Ya\AppData\Local\Temp\ccLrGXJ9.s:2679   .text.HAL_PWREx_DisableRAMsContentRunRetention:0000000000000000 HAL_PWREx_DisableRAMsContentRunRetention
C:\Users\Ya\AppData\Local\Temp\ccLrGXJ9.s:2698   .text.HAL_PWREx_DisableRAMsContentRunRetention:000000000000000c $d
C:\Users\Ya\AppData\Local\Temp\ccLrGXJ9.s:2703   .text.HAL_PWREx_EnableBkupRAMRetention:0000000000000000 $t
C:\Users\Ya\AppData\Local\Temp\ccLrGXJ9.s:2709   .text.HAL_PWREx_EnableBkupRAMRetention:0000000000000000 HAL_PWREx_EnableBkupRAMRetention
C:\Users\Ya\AppData\Local\Temp\ccLrGXJ9.s:2741   .text.HAL_PWREx_EnableBkupRAMRetention:0000000000000018 $d
C:\Users\Ya\AppData\Local\Temp\ccLrGXJ9.s:2746   .text.HAL_PWREx_DisableBkupRAMRetention:0000000000000000 $t
C:\Users\Ya\AppData\Local\Temp\ccLrGXJ9.s:2752   .text.HAL_PWREx_DisableBkupRAMRetention:0000000000000000 HAL_PWREx_DisableBkupRAMRetention
C:\Users\Ya\AppData\Local\Temp\ccLrGXJ9.s:2769   .text.HAL_PWREx_DisableBkupRAMRetention:000000000000000c $d
C:\Users\Ya\AppData\Local\Temp\ccLrGXJ9.s:2774   .text.HAL_PWREx_EnableFlashFastWakeUp:0000000000000000 $t
C:\Users\Ya\AppData\Local\Temp\ccLrGXJ9.s:2780   .text.HAL_PWREx_EnableFlashFastWakeUp:0000000000000000 HAL_PWREx_EnableFlashFastWakeUp
C:\Users\Ya\AppData\Local\Temp\ccLrGXJ9.s:2797   .text.HAL_PWREx_EnableFlashFastWakeUp:000000000000000c $d
C:\Users\Ya\AppData\Local\Temp\ccLrGXJ9.s:2802   .text.HAL_PWREx_DisableFlashFastWakeUp:0000000000000000 $t
C:\Users\Ya\AppData\Local\Temp\ccLrGXJ9.s:2808   .text.HAL_PWREx_DisableFlashFastWakeUp:0000000000000000 HAL_PWREx_DisableFlashFastWakeUp
C:\Users\Ya\AppData\Local\Temp\ccLrGXJ9.s:2825   .text.HAL_PWREx_DisableFlashFastWakeUp:000000000000000c $d
C:\Users\Ya\AppData\Local\Temp\ccLrGXJ9.s:2830   .text.HAL_PWREx_EnableSRAM4FastWakeUp:0000000000000000 $t
C:\Users\Ya\AppData\Local\Temp\ccLrGXJ9.s:2836   .text.HAL_PWREx_EnableSRAM4FastWakeUp:0000000000000000 HAL_PWREx_EnableSRAM4FastWakeUp
C:\Users\Ya\AppData\Local\Temp\ccLrGXJ9.s:2853   .text.HAL_PWREx_EnableSRAM4FastWakeUp:000000000000000c $d
C:\Users\Ya\AppData\Local\Temp\ccLrGXJ9.s:2858   .text.HAL_PWREx_DisableSRAM4FastWakeUp:0000000000000000 $t
C:\Users\Ya\AppData\Local\Temp\ccLrGXJ9.s:2864   .text.HAL_PWREx_DisableSRAM4FastWakeUp:0000000000000000 HAL_PWREx_DisableSRAM4FastWakeUp
C:\Users\Ya\AppData\Local\Temp\ccLrGXJ9.s:2881   .text.HAL_PWREx_DisableSRAM4FastWakeUp:000000000000000c $d
C:\Users\Ya\AppData\Local\Temp\ccLrGXJ9.s:2886   .text.HAL_PWREx_EnablePullUpPullDownConfig:0000000000000000 $t
C:\Users\Ya\AppData\Local\Temp\ccLrGXJ9.s:2892   .text.HAL_PWREx_EnablePullUpPullDownConfig:0000000000000000 HAL_PWREx_EnablePullUpPullDownConfig
C:\Users\Ya\AppData\Local\Temp\ccLrGXJ9.s:2909   .text.HAL_PWREx_EnablePullUpPullDownConfig:000000000000000c $d
C:\Users\Ya\AppData\Local\Temp\ccLrGXJ9.s:2914   .text.HAL_PWREx_DisablePullUpPullDownConfig:0000000000000000 $t
C:\Users\Ya\AppData\Local\Temp\ccLrGXJ9.s:2920   .text.HAL_PWREx_DisablePullUpPullDownConfig:0000000000000000 HAL_PWREx_DisablePullUpPullDownConfig
C:\Users\Ya\AppData\Local\Temp\ccLrGXJ9.s:2937   .text.HAL_PWREx_DisablePullUpPullDownConfig:000000000000000c $d
C:\Users\Ya\AppData\Local\Temp\ccLrGXJ9.s:2942   .text.HAL_PWREx_EnableGPIOPullUp:0000000000000000 $t
C:\Users\Ya\AppData\Local\Temp\ccLrGXJ9.s:2948   .text.HAL_PWREx_EnableGPIOPullUp:0000000000000000 HAL_PWREx_EnableGPIOPullUp
C:\Users\Ya\AppData\Local\Temp\ccLrGXJ9.s:2963   .text.HAL_PWREx_EnableGPIOPullUp:0000000000000008 $d
ARM GAS  C:\Users\Ya\AppData\Local\Temp\ccLrGXJ9.s 			page 124


C:\Users\Ya\AppData\Local\Temp\ccLrGXJ9.s:3146   .text.HAL_PWREx_EnableGPIOPullUp:00000000000000f0 $d
C:\Users\Ya\AppData\Local\Temp\ccLrGXJ9.s:3151   .text.HAL_PWREx_DisableGPIOPullUp:0000000000000000 $t
C:\Users\Ya\AppData\Local\Temp\ccLrGXJ9.s:3157   .text.HAL_PWREx_DisableGPIOPullUp:0000000000000000 HAL_PWREx_DisableGPIOPullUp
C:\Users\Ya\AppData\Local\Temp\ccLrGXJ9.s:3172   .text.HAL_PWREx_DisableGPIOPullUp:0000000000000008 $d
C:\Users\Ya\AppData\Local\Temp\ccLrGXJ9.s:3314   .text.HAL_PWREx_DisableGPIOPullUp:00000000000000a8 $d
C:\Users\Ya\AppData\Local\Temp\ccLrGXJ9.s:3319   .text.HAL_PWREx_EnableGPIOPullDown:0000000000000000 $t
C:\Users\Ya\AppData\Local\Temp\ccLrGXJ9.s:3325   .text.HAL_PWREx_EnableGPIOPullDown:0000000000000000 HAL_PWREx_EnableGPIOPullDown
C:\Users\Ya\AppData\Local\Temp\ccLrGXJ9.s:3340   .text.HAL_PWREx_EnableGPIOPullDown:0000000000000008 $d
C:\Users\Ya\AppData\Local\Temp\ccLrGXJ9.s:3522   .text.HAL_PWREx_EnableGPIOPullDown:00000000000000f0 $d
C:\Users\Ya\AppData\Local\Temp\ccLrGXJ9.s:3527   .text.HAL_PWREx_DisableGPIOPullDown:0000000000000000 $t
C:\Users\Ya\AppData\Local\Temp\ccLrGXJ9.s:3533   .text.HAL_PWREx_DisableGPIOPullDown:0000000000000000 HAL_PWREx_DisableGPIOPullDown
C:\Users\Ya\AppData\Local\Temp\ccLrGXJ9.s:3548   .text.HAL_PWREx_DisableGPIOPullDown:0000000000000008 $d
C:\Users\Ya\AppData\Local\Temp\ccLrGXJ9.s:3693   .text.HAL_PWREx_DisableGPIOPullDown:00000000000000ac $d
C:\Users\Ya\AppData\Local\Temp\ccLrGXJ9.s:2972   .text.HAL_PWREx_EnableGPIOPullUp:0000000000000011 $d
C:\Users\Ya\AppData\Local\Temp\ccLrGXJ9.s:2972   .text.HAL_PWREx_EnableGPIOPullUp:0000000000000012 $t
C:\Users\Ya\AppData\Local\Temp\ccLrGXJ9.s:3181   .text.HAL_PWREx_DisableGPIOPullUp:0000000000000011 $d
C:\Users\Ya\AppData\Local\Temp\ccLrGXJ9.s:3181   .text.HAL_PWREx_DisableGPIOPullUp:0000000000000012 $t
C:\Users\Ya\AppData\Local\Temp\ccLrGXJ9.s:3349   .text.HAL_PWREx_EnableGPIOPullDown:0000000000000011 $d
C:\Users\Ya\AppData\Local\Temp\ccLrGXJ9.s:3349   .text.HAL_PWREx_EnableGPIOPullDown:0000000000000012 $t
C:\Users\Ya\AppData\Local\Temp\ccLrGXJ9.s:3557   .text.HAL_PWREx_DisableGPIOPullDown:0000000000000011 $d
C:\Users\Ya\AppData\Local\Temp\ccLrGXJ9.s:3557   .text.HAL_PWREx_DisableGPIOPullDown:0000000000000012 $t

UNDEFINED SYMBOLS
SystemCoreClock
HAL_PWR_PVDCallback
